
WaterSensors.elf:     file format elf32-avr

Sections:
Idx Name          Size      VMA       LMA       File off  Algn
  0 .data         000000da  00800100  00007844  000078f8  2**0
                  CONTENTS, ALLOC, LOAD, DATA
  1 .text         00007844  00000000  00000000  000000b4  2**1
                  CONTENTS, ALLOC, LOAD, READONLY, CODE
  2 .bss          00000458  008001da  008001da  000079d2  2**0
                  ALLOC
  3 .eeprom       00000006  00810000  00810000  000079d2  2**0
                  CONTENTS, ALLOC, LOAD, DATA
  4 .comment      0000005c  00000000  00000000  000079d8  2**0
                  CONTENTS, READONLY
  5 .note.gnu.avr.deviceinfo 00000040  00000000  00000000  00007a34  2**2
                  CONTENTS, READONLY
  6 .debug_aranges 00001108  00000000  00000000  00007a74  2**0
                  CONTENTS, READONLY, DEBUGGING
  7 .debug_info   0002b0ac  00000000  00000000  00008b7c  2**0
                  CONTENTS, READONLY, DEBUGGING
  8 .debug_abbrev 000053cc  00000000  00000000  00033c28  2**0
                  CONTENTS, READONLY, DEBUGGING
  9 .debug_line   0000bc7f  00000000  00000000  00038ff4  2**0
                  CONTENTS, READONLY, DEBUGGING
 10 .debug_frame  00003430  00000000  00000000  00044c74  2**2
                  CONTENTS, READONLY, DEBUGGING
 11 .debug_str    00013796  00000000  00000000  000480a4  2**0
                  CONTENTS, READONLY, DEBUGGING
 12 .debug_loc    00009eaf  00000000  00000000  0005b83a  2**0
                  CONTENTS, READONLY, DEBUGGING
 13 .debug_ranges 00001068  00000000  00000000  000656e9  2**0
                  CONTENTS, READONLY, DEBUGGING
 14 .debug_macro  000103a9  00000000  00000000  00066751  2**0
                  CONTENTS, READONLY, DEBUGGING

Disassembly of section .text:

00000000 <__vectors>:
       0:	67 c2       	rjmp	.+1230   	; 0x4d0 <__dtors_end>
       2:	00 00       	nop
       4:	8d c2       	rjmp	.+1306   	; 0x520 <__bad_interrupt>
       6:	00 00       	nop
       8:	8b c2       	rjmp	.+1302   	; 0x520 <__bad_interrupt>
       a:	00 00       	nop
       c:	13 c7       	rjmp	.+3622   	; 0xe34 <__vector_3>
       e:	00 00       	nop
      10:	11 c7       	rjmp	.+3618   	; 0xe34 <__vector_3>
      12:	00 00       	nop
      14:	0f c7       	rjmp	.+3614   	; 0xe34 <__vector_3>
      16:	00 00       	nop
      18:	83 c2       	rjmp	.+1286   	; 0x520 <__bad_interrupt>
      1a:	00 00       	nop
      1c:	81 c2       	rjmp	.+1282   	; 0x520 <__bad_interrupt>
      1e:	00 00       	nop
      20:	7f c2       	rjmp	.+1278   	; 0x520 <__bad_interrupt>
      22:	00 00       	nop
      24:	7d c2       	rjmp	.+1274   	; 0x520 <__bad_interrupt>
      26:	00 00       	nop
      28:	7b c2       	rjmp	.+1270   	; 0x520 <__bad_interrupt>
      2a:	00 00       	nop
      2c:	79 c2       	rjmp	.+1266   	; 0x520 <__bad_interrupt>
      2e:	00 00       	nop
      30:	77 c2       	rjmp	.+1262   	; 0x520 <__bad_interrupt>
      32:	00 00       	nop
      34:	75 c2       	rjmp	.+1258   	; 0x520 <__bad_interrupt>
      36:	00 00       	nop
      38:	73 c2       	rjmp	.+1254   	; 0x520 <__bad_interrupt>
      3a:	00 00       	nop
      3c:	71 c2       	rjmp	.+1250   	; 0x520 <__bad_interrupt>
      3e:	00 00       	nop
      40:	0c 94 e8 2f 	jmp	0x5fd0	; 0x5fd0 <__vector_16>
      44:	6d c2       	rjmp	.+1242   	; 0x520 <__bad_interrupt>
      46:	00 00       	nop
      48:	0c 94 01 2d 	jmp	0x5a02	; 0x5a02 <__vector_18>
      4c:	0c 94 33 2d 	jmp	0x5a66	; 0x5a66 <__vector_19>
      50:	67 c2       	rjmp	.+1230   	; 0x520 <__bad_interrupt>
      52:	00 00       	nop
      54:	65 c2       	rjmp	.+1226   	; 0x520 <__bad_interrupt>
      56:	00 00       	nop
      58:	63 c2       	rjmp	.+1222   	; 0x520 <__bad_interrupt>
      5a:	00 00       	nop
      5c:	61 c2       	rjmp	.+1218   	; 0x520 <__bad_interrupt>
      5e:	00 00       	nop
      60:	43 c3       	rjmp	.+1670   	; 0x6e8 <__vector_24>
      62:	00 00       	nop
      64:	5d c2       	rjmp	.+1210   	; 0x520 <__bad_interrupt>
      66:	00 00       	nop
      68:	a1 04       	cpc	r10, r1
      6a:	a5 04       	cpc	r10, r5
      6c:	a5 04       	cpc	r10, r5
      6e:	a5 04       	cpc	r10, r5
      70:	a5 04       	cpc	r10, r5
      72:	a5 04       	cpc	r10, r5
      74:	a5 04       	cpc	r10, r5
      76:	a5 04       	cpc	r10, r5
      78:	a5 03       	fmuls	r18, r21
      7a:	a5 04       	cpc	r10, r5
      7c:	a5 04       	cpc	r10, r5
      7e:	a5 04       	cpc	r10, r5
      80:	a5 04       	cpc	r10, r5
      82:	a5 04       	cpc	r10, r5
      84:	a5 04       	cpc	r10, r5
      86:	a5 04       	cpc	r10, r5
      88:	a5 03       	fmuls	r18, r21
      8a:	a5 04       	cpc	r10, r5
      8c:	a5 04       	cpc	r10, r5
      8e:	a5 04       	cpc	r10, r5
      90:	a5 04       	cpc	r10, r5
      92:	a5 04       	cpc	r10, r5
      94:	a5 04       	cpc	r10, r5
      96:	a5 04       	cpc	r10, r5
      98:	ae 03       	fmulsu	r18, r22
      9a:	a5 04       	cpc	r10, r5
      9c:	a5 04       	cpc	r10, r5
      9e:	a5 04       	cpc	r10, r5
      a0:	a5 04       	cpc	r10, r5
      a2:	a5 04       	cpc	r10, r5
      a4:	a5 04       	cpc	r10, r5
      a6:	a5 04       	cpc	r10, r5
      a8:	d9 03       	fmulsu	r21, r17
      aa:	a5 04       	cpc	r10, r5
      ac:	a5 04       	cpc	r10, r5
      ae:	a5 04       	cpc	r10, r5
      b0:	a5 04       	cpc	r10, r5
      b2:	a5 04       	cpc	r10, r5
      b4:	a5 04       	cpc	r10, r5
      b6:	a5 04       	cpc	r10, r5
      b8:	ae 03       	fmulsu	r18, r22
      ba:	a5 04       	cpc	r10, r5
      bc:	a5 04       	cpc	r10, r5
      be:	a5 04       	cpc	r10, r5
      c0:	a5 04       	cpc	r10, r5
      c2:	a5 04       	cpc	r10, r5
      c4:	a5 04       	cpc	r10, r5
      c6:	a5 04       	cpc	r10, r5
      c8:	de 03       	fmulsu	r21, r22
      ca:	a5 04       	cpc	r10, r5
      cc:	a5 04       	cpc	r10, r5
      ce:	a5 04       	cpc	r10, r5
      d0:	a5 04       	cpc	r10, r5
      d2:	a5 04       	cpc	r10, r5
      d4:	a5 04       	cpc	r10, r5
      d6:	a5 04       	cpc	r10, r5
      d8:	e3 03       	fmuls	r22, r19
      da:	a5 04       	cpc	r10, r5
      dc:	a5 04       	cpc	r10, r5
      de:	a5 04       	cpc	r10, r5
      e0:	a5 04       	cpc	r10, r5
      e2:	a5 04       	cpc	r10, r5
      e4:	a5 04       	cpc	r10, r5
      e6:	a5 04       	cpc	r10, r5
      e8:	f8 03       	fmulsu	r23, r16
      ea:	a5 04       	cpc	r10, r5
      ec:	a5 04       	cpc	r10, r5
      ee:	a5 04       	cpc	r10, r5
      f0:	a5 04       	cpc	r10, r5
      f2:	a5 04       	cpc	r10, r5
      f4:	a5 04       	cpc	r10, r5
      f6:	a5 04       	cpc	r10, r5
      f8:	25 04       	cpc	r2, r5
      fa:	a5 04       	cpc	r10, r5
      fc:	a5 04       	cpc	r10, r5
      fe:	a5 04       	cpc	r10, r5
     100:	a5 04       	cpc	r10, r5
     102:	a5 04       	cpc	r10, r5
     104:	a5 04       	cpc	r10, r5
     106:	a5 04       	cpc	r10, r5
     108:	e8 03       	fmulsu	r22, r16
     10a:	a5 04       	cpc	r10, r5
     10c:	a5 04       	cpc	r10, r5
     10e:	a5 04       	cpc	r10, r5
     110:	a5 04       	cpc	r10, r5
     112:	a5 04       	cpc	r10, r5
     114:	a5 04       	cpc	r10, r5
     116:	a5 04       	cpc	r10, r5
     118:	04 04       	cpc	r0, r4
     11a:	a5 04       	cpc	r10, r5
     11c:	a5 04       	cpc	r10, r5
     11e:	a5 04       	cpc	r10, r5
     120:	a5 04       	cpc	r10, r5
     122:	a5 04       	cpc	r10, r5
     124:	a5 04       	cpc	r10, r5
     126:	a5 04       	cpc	r10, r5
     128:	27 04       	cpc	r2, r7
     12a:	a5 04       	cpc	r10, r5
     12c:	a5 04       	cpc	r10, r5
     12e:	a5 04       	cpc	r10, r5
     130:	a5 04       	cpc	r10, r5
     132:	a5 04       	cpc	r10, r5
     134:	a5 04       	cpc	r10, r5
     136:	a5 04       	cpc	r10, r5
     138:	27 04       	cpc	r2, r7
     13a:	a5 04       	cpc	r10, r5
     13c:	a5 04       	cpc	r10, r5
     13e:	a5 04       	cpc	r10, r5
     140:	a5 04       	cpc	r10, r5
     142:	a5 04       	cpc	r10, r5
     144:	a5 04       	cpc	r10, r5
     146:	a5 04       	cpc	r10, r5
     148:	27 04       	cpc	r2, r7
     14a:	a5 04       	cpc	r10, r5
     14c:	a5 04       	cpc	r10, r5
     14e:	a5 04       	cpc	r10, r5
     150:	a5 04       	cpc	r10, r5
     152:	a5 04       	cpc	r10, r5
     154:	a5 04       	cpc	r10, r5
     156:	a5 04       	cpc	r10, r5
     158:	27 04       	cpc	r2, r7
     15a:	a5 04       	cpc	r10, r5
     15c:	a5 04       	cpc	r10, r5
     15e:	a5 04       	cpc	r10, r5
     160:	a5 04       	cpc	r10, r5
     162:	a5 04       	cpc	r10, r5
     164:	a5 04       	cpc	r10, r5
     166:	a5 04       	cpc	r10, r5
     168:	2f 04       	cpc	r2, r15
     16a:	a5 04       	cpc	r10, r5
     16c:	a5 04       	cpc	r10, r5
     16e:	a5 04       	cpc	r10, r5
     170:	a5 04       	cpc	r10, r5
     172:	a5 04       	cpc	r10, r5
     174:	a5 04       	cpc	r10, r5
     176:	a5 04       	cpc	r10, r5
     178:	67 04       	cpc	r6, r7
     17a:	a5 04       	cpc	r10, r5
     17c:	a5 04       	cpc	r10, r5
     17e:	a5 04       	cpc	r10, r5
     180:	a5 04       	cpc	r10, r5
     182:	a5 04       	cpc	r10, r5
     184:	a5 04       	cpc	r10, r5
     186:	a5 04       	cpc	r10, r5
     188:	2f 04       	cpc	r2, r15
     18a:	a5 04       	cpc	r10, r5
     18c:	a5 04       	cpc	r10, r5
     18e:	a5 04       	cpc	r10, r5
     190:	a5 04       	cpc	r10, r5
     192:	a5 04       	cpc	r10, r5
     194:	a5 04       	cpc	r10, r5
     196:	a5 04       	cpc	r10, r5
     198:	67 04       	cpc	r6, r7
     19a:	a5 04       	cpc	r10, r5
     19c:	a5 04       	cpc	r10, r5
     19e:	a5 04       	cpc	r10, r5
     1a0:	a5 04       	cpc	r10, r5
     1a2:	a5 04       	cpc	r10, r5
     1a4:	a5 04       	cpc	r10, r5
     1a6:	a5 04       	cpc	r10, r5
     1a8:	49 04       	cpc	r4, r9
     1aa:	a5 04       	cpc	r10, r5
     1ac:	a5 04       	cpc	r10, r5
     1ae:	a5 04       	cpc	r10, r5
     1b0:	a5 04       	cpc	r10, r5
     1b2:	a5 04       	cpc	r10, r5
     1b4:	a5 04       	cpc	r10, r5
     1b6:	a5 04       	cpc	r10, r5
     1b8:	6a 04       	cpc	r6, r10
     1ba:	a5 04       	cpc	r10, r5
     1bc:	a5 04       	cpc	r10, r5
     1be:	a5 04       	cpc	r10, r5
     1c0:	a5 04       	cpc	r10, r5
     1c2:	a5 04       	cpc	r10, r5
     1c4:	a5 04       	cpc	r10, r5
     1c6:	a5 04       	cpc	r10, r5
     1c8:	6a 04       	cpc	r6, r10
     1ca:	a5 04       	cpc	r10, r5
     1cc:	a5 04       	cpc	r10, r5
     1ce:	a5 04       	cpc	r10, r5
     1d0:	a5 04       	cpc	r10, r5
     1d2:	a5 04       	cpc	r10, r5
     1d4:	a5 04       	cpc	r10, r5
     1d6:	a5 04       	cpc	r10, r5
     1d8:	80 04       	cpc	r8, r0
     1da:	a5 04       	cpc	r10, r5
     1dc:	a5 04       	cpc	r10, r5
     1de:	a5 04       	cpc	r10, r5
     1e0:	a5 04       	cpc	r10, r5
     1e2:	a5 04       	cpc	r10, r5
     1e4:	a5 04       	cpc	r10, r5
     1e6:	a5 04       	cpc	r10, r5
     1e8:	9c 04       	cpc	r9, r12
     1ea:	a5 04       	cpc	r10, r5
     1ec:	a5 04       	cpc	r10, r5
     1ee:	a5 04       	cpc	r10, r5
     1f0:	a5 04       	cpc	r10, r5
     1f2:	a5 04       	cpc	r10, r5
     1f4:	a5 04       	cpc	r10, r5
     1f6:	a5 04       	cpc	r10, r5
     1f8:	9c 04       	cpc	r9, r12
     1fa:	a5 04       	cpc	r10, r5
     1fc:	a5 04       	cpc	r10, r5
     1fe:	a5 04       	cpc	r10, r5
     200:	a5 04       	cpc	r10, r5
     202:	a5 04       	cpc	r10, r5
     204:	a5 04       	cpc	r10, r5
     206:	a5 04       	cpc	r10, r5
     208:	a5 04       	cpc	r10, r5
     20a:	a5 04       	cpc	r10, r5
     20c:	a5 04       	cpc	r10, r5
     20e:	a5 04       	cpc	r10, r5
     210:	a5 04       	cpc	r10, r5
     212:	a5 04       	cpc	r10, r5
     214:	a5 04       	cpc	r10, r5
     216:	a5 04       	cpc	r10, r5
     218:	a5 04       	cpc	r10, r5
     21a:	a5 04       	cpc	r10, r5
     21c:	a5 04       	cpc	r10, r5
     21e:	a5 04       	cpc	r10, r5
     220:	a5 04       	cpc	r10, r5
     222:	a5 04       	cpc	r10, r5
     224:	a5 04       	cpc	r10, r5
     226:	a5 04       	cpc	r10, r5
     228:	a5 04       	cpc	r10, r5
     22a:	a5 04       	cpc	r10, r5
     22c:	a5 04       	cpc	r10, r5
     22e:	a5 04       	cpc	r10, r5
     230:	a5 04       	cpc	r10, r5
     232:	a5 04       	cpc	r10, r5
     234:	a5 04       	cpc	r10, r5
     236:	a5 04       	cpc	r10, r5
     238:	a5 04       	cpc	r10, r5
     23a:	a5 04       	cpc	r10, r5
     23c:	a5 04       	cpc	r10, r5
     23e:	a5 04       	cpc	r10, r5
     240:	a5 04       	cpc	r10, r5
     242:	a5 04       	cpc	r10, r5
     244:	a5 04       	cpc	r10, r5
     246:	a5 04       	cpc	r10, r5
     248:	a5 04       	cpc	r10, r5
     24a:	a5 04       	cpc	r10, r5
     24c:	a5 04       	cpc	r10, r5
     24e:	a5 04       	cpc	r10, r5
     250:	a5 04       	cpc	r10, r5
     252:	a5 04       	cpc	r10, r5
     254:	a5 04       	cpc	r10, r5
     256:	a5 04       	cpc	r10, r5
     258:	a5 04       	cpc	r10, r5

0000025a <__trampolines_end>:
     25a:	4e 41       	sbci	r20, 0x1E	; 30
     25c:	4e 49       	Address 0x0000025c is out of bounds.
.word	0xffff	; ????

0000025d <pstr_inity>:
     25d:	49 4e 49 54 59                                      INITY

00000262 <pstr_inf>:
     262:	49 4e 46                                            INF

00000265 <pwr_m10>:
     265:	cd cc cc 3d 0a d7 23 3c 17 b7 d1 38 77 cc 2b 32     ...=..#<...8w.+2
     275:	95 95 e6 24 1f b1 4f 0a                             ...$..O.

0000027d <pwr_p10>:
     27d:	00 00 20 41 00 00 c8 42 00 40 1c 46 20 bc be 4c     .. A...B.@.F ..L
     28d:	ca 1b 0e 5a ae c5 9d 74 00 40 7a 10 f3 5a 00 a0     ...Z...t.@z..Z..
     29d:	72 4e 18 09 00 10 a5 d4 e8 00 00 e8 76 48 17 00     rN..........vH..
     2ad:	00 e4 0b 54 02 00 00 ca 9a 3b 00 00 00 e1 f5 05     ...T.....;......
     2bd:	00 00 80 96 98 00 00 00 40 42 0f 00 00 00 a0 86     ........@B......
     2cd:	01 00 00 00 10 27 00 00 00 00 e8 03 00 00 00 00     .....'..........
     2dd:	64 00 00 00 00 00 0a 00 00 00 00 00 01 00 00 00     d...............
     2ed:	00 00 2c 76 d8 88 dc 67 4f 08 23 df c1 df ae 59     ..,v...gO.#....Y
     2fd:	e1 b1 b7 96 e5 e3 e4 53 c6 3a e6 51 99 76 96 e8     .......S.:.Q.v..
     30d:	e6 c2 84 26 eb 89 8c 9b 62 ed 40 7c 6f fc ef bc     ...&....b.@|o...
     31d:	9c 9f 40 f2 ba a5 6f a5 f4 90 05 5a 2a f7 5c 93     ..@...o....Z*.\.
     32d:	6b 6c f9 67 6d c1 1b fc e0 e4 0d 47 fe f5 20 e6     kl.gm......G.. .
     33d:	b5 00 d0 ed 90 2e 03 00 94 35 77 05 00 80 84 1e     .........5w.....
     34d:	08 00 00 20 4e 0a 00 00 00 c8 0c 33 33 33 33 0f     ... N......3333.
     35d:	98 6e 12 83 11 41 ef 8d 21 14 89 3b e6 55 16 cf     .n...A..!..;.U..
     36d:	fe e6 db 18 d1 84 4b 38 1b f7 7c 1d 90 1d a4 bb     ......K8..|.....
     37d:	e4 24 20 32 84 72 5e 22 81 00 c9 f1 24 ec a1 e5     .$ 2.r^"....$...
     38d:	3d 27                                               ='

0000038f <_ZZN7LCDBase9ClearLineEsE3__c>:
     38f:	20 20 20 20 20 20 20 20 20 20 20 20 20 20 20 20                     
	...

000003a0 <_ZZN7MathExt16CalculateAverageEPiiE3__c>:
     3a0:	45 72 72 6f 72 20 6e 75 6d 62 65 72 20 66 6f 72     Error number for
     3b0:	20 74 68 65 20 61 72 72 61 79 20 74 6f 20 61 76      the array to av
     3c0:	72 61 67 69 6e 67 21 2f 6e 00                       raging!/n.

000003ca <_ZZN8PHSensor11CalculatePHEvE3__c>:
     3ca:	41 64 64 69 6e 67 20 70 68 56 61 6c 3a 20 00        Adding phVal: .

000003d9 <_ZZN8PHSensor11CalculatePHEvE3__c_0>:
     3d9:	53 65 74 74 69 6e 67 20 70 68 56 61 6c 3a 20 00     Setting phVal: .

000003e9 <_ZZN8PHSensor10getPHValueEvE3__c>:
     3e9:	50 48 20 52 61 77 20 52 65 61 64 69 6e 67 3a 20     PH Raw Reading: 
	...

000003fa <_ZZN15WaterSensorWire5SetupEvE3__c>:
     3fa:	5f 73 6c 61 76 65 3a 20 00                          _slave: .

00000403 <_ZZN15WaterSensorWire7ReceiveEiE3__c>:
     403:	63 6d 64 3a 20 00                                   cmd: .

00000409 <_ZZN15WaterSensorWire7ReceiveEiE3__c_0>:
     409:	63 6d 64 44 61 74 61 3a 20 00                       cmdData: .

00000413 <_ZZN15WaterSensorWire7ReceiveEiE3__c_1>:
     413:	55 6e 65 78 70 65 63 74 65 64 20 6e 75 6d 62 65     Unexpected numbe
     423:	72 20 6f 66 20 62 79 74 65 73 20 72 65 63 65 69     r of bytes recei
     433:	76 65 64 3a 20 00                                   ved: .

00000439 <_ZZN15WaterSensorWire7RequestEvE3__c>:
     439:	7e 72 65 73 70 6f 6e 73 65 49 6e 64 65 78 20 6e     ~responseIndex n
     449:	6f 74 20 66 6f 75 6e 64 3a 20 00                    ot found: .

00000454 <_ZZ11AsyncDoWorkvE3__c>:
     454:	5b 53 65 6c 65 6c 63 74 5d 20 50 72 65 73 73 65     [Selelct] Presse
     464:	64 00                                               d.

00000466 <digital_pin_to_timer_PGM>:
     466:	00 00 00 08 00 02 01 00 00 03 04 07 00 00 00 00     ................
     476:	00 00 00 00                                         ....

0000047a <digital_pin_to_bit_mask_PGM>:
     47a:	01 02 04 08 10 20 40 80 01 02 04 08 10 20 01 02     ..... @...... ..
     48a:	04 08 10 20                                         ... 

0000048e <digital_pin_to_port_PGM>:
     48e:	04 04 04 04 04 04 04 04 02 02 02 02 02 02 03 03     ................
     49e:	03 03 03 03                                         ....

000004a2 <port_to_input_PGM>:
     4a2:	00 00 00 00 23 00 26 00 29 00                       ....#.&.).

000004ac <port_to_output_PGM>:
     4ac:	00 00 00 00 25 00 28 00 2b 00                       ....%.(.+.

000004b6 <port_to_mode_PGM>:
     4b6:	00 00 00 00 24 00 27 00 2a 00                       ....$.'.*.

000004c0 <__ctors_start>:
     4c0:	d2 06       	cpc	r13, r18
     4c2:	ed 0b       	sbc	r30, r29
     4c4:	7a 27       	eor	r23, r26
     4c6:	68 28       	or	r6, r8
     4c8:	ac 29       	or	r26, r12
     4ca:	61 2d       	mov	r22, r1

000004cc <__ctors_end>:
     4cc:	88 27       	eor	r24, r24
     4ce:	76 28       	or	r7, r6

000004d0 <__dtors_end>:
     4d0:	11 24       	eor	r1, r1
     4d2:	1f be       	out	0x3f, r1	; 63
     4d4:	cf ef       	ldi	r28, 0xFF	; 255
     4d6:	d8 e0       	ldi	r29, 0x08	; 8
     4d8:	de bf       	out	0x3e, r29	; 62
     4da:	cd bf       	out	0x3d, r28	; 61

000004dc <__do_copy_data>:
     4dc:	11 e0       	ldi	r17, 0x01	; 1
     4de:	a0 e0       	ldi	r26, 0x00	; 0
     4e0:	b1 e0       	ldi	r27, 0x01	; 1
     4e2:	e4 e4       	ldi	r30, 0x44	; 68
     4e4:	f8 e7       	ldi	r31, 0x78	; 120
     4e6:	02 c0       	rjmp	.+4      	; 0x4ec <__do_copy_data+0x10>
     4e8:	05 90       	lpm	r0, Z+
     4ea:	0d 92       	st	X+, r0
     4ec:	aa 3d       	cpi	r26, 0xDA	; 218
     4ee:	b1 07       	cpc	r27, r17
     4f0:	d9 f7       	brne	.-10     	; 0x4e8 <__do_copy_data+0xc>

000004f2 <__do_clear_bss>:
     4f2:	26 e0       	ldi	r18, 0x06	; 6
     4f4:	aa ed       	ldi	r26, 0xDA	; 218
     4f6:	b1 e0       	ldi	r27, 0x01	; 1
     4f8:	01 c0       	rjmp	.+2      	; 0x4fc <.do_clear_bss_start>

000004fa <.do_clear_bss_loop>:
     4fa:	1d 92       	st	X+, r1

000004fc <.do_clear_bss_start>:
     4fc:	a2 33       	cpi	r26, 0x32	; 50
     4fe:	b2 07       	cpc	r27, r18
     500:	e1 f7       	brne	.-8      	; 0x4fa <.do_clear_bss_loop>

00000502 <__do_global_ctors>:
     502:	12 e0       	ldi	r17, 0x02	; 2
     504:	c6 e6       	ldi	r28, 0x66	; 102
     506:	d2 e0       	ldi	r29, 0x02	; 2
     508:	04 c0       	rjmp	.+8      	; 0x512 <__do_global_ctors+0x10>
     50a:	21 97       	sbiw	r28, 0x01	; 1
     50c:	fe 01       	movw	r30, r28
     50e:	0e 94 de 34 	call	0x69bc	; 0x69bc <__tablejump2__>
     512:	c0 36       	cpi	r28, 0x60	; 96
     514:	d1 07       	cpc	r29, r17
     516:	c9 f7       	brne	.-14     	; 0x50a <__do_global_ctors+0x8>
     518:	0e 94 8f 2d 	call	0x5b1e	; 0x5b1e <main>
     51c:	0c 94 16 3c 	jmp	0x782c	; 0x782c <__do_global_dtors>

00000520 <__bad_interrupt>:
     520:	6f cd       	rjmp	.-1314   	; 0x0 <__vectors>

00000522 <twi_init>:
    return 2;	// error: address send, nack received
  else if (twi_error == TW_MT_DATA_NACK)
    return 3;	// error: data send, nack received
  else
    return 4;	// other twi error
}
     522:	a0 e0       	ldi	r26, 0x00	; 0
     524:	b0 e0       	ldi	r27, 0x00	; 0
     526:	e7 e9       	ldi	r30, 0x97	; 151
     528:	f2 e0       	ldi	r31, 0x02	; 2
     52a:	0c 94 fe 34 	jmp	0x69fc	; 0x69fc <__prologue_saves__+0x20>
     52e:	10 92 da 01 	sts	0x01DA, r1	; 0x8001da <__data_end>
     532:	81 e0       	ldi	r24, 0x01	; 1
     534:	80 93 dc 01 	sts	0x01DC, r24	; 0x8001dc <twi_sendStop>
     538:	10 92 dd 01 	sts	0x01DD, r1	; 0x8001dd <twi_inRepStart>
     53c:	82 e1       	ldi	r24, 0x12	; 18
     53e:	61 e0       	ldi	r22, 0x01	; 1
     540:	0e 94 64 31 	call	0x62c8	; 0x62c8 <digitalWrite>
     544:	83 e1       	ldi	r24, 0x13	; 19
     546:	61 e0       	ldi	r22, 0x01	; 1
     548:	0e 94 64 31 	call	0x62c8	; 0x62c8 <digitalWrite>
     54c:	89 eb       	ldi	r24, 0xB9	; 185
     54e:	90 e0       	ldi	r25, 0x00	; 0
     550:	29 eb       	ldi	r18, 0xB9	; 185
     552:	30 e0       	ldi	r19, 0x00	; 0
     554:	f9 01       	movw	r30, r18
     556:	20 81       	ld	r18, Z
     558:	2e 7f       	andi	r18, 0xFE	; 254
     55a:	fc 01       	movw	r30, r24
     55c:	20 83       	st	Z, r18
     55e:	89 eb       	ldi	r24, 0xB9	; 185
     560:	90 e0       	ldi	r25, 0x00	; 0
     562:	29 eb       	ldi	r18, 0xB9	; 185
     564:	30 e0       	ldi	r19, 0x00	; 0
     566:	f9 01       	movw	r30, r18
     568:	20 81       	ld	r18, Z
     56a:	2d 7f       	andi	r18, 0xFD	; 253
     56c:	fc 01       	movw	r30, r24
     56e:	20 83       	st	Z, r18
     570:	88 eb       	ldi	r24, 0xB8	; 184
     572:	90 e0       	ldi	r25, 0x00	; 0
     574:	28 e4       	ldi	r18, 0x48	; 72
     576:	fc 01       	movw	r30, r24
     578:	20 83       	st	Z, r18
     57a:	8c eb       	ldi	r24, 0xBC	; 188
     57c:	90 e0       	ldi	r25, 0x00	; 0
     57e:	25 e4       	ldi	r18, 0x45	; 69
     580:	fc 01       	movw	r30, r24
     582:	20 83       	st	Z, r18
     584:	e2 e0       	ldi	r30, 0x02	; 2
     586:	0c 94 1a 35 	jmp	0x6a34	; 0x6a34 <__epilogue_restores__+0x20>

0000058a <twi_setAddress>:
     58a:	a1 e0       	ldi	r26, 0x01	; 1
     58c:	b0 e0       	ldi	r27, 0x00	; 0
     58e:	eb ec       	ldi	r30, 0xCB	; 203
     590:	f2 e0       	ldi	r31, 0x02	; 2
     592:	0c 94 fe 34 	jmp	0x69fc	; 0x69fc <__prologue_saves__+0x20>
     596:	89 83       	std	Y+1, r24	; 0x01
     598:	8a eb       	ldi	r24, 0xBA	; 186
     59a:	90 e0       	ldi	r25, 0x00	; 0
     59c:	29 81       	ldd	r18, Y+1	; 0x01
     59e:	22 0f       	add	r18, r18
     5a0:	fc 01       	movw	r30, r24
     5a2:	20 83       	st	Z, r18
     5a4:	21 96       	adiw	r28, 0x01	; 1
     5a6:	e2 e0       	ldi	r30, 0x02	; 2
     5a8:	0c 94 1a 35 	jmp	0x6a34	; 0x6a34 <__epilogue_restores__+0x20>

000005ac <twi_transmit>:
 * Output   1 length too long for buffer
 *          2 not slave transmitter
 *          0 ok
 */
uint8_t twi_transmit(const uint8_t* data, uint8_t length)
{
     5ac:	a4 e0       	ldi	r26, 0x04	; 4
     5ae:	b0 e0       	ldi	r27, 0x00	; 0
     5b0:	ec ed       	ldi	r30, 0xDC	; 220
     5b2:	f2 e0       	ldi	r31, 0x02	; 2
     5b4:	0c 94 fe 34 	jmp	0x69fc	; 0x69fc <__prologue_saves__+0x20>
     5b8:	9b 83       	std	Y+3, r25	; 0x03
     5ba:	8a 83       	std	Y+2, r24	; 0x02
     5bc:	6c 83       	std	Y+4, r22	; 0x04
  uint8_t i;

  // ensure data will fit into buffer
  if(TWI_BUFFER_LENGTH < length){
     5be:	8c 81       	ldd	r24, Y+4	; 0x04
     5c0:	81 32       	cpi	r24, 0x21	; 33
     5c2:	10 f0       	brcs	.+4      	; 0x5c8 <twi_transmit+0x1c>
    return 1;
     5c4:	81 e0       	ldi	r24, 0x01	; 1
     5c6:	23 c0       	rjmp	.+70     	; 0x60e <twi_transmit+0x62>
  }
  
  // ensure we are currently a slave transmitter
  if(TWI_STX != twi_state){
     5c8:	80 91 da 01 	lds	r24, 0x01DA	; 0x8001da <__data_end>
     5cc:	84 30       	cpi	r24, 0x04	; 4
     5ce:	11 f0       	breq	.+4      	; 0x5d4 <twi_transmit+0x28>
    return 2;
     5d0:	82 e0       	ldi	r24, 0x02	; 2
     5d2:	1d c0       	rjmp	.+58     	; 0x60e <twi_transmit+0x62>
  }
  
  // set length and copy data into tx buffer
  twi_txBufferLength = length;
     5d4:	8c 81       	ldd	r24, Y+4	; 0x04
     5d6:	80 93 25 02 	sts	0x0225, r24	; 0x800225 <twi_txBufferLength>
  for(i = 0; i < length; ++i){
     5da:	19 82       	std	Y+1, r1	; 0x01
     5dc:	13 c0       	rjmp	.+38     	; 0x604 <twi_transmit+0x58>
    twi_txBuffer[i] = data[i];
     5de:	89 81       	ldd	r24, Y+1	; 0x01
     5e0:	88 2f       	mov	r24, r24
     5e2:	90 e0       	ldi	r25, 0x00	; 0
     5e4:	29 81       	ldd	r18, Y+1	; 0x01
     5e6:	22 2f       	mov	r18, r18
     5e8:	30 e0       	ldi	r19, 0x00	; 0
     5ea:	4a 81       	ldd	r20, Y+2	; 0x02
     5ec:	5b 81       	ldd	r21, Y+3	; 0x03
     5ee:	24 0f       	add	r18, r20
     5f0:	35 1f       	adc	r19, r21
     5f2:	f9 01       	movw	r30, r18
     5f4:	20 81       	ld	r18, Z
     5f6:	8c 5f       	subi	r24, 0xFC	; 252
     5f8:	9d 4f       	sbci	r25, 0xFD	; 253
     5fa:	fc 01       	movw	r30, r24
     5fc:	20 83       	st	Z, r18
    return 2;
  }
  
  // set length and copy data into tx buffer
  twi_txBufferLength = length;
  for(i = 0; i < length; ++i){
     5fe:	89 81       	ldd	r24, Y+1	; 0x01
     600:	8f 5f       	subi	r24, 0xFF	; 255
     602:	89 83       	std	Y+1, r24	; 0x01
     604:	99 81       	ldd	r25, Y+1	; 0x01
     606:	8c 81       	ldd	r24, Y+4	; 0x04
     608:	98 17       	cp	r25, r24
     60a:	48 f3       	brcs	.-46     	; 0x5de <twi_transmit+0x32>
    twi_txBuffer[i] = data[i];
  }
  
  return 0;
     60c:	80 e0       	ldi	r24, 0x00	; 0
}
     60e:	24 96       	adiw	r28, 0x04	; 4
     610:	e2 e0       	ldi	r30, 0x02	; 2
     612:	0c 94 1a 35 	jmp	0x6a34	; 0x6a34 <__epilogue_restores__+0x20>

00000616 <twi_attachSlaveRxEvent>:
 * Desc     sets function called before a slave read operation
 * Input    function: callback function to use
 * Output   none
 */
void twi_attachSlaveRxEvent( void (*function)(uint8_t*, int) )
{
     616:	a2 e0       	ldi	r26, 0x02	; 2
     618:	b0 e0       	ldi	r27, 0x00	; 0
     61a:	e1 e1       	ldi	r30, 0x11	; 17
     61c:	f3 e0       	ldi	r31, 0x03	; 3
     61e:	0c 94 fe 34 	jmp	0x69fc	; 0x69fc <__prologue_saves__+0x20>
     622:	9a 83       	std	Y+2, r25	; 0x02
     624:	89 83       	std	Y+1, r24	; 0x01
  twi_onSlaveReceive = function;
     626:	89 81       	ldd	r24, Y+1	; 0x01
     628:	9a 81       	ldd	r25, Y+2	; 0x02
     62a:	90 93 e1 01 	sts	0x01E1, r25	; 0x8001e1 <twi_onSlaveReceive+0x1>
     62e:	80 93 e0 01 	sts	0x01E0, r24	; 0x8001e0 <twi_onSlaveReceive>
}
     632:	22 96       	adiw	r28, 0x02	; 2
     634:	e2 e0       	ldi	r30, 0x02	; 2
     636:	0c 94 1a 35 	jmp	0x6a34	; 0x6a34 <__epilogue_restores__+0x20>

0000063a <twi_attachSlaveTxEvent>:
 * Desc     sets function called before a slave write operation
 * Input    function: callback function to use
 * Output   none
 */
void twi_attachSlaveTxEvent( void (*function)(void) )
{
     63a:	a2 e0       	ldi	r26, 0x02	; 2
     63c:	b0 e0       	ldi	r27, 0x00	; 0
     63e:	e3 e2       	ldi	r30, 0x23	; 35
     640:	f3 e0       	ldi	r31, 0x03	; 3
     642:	0c 94 fe 34 	jmp	0x69fc	; 0x69fc <__prologue_saves__+0x20>
     646:	9a 83       	std	Y+2, r25	; 0x02
     648:	89 83       	std	Y+1, r24	; 0x01
  twi_onSlaveTransmit = function;
     64a:	89 81       	ldd	r24, Y+1	; 0x01
     64c:	9a 81       	ldd	r25, Y+2	; 0x02
     64e:	90 93 df 01 	sts	0x01DF, r25	; 0x8001df <twi_onSlaveTransmit+0x1>
     652:	80 93 de 01 	sts	0x01DE, r24	; 0x8001de <twi_onSlaveTransmit>
}
     656:	22 96       	adiw	r28, 0x02	; 2
     658:	e2 e0       	ldi	r30, 0x02	; 2
     65a:	0c 94 1a 35 	jmp	0x6a34	; 0x6a34 <__epilogue_restores__+0x20>

0000065e <twi_reply>:
 * Desc     sends byte or readys receive line
 * Input    ack: byte indicating to ack or to nack
 * Output   none
 */
void twi_reply(uint8_t ack)
{
     65e:	a1 e0       	ldi	r26, 0x01	; 1
     660:	b0 e0       	ldi	r27, 0x00	; 0
     662:	e5 e3       	ldi	r30, 0x35	; 53
     664:	f3 e0       	ldi	r31, 0x03	; 3
     666:	0c 94 fe 34 	jmp	0x69fc	; 0x69fc <__prologue_saves__+0x20>
     66a:	89 83       	std	Y+1, r24	; 0x01
  // transmit master read ready signal, with or without ack
  if(ack){
     66c:	89 81       	ldd	r24, Y+1	; 0x01
     66e:	88 23       	and	r24, r24
     670:	31 f0       	breq	.+12     	; 0x67e <twi_reply+0x20>
    TWCR = _BV(TWEN) | _BV(TWIE) | _BV(TWINT) | _BV(TWEA);
     672:	8c eb       	ldi	r24, 0xBC	; 188
     674:	90 e0       	ldi	r25, 0x00	; 0
     676:	25 ec       	ldi	r18, 0xC5	; 197
     678:	fc 01       	movw	r30, r24
     67a:	20 83       	st	Z, r18
     67c:	05 c0       	rjmp	.+10     	; 0x688 <twi_reply+0x2a>
  }else{
	  TWCR = _BV(TWEN) | _BV(TWIE) | _BV(TWINT);
     67e:	8c eb       	ldi	r24, 0xBC	; 188
     680:	90 e0       	ldi	r25, 0x00	; 0
     682:	25 e8       	ldi	r18, 0x85	; 133
     684:	fc 01       	movw	r30, r24
     686:	20 83       	st	Z, r18
  }
}
     688:	21 96       	adiw	r28, 0x01	; 1
     68a:	e2 e0       	ldi	r30, 0x02	; 2
     68c:	0c 94 1a 35 	jmp	0x6a34	; 0x6a34 <__epilogue_restores__+0x20>

00000690 <twi_stop>:
 * Desc     relinquishes bus master status
 * Input    none
 * Output   none
 */
void twi_stop(void)
{
     690:	a0 e0       	ldi	r26, 0x00	; 0
     692:	b0 e0       	ldi	r27, 0x00	; 0
     694:	ee e4       	ldi	r30, 0x4E	; 78
     696:	f3 e0       	ldi	r31, 0x03	; 3
     698:	0c 94 fe 34 	jmp	0x69fc	; 0x69fc <__prologue_saves__+0x20>
  // send stop condition
  TWCR = _BV(TWEN) | _BV(TWIE) | _BV(TWEA) | _BV(TWINT) | _BV(TWSTO);
     69c:	8c eb       	ldi	r24, 0xBC	; 188
     69e:	90 e0       	ldi	r25, 0x00	; 0
     6a0:	25 ed       	ldi	r18, 0xD5	; 213
     6a2:	fc 01       	movw	r30, r24
     6a4:	20 83       	st	Z, r18

  // wait for stop condition to be exectued on bus
  // TWINT is not set after a stop condition!
  while(TWCR & _BV(TWSTO)){
     6a6:	01 c0       	rjmp	.+2      	; 0x6aa <twi_stop+0x1a>
    continue;
     6a8:	00 00       	nop
  // send stop condition
  TWCR = _BV(TWEN) | _BV(TWIE) | _BV(TWEA) | _BV(TWINT) | _BV(TWSTO);

  // wait for stop condition to be exectued on bus
  // TWINT is not set after a stop condition!
  while(TWCR & _BV(TWSTO)){
     6aa:	8c eb       	ldi	r24, 0xBC	; 188
     6ac:	90 e0       	ldi	r25, 0x00	; 0
     6ae:	fc 01       	movw	r30, r24
     6b0:	80 81       	ld	r24, Z
     6b2:	88 2f       	mov	r24, r24
     6b4:	90 e0       	ldi	r25, 0x00	; 0
     6b6:	80 71       	andi	r24, 0x10	; 16
     6b8:	99 27       	eor	r25, r25
     6ba:	89 2b       	or	r24, r25
     6bc:	a9 f7       	brne	.-22     	; 0x6a8 <twi_stop+0x18>
    continue;
  }

  // update twi state
  twi_state = TWI_READY;
     6be:	10 92 da 01 	sts	0x01DA, r1	; 0x8001da <__data_end>
}
     6c2:	e2 e0       	ldi	r30, 0x02	; 2
     6c4:	0c 94 1a 35 	jmp	0x6a34	; 0x6a34 <__epilogue_restores__+0x20>

000006c8 <twi_releaseBus>:
 * Desc     releases bus control
 * Input    none
 * Output   none
 */
void twi_releaseBus(void)
{
     6c8:	a0 e0       	ldi	r26, 0x00	; 0
     6ca:	b0 e0       	ldi	r27, 0x00	; 0
     6cc:	ea e6       	ldi	r30, 0x6A	; 106
     6ce:	f3 e0       	ldi	r31, 0x03	; 3
     6d0:	0c 94 fe 34 	jmp	0x69fc	; 0x69fc <__prologue_saves__+0x20>
  // release bus
  TWCR = _BV(TWEN) | _BV(TWIE) | _BV(TWEA) | _BV(TWINT);
     6d4:	8c eb       	ldi	r24, 0xBC	; 188
     6d6:	90 e0       	ldi	r25, 0x00	; 0
     6d8:	25 ec       	ldi	r18, 0xC5	; 197
     6da:	fc 01       	movw	r30, r24
     6dc:	20 83       	st	Z, r18

  // update twi state
  twi_state = TWI_READY;
     6de:	10 92 da 01 	sts	0x01DA, r1	; 0x8001da <__data_end>
}
     6e2:	e2 e0       	ldi	r30, 0x02	; 2
     6e4:	0c 94 1a 35 	jmp	0x6a34	; 0x6a34 <__epilogue_restores__+0x20>

000006e8 <__vector_24>:

ISR(TWI_vect)
{
     6e8:	1f 92       	push	r1
     6ea:	0f 92       	push	r0
     6ec:	00 90 5f 00 	lds	r0, 0x005F	; 0x80005f <__TEXT_REGION_LENGTH__+0x7e005f>
     6f0:	0f 92       	push	r0
     6f2:	11 24       	eor	r1, r1
     6f4:	2f 93       	push	r18
     6f6:	3f 93       	push	r19
     6f8:	4f 93       	push	r20
     6fa:	5f 93       	push	r21
     6fc:	6f 93       	push	r22
     6fe:	7f 93       	push	r23
     700:	8f 93       	push	r24
     702:	9f 93       	push	r25
     704:	af 93       	push	r26
     706:	bf 93       	push	r27
     708:	ef 93       	push	r30
     70a:	ff 93       	push	r31
     70c:	cf 93       	push	r28
     70e:	df 93       	push	r29
     710:	cd b7       	in	r28, 0x3d	; 61
     712:	de b7       	in	r29, 0x3e	; 62
  switch(TW_STATUS){
     714:	89 eb       	ldi	r24, 0xB9	; 185
     716:	90 e0       	ldi	r25, 0x00	; 0
     718:	fc 01       	movw	r30, r24
     71a:	80 81       	ld	r24, Z
     71c:	88 2f       	mov	r24, r24
     71e:	90 e0       	ldi	r25, 0x00	; 0
     720:	88 7f       	andi	r24, 0xF8	; 248
     722:	99 27       	eor	r25, r25
     724:	09 2e       	mov	r0, r25
     726:	00 0c       	add	r0, r0
     728:	aa 0b       	sbc	r26, r26
     72a:	bb 0b       	sbc	r27, r27
     72c:	40 e0       	ldi	r20, 0x00	; 0
     72e:	50 e0       	ldi	r21, 0x00	; 0
     730:	28 ef       	ldi	r18, 0xF8	; 248
     732:	30 e0       	ldi	r19, 0x00	; 0
     734:	84 1b       	sub	r24, r20
     736:	95 0b       	sbc	r25, r21
     738:	28 17       	cp	r18, r24
     73a:	39 07       	cpc	r19, r25
     73c:	08 f4       	brcc	.+2      	; 0x740 <__vector_24+0x58>
     73e:	05 c1       	rjmp	.+522    	; 0x94a <__stack+0x4b>
     740:	8c 5c       	subi	r24, 0xCC	; 204
     742:	9f 4f       	sbci	r25, 0xFF	; 255
     744:	fc 01       	movw	r30, r24
     746:	0c 94 de 34 	jmp	0x69bc	; 0x69bc <__tablejump2__>
    // All Master
    case TW_START:     // sent start condition
    case TW_REP_START: // sent repeated start condition
      // copy device address and r/w bit to output register and ack
      TWDR = twi_slarw;
     74a:	8b eb       	ldi	r24, 0xBB	; 187
     74c:	90 e0       	ldi	r25, 0x00	; 0
     74e:	20 91 db 01 	lds	r18, 0x01DB	; 0x8001db <twi_slarw>
     752:	fc 01       	movw	r30, r24
     754:	20 83       	st	Z, r18
      twi_reply(1);
     756:	81 e0       	ldi	r24, 0x01	; 1
     758:	82 df       	rcall	.-252    	; 0x65e <twi_reply>
      break;
     75a:	f7 c0       	rjmp	.+494    	; 0x94a <__stack+0x4b>

    // Master Transmitter
    case TW_MT_SLA_ACK:  // slave receiver acked address
    case TW_MT_DATA_ACK: // slave receiver acked data
      // if there is data to send, send it, otherwise stop 
      if(twi_masterBufferIndex < twi_masterBufferLength){
     75c:	90 91 02 02 	lds	r25, 0x0202	; 0x800202 <twi_masterBufferIndex>
     760:	80 91 03 02 	lds	r24, 0x0203	; 0x800203 <twi_masterBufferLength>
     764:	98 17       	cp	r25, r24
     766:	98 f4       	brcc	.+38     	; 0x78e <__vector_24+0xa6>
        // copy data to output register and ack
        TWDR = twi_masterBuffer[twi_masterBufferIndex++];
     768:	8b eb       	ldi	r24, 0xBB	; 187
     76a:	90 e0       	ldi	r25, 0x00	; 0
     76c:	20 91 02 02 	lds	r18, 0x0202	; 0x800202 <twi_masterBufferIndex>
     770:	31 e0       	ldi	r19, 0x01	; 1
     772:	32 0f       	add	r19, r18
     774:	30 93 02 02 	sts	0x0202, r19	; 0x800202 <twi_masterBufferIndex>
     778:	22 2f       	mov	r18, r18
     77a:	30 e0       	ldi	r19, 0x00	; 0
     77c:	2e 51       	subi	r18, 0x1E	; 30
     77e:	3e 4f       	sbci	r19, 0xFE	; 254
     780:	f9 01       	movw	r30, r18
     782:	20 81       	ld	r18, Z
     784:	fc 01       	movw	r30, r24
     786:	20 83       	st	Z, r18
        twi_reply(1);
     788:	81 e0       	ldi	r24, 0x01	; 1
     78a:	69 df       	rcall	.-302    	; 0x65e <twi_reply>
     78c:	11 c0       	rjmp	.+34     	; 0x7b0 <__vector_24+0xc8>
      }else{
	if (twi_sendStop)
     78e:	80 91 dc 01 	lds	r24, 0x01DC	; 0x8001dc <twi_sendStop>
     792:	88 23       	and	r24, r24
     794:	11 f0       	breq	.+4      	; 0x79a <__vector_24+0xb2>
          twi_stop();
     796:	7c df       	rcall	.-264    	; 0x690 <twi_stop>
     798:	0b c0       	rjmp	.+22     	; 0x7b0 <__vector_24+0xc8>
	else {
	  twi_inRepStart = true;	// we're gonna send the START
     79a:	81 e0       	ldi	r24, 0x01	; 1
     79c:	80 93 dd 01 	sts	0x01DD, r24	; 0x8001dd <twi_inRepStart>
	  // don't enable the interrupt. We'll generate the start, but we 
	  // avoid handling the interrupt until we're in the next transaction,
	  // at the point where we would normally issue the start.
	  TWCR = _BV(TWINT) | _BV(TWSTA)| _BV(TWEN) ;
     7a0:	8c eb       	ldi	r24, 0xBC	; 188
     7a2:	90 e0       	ldi	r25, 0x00	; 0
     7a4:	24 ea       	ldi	r18, 0xA4	; 164
     7a6:	fc 01       	movw	r30, r24
     7a8:	20 83       	st	Z, r18
	  twi_state = TWI_READY;
     7aa:	10 92 da 01 	sts	0x01DA, r1	; 0x8001da <__data_end>
	}
      }
      break;
     7ae:	cd c0       	rjmp	.+410    	; 0x94a <__stack+0x4b>
     7b0:	cc c0       	rjmp	.+408    	; 0x94a <__stack+0x4b>
    case TW_MT_SLA_NACK:  // address sent, nack received
      twi_error = TW_MT_SLA_NACK;
     7b2:	80 e2       	ldi	r24, 0x20	; 32
     7b4:	80 93 47 02 	sts	0x0247, r24	; 0x800247 <twi_error>
      twi_stop();
     7b8:	6b df       	rcall	.-298    	; 0x690 <twi_stop>
      break;
     7ba:	c7 c0       	rjmp	.+398    	; 0x94a <__stack+0x4b>
    case TW_MT_DATA_NACK: // data sent, nack received
      twi_error = TW_MT_DATA_NACK;
     7bc:	80 e3       	ldi	r24, 0x30	; 48
     7be:	80 93 47 02 	sts	0x0247, r24	; 0x800247 <twi_error>
      twi_stop();
     7c2:	66 df       	rcall	.-308    	; 0x690 <twi_stop>
      break;
     7c4:	c2 c0       	rjmp	.+388    	; 0x94a <__stack+0x4b>
    case TW_MT_ARB_LOST: // lost bus arbitration
      twi_error = TW_MT_ARB_LOST;
     7c6:	88 e3       	ldi	r24, 0x38	; 56
     7c8:	80 93 47 02 	sts	0x0247, r24	; 0x800247 <twi_error>
      twi_releaseBus();
     7cc:	7d df       	rcall	.-262    	; 0x6c8 <twi_releaseBus>
      break;
     7ce:	bd c0       	rjmp	.+378    	; 0x94a <__stack+0x4b>

    // Master Receiver
    case TW_MR_DATA_ACK: // data received, ack sent
      // put byte into buffer
      twi_masterBuffer[twi_masterBufferIndex++] = TWDR;
     7d0:	80 91 02 02 	lds	r24, 0x0202	; 0x800202 <twi_masterBufferIndex>
     7d4:	91 e0       	ldi	r25, 0x01	; 1
     7d6:	98 0f       	add	r25, r24
     7d8:	90 93 02 02 	sts	0x0202, r25	; 0x800202 <twi_masterBufferIndex>
     7dc:	88 2f       	mov	r24, r24
     7de:	90 e0       	ldi	r25, 0x00	; 0
     7e0:	2b eb       	ldi	r18, 0xBB	; 187
     7e2:	30 e0       	ldi	r19, 0x00	; 0
     7e4:	f9 01       	movw	r30, r18
     7e6:	20 81       	ld	r18, Z
     7e8:	8e 51       	subi	r24, 0x1E	; 30
     7ea:	9e 4f       	sbci	r25, 0xFE	; 254
     7ec:	fc 01       	movw	r30, r24
     7ee:	20 83       	st	Z, r18
    case TW_MR_SLA_ACK:  // address sent, ack received
      // ack if more bytes are expected, otherwise nack
      if(twi_masterBufferIndex < twi_masterBufferLength){
     7f0:	90 91 02 02 	lds	r25, 0x0202	; 0x800202 <twi_masterBufferIndex>
     7f4:	80 91 03 02 	lds	r24, 0x0203	; 0x800203 <twi_masterBufferLength>
     7f8:	98 17       	cp	r25, r24
     7fa:	18 f4       	brcc	.+6      	; 0x802 <__vector_24+0x11a>
        twi_reply(1);
     7fc:	81 e0       	ldi	r24, 0x01	; 1
     7fe:	2f df       	rcall	.-418    	; 0x65e <twi_reply>
      }else{
        twi_reply(0);
      }
      break;
     800:	a4 c0       	rjmp	.+328    	; 0x94a <__stack+0x4b>
    case TW_MR_SLA_ACK:  // address sent, ack received
      // ack if more bytes are expected, otherwise nack
      if(twi_masterBufferIndex < twi_masterBufferLength){
        twi_reply(1);
      }else{
        twi_reply(0);
     802:	80 e0       	ldi	r24, 0x00	; 0
     804:	2c df       	rcall	.-424    	; 0x65e <twi_reply>
      }
      break;
     806:	a1 c0       	rjmp	.+322    	; 0x94a <__stack+0x4b>
    case TW_MR_DATA_NACK: // data received, nack sent
      // put final byte into buffer
      twi_masterBuffer[twi_masterBufferIndex++] = TWDR;
     808:	80 91 02 02 	lds	r24, 0x0202	; 0x800202 <twi_masterBufferIndex>
     80c:	91 e0       	ldi	r25, 0x01	; 1
     80e:	98 0f       	add	r25, r24
     810:	90 93 02 02 	sts	0x0202, r25	; 0x800202 <twi_masterBufferIndex>
     814:	88 2f       	mov	r24, r24
     816:	90 e0       	ldi	r25, 0x00	; 0
     818:	2b eb       	ldi	r18, 0xBB	; 187
     81a:	30 e0       	ldi	r19, 0x00	; 0
     81c:	f9 01       	movw	r30, r18
     81e:	20 81       	ld	r18, Z
     820:	8e 51       	subi	r24, 0x1E	; 30
     822:	9e 4f       	sbci	r25, 0xFE	; 254
     824:	fc 01       	movw	r30, r24
     826:	20 83       	st	Z, r18
	if (twi_sendStop)
     828:	80 91 dc 01 	lds	r24, 0x01DC	; 0x8001dc <twi_sendStop>
     82c:	88 23       	and	r24, r24
     82e:	11 f0       	breq	.+4      	; 0x834 <__vector_24+0x14c>
          twi_stop();
     830:	2f df       	rcall	.-418    	; 0x690 <twi_stop>
	  // avoid handling the interrupt until we're in the next transaction,
	  // at the point where we would normally issue the start.
	  TWCR = _BV(TWINT) | _BV(TWSTA)| _BV(TWEN) ;
	  twi_state = TWI_READY;
	}    
	break;
     832:	8b c0       	rjmp	.+278    	; 0x94a <__stack+0x4b>
      // put final byte into buffer
      twi_masterBuffer[twi_masterBufferIndex++] = TWDR;
	if (twi_sendStop)
          twi_stop();
	else {
	  twi_inRepStart = true;	// we're gonna send the START
     834:	81 e0       	ldi	r24, 0x01	; 1
     836:	80 93 dd 01 	sts	0x01DD, r24	; 0x8001dd <twi_inRepStart>
	  // don't enable the interrupt. We'll generate the start, but we 
	  // avoid handling the interrupt until we're in the next transaction,
	  // at the point where we would normally issue the start.
	  TWCR = _BV(TWINT) | _BV(TWSTA)| _BV(TWEN) ;
     83a:	8c eb       	ldi	r24, 0xBC	; 188
     83c:	90 e0       	ldi	r25, 0x00	; 0
     83e:	24 ea       	ldi	r18, 0xA4	; 164
     840:	fc 01       	movw	r30, r24
     842:	20 83       	st	Z, r18
	  twi_state = TWI_READY;
     844:	10 92 da 01 	sts	0x01DA, r1	; 0x8001da <__data_end>
	}    
	break;
     848:	80 c0       	rjmp	.+256    	; 0x94a <__stack+0x4b>
    case TW_MR_SLA_NACK: // address sent, nack received
      twi_stop();
     84a:	22 df       	rcall	.-444    	; 0x690 <twi_stop>
      break;
     84c:	7e c0       	rjmp	.+252    	; 0x94a <__stack+0x4b>
    case TW_SR_SLA_ACK:   // addressed, returned ack
    case TW_SR_GCALL_ACK: // addressed generally, returned ack
    case TW_SR_ARB_LOST_SLA_ACK:   // lost arbitration, returned ack
    case TW_SR_ARB_LOST_GCALL_ACK: // lost arbitration, returned ack
      // enter slave receiver mode
      twi_state = TWI_SRX;
     84e:	83 e0       	ldi	r24, 0x03	; 3
     850:	80 93 da 01 	sts	0x01DA, r24	; 0x8001da <__data_end>
      // indicate that rx buffer can be overwritten and ack
      twi_rxBufferIndex = 0;
     854:	10 92 46 02 	sts	0x0246, r1	; 0x800246 <twi_rxBufferIndex>
      twi_reply(1);
     858:	81 e0       	ldi	r24, 0x01	; 1
     85a:	01 df       	rcall	.-510    	; 0x65e <twi_reply>
      break;
     85c:	76 c0       	rjmp	.+236    	; 0x94a <__stack+0x4b>
    case TW_SR_DATA_ACK:       // data received, returned ack
    case TW_SR_GCALL_DATA_ACK: // data received generally, returned ack
      // if there is still room in the rx buffer
      if(twi_rxBufferIndex < TWI_BUFFER_LENGTH){
     85e:	80 91 46 02 	lds	r24, 0x0246	; 0x800246 <twi_rxBufferIndex>
     862:	80 32       	cpi	r24, 0x20	; 32
     864:	98 f4       	brcc	.+38     	; 0x88c <__vector_24+0x1a4>
        // put byte in buffer and ack
        twi_rxBuffer[twi_rxBufferIndex++] = TWDR;
     866:	80 91 46 02 	lds	r24, 0x0246	; 0x800246 <twi_rxBufferIndex>
     86a:	91 e0       	ldi	r25, 0x01	; 1
     86c:	98 0f       	add	r25, r24
     86e:	90 93 46 02 	sts	0x0246, r25	; 0x800246 <twi_rxBufferIndex>
     872:	88 2f       	mov	r24, r24
     874:	90 e0       	ldi	r25, 0x00	; 0
     876:	2b eb       	ldi	r18, 0xBB	; 187
     878:	30 e0       	ldi	r19, 0x00	; 0
     87a:	f9 01       	movw	r30, r18
     87c:	20 81       	ld	r18, Z
     87e:	8a 5d       	subi	r24, 0xDA	; 218
     880:	9d 4f       	sbci	r25, 0xFD	; 253
     882:	fc 01       	movw	r30, r24
     884:	20 83       	st	Z, r18
        twi_reply(1);
     886:	81 e0       	ldi	r24, 0x01	; 1
     888:	ea de       	rcall	.-556    	; 0x65e <twi_reply>
      }else{
        // otherwise nack
        twi_reply(0);
      }
      break;
     88a:	5f c0       	rjmp	.+190    	; 0x94a <__stack+0x4b>
        // put byte in buffer and ack
        twi_rxBuffer[twi_rxBufferIndex++] = TWDR;
        twi_reply(1);
      }else{
        // otherwise nack
        twi_reply(0);
     88c:	80 e0       	ldi	r24, 0x00	; 0
     88e:	e7 de       	rcall	.-562    	; 0x65e <twi_reply>
      }
      break;
     890:	5c c0       	rjmp	.+184    	; 0x94a <__stack+0x4b>
    case TW_SR_STOP: // stop or repeated start condition received
      // put a null char after data if there's room
      if(twi_rxBufferIndex < TWI_BUFFER_LENGTH){
     892:	80 91 46 02 	lds	r24, 0x0246	; 0x800246 <twi_rxBufferIndex>
     896:	80 32       	cpi	r24, 0x20	; 32
     898:	40 f4       	brcc	.+16     	; 0x8aa <__vector_24+0x1c2>
        twi_rxBuffer[twi_rxBufferIndex] = '\0';
     89a:	80 91 46 02 	lds	r24, 0x0246	; 0x800246 <twi_rxBufferIndex>
     89e:	88 2f       	mov	r24, r24
     8a0:	90 e0       	ldi	r25, 0x00	; 0
     8a2:	8a 5d       	subi	r24, 0xDA	; 218
     8a4:	9d 4f       	sbci	r25, 0xFD	; 253
     8a6:	fc 01       	movw	r30, r24
     8a8:	10 82       	st	Z, r1
      }
      // sends ack and stops interface for clock stretching
      twi_stop();
     8aa:	f2 de       	rcall	.-540    	; 0x690 <twi_stop>
      // callback to user defined callback
      twi_onSlaveReceive(twi_rxBuffer, twi_rxBufferIndex);
     8ac:	20 91 e0 01 	lds	r18, 0x01E0	; 0x8001e0 <twi_onSlaveReceive>
     8b0:	30 91 e1 01 	lds	r19, 0x01E1	; 0x8001e1 <twi_onSlaveReceive+0x1>
     8b4:	80 91 46 02 	lds	r24, 0x0246	; 0x800246 <twi_rxBufferIndex>
     8b8:	88 2f       	mov	r24, r24
     8ba:	90 e0       	ldi	r25, 0x00	; 0
     8bc:	bc 01       	movw	r22, r24
     8be:	86 e2       	ldi	r24, 0x26	; 38
     8c0:	92 e0       	ldi	r25, 0x02	; 2
     8c2:	f9 01       	movw	r30, r18
     8c4:	09 95       	icall
      // since we submit rx buffer to "wire" library, we can reset it
      twi_rxBufferIndex = 0;
     8c6:	10 92 46 02 	sts	0x0246, r1	; 0x800246 <twi_rxBufferIndex>
      // ack future responses and leave slave receiver state
      twi_releaseBus();
     8ca:	fe de       	rcall	.-516    	; 0x6c8 <twi_releaseBus>
      break;
     8cc:	3e c0       	rjmp	.+124    	; 0x94a <__stack+0x4b>
    case TW_SR_DATA_NACK:       // data received, returned nack
    case TW_SR_GCALL_DATA_NACK: // data received generally, returned nack
      // nack back at master
      twi_reply(0);
     8ce:	80 e0       	ldi	r24, 0x00	; 0
     8d0:	c6 de       	rcall	.-628    	; 0x65e <twi_reply>
      break;
     8d2:	3b c0       	rjmp	.+118    	; 0x94a <__stack+0x4b>
    
    // Slave Transmitter
    case TW_ST_SLA_ACK:          // addressed, returned ack
    case TW_ST_ARB_LOST_SLA_ACK: // arbitration lost, returned ack
      // enter slave transmitter mode
      twi_state = TWI_STX;
     8d4:	84 e0       	ldi	r24, 0x04	; 4
     8d6:	80 93 da 01 	sts	0x01DA, r24	; 0x8001da <__data_end>
      // ready the tx buffer index for iteration
      twi_txBufferIndex = 0;
     8da:	10 92 24 02 	sts	0x0224, r1	; 0x800224 <twi_txBufferIndex>
      // set tx buffer length to be zero, to verify if user changes it
      twi_txBufferLength = 0;
     8de:	10 92 25 02 	sts	0x0225, r1	; 0x800225 <twi_txBufferLength>
      // request for txBuffer to be filled and length to be set
      // note: user must call twi_transmit(bytes, length) to do this
      twi_onSlaveTransmit();
     8e2:	80 91 de 01 	lds	r24, 0x01DE	; 0x8001de <twi_onSlaveTransmit>
     8e6:	90 91 df 01 	lds	r25, 0x01DF	; 0x8001df <twi_onSlaveTransmit+0x1>
     8ea:	fc 01       	movw	r30, r24
     8ec:	09 95       	icall
      // if they didn't change buffer & length, initialize it
      if(0 == twi_txBufferLength){
     8ee:	80 91 25 02 	lds	r24, 0x0225	; 0x800225 <twi_txBufferLength>
     8f2:	88 23       	and	r24, r24
     8f4:	29 f4       	brne	.+10     	; 0x900 <__stack+0x1>
        twi_txBufferLength = 1;
     8f6:	81 e0       	ldi	r24, 0x01	; 1
     8f8:	80 93 25 02 	sts	0x0225, r24	; 0x800225 <twi_txBufferLength>
        twi_txBuffer[0] = 0x00;
     8fc:	10 92 04 02 	sts	0x0204, r1	; 0x800204 <twi_txBuffer>
      }
      // transmit first byte from buffer, fall
    case TW_ST_DATA_ACK: // byte sent, ack returned
      // copy data to output register
      TWDR = twi_txBuffer[twi_txBufferIndex++];
     900:	8b eb       	ldi	r24, 0xBB	; 187
     902:	90 e0       	ldi	r25, 0x00	; 0
     904:	20 91 24 02 	lds	r18, 0x0224	; 0x800224 <twi_txBufferIndex>
     908:	31 e0       	ldi	r19, 0x01	; 1
     90a:	32 0f       	add	r19, r18
     90c:	30 93 24 02 	sts	0x0224, r19	; 0x800224 <twi_txBufferIndex>
     910:	22 2f       	mov	r18, r18
     912:	30 e0       	ldi	r19, 0x00	; 0
     914:	2c 5f       	subi	r18, 0xFC	; 252
     916:	3d 4f       	sbci	r19, 0xFD	; 253
     918:	f9 01       	movw	r30, r18
     91a:	20 81       	ld	r18, Z
     91c:	fc 01       	movw	r30, r24
     91e:	20 83       	st	Z, r18
      // if there is more to send, ack, otherwise nack
      if(twi_txBufferIndex < twi_txBufferLength){
     920:	90 91 24 02 	lds	r25, 0x0224	; 0x800224 <twi_txBufferIndex>
     924:	80 91 25 02 	lds	r24, 0x0225	; 0x800225 <twi_txBufferLength>
     928:	98 17       	cp	r25, r24
     92a:	18 f4       	brcc	.+6      	; 0x932 <__stack+0x33>
        twi_reply(1);
     92c:	81 e0       	ldi	r24, 0x01	; 1
     92e:	97 de       	rcall	.-722    	; 0x65e <twi_reply>
      }else{
        twi_reply(0);
      }
      break;
     930:	0c c0       	rjmp	.+24     	; 0x94a <__stack+0x4b>
      TWDR = twi_txBuffer[twi_txBufferIndex++];
      // if there is more to send, ack, otherwise nack
      if(twi_txBufferIndex < twi_txBufferLength){
        twi_reply(1);
      }else{
        twi_reply(0);
     932:	80 e0       	ldi	r24, 0x00	; 0
     934:	94 de       	rcall	.-728    	; 0x65e <twi_reply>
      }
      break;
     936:	09 c0       	rjmp	.+18     	; 0x94a <__stack+0x4b>
    case TW_ST_DATA_NACK: // received nack, we are done 
    case TW_ST_LAST_DATA: // received ack, but we are done already!
      // ack future responses
      twi_reply(1);
     938:	81 e0       	ldi	r24, 0x01	; 1
     93a:	91 de       	rcall	.-734    	; 0x65e <twi_reply>
      // leave slave receiver state
      twi_state = TWI_READY;
     93c:	10 92 da 01 	sts	0x01DA, r1	; 0x8001da <__data_end>
      break;
     940:	04 c0       	rjmp	.+8      	; 0x94a <__stack+0x4b>

    // All
    case TW_NO_INFO:   // no state information
      break;
    case TW_BUS_ERROR: // bus error, illegal stop/start
      twi_error = TW_BUS_ERROR;
     942:	10 92 47 02 	sts	0x0247, r1	; 0x800247 <twi_error>
      twi_stop();
     946:	a4 de       	rcall	.-696    	; 0x690 <twi_stop>
      break;
     948:	00 00       	nop
  }
}
     94a:	df 91       	pop	r29
     94c:	cf 91       	pop	r28
     94e:	ff 91       	pop	r31
     950:	ef 91       	pop	r30
     952:	bf 91       	pop	r27
     954:	af 91       	pop	r26
     956:	9f 91       	pop	r25
     958:	8f 91       	pop	r24
     95a:	7f 91       	pop	r23
     95c:	6f 91       	pop	r22
     95e:	5f 91       	pop	r21
     960:	4f 91       	pop	r20
     962:	3f 91       	pop	r19
     964:	2f 91       	pop	r18
     966:	0f 90       	pop	r0
     968:	00 92 5f 00 	sts	0x005F, r0	; 0x80005f <__TEXT_REGION_LENGTH__+0x7e005f>
     96c:	0f 90       	pop	r0
     96e:	1f 90       	pop	r1
     970:	18 95       	reti

00000972 <_ZN5Print13setWriteErrorEi>:
//	definition, and expected behaviour, of endTransmission
//
uint8_t TwoWire::endTransmission(void)
{
  return endTransmission(true);
}
     972:	a4 e0       	ldi	r26, 0x04	; 4
     974:	b0 e0       	ldi	r27, 0x00	; 0
     976:	ef eb       	ldi	r30, 0xBF	; 191
     978:	f4 e0       	ldi	r31, 0x04	; 4
     97a:	0c 94 fe 34 	jmp	0x69fc	; 0x69fc <__prologue_saves__+0x20>
     97e:	9a 83       	std	Y+2, r25	; 0x02
     980:	89 83       	std	Y+1, r24	; 0x01
     982:	7c 83       	std	Y+4, r23	; 0x04
     984:	6b 83       	std	Y+3, r22	; 0x03
     986:	89 81       	ldd	r24, Y+1	; 0x01
     988:	9a 81       	ldd	r25, Y+2	; 0x02
     98a:	2b 81       	ldd	r18, Y+3	; 0x03
     98c:	3c 81       	ldd	r19, Y+4	; 0x04
     98e:	fc 01       	movw	r30, r24
     990:	33 83       	std	Z+3, r19	; 0x03
     992:	22 83       	std	Z+2, r18	; 0x02
     994:	24 96       	adiw	r28, 0x04	; 4
     996:	e2 e0       	ldi	r30, 0x02	; 2
     998:	0c 94 1a 35 	jmp	0x6a34	; 0x6a34 <__epilogue_restores__+0x20>

0000099c <_ZN5PrintC1Ev>:
     99c:	a2 e0       	ldi	r26, 0x02	; 2
     99e:	b0 e0       	ldi	r27, 0x00	; 0
     9a0:	e4 ed       	ldi	r30, 0xD4	; 212
     9a2:	f4 e0       	ldi	r31, 0x04	; 4
     9a4:	0c 94 fe 34 	jmp	0x69fc	; 0x69fc <__prologue_saves__+0x20>
     9a8:	9a 83       	std	Y+2, r25	; 0x02
     9aa:	89 83       	std	Y+1, r24	; 0x01
     9ac:	89 81       	ldd	r24, Y+1	; 0x01
     9ae:	9a 81       	ldd	r25, Y+2	; 0x02
     9b0:	26 ed       	ldi	r18, 0xD6	; 214
     9b2:	31 e0       	ldi	r19, 0x01	; 1
     9b4:	fc 01       	movw	r30, r24
     9b6:	31 83       	std	Z+1, r19	; 0x01
     9b8:	20 83       	st	Z, r18
     9ba:	89 81       	ldd	r24, Y+1	; 0x01
     9bc:	9a 81       	ldd	r25, Y+2	; 0x02
     9be:	fc 01       	movw	r30, r24
     9c0:	13 82       	std	Z+3, r1	; 0x03
     9c2:	12 82       	std	Z+2, r1	; 0x02
     9c4:	22 96       	adiw	r28, 0x02	; 2
     9c6:	e2 e0       	ldi	r30, 0x02	; 2
     9c8:	0c 94 1a 35 	jmp	0x6a34	; 0x6a34 <__epilogue_restores__+0x20>

000009cc <_ZN6StreamC1Ev>:
     9cc:	a2 e0       	ldi	r26, 0x02	; 2
     9ce:	b0 e0       	ldi	r27, 0x00	; 0
     9d0:	ec ee       	ldi	r30, 0xEC	; 236
     9d2:	f4 e0       	ldi	r31, 0x04	; 4
     9d4:	0c 94 fe 34 	jmp	0x69fc	; 0x69fc <__prologue_saves__+0x20>
     9d8:	9a 83       	std	Y+2, r25	; 0x02
     9da:	89 83       	std	Y+1, r24	; 0x01
     9dc:	89 81       	ldd	r24, Y+1	; 0x01
     9de:	9a 81       	ldd	r25, Y+2	; 0x02
     9e0:	dd df       	rcall	.-70     	; 0x99c <_ZN5PrintC1Ev>
     9e2:	89 81       	ldd	r24, Y+1	; 0x01
     9e4:	9a 81       	ldd	r25, Y+2	; 0x02
     9e6:	27 e7       	ldi	r18, 0x77	; 119
     9e8:	31 e0       	ldi	r19, 0x01	; 1
     9ea:	fc 01       	movw	r30, r24
     9ec:	31 83       	std	Z+1, r19	; 0x01
     9ee:	20 83       	st	Z, r18
     9f0:	29 81       	ldd	r18, Y+1	; 0x01
     9f2:	3a 81       	ldd	r19, Y+2	; 0x02
     9f4:	88 ee       	ldi	r24, 0xE8	; 232
     9f6:	93 e0       	ldi	r25, 0x03	; 3
     9f8:	a0 e0       	ldi	r26, 0x00	; 0
     9fa:	b0 e0       	ldi	r27, 0x00	; 0
     9fc:	f9 01       	movw	r30, r18
     9fe:	84 83       	std	Z+4, r24	; 0x04
     a00:	95 83       	std	Z+5, r25	; 0x05
     a02:	a6 83       	std	Z+6, r26	; 0x06
     a04:	b7 83       	std	Z+7, r27	; 0x07
     a06:	22 96       	adiw	r28, 0x02	; 2
     a08:	e2 e0       	ldi	r30, 0x02	; 2
     a0a:	0c 94 1a 35 	jmp	0x6a34	; 0x6a34 <__epilogue_restores__+0x20>

00000a0e <_ZN7TwoWireC1Ev>:
     a0e:	a2 e0       	ldi	r26, 0x02	; 2
     a10:	b0 e0       	ldi	r27, 0x00	; 0
     a12:	ed e0       	ldi	r30, 0x0D	; 13
     a14:	f5 e0       	ldi	r31, 0x05	; 5
     a16:	0c 94 fe 34 	jmp	0x69fc	; 0x69fc <__prologue_saves__+0x20>
     a1a:	9a 83       	std	Y+2, r25	; 0x02
     a1c:	89 83       	std	Y+1, r24	; 0x01
     a1e:	89 81       	ldd	r24, Y+1	; 0x01
     a20:	9a 81       	ldd	r25, Y+2	; 0x02
     a22:	d4 df       	rcall	.-88     	; 0x9cc <_ZN6StreamC1Ev>
     a24:	89 81       	ldd	r24, Y+1	; 0x01
     a26:	9a 81       	ldd	r25, Y+2	; 0x02
     a28:	27 e6       	ldi	r18, 0x67	; 103
     a2a:	31 e0       	ldi	r19, 0x01	; 1
     a2c:	fc 01       	movw	r30, r24
     a2e:	31 83       	std	Z+1, r19	; 0x01
     a30:	20 83       	st	Z, r18
     a32:	22 96       	adiw	r28, 0x02	; 2
     a34:	e2 e0       	ldi	r30, 0x02	; 2
     a36:	0c 94 1a 35 	jmp	0x6a34	; 0x6a34 <__epilogue_restores__+0x20>

00000a3a <_ZN7TwoWire5beginEv>:
     a3a:	a2 e0       	ldi	r26, 0x02	; 2
     a3c:	b0 e0       	ldi	r27, 0x00	; 0
     a3e:	e3 e2       	ldi	r30, 0x23	; 35
     a40:	f5 e0       	ldi	r31, 0x05	; 5
     a42:	0c 94 fe 34 	jmp	0x69fc	; 0x69fc <__prologue_saves__+0x20>
     a46:	9a 83       	std	Y+2, r25	; 0x02
     a48:	89 83       	std	Y+1, r24	; 0x01
     a4a:	10 92 68 02 	sts	0x0268, r1	; 0x800268 <_ZN7TwoWire13rxBufferIndexE>
     a4e:	10 92 69 02 	sts	0x0269, r1	; 0x800269 <_ZN7TwoWire14rxBufferLengthE>
     a52:	10 92 8a 02 	sts	0x028A, r1	; 0x80028a <_ZN7TwoWire13txBufferIndexE>
     a56:	10 92 8b 02 	sts	0x028B, r1	; 0x80028b <_ZN7TwoWire14txBufferLengthE>
     a5a:	63 dd       	rcall	.-1338   	; 0x522 <twi_init>
     a5c:	22 96       	adiw	r28, 0x02	; 2
     a5e:	e2 e0       	ldi	r30, 0x02	; 2
     a60:	0c 94 1a 35 	jmp	0x6a34	; 0x6a34 <__epilogue_restores__+0x20>

00000a64 <_ZN7TwoWire5beginEh>:
     a64:	a3 e0       	ldi	r26, 0x03	; 3
     a66:	b0 e0       	ldi	r27, 0x00	; 0
     a68:	e8 e3       	ldi	r30, 0x38	; 56
     a6a:	f5 e0       	ldi	r31, 0x05	; 5
     a6c:	0c 94 fe 34 	jmp	0x69fc	; 0x69fc <__prologue_saves__+0x20>
     a70:	9a 83       	std	Y+2, r25	; 0x02
     a72:	89 83       	std	Y+1, r24	; 0x01
     a74:	6b 83       	std	Y+3, r22	; 0x03
     a76:	8b 81       	ldd	r24, Y+3	; 0x03
     a78:	88 dd       	rcall	.-1264   	; 0x58a <twi_setAddress>
     a7a:	87 e7       	ldi	r24, 0x77	; 119
     a7c:	96 e0       	ldi	r25, 0x06	; 6
     a7e:	dd dd       	rcall	.-1094   	; 0x63a <twi_attachSlaveTxEvent>
     a80:	81 e3       	ldi	r24, 0x31	; 49
     a82:	96 e0       	ldi	r25, 0x06	; 6
     a84:	c8 dd       	rcall	.-1136   	; 0x616 <twi_attachSlaveRxEvent>
     a86:	89 81       	ldd	r24, Y+1	; 0x01
     a88:	9a 81       	ldd	r25, Y+2	; 0x02
     a8a:	d7 df       	rcall	.-82     	; 0xa3a <_ZN7TwoWire5beginEv>
     a8c:	23 96       	adiw	r28, 0x03	; 3
     a8e:	e2 e0       	ldi	r30, 0x02	; 2
     a90:	0c 94 1a 35 	jmp	0x6a34	; 0x6a34 <__epilogue_restores__+0x20>

00000a94 <_ZN7TwoWire5writeEh>:

// must be called in:
// slave tx event callback
// or after beginTransmission(address)
size_t TwoWire::write(uint8_t data)
{
     a94:	a3 e0       	ldi	r26, 0x03	; 3
     a96:	b0 e0       	ldi	r27, 0x00	; 0
     a98:	e0 e5       	ldi	r30, 0x50	; 80
     a9a:	f5 e0       	ldi	r31, 0x05	; 5
     a9c:	0c 94 fe 34 	jmp	0x69fc	; 0x69fc <__prologue_saves__+0x20>
     aa0:	9a 83       	std	Y+2, r25	; 0x02
     aa2:	89 83       	std	Y+1, r24	; 0x01
     aa4:	6b 83       	std	Y+3, r22	; 0x03
  if(transmitting){
     aa6:	80 91 8c 02 	lds	r24, 0x028C	; 0x80028c <_ZN7TwoWire12transmittingE>
     aaa:	88 23       	and	r24, r24
     aac:	f9 f0       	breq	.+62     	; 0xaec <_ZN7TwoWire5writeEh+0x58>
  // in master transmitter mode
    // don't bother if buffer is full
    if(txBufferLength >= BUFFER_LENGTH){
     aae:	80 91 8b 02 	lds	r24, 0x028B	; 0x80028b <_ZN7TwoWire14txBufferLengthE>
     ab2:	80 32       	cpi	r24, 0x20	; 32
     ab4:	40 f0       	brcs	.+16     	; 0xac6 <_ZN7TwoWire5writeEh+0x32>
      setWriteError();
     ab6:	89 81       	ldd	r24, Y+1	; 0x01
     ab8:	9a 81       	ldd	r25, Y+2	; 0x02
     aba:	61 e0       	ldi	r22, 0x01	; 1
     abc:	70 e0       	ldi	r23, 0x00	; 0
     abe:	59 df       	rcall	.-334    	; 0x972 <_ZN5Print13setWriteErrorEi>
      return 0;
     ac0:	80 e0       	ldi	r24, 0x00	; 0
     ac2:	90 e0       	ldi	r25, 0x00	; 0
     ac4:	19 c0       	rjmp	.+50     	; 0xaf8 <_ZN7TwoWire5writeEh+0x64>
    }
    // put byte in tx buffer
    txBuffer[txBufferIndex] = data;
     ac6:	80 91 8a 02 	lds	r24, 0x028A	; 0x80028a <_ZN7TwoWire13txBufferIndexE>
     aca:	88 2f       	mov	r24, r24
     acc:	90 e0       	ldi	r25, 0x00	; 0
     ace:	2b 81       	ldd	r18, Y+3	; 0x03
     ad0:	86 59       	subi	r24, 0x96	; 150
     ad2:	9d 4f       	sbci	r25, 0xFD	; 253
     ad4:	fc 01       	movw	r30, r24
     ad6:	20 83       	st	Z, r18
    ++txBufferIndex;
     ad8:	80 91 8a 02 	lds	r24, 0x028A	; 0x80028a <_ZN7TwoWire13txBufferIndexE>
     adc:	8f 5f       	subi	r24, 0xFF	; 255
     ade:	80 93 8a 02 	sts	0x028A, r24	; 0x80028a <_ZN7TwoWire13txBufferIndexE>
    // update amount in buffer   
    txBufferLength = txBufferIndex;
     ae2:	80 91 8a 02 	lds	r24, 0x028A	; 0x80028a <_ZN7TwoWire13txBufferIndexE>
     ae6:	80 93 8b 02 	sts	0x028B, r24	; 0x80028b <_ZN7TwoWire14txBufferLengthE>
     aea:	04 c0       	rjmp	.+8      	; 0xaf4 <_ZN7TwoWire5writeEh+0x60>
  }else{
  // in slave send mode
    // reply to master
    twi_transmit(&data, 1);
     aec:	ce 01       	movw	r24, r28
     aee:	03 96       	adiw	r24, 0x03	; 3
     af0:	61 e0       	ldi	r22, 0x01	; 1
     af2:	5c dd       	rcall	.-1352   	; 0x5ac <twi_transmit>
  }
  return 1;
     af4:	81 e0       	ldi	r24, 0x01	; 1
     af6:	90 e0       	ldi	r25, 0x00	; 0
}
     af8:	23 96       	adiw	r28, 0x03	; 3
     afa:	e2 e0       	ldi	r30, 0x02	; 2
     afc:	0c 94 1a 35 	jmp	0x6a34	; 0x6a34 <__epilogue_restores__+0x20>

00000b00 <_ZN7TwoWire5writeEPKhj>:

// must be called in:
// slave tx event callback
// or after beginTransmission(address)
size_t TwoWire::write(const uint8_t *data, size_t quantity)
{
     b00:	a8 e0       	ldi	r26, 0x08	; 8
     b02:	b0 e0       	ldi	r27, 0x00	; 0
     b04:	e6 e8       	ldi	r30, 0x86	; 134
     b06:	f5 e0       	ldi	r31, 0x05	; 5
     b08:	0c 94 fe 34 	jmp	0x69fc	; 0x69fc <__prologue_saves__+0x20>
     b0c:	9c 83       	std	Y+4, r25	; 0x04
     b0e:	8b 83       	std	Y+3, r24	; 0x03
     b10:	7e 83       	std	Y+6, r23	; 0x06
     b12:	6d 83       	std	Y+5, r22	; 0x05
     b14:	58 87       	std	Y+8, r21	; 0x08
     b16:	4f 83       	std	Y+7, r20	; 0x07
  if(transmitting){
     b18:	80 91 8c 02 	lds	r24, 0x028C	; 0x80028c <_ZN7TwoWire12transmittingE>
     b1c:	88 23       	and	r24, r24
     b1e:	29 f1       	breq	.+74     	; 0xb6a <_ZN7TwoWire5writeEPKhj+0x6a>
  // in master transmitter mode
    for(size_t i = 0; i < quantity; ++i){
     b20:	1a 82       	std	Y+2, r1	; 0x02
     b22:	19 82       	std	Y+1, r1	; 0x01
     b24:	1a c0       	rjmp	.+52     	; 0xb5a <_ZN7TwoWire5writeEPKhj+0x5a>
      write(data[i]);
     b26:	8b 81       	ldd	r24, Y+3	; 0x03
     b28:	9c 81       	ldd	r25, Y+4	; 0x04
     b2a:	fc 01       	movw	r30, r24
     b2c:	80 81       	ld	r24, Z
     b2e:	91 81       	ldd	r25, Z+1	; 0x01
     b30:	fc 01       	movw	r30, r24
     b32:	20 81       	ld	r18, Z
     b34:	31 81       	ldd	r19, Z+1	; 0x01
     b36:	4d 81       	ldd	r20, Y+5	; 0x05
     b38:	5e 81       	ldd	r21, Y+6	; 0x06
     b3a:	89 81       	ldd	r24, Y+1	; 0x01
     b3c:	9a 81       	ldd	r25, Y+2	; 0x02
     b3e:	84 0f       	add	r24, r20
     b40:	95 1f       	adc	r25, r21
     b42:	fc 01       	movw	r30, r24
     b44:	40 81       	ld	r20, Z
     b46:	8b 81       	ldd	r24, Y+3	; 0x03
     b48:	9c 81       	ldd	r25, Y+4	; 0x04
     b4a:	64 2f       	mov	r22, r20
     b4c:	f9 01       	movw	r30, r18
     b4e:	09 95       	icall
// or after beginTransmission(address)
size_t TwoWire::write(const uint8_t *data, size_t quantity)
{
  if(transmitting){
  // in master transmitter mode
    for(size_t i = 0; i < quantity; ++i){
     b50:	89 81       	ldd	r24, Y+1	; 0x01
     b52:	9a 81       	ldd	r25, Y+2	; 0x02
     b54:	01 96       	adiw	r24, 0x01	; 1
     b56:	9a 83       	std	Y+2, r25	; 0x02
     b58:	89 83       	std	Y+1, r24	; 0x01
     b5a:	29 81       	ldd	r18, Y+1	; 0x01
     b5c:	3a 81       	ldd	r19, Y+2	; 0x02
     b5e:	8f 81       	ldd	r24, Y+7	; 0x07
     b60:	98 85       	ldd	r25, Y+8	; 0x08
     b62:	28 17       	cp	r18, r24
     b64:	39 07       	cpc	r19, r25
     b66:	f8 f2       	brcs	.-66     	; 0xb26 <_ZN7TwoWire5writeEPKhj+0x26>
     b68:	05 c0       	rjmp	.+10     	; 0xb74 <_ZN7TwoWire5writeEPKhj+0x74>
      write(data[i]);
    }
  }else{
  // in slave send mode
    // reply to master
    twi_transmit(data, quantity);
     b6a:	2f 81       	ldd	r18, Y+7	; 0x07
     b6c:	8d 81       	ldd	r24, Y+5	; 0x05
     b6e:	9e 81       	ldd	r25, Y+6	; 0x06
     b70:	62 2f       	mov	r22, r18
     b72:	1c dd       	rcall	.-1480   	; 0x5ac <twi_transmit>
  }
  return quantity;
     b74:	8f 81       	ldd	r24, Y+7	; 0x07
     b76:	98 85       	ldd	r25, Y+8	; 0x08
}
     b78:	28 96       	adiw	r28, 0x08	; 8
     b7a:	e2 e0       	ldi	r30, 0x02	; 2
     b7c:	0c 94 1a 35 	jmp	0x6a34	; 0x6a34 <__epilogue_restores__+0x20>

00000b80 <_ZN7TwoWire9availableEv>:

// must be called in:
// slave rx event callback
// or after requestFrom(address, numBytes)
int TwoWire::available(void)
{
     b80:	a2 e0       	ldi	r26, 0x02	; 2
     b82:	b0 e0       	ldi	r27, 0x00	; 0
     b84:	e6 ec       	ldi	r30, 0xC6	; 198
     b86:	f5 e0       	ldi	r31, 0x05	; 5
     b88:	0c 94 fe 34 	jmp	0x69fc	; 0x69fc <__prologue_saves__+0x20>
     b8c:	9a 83       	std	Y+2, r25	; 0x02
     b8e:	89 83       	std	Y+1, r24	; 0x01
  return rxBufferLength - rxBufferIndex;
     b90:	80 91 69 02 	lds	r24, 0x0269	; 0x800269 <_ZN7TwoWire14rxBufferLengthE>
     b94:	28 2f       	mov	r18, r24
     b96:	30 e0       	ldi	r19, 0x00	; 0
     b98:	80 91 68 02 	lds	r24, 0x0268	; 0x800268 <_ZN7TwoWire13rxBufferIndexE>
     b9c:	88 2f       	mov	r24, r24
     b9e:	90 e0       	ldi	r25, 0x00	; 0
     ba0:	a9 01       	movw	r20, r18
     ba2:	48 1b       	sub	r20, r24
     ba4:	59 0b       	sbc	r21, r25
     ba6:	ca 01       	movw	r24, r20
}
     ba8:	22 96       	adiw	r28, 0x02	; 2
     baa:	e2 e0       	ldi	r30, 0x02	; 2
     bac:	0c 94 1a 35 	jmp	0x6a34	; 0x6a34 <__epilogue_restores__+0x20>

00000bb0 <_ZN7TwoWire4readEv>:

// must be called in:
// slave rx event callback
// or after requestFrom(address, numBytes)
int TwoWire::read(void)
{
     bb0:	a4 e0       	ldi	r26, 0x04	; 4
     bb2:	b0 e0       	ldi	r27, 0x00	; 0
     bb4:	ee ed       	ldi	r30, 0xDE	; 222
     bb6:	f5 e0       	ldi	r31, 0x05	; 5
     bb8:	0c 94 fe 34 	jmp	0x69fc	; 0x69fc <__prologue_saves__+0x20>
     bbc:	9c 83       	std	Y+4, r25	; 0x04
     bbe:	8b 83       	std	Y+3, r24	; 0x03
  int value = -1;
     bc0:	8f ef       	ldi	r24, 0xFF	; 255
     bc2:	9f ef       	ldi	r25, 0xFF	; 255
     bc4:	9a 83       	std	Y+2, r25	; 0x02
     bc6:	89 83       	std	Y+1, r24	; 0x01
  
  // get each successive byte on each call
  if(rxBufferIndex < rxBufferLength){
     bc8:	90 91 68 02 	lds	r25, 0x0268	; 0x800268 <_ZN7TwoWire13rxBufferIndexE>
     bcc:	80 91 69 02 	lds	r24, 0x0269	; 0x800269 <_ZN7TwoWire14rxBufferLengthE>
     bd0:	98 17       	cp	r25, r24
     bd2:	88 f4       	brcc	.+34     	; 0xbf6 <_ZN7TwoWire4readEv+0x46>
    value = rxBuffer[rxBufferIndex];
     bd4:	80 91 68 02 	lds	r24, 0x0268	; 0x800268 <_ZN7TwoWire13rxBufferIndexE>
     bd8:	88 2f       	mov	r24, r24
     bda:	90 e0       	ldi	r25, 0x00	; 0
     bdc:	88 5b       	subi	r24, 0xB8	; 184
     bde:	9d 4f       	sbci	r25, 0xFD	; 253
     be0:	fc 01       	movw	r30, r24
     be2:	80 81       	ld	r24, Z
     be4:	88 2f       	mov	r24, r24
     be6:	90 e0       	ldi	r25, 0x00	; 0
     be8:	9a 83       	std	Y+2, r25	; 0x02
     bea:	89 83       	std	Y+1, r24	; 0x01
    ++rxBufferIndex;
     bec:	80 91 68 02 	lds	r24, 0x0268	; 0x800268 <_ZN7TwoWire13rxBufferIndexE>
     bf0:	8f 5f       	subi	r24, 0xFF	; 255
     bf2:	80 93 68 02 	sts	0x0268, r24	; 0x800268 <_ZN7TwoWire13rxBufferIndexE>
  }

  return value;
     bf6:	89 81       	ldd	r24, Y+1	; 0x01
     bf8:	9a 81       	ldd	r25, Y+2	; 0x02
}
     bfa:	24 96       	adiw	r28, 0x04	; 4
     bfc:	e2 e0       	ldi	r30, 0x02	; 2
     bfe:	0c 94 1a 35 	jmp	0x6a34	; 0x6a34 <__epilogue_restores__+0x20>

00000c02 <_ZN7TwoWire4peekEv>:

// must be called in:
// slave rx event callback
// or after requestFrom(address, numBytes)
int TwoWire::peek(void)
{
     c02:	a4 e0       	ldi	r26, 0x04	; 4
     c04:	b0 e0       	ldi	r27, 0x00	; 0
     c06:	e7 e0       	ldi	r30, 0x07	; 7
     c08:	f6 e0       	ldi	r31, 0x06	; 6
     c0a:	0c 94 fe 34 	jmp	0x69fc	; 0x69fc <__prologue_saves__+0x20>
     c0e:	9c 83       	std	Y+4, r25	; 0x04
     c10:	8b 83       	std	Y+3, r24	; 0x03
  int value = -1;
     c12:	8f ef       	ldi	r24, 0xFF	; 255
     c14:	9f ef       	ldi	r25, 0xFF	; 255
     c16:	9a 83       	std	Y+2, r25	; 0x02
     c18:	89 83       	std	Y+1, r24	; 0x01
  
  if(rxBufferIndex < rxBufferLength){
     c1a:	90 91 68 02 	lds	r25, 0x0268	; 0x800268 <_ZN7TwoWire13rxBufferIndexE>
     c1e:	80 91 69 02 	lds	r24, 0x0269	; 0x800269 <_ZN7TwoWire14rxBufferLengthE>
     c22:	98 17       	cp	r25, r24
     c24:	60 f4       	brcc	.+24     	; 0xc3e <_ZN7TwoWire4peekEv+0x3c>
    value = rxBuffer[rxBufferIndex];
     c26:	80 91 68 02 	lds	r24, 0x0268	; 0x800268 <_ZN7TwoWire13rxBufferIndexE>
     c2a:	88 2f       	mov	r24, r24
     c2c:	90 e0       	ldi	r25, 0x00	; 0
     c2e:	88 5b       	subi	r24, 0xB8	; 184
     c30:	9d 4f       	sbci	r25, 0xFD	; 253
     c32:	fc 01       	movw	r30, r24
     c34:	80 81       	ld	r24, Z
     c36:	88 2f       	mov	r24, r24
     c38:	90 e0       	ldi	r25, 0x00	; 0
     c3a:	9a 83       	std	Y+2, r25	; 0x02
     c3c:	89 83       	std	Y+1, r24	; 0x01
  }

  return value;
     c3e:	89 81       	ldd	r24, Y+1	; 0x01
     c40:	9a 81       	ldd	r25, Y+2	; 0x02
}
     c42:	24 96       	adiw	r28, 0x04	; 4
     c44:	e2 e0       	ldi	r30, 0x02	; 2
     c46:	0c 94 1a 35 	jmp	0x6a34	; 0x6a34 <__epilogue_restores__+0x20>

00000c4a <_ZN7TwoWire5flushEv>:

void TwoWire::flush(void)
{
     c4a:	a2 e0       	ldi	r26, 0x02	; 2
     c4c:	b0 e0       	ldi	r27, 0x00	; 0
     c4e:	eb e2       	ldi	r30, 0x2B	; 43
     c50:	f6 e0       	ldi	r31, 0x06	; 6
     c52:	0c 94 fe 34 	jmp	0x69fc	; 0x69fc <__prologue_saves__+0x20>
     c56:	9a 83       	std	Y+2, r25	; 0x02
     c58:	89 83       	std	Y+1, r24	; 0x01
  // XXX: to be implemented.
}
     c5a:	22 96       	adiw	r28, 0x02	; 2
     c5c:	e2 e0       	ldi	r30, 0x02	; 2
     c5e:	0c 94 1a 35 	jmp	0x6a34	; 0x6a34 <__epilogue_restores__+0x20>

00000c62 <_ZN7TwoWire16onReceiveServiceEPhi>:

// behind the scenes function that is called when data is received
void TwoWire::onReceiveService(uint8_t* inBytes, int numBytes)
{
     c62:	a5 e0       	ldi	r26, 0x05	; 5
     c64:	b0 e0       	ldi	r27, 0x00	; 0
     c66:	e7 e3       	ldi	r30, 0x37	; 55
     c68:	f6 e0       	ldi	r31, 0x06	; 6
     c6a:	0c 94 fe 34 	jmp	0x69fc	; 0x69fc <__prologue_saves__+0x20>
     c6e:	9b 83       	std	Y+3, r25	; 0x03
     c70:	8a 83       	std	Y+2, r24	; 0x02
     c72:	7d 83       	std	Y+5, r23	; 0x05
     c74:	6c 83       	std	Y+4, r22	; 0x04
  // don't bother if user hasn't registered a callback
  if(!user_onReceive){
     c76:	80 91 8f 02 	lds	r24, 0x028F	; 0x80028f <_ZN7TwoWire14user_onReceiveE>
     c7a:	90 91 90 02 	lds	r25, 0x0290	; 0x800290 <_ZN7TwoWire14user_onReceiveE+0x1>
     c7e:	89 2b       	or	r24, r25
     c80:	09 f4       	brne	.+2      	; 0xc84 <_ZN7TwoWire16onReceiveServiceEPhi+0x22>
    return;
     c82:	31 c0       	rjmp	.+98     	; 0xce6 <_ZN7TwoWire16onReceiveServiceEPhi+0x84>
  }
  // don't bother if rx buffer is in use by a master requestFrom() op
  // i know this drops data, but it allows for slight stupidity
  // meaning, they may not have read all the master requestFrom() data yet
  if(rxBufferIndex < rxBufferLength){
     c84:	90 91 68 02 	lds	r25, 0x0268	; 0x800268 <_ZN7TwoWire13rxBufferIndexE>
     c88:	80 91 69 02 	lds	r24, 0x0269	; 0x800269 <_ZN7TwoWire14rxBufferLengthE>
     c8c:	98 17       	cp	r25, r24
     c8e:	08 f4       	brcc	.+2      	; 0xc92 <_ZN7TwoWire16onReceiveServiceEPhi+0x30>
    return;
     c90:	2a c0       	rjmp	.+84     	; 0xce6 <_ZN7TwoWire16onReceiveServiceEPhi+0x84>
  }
  // copy twi rx buffer into local read buffer
  // this enables new reads to happen in parallel
  for(uint8_t i = 0; i < numBytes; ++i){
     c92:	19 82       	std	Y+1, r1	; 0x01
     c94:	13 c0       	rjmp	.+38     	; 0xcbc <_ZN7TwoWire16onReceiveServiceEPhi+0x5a>
    rxBuffer[i] = inBytes[i];    
     c96:	89 81       	ldd	r24, Y+1	; 0x01
     c98:	88 2f       	mov	r24, r24
     c9a:	90 e0       	ldi	r25, 0x00	; 0
     c9c:	29 81       	ldd	r18, Y+1	; 0x01
     c9e:	22 2f       	mov	r18, r18
     ca0:	30 e0       	ldi	r19, 0x00	; 0
     ca2:	4a 81       	ldd	r20, Y+2	; 0x02
     ca4:	5b 81       	ldd	r21, Y+3	; 0x03
     ca6:	24 0f       	add	r18, r20
     ca8:	35 1f       	adc	r19, r21
     caa:	f9 01       	movw	r30, r18
     cac:	20 81       	ld	r18, Z
     cae:	88 5b       	subi	r24, 0xB8	; 184
     cb0:	9d 4f       	sbci	r25, 0xFD	; 253
     cb2:	fc 01       	movw	r30, r24
     cb4:	20 83       	st	Z, r18
  if(rxBufferIndex < rxBufferLength){
    return;
  }
  // copy twi rx buffer into local read buffer
  // this enables new reads to happen in parallel
  for(uint8_t i = 0; i < numBytes; ++i){
     cb6:	89 81       	ldd	r24, Y+1	; 0x01
     cb8:	8f 5f       	subi	r24, 0xFF	; 255
     cba:	89 83       	std	Y+1, r24	; 0x01
     cbc:	89 81       	ldd	r24, Y+1	; 0x01
     cbe:	28 2f       	mov	r18, r24
     cc0:	30 e0       	ldi	r19, 0x00	; 0
     cc2:	8c 81       	ldd	r24, Y+4	; 0x04
     cc4:	9d 81       	ldd	r25, Y+5	; 0x05
     cc6:	28 17       	cp	r18, r24
     cc8:	39 07       	cpc	r19, r25
     cca:	2c f3       	brlt	.-54     	; 0xc96 <_ZN7TwoWire16onReceiveServiceEPhi+0x34>
    rxBuffer[i] = inBytes[i];    
  }
  // set rx iterator vars
  rxBufferIndex = 0;
     ccc:	10 92 68 02 	sts	0x0268, r1	; 0x800268 <_ZN7TwoWire13rxBufferIndexE>
  rxBufferLength = numBytes;
     cd0:	8c 81       	ldd	r24, Y+4	; 0x04
     cd2:	80 93 69 02 	sts	0x0269, r24	; 0x800269 <_ZN7TwoWire14rxBufferLengthE>
  // alert user program
  user_onReceive(numBytes);
     cd6:	20 91 8f 02 	lds	r18, 0x028F	; 0x80028f <_ZN7TwoWire14user_onReceiveE>
     cda:	30 91 90 02 	lds	r19, 0x0290	; 0x800290 <_ZN7TwoWire14user_onReceiveE+0x1>
     cde:	8c 81       	ldd	r24, Y+4	; 0x04
     ce0:	9d 81       	ldd	r25, Y+5	; 0x05
     ce2:	f9 01       	movw	r30, r18
     ce4:	09 95       	icall
}
     ce6:	25 96       	adiw	r28, 0x05	; 5
     ce8:	e2 e0       	ldi	r30, 0x02	; 2
     cea:	0c 94 1a 35 	jmp	0x6a34	; 0x6a34 <__epilogue_restores__+0x20>

00000cee <_ZN7TwoWire16onRequestServiceEv>:

// behind the scenes function that is called when data is requested
void TwoWire::onRequestService(void)
{
     cee:	a0 e0       	ldi	r26, 0x00	; 0
     cf0:	b0 e0       	ldi	r27, 0x00	; 0
     cf2:	ed e7       	ldi	r30, 0x7D	; 125
     cf4:	f6 e0       	ldi	r31, 0x06	; 6
     cf6:	0c 94 fe 34 	jmp	0x69fc	; 0x69fc <__prologue_saves__+0x20>
  // don't bother if user hasn't registered a callback
  if(!user_onRequest){
     cfa:	80 91 8d 02 	lds	r24, 0x028D	; 0x80028d <_ZN7TwoWire14user_onRequestE>
     cfe:	90 91 8e 02 	lds	r25, 0x028E	; 0x80028e <_ZN7TwoWire14user_onRequestE+0x1>
     d02:	89 2b       	or	r24, r25
     d04:	09 f4       	brne	.+2      	; 0xd08 <_ZN7TwoWire16onRequestServiceEv+0x1a>
    return;
     d06:	0a c0       	rjmp	.+20     	; 0xd1c <_ZN7TwoWire16onRequestServiceEv+0x2e>
  }
  // reset tx buffer iterator vars
  // !!! this will kill any pending pre-master sendTo() activity
  txBufferIndex = 0;
     d08:	10 92 8a 02 	sts	0x028A, r1	; 0x80028a <_ZN7TwoWire13txBufferIndexE>
  txBufferLength = 0;
     d0c:	10 92 8b 02 	sts	0x028B, r1	; 0x80028b <_ZN7TwoWire14txBufferLengthE>
  // alert user program
  user_onRequest();
     d10:	80 91 8d 02 	lds	r24, 0x028D	; 0x80028d <_ZN7TwoWire14user_onRequestE>
     d14:	90 91 8e 02 	lds	r25, 0x028E	; 0x80028e <_ZN7TwoWire14user_onRequestE+0x1>
     d18:	fc 01       	movw	r30, r24
     d1a:	09 95       	icall
}
     d1c:	e2 e0       	ldi	r30, 0x02	; 2
     d1e:	0c 94 1a 35 	jmp	0x6a34	; 0x6a34 <__epilogue_restores__+0x20>

00000d22 <_ZN7TwoWire9onReceiveEPFviE>:

// sets function called on slave write
void TwoWire::onReceive( void (*function)(int) )
{
     d22:	a4 e0       	ldi	r26, 0x04	; 4
     d24:	b0 e0       	ldi	r27, 0x00	; 0
     d26:	e7 e9       	ldi	r30, 0x97	; 151
     d28:	f6 e0       	ldi	r31, 0x06	; 6
     d2a:	0c 94 fe 34 	jmp	0x69fc	; 0x69fc <__prologue_saves__+0x20>
     d2e:	9a 83       	std	Y+2, r25	; 0x02
     d30:	89 83       	std	Y+1, r24	; 0x01
     d32:	7c 83       	std	Y+4, r23	; 0x04
     d34:	6b 83       	std	Y+3, r22	; 0x03
  user_onReceive = function;
     d36:	8b 81       	ldd	r24, Y+3	; 0x03
     d38:	9c 81       	ldd	r25, Y+4	; 0x04
     d3a:	90 93 90 02 	sts	0x0290, r25	; 0x800290 <_ZN7TwoWire14user_onReceiveE+0x1>
     d3e:	80 93 8f 02 	sts	0x028F, r24	; 0x80028f <_ZN7TwoWire14user_onReceiveE>
}
     d42:	24 96       	adiw	r28, 0x04	; 4
     d44:	e2 e0       	ldi	r30, 0x02	; 2
     d46:	0c 94 1a 35 	jmp	0x6a34	; 0x6a34 <__epilogue_restores__+0x20>

00000d4a <_ZN7TwoWire9onRequestEPFvvE>:

// sets function called on slave read
void TwoWire::onRequest( void (*function)(void) )
{
     d4a:	a4 e0       	ldi	r26, 0x04	; 4
     d4c:	b0 e0       	ldi	r27, 0x00	; 0
     d4e:	eb ea       	ldi	r30, 0xAB	; 171
     d50:	f6 e0       	ldi	r31, 0x06	; 6
     d52:	0c 94 fe 34 	jmp	0x69fc	; 0x69fc <__prologue_saves__+0x20>
     d56:	9a 83       	std	Y+2, r25	; 0x02
     d58:	89 83       	std	Y+1, r24	; 0x01
     d5a:	7c 83       	std	Y+4, r23	; 0x04
     d5c:	6b 83       	std	Y+3, r22	; 0x03
  user_onRequest = function;
     d5e:	8b 81       	ldd	r24, Y+3	; 0x03
     d60:	9c 81       	ldd	r25, Y+4	; 0x04
     d62:	90 93 8e 02 	sts	0x028E, r25	; 0x80028e <_ZN7TwoWire14user_onRequestE+0x1>
     d66:	80 93 8d 02 	sts	0x028D, r24	; 0x80028d <_ZN7TwoWire14user_onRequestE>
}
     d6a:	24 96       	adiw	r28, 0x04	; 4
     d6c:	e2 e0       	ldi	r30, 0x02	; 2
     d6e:	0c 94 1a 35 	jmp	0x6a34	; 0x6a34 <__epilogue_restores__+0x20>

00000d72 <_Z41__static_initialization_and_destruction_0ii>:

// Preinstantiate Objects //////////////////////////////////////////////////////

TwoWire Wire = TwoWire();
     d72:	a4 e0       	ldi	r26, 0x04	; 4
     d74:	b0 e0       	ldi	r27, 0x00	; 0
     d76:	ef eb       	ldi	r30, 0xBF	; 191
     d78:	f6 e0       	ldi	r31, 0x06	; 6
     d7a:	0c 94 fe 34 	jmp	0x69fc	; 0x69fc <__prologue_saves__+0x20>
     d7e:	9a 83       	std	Y+2, r25	; 0x02
     d80:	89 83       	std	Y+1, r24	; 0x01
     d82:	7c 83       	std	Y+4, r23	; 0x04
     d84:	6b 83       	std	Y+3, r22	; 0x03
     d86:	89 81       	ldd	r24, Y+1	; 0x01
     d88:	9a 81       	ldd	r25, Y+2	; 0x02
     d8a:	01 97       	sbiw	r24, 0x01	; 1
     d8c:	39 f4       	brne	.+14     	; 0xd9c <_Z41__static_initialization_and_destruction_0ii+0x2a>
     d8e:	8b 81       	ldd	r24, Y+3	; 0x03
     d90:	9c 81       	ldd	r25, Y+4	; 0x04
     d92:	01 96       	adiw	r24, 0x01	; 1
     d94:	19 f4       	brne	.+6      	; 0xd9c <_Z41__static_initialization_and_destruction_0ii+0x2a>
     d96:	81 e9       	ldi	r24, 0x91	; 145
     d98:	92 e0       	ldi	r25, 0x02	; 2
     d9a:	39 de       	rcall	.-910    	; 0xa0e <_ZN7TwoWireC1Ev>
     d9c:	24 96       	adiw	r28, 0x04	; 4
     d9e:	e2 e0       	ldi	r30, 0x02	; 2
     da0:	0c 94 1a 35 	jmp	0x6a34	; 0x6a34 <__epilogue_restores__+0x20>

00000da4 <_GLOBAL__sub_I__ZN7TwoWire8rxBufferE>:
     da4:	a0 e0       	ldi	r26, 0x00	; 0
     da6:	b0 e0       	ldi	r27, 0x00	; 0
     da8:	e8 ed       	ldi	r30, 0xD8	; 216
     daa:	f6 e0       	ldi	r31, 0x06	; 6
     dac:	0c 94 fe 34 	jmp	0x69fc	; 0x69fc <__prologue_saves__+0x20>
     db0:	6f ef       	ldi	r22, 0xFF	; 255
     db2:	7f ef       	ldi	r23, 0xFF	; 255
     db4:	81 e0       	ldi	r24, 0x01	; 1
     db6:	90 e0       	ldi	r25, 0x00	; 0
     db8:	dc df       	rcall	.-72     	; 0xd72 <_Z41__static_initialization_and_destruction_0ii>
     dba:	e2 e0       	ldi	r30, 0x02	; 2
     dbc:	0c 94 1a 35 	jmp	0x6a34	; 0x6a34 <__epilogue_restores__+0x20>

00000dc0 <_Z10DebugPulsehh>:
    "pop r20 \n\t"
    "pop r19 \n\t"
    "pop r18 \n\t"
    ::);
#endif
}
     dc0:	a2 e0       	ldi	r26, 0x02	; 2
     dc2:	b0 e0       	ldi	r27, 0x00	; 0
     dc4:	e6 ee       	ldi	r30, 0xE6	; 230
     dc6:	f6 e0       	ldi	r31, 0x06	; 6
     dc8:	0c 94 fe 34 	jmp	0x69fc	; 0x69fc <__prologue_saves__+0x20>
     dcc:	89 83       	std	Y+1, r24	; 0x01
     dce:	6a 83       	std	Y+2, r22	; 0x02
     dd0:	22 96       	adiw	r28, 0x02	; 2
     dd2:	e2 e0       	ldi	r30, 0x02	; 2
     dd4:	0c 94 1a 35 	jmp	0x6a34	; 0x6a34 <__epilogue_restores__+0x20>

00000dd8 <_ZN14SoftwareSerial10tunedDelayEj>:
     dd8:	a4 e0       	ldi	r26, 0x04	; 4
     dda:	b0 e0       	ldi	r27, 0x00	; 0
     ddc:	e2 ef       	ldi	r30, 0xF2	; 242
     dde:	f6 e0       	ldi	r31, 0x06	; 6
     de0:	0c 94 fe 34 	jmp	0x69fc	; 0x69fc <__prologue_saves__+0x20>
     de4:	9c 83       	std	Y+4, r25	; 0x04
     de6:	8b 83       	std	Y+3, r24	; 0x03
     de8:	8b 81       	ldd	r24, Y+3	; 0x03
     dea:	9c 81       	ldd	r25, Y+4	; 0x04
     dec:	9a 83       	std	Y+2, r25	; 0x02
     dee:	89 83       	std	Y+1, r24	; 0x01
     df0:	89 81       	ldd	r24, Y+1	; 0x01
     df2:	9a 81       	ldd	r25, Y+2	; 0x02
     df4:	01 97       	sbiw	r24, 0x01	; 1
     df6:	f1 f7       	brne	.-4      	; 0xdf4 <_ZN14SoftwareSerial10tunedDelayEj+0x1c>
     df8:	9a 83       	std	Y+2, r25	; 0x02
     dfa:	89 83       	std	Y+1, r24	; 0x01
     dfc:	24 96       	adiw	r28, 0x04	; 4
     dfe:	e2 e0       	ldi	r30, 0x02	; 2
     e00:	0c 94 1a 35 	jmp	0x6a34	; 0x6a34 <__epilogue_restores__+0x20>

00000e04 <_ZN14SoftwareSerial11rx_pin_readEv>:

uint8_t SoftwareSerial::rx_pin_read()
{
     e04:	a2 e0       	ldi	r26, 0x02	; 2
     e06:	b0 e0       	ldi	r27, 0x00	; 0
     e08:	e8 e0       	ldi	r30, 0x08	; 8
     e0a:	f7 e0       	ldi	r31, 0x07	; 7
     e0c:	0c 94 fe 34 	jmp	0x69fc	; 0x69fc <__prologue_saves__+0x20>
     e10:	9a 83       	std	Y+2, r25	; 0x02
     e12:	89 83       	std	Y+1, r24	; 0x01
  return *_receivePortRegister & _receiveBitMask;
     e14:	89 81       	ldd	r24, Y+1	; 0x01
     e16:	9a 81       	ldd	r25, Y+2	; 0x02
     e18:	fc 01       	movw	r30, r24
     e1a:	86 85       	ldd	r24, Z+14	; 0x0e
     e1c:	97 85       	ldd	r25, Z+15	; 0x0f
     e1e:	fc 01       	movw	r30, r24
     e20:	20 81       	ld	r18, Z
     e22:	89 81       	ldd	r24, Y+1	; 0x01
     e24:	9a 81       	ldd	r25, Y+2	; 0x02
     e26:	fc 01       	movw	r30, r24
     e28:	85 85       	ldd	r24, Z+13	; 0x0d
     e2a:	82 23       	and	r24, r18
}
     e2c:	22 96       	adiw	r28, 0x02	; 2
     e2e:	e2 e0       	ldi	r30, 0x02	; 2
     e30:	0c 94 1a 35 	jmp	0x6a34	; 0x6a34 <__epilogue_restores__+0x20>

00000e34 <__vector_3>:
  }
}

#if defined(PCINT0_vect)
ISR(PCINT0_vect)
{
     e34:	1f 92       	push	r1
     e36:	0f 92       	push	r0
     e38:	00 90 5f 00 	lds	r0, 0x005F	; 0x80005f <__TEXT_REGION_LENGTH__+0x7e005f>
     e3c:	0f 92       	push	r0
     e3e:	11 24       	eor	r1, r1
     e40:	2f 93       	push	r18
     e42:	3f 93       	push	r19
     e44:	4f 93       	push	r20
     e46:	5f 93       	push	r21
     e48:	6f 93       	push	r22
     e4a:	7f 93       	push	r23
     e4c:	8f 93       	push	r24
     e4e:	9f 93       	push	r25
     e50:	af 93       	push	r26
     e52:	bf 93       	push	r27
     e54:	ef 93       	push	r30
     e56:	ff 93       	push	r31
     e58:	cf 93       	push	r28
     e5a:	df 93       	push	r29
     e5c:	cd b7       	in	r28, 0x3d	; 61
     e5e:	de b7       	in	r29, 0x3e	; 62
     e60:	2b 97       	sbiw	r28, 0x0b	; 11
     e62:	de bf       	out	0x3e, r29	; 62
     e64:	cd bf       	out	0x3d, r28	; 61
//

/* static */
inline void SoftwareSerial::handle_interrupt()
{
  if (active_object)
     e66:	80 91 9d 02 	lds	r24, 0x029D	; 0x80029d <_ZN14SoftwareSerial13active_objectE>
     e6a:	90 91 9e 02 	lds	r25, 0x029E	; 0x80029e <_ZN14SoftwareSerial13active_objectE+0x1>
     e6e:	89 2b       	or	r24, r25
     e70:	09 f4       	brne	.+2      	; 0xe74 <__vector_3+0x40>
     e72:	f4 c0       	rjmp	.+488    	; 0x105c <__vector_3+0x228>
  {
    active_object->recv();
     e74:	80 91 9d 02 	lds	r24, 0x029D	; 0x80029d <_ZN14SoftwareSerial13active_objectE>
     e78:	90 91 9e 02 	lds	r25, 0x029E	; 0x80029e <_ZN14SoftwareSerial13active_objectE+0x1>
     e7c:	9a 83       	std	Y+2, r25	; 0x02
     e7e:	89 83       	std	Y+1, r24	; 0x01
    "push r26 \n\t"
    "push r27 \n\t"
    ::);
#endif  

  uint8_t d = 0;
     e80:	1b 82       	std	Y+3, r1	; 0x03

  // If RX line is high, then we don't see any start bit
  // so interrupt is probably not for us
  if (_inverse_logic ? rx_pin_read() : !rx_pin_read())
     e82:	89 81       	ldd	r24, Y+1	; 0x01
     e84:	9a 81       	ldd	r25, Y+2	; 0x02
     e86:	fc 01       	movw	r30, r24
     e88:	86 8d       	ldd	r24, Z+30	; 0x1e
     e8a:	82 70       	andi	r24, 0x02	; 2
     e8c:	88 23       	and	r24, r24
     e8e:	49 f0       	breq	.+18     	; 0xea2 <__vector_3+0x6e>
     e90:	89 81       	ldd	r24, Y+1	; 0x01
     e92:	9a 81       	ldd	r25, Y+2	; 0x02
     e94:	b7 df       	rcall	.-146    	; 0xe04 <_ZN14SoftwareSerial11rx_pin_readEv>
     e96:	98 2f       	mov	r25, r24
     e98:	81 e0       	ldi	r24, 0x01	; 1
     e9a:	99 23       	and	r25, r25
     e9c:	51 f4       	brne	.+20     	; 0xeb2 <__vector_3+0x7e>
     e9e:	80 e0       	ldi	r24, 0x00	; 0
     ea0:	08 c0       	rjmp	.+16     	; 0xeb2 <__vector_3+0x7e>
     ea2:	89 81       	ldd	r24, Y+1	; 0x01
     ea4:	9a 81       	ldd	r25, Y+2	; 0x02
     ea6:	ae df       	rcall	.-164    	; 0xe04 <_ZN14SoftwareSerial11rx_pin_readEv>
     ea8:	98 2f       	mov	r25, r24
     eaa:	81 e0       	ldi	r24, 0x01	; 1
     eac:	99 23       	and	r25, r25
     eae:	09 f0       	breq	.+2      	; 0xeb2 <__vector_3+0x7e>
     eb0:	80 e0       	ldi	r24, 0x00	; 0
     eb2:	88 23       	and	r24, r24
     eb4:	09 f4       	brne	.+2      	; 0xeb8 <__vector_3+0x84>
     eb6:	d2 c0       	rjmp	.+420    	; 0x105c <__vector_3+0x228>
     eb8:	89 81       	ldd	r24, Y+1	; 0x01
     eba:	9a 81       	ldd	r25, Y+2	; 0x02
     ebc:	9d 83       	std	Y+5, r25	; 0x05
     ebe:	8c 83       	std	Y+4, r24	; 0x04
     ec0:	1e 82       	std	Y+6, r1	; 0x06
  listen();
}

void SoftwareSerial::setRxIntMsk(bool enable)
{
    if (enable)
     ec2:	8e 81       	ldd	r24, Y+6	; 0x06
     ec4:	88 23       	and	r24, r24
     ec6:	a1 f0       	breq	.+40     	; 0xef0 <__vector_3+0xbc>
      *_pcint_maskreg |= _pcint_maskvalue;
     ec8:	8c 81       	ldd	r24, Y+4	; 0x04
     eca:	9d 81       	ldd	r25, Y+5	; 0x05
     ecc:	fc 01       	movw	r30, r24
     ece:	83 89       	ldd	r24, Z+19	; 0x13
     ed0:	94 89       	ldd	r25, Z+20	; 0x14
     ed2:	2c 81       	ldd	r18, Y+4	; 0x04
     ed4:	3d 81       	ldd	r19, Y+5	; 0x05
     ed6:	f9 01       	movw	r30, r18
     ed8:	23 89       	ldd	r18, Z+19	; 0x13
     eda:	34 89       	ldd	r19, Z+20	; 0x14
     edc:	f9 01       	movw	r30, r18
     ede:	40 81       	ld	r20, Z
     ee0:	2c 81       	ldd	r18, Y+4	; 0x04
     ee2:	3d 81       	ldd	r19, Y+5	; 0x05
     ee4:	f9 01       	movw	r30, r18
     ee6:	25 89       	ldd	r18, Z+21	; 0x15
     ee8:	24 2b       	or	r18, r20
     eea:	fc 01       	movw	r30, r24
     eec:	20 83       	st	Z, r18
     eee:	15 c0       	rjmp	.+42     	; 0xf1a <__vector_3+0xe6>
    else
      *_pcint_maskreg &= ~_pcint_maskvalue;
     ef0:	8c 81       	ldd	r24, Y+4	; 0x04
     ef2:	9d 81       	ldd	r25, Y+5	; 0x05
     ef4:	fc 01       	movw	r30, r24
     ef6:	83 89       	ldd	r24, Z+19	; 0x13
     ef8:	94 89       	ldd	r25, Z+20	; 0x14
     efa:	2c 81       	ldd	r18, Y+4	; 0x04
     efc:	3d 81       	ldd	r19, Y+5	; 0x05
     efe:	f9 01       	movw	r30, r18
     f00:	23 89       	ldd	r18, Z+19	; 0x13
     f02:	34 89       	ldd	r19, Z+20	; 0x14
     f04:	f9 01       	movw	r30, r18
     f06:	20 81       	ld	r18, Z
     f08:	42 2f       	mov	r20, r18
     f0a:	2c 81       	ldd	r18, Y+4	; 0x04
     f0c:	3d 81       	ldd	r19, Y+5	; 0x05
     f0e:	f9 01       	movw	r30, r18
     f10:	25 89       	ldd	r18, Z+21	; 0x15
     f12:	20 95       	com	r18
     f14:	24 23       	and	r18, r20
     f16:	fc 01       	movw	r30, r24
     f18:	20 83       	st	Z, r18
    // triggering another interrupt directly after we return, which can
    // cause problems at higher baudrates.
    setRxIntMsk(false);

    // Wait approximately 1/2 of a bit width to "center" the sample
    tunedDelay(_rx_delay_centering);
     f1a:	89 81       	ldd	r24, Y+1	; 0x01
     f1c:	9a 81       	ldd	r25, Y+2	; 0x02
     f1e:	fc 01       	movw	r30, r24
     f20:	86 89       	ldd	r24, Z+22	; 0x16
     f22:	97 89       	ldd	r25, Z+23	; 0x17
     f24:	59 df       	rcall	.-334    	; 0xdd8 <_ZN14SoftwareSerial10tunedDelayEj>
    DebugPulse(_DEBUG_PIN2, 1);
     f26:	61 e0       	ldi	r22, 0x01	; 1
     f28:	8d e0       	ldi	r24, 0x0D	; 13
     f2a:	4a df       	rcall	.-364    	; 0xdc0 <_Z10DebugPulsehh>

    // Read each of the 8 bits
    for (uint8_t i=8; i > 0; --i)
     f2c:	88 e0       	ldi	r24, 0x08	; 8
     f2e:	8f 83       	std	Y+7, r24	; 0x07
     f30:	1f c0       	rjmp	.+62     	; 0xf70 <__vector_3+0x13c>
    {
      tunedDelay(_rx_delay_intrabit);
     f32:	89 81       	ldd	r24, Y+1	; 0x01
     f34:	9a 81       	ldd	r25, Y+2	; 0x02
     f36:	fc 01       	movw	r30, r24
     f38:	80 8d       	ldd	r24, Z+24	; 0x18
     f3a:	91 8d       	ldd	r25, Z+25	; 0x19
     f3c:	4d df       	rcall	.-358    	; 0xdd8 <_ZN14SoftwareSerial10tunedDelayEj>
      d >>= 1;
     f3e:	8b 81       	ldd	r24, Y+3	; 0x03
     f40:	88 2f       	mov	r24, r24
     f42:	90 e0       	ldi	r25, 0x00	; 0
     f44:	95 95       	asr	r25
     f46:	87 95       	ror	r24
     f48:	8b 83       	std	Y+3, r24	; 0x03
      DebugPulse(_DEBUG_PIN2, 1);
     f4a:	61 e0       	ldi	r22, 0x01	; 1
     f4c:	8d e0       	ldi	r24, 0x0D	; 13
     f4e:	38 df       	rcall	.-400    	; 0xdc0 <_Z10DebugPulsehh>
      if (rx_pin_read())
     f50:	89 81       	ldd	r24, Y+1	; 0x01
     f52:	9a 81       	ldd	r25, Y+2	; 0x02
     f54:	57 df       	rcall	.-338    	; 0xe04 <_ZN14SoftwareSerial11rx_pin_readEv>
     f56:	98 2f       	mov	r25, r24
     f58:	81 e0       	ldi	r24, 0x01	; 1
     f5a:	99 23       	and	r25, r25
     f5c:	09 f4       	brne	.+2      	; 0xf60 <__vector_3+0x12c>
     f5e:	80 e0       	ldi	r24, 0x00	; 0
     f60:	88 23       	and	r24, r24
     f62:	19 f0       	breq	.+6      	; 0xf6a <__vector_3+0x136>
        d |= 0x80;
     f64:	8b 81       	ldd	r24, Y+3	; 0x03
     f66:	80 68       	ori	r24, 0x80	; 128
     f68:	8b 83       	std	Y+3, r24	; 0x03
    // Wait approximately 1/2 of a bit width to "center" the sample
    tunedDelay(_rx_delay_centering);
    DebugPulse(_DEBUG_PIN2, 1);

    // Read each of the 8 bits
    for (uint8_t i=8; i > 0; --i)
     f6a:	8f 81       	ldd	r24, Y+7	; 0x07
     f6c:	81 50       	subi	r24, 0x01	; 1
     f6e:	8f 83       	std	Y+7, r24	; 0x07
     f70:	8f 81       	ldd	r24, Y+7	; 0x07
     f72:	88 23       	and	r24, r24
     f74:	f1 f6       	brne	.-68     	; 0xf32 <__vector_3+0xfe>
      DebugPulse(_DEBUG_PIN2, 1);
      if (rx_pin_read())
        d |= 0x80;
    }

    if (_inverse_logic)
     f76:	89 81       	ldd	r24, Y+1	; 0x01
     f78:	9a 81       	ldd	r25, Y+2	; 0x02
     f7a:	fc 01       	movw	r30, r24
     f7c:	86 8d       	ldd	r24, Z+30	; 0x1e
     f7e:	82 70       	andi	r24, 0x02	; 2
     f80:	88 23       	and	r24, r24
     f82:	19 f0       	breq	.+6      	; 0xf8a <__vector_3+0x156>
      d = ~d;
     f84:	8b 81       	ldd	r24, Y+3	; 0x03
     f86:	80 95       	com	r24
     f88:	8b 83       	std	Y+3, r24	; 0x03

    // if buffer full, set the overflow flag and return
    uint8_t next = (_receive_buffer_tail + 1) % _SS_MAX_RX_BUFF;
     f8a:	80 91 df 02 	lds	r24, 0x02DF	; 0x8002df <_ZN14SoftwareSerial20_receive_buffer_tailE>
     f8e:	88 2f       	mov	r24, r24
     f90:	90 e0       	ldi	r25, 0x00	; 0
     f92:	01 96       	adiw	r24, 0x01	; 1
     f94:	8f 73       	andi	r24, 0x3F	; 63
     f96:	90 78       	andi	r25, 0x80	; 128
     f98:	99 23       	and	r25, r25
     f9a:	24 f4       	brge	.+8      	; 0xfa4 <__vector_3+0x170>
     f9c:	01 97       	sbiw	r24, 0x01	; 1
     f9e:	80 6c       	ori	r24, 0xC0	; 192
     fa0:	9f 6f       	ori	r25, 0xFF	; 255
     fa2:	01 96       	adiw	r24, 0x01	; 1
     fa4:	88 87       	std	Y+8, r24	; 0x08
    if (next != _receive_buffer_head)
     fa6:	90 91 e0 02 	lds	r25, 0x02E0	; 0x8002e0 <_ZN14SoftwareSerial20_receive_buffer_headE>
     faa:	81 e0       	ldi	r24, 0x01	; 1
     fac:	28 85       	ldd	r18, Y+8	; 0x08
     fae:	29 17       	cp	r18, r25
     fb0:	09 f4       	brne	.+2      	; 0xfb4 <__vector_3+0x180>
     fb2:	80 e0       	ldi	r24, 0x00	; 0
     fb4:	88 23       	and	r24, r24
     fb6:	69 f0       	breq	.+26     	; 0xfd2 <__vector_3+0x19e>
    {
      // save new data in buffer: tail points to where byte goes
      _receive_buffer[_receive_buffer_tail] = d; // save new byte
     fb8:	80 91 df 02 	lds	r24, 0x02DF	; 0x8002df <_ZN14SoftwareSerial20_receive_buffer_tailE>
     fbc:	88 2f       	mov	r24, r24
     fbe:	90 e0       	ldi	r25, 0x00	; 0
     fc0:	81 56       	subi	r24, 0x61	; 97
     fc2:	9d 4f       	sbci	r25, 0xFD	; 253
     fc4:	2b 81       	ldd	r18, Y+3	; 0x03
     fc6:	fc 01       	movw	r30, r24
     fc8:	20 83       	st	Z, r18
      _receive_buffer_tail = next;
     fca:	88 85       	ldd	r24, Y+8	; 0x08
     fcc:	80 93 df 02 	sts	0x02DF, r24	; 0x8002df <_ZN14SoftwareSerial20_receive_buffer_tailE>
     fd0:	0a c0       	rjmp	.+20     	; 0xfe6 <__vector_3+0x1b2>
    } 
    else 
    {
      DebugPulse(_DEBUG_PIN1, 1);
     fd2:	61 e0       	ldi	r22, 0x01	; 1
     fd4:	8b e0       	ldi	r24, 0x0B	; 11
     fd6:	f4 de       	rcall	.-536    	; 0xdc0 <_Z10DebugPulsehh>
      _buffer_overflow = true;
     fd8:	89 81       	ldd	r24, Y+1	; 0x01
     fda:	9a 81       	ldd	r25, Y+2	; 0x02
     fdc:	fc 01       	movw	r30, r24
     fde:	26 8d       	ldd	r18, Z+30	; 0x1e
     fe0:	21 60       	ori	r18, 0x01	; 1
     fe2:	fc 01       	movw	r30, r24
     fe4:	26 8f       	std	Z+30, r18	; 0x1e
    }

    // skip the stop bit
    tunedDelay(_rx_delay_stopbit);
     fe6:	89 81       	ldd	r24, Y+1	; 0x01
     fe8:	9a 81       	ldd	r25, Y+2	; 0x02
     fea:	fc 01       	movw	r30, r24
     fec:	82 8d       	ldd	r24, Z+26	; 0x1a
     fee:	93 8d       	ldd	r25, Z+27	; 0x1b
     ff0:	f3 de       	rcall	.-538    	; 0xdd8 <_ZN14SoftwareSerial10tunedDelayEj>
    DebugPulse(_DEBUG_PIN1, 1);
     ff2:	61 e0       	ldi	r22, 0x01	; 1
     ff4:	8b e0       	ldi	r24, 0x0B	; 11
     ff6:	e4 de       	rcall	.-568    	; 0xdc0 <_Z10DebugPulsehh>
     ff8:	89 81       	ldd	r24, Y+1	; 0x01
     ffa:	9a 81       	ldd	r25, Y+2	; 0x02
     ffc:	9a 87       	std	Y+10, r25	; 0x0a
     ffe:	89 87       	std	Y+9, r24	; 0x09
    1000:	81 e0       	ldi	r24, 0x01	; 1
    1002:	8b 87       	std	Y+11, r24	; 0x0b
  listen();
}

void SoftwareSerial::setRxIntMsk(bool enable)
{
    if (enable)
    1004:	8b 85       	ldd	r24, Y+11	; 0x0b
    1006:	88 23       	and	r24, r24
    1008:	a1 f0       	breq	.+40     	; 0x1032 <__vector_3+0x1fe>
      *_pcint_maskreg |= _pcint_maskvalue;
    100a:	89 85       	ldd	r24, Y+9	; 0x09
    100c:	9a 85       	ldd	r25, Y+10	; 0x0a
    100e:	fc 01       	movw	r30, r24
    1010:	83 89       	ldd	r24, Z+19	; 0x13
    1012:	94 89       	ldd	r25, Z+20	; 0x14
    1014:	29 85       	ldd	r18, Y+9	; 0x09
    1016:	3a 85       	ldd	r19, Y+10	; 0x0a
    1018:	f9 01       	movw	r30, r18
    101a:	23 89       	ldd	r18, Z+19	; 0x13
    101c:	34 89       	ldd	r19, Z+20	; 0x14
    101e:	f9 01       	movw	r30, r18
    1020:	40 81       	ld	r20, Z
    1022:	29 85       	ldd	r18, Y+9	; 0x09
    1024:	3a 85       	ldd	r19, Y+10	; 0x0a
    1026:	f9 01       	movw	r30, r18
    1028:	25 89       	ldd	r18, Z+21	; 0x15
    102a:	24 2b       	or	r18, r20
    102c:	fc 01       	movw	r30, r24
    102e:	20 83       	st	Z, r18
    1030:	15 c0       	rjmp	.+42     	; 0x105c <__vector_3+0x228>
    else
      *_pcint_maskreg &= ~_pcint_maskvalue;
    1032:	89 85       	ldd	r24, Y+9	; 0x09
    1034:	9a 85       	ldd	r25, Y+10	; 0x0a
    1036:	fc 01       	movw	r30, r24
    1038:	83 89       	ldd	r24, Z+19	; 0x13
    103a:	94 89       	ldd	r25, Z+20	; 0x14
    103c:	29 85       	ldd	r18, Y+9	; 0x09
    103e:	3a 85       	ldd	r19, Y+10	; 0x0a
    1040:	f9 01       	movw	r30, r18
    1042:	23 89       	ldd	r18, Z+19	; 0x13
    1044:	34 89       	ldd	r19, Z+20	; 0x14
    1046:	f9 01       	movw	r30, r18
    1048:	20 81       	ld	r18, Z
    104a:	42 2f       	mov	r20, r18
    104c:	29 85       	ldd	r18, Y+9	; 0x09
    104e:	3a 85       	ldd	r19, Y+10	; 0x0a
    1050:	f9 01       	movw	r30, r18
    1052:	25 89       	ldd	r18, Z+21	; 0x15
    1054:	20 95       	com	r18
    1056:	24 23       	and	r18, r20
    1058:	fc 01       	movw	r30, r24
    105a:	20 83       	st	Z, r18

#if defined(PCINT0_vect)
ISR(PCINT0_vect)
{
  SoftwareSerial::handle_interrupt();
}
    105c:	2b 96       	adiw	r28, 0x0b	; 11
    105e:	0f b6       	in	r0, 0x3f	; 63
    1060:	f8 94       	cli
    1062:	de bf       	out	0x3e, r29	; 62
    1064:	0f be       	out	0x3f, r0	; 63
    1066:	cd bf       	out	0x3d, r28	; 61
    1068:	df 91       	pop	r29
    106a:	cf 91       	pop	r28
    106c:	ff 91       	pop	r31
    106e:	ef 91       	pop	r30
    1070:	bf 91       	pop	r27
    1072:	af 91       	pop	r26
    1074:	9f 91       	pop	r25
    1076:	8f 91       	pop	r24
    1078:	7f 91       	pop	r23
    107a:	6f 91       	pop	r22
    107c:	5f 91       	pop	r21
    107e:	4f 91       	pop	r20
    1080:	3f 91       	pop	r19
    1082:	2f 91       	pop	r18
    1084:	0f 90       	pop	r0
    1086:	00 92 5f 00 	sts	0x005F, r0	; 0x80005f <__TEXT_REGION_LENGTH__+0x7e005f>
    108a:	0f 90       	pop	r0
    108c:	1f 90       	pop	r1
    108e:	18 95       	reti

00001090 <_ZN13LiquidCrystalC1Ehhhhhh>:
  location &= 0x7; // we only have 8 locations 0-7
  command(LCD_SETCGRAMADDR | (location << 3));
  for (int i=0; i<8; i++) {
    write(charmap[i]);
  }
}
    1090:	8f 92       	push	r8
    1092:	af 92       	push	r10
    1094:	cf 92       	push	r12
    1096:	ef 92       	push	r14
    1098:	0f 93       	push	r16
    109a:	cf 93       	push	r28
    109c:	df 93       	push	r29
    109e:	cd b7       	in	r28, 0x3d	; 61
    10a0:	de b7       	in	r29, 0x3e	; 62
    10a2:	28 97       	sbiw	r28, 0x08	; 8
    10a4:	0f b6       	in	r0, 0x3f	; 63
    10a6:	f8 94       	cli
    10a8:	de bf       	out	0x3e, r29	; 62
    10aa:	0f be       	out	0x3f, r0	; 63
    10ac:	cd bf       	out	0x3d, r28	; 61
    10ae:	9a 83       	std	Y+2, r25	; 0x02
    10b0:	89 83       	std	Y+1, r24	; 0x01
    10b2:	6b 83       	std	Y+3, r22	; 0x03
    10b4:	4c 83       	std	Y+4, r20	; 0x04
    10b6:	2d 83       	std	Y+5, r18	; 0x05
    10b8:	0e 83       	std	Y+6, r16	; 0x06
    10ba:	ef 82       	std	Y+7, r14	; 0x07
    10bc:	c8 86       	std	Y+8, r12	; 0x08
    10be:	89 81       	ldd	r24, Y+1	; 0x01
    10c0:	9a 81       	ldd	r25, Y+2	; 0x02
    10c2:	6c dc       	rcall	.-1832   	; 0x99c <_ZN5PrintC1Ev>
    10c4:	89 81       	ldd	r24, Y+1	; 0x01
    10c6:	9a 81       	ldd	r25, Y+2	; 0x02
    10c8:	27 e8       	ldi	r18, 0x87	; 135
    10ca:	31 e0       	ldi	r19, 0x01	; 1
    10cc:	fc 01       	movw	r30, r24
    10ce:	31 83       	std	Z+1, r19	; 0x01
    10d0:	20 83       	st	Z, r18
    10d2:	89 81       	ldd	r24, Y+1	; 0x01
    10d4:	9a 81       	ldd	r25, Y+2	; 0x02
    10d6:	1f 92       	push	r1
    10d8:	1f 92       	push	r1
    10da:	1f 92       	push	r1
    10dc:	1f 92       	push	r1
    10de:	88 84       	ldd	r8, Y+8	; 0x08
    10e0:	af 80       	ldd	r10, Y+7	; 0x07
    10e2:	ce 80       	ldd	r12, Y+6	; 0x06
    10e4:	ed 80       	ldd	r14, Y+5	; 0x05
    10e6:	0c 81       	ldd	r16, Y+4	; 0x04
    10e8:	2f ef       	ldi	r18, 0xFF	; 255
    10ea:	4b 81       	ldd	r20, Y+3	; 0x03
    10ec:	61 e0       	ldi	r22, 0x01	; 1
    10ee:	12 d0       	rcall	.+36     	; 0x1114 <_ZN13LiquidCrystal4initEhhhhhhhhhhhh>
    10f0:	0f 90       	pop	r0
    10f2:	0f 90       	pop	r0
    10f4:	0f 90       	pop	r0
    10f6:	0f 90       	pop	r0
    10f8:	28 96       	adiw	r28, 0x08	; 8
    10fa:	0f b6       	in	r0, 0x3f	; 63
    10fc:	f8 94       	cli
    10fe:	de bf       	out	0x3e, r29	; 62
    1100:	0f be       	out	0x3f, r0	; 63
    1102:	cd bf       	out	0x3d, r28	; 61
    1104:	df 91       	pop	r29
    1106:	cf 91       	pop	r28
    1108:	0f 91       	pop	r16
    110a:	ef 90       	pop	r14
    110c:	cf 90       	pop	r12
    110e:	af 90       	pop	r10
    1110:	8f 90       	pop	r8
    1112:	08 95       	ret

00001114 <_ZN13LiquidCrystal4initEhhhhhhhhhhhh>:
    1114:	8f 92       	push	r8
    1116:	af 92       	push	r10
    1118:	cf 92       	push	r12
    111a:	ef 92       	push	r14
    111c:	0f 93       	push	r16
    111e:	cf 93       	push	r28
    1120:	df 93       	push	r29
    1122:	cd b7       	in	r28, 0x3d	; 61
    1124:	de b7       	in	r29, 0x3e	; 62
    1126:	2a 97       	sbiw	r28, 0x0a	; 10
    1128:	0f b6       	in	r0, 0x3f	; 63
    112a:	f8 94       	cli
    112c:	de bf       	out	0x3e, r29	; 62
    112e:	0f be       	out	0x3f, r0	; 63
    1130:	cd bf       	out	0x3d, r28	; 61
    1132:	9a 83       	std	Y+2, r25	; 0x02
    1134:	89 83       	std	Y+1, r24	; 0x01
    1136:	6b 83       	std	Y+3, r22	; 0x03
    1138:	4c 83       	std	Y+4, r20	; 0x04
    113a:	2d 83       	std	Y+5, r18	; 0x05
    113c:	0e 83       	std	Y+6, r16	; 0x06
    113e:	ef 82       	std	Y+7, r14	; 0x07
    1140:	c8 86       	std	Y+8, r12	; 0x08
    1142:	a9 86       	std	Y+9, r10	; 0x09
    1144:	8a 86       	std	Y+10, r8	; 0x0a
    1146:	89 81       	ldd	r24, Y+1	; 0x01
    1148:	9a 81       	ldd	r25, Y+2	; 0x02
    114a:	2c 81       	ldd	r18, Y+4	; 0x04
    114c:	fc 01       	movw	r30, r24
    114e:	24 83       	std	Z+4, r18	; 0x04
    1150:	89 81       	ldd	r24, Y+1	; 0x01
    1152:	9a 81       	ldd	r25, Y+2	; 0x02
    1154:	2d 81       	ldd	r18, Y+5	; 0x05
    1156:	fc 01       	movw	r30, r24
    1158:	25 83       	std	Z+5, r18	; 0x05
    115a:	89 81       	ldd	r24, Y+1	; 0x01
    115c:	9a 81       	ldd	r25, Y+2	; 0x02
    115e:	2e 81       	ldd	r18, Y+6	; 0x06
    1160:	fc 01       	movw	r30, r24
    1162:	26 83       	std	Z+6, r18	; 0x06
    1164:	89 81       	ldd	r24, Y+1	; 0x01
    1166:	9a 81       	ldd	r25, Y+2	; 0x02
    1168:	2f 81       	ldd	r18, Y+7	; 0x07
    116a:	fc 01       	movw	r30, r24
    116c:	27 83       	std	Z+7, r18	; 0x07
    116e:	89 81       	ldd	r24, Y+1	; 0x01
    1170:	9a 81       	ldd	r25, Y+2	; 0x02
    1172:	28 85       	ldd	r18, Y+8	; 0x08
    1174:	fc 01       	movw	r30, r24
    1176:	20 87       	std	Z+8, r18	; 0x08
    1178:	89 81       	ldd	r24, Y+1	; 0x01
    117a:	9a 81       	ldd	r25, Y+2	; 0x02
    117c:	29 85       	ldd	r18, Y+9	; 0x09
    117e:	fc 01       	movw	r30, r24
    1180:	21 87       	std	Z+9, r18	; 0x09
    1182:	89 81       	ldd	r24, Y+1	; 0x01
    1184:	9a 81       	ldd	r25, Y+2	; 0x02
    1186:	2a 85       	ldd	r18, Y+10	; 0x0a
    1188:	fc 01       	movw	r30, r24
    118a:	22 87       	std	Z+10, r18	; 0x0a
    118c:	89 81       	ldd	r24, Y+1	; 0x01
    118e:	9a 81       	ldd	r25, Y+2	; 0x02
    1190:	2c 89       	ldd	r18, Y+20	; 0x14
    1192:	fc 01       	movw	r30, r24
    1194:	23 87       	std	Z+11, r18	; 0x0b
    1196:	89 81       	ldd	r24, Y+1	; 0x01
    1198:	9a 81       	ldd	r25, Y+2	; 0x02
    119a:	2d 89       	ldd	r18, Y+21	; 0x15
    119c:	fc 01       	movw	r30, r24
    119e:	24 87       	std	Z+12, r18	; 0x0c
    11a0:	89 81       	ldd	r24, Y+1	; 0x01
    11a2:	9a 81       	ldd	r25, Y+2	; 0x02
    11a4:	2e 89       	ldd	r18, Y+22	; 0x16
    11a6:	fc 01       	movw	r30, r24
    11a8:	25 87       	std	Z+13, r18	; 0x0d
    11aa:	89 81       	ldd	r24, Y+1	; 0x01
    11ac:	9a 81       	ldd	r25, Y+2	; 0x02
    11ae:	2f 89       	ldd	r18, Y+23	; 0x17
    11b0:	fc 01       	movw	r30, r24
    11b2:	26 87       	std	Z+14, r18	; 0x0e
    11b4:	89 81       	ldd	r24, Y+1	; 0x01
    11b6:	9a 81       	ldd	r25, Y+2	; 0x02
    11b8:	fc 01       	movw	r30, r24
    11ba:	84 81       	ldd	r24, Z+4	; 0x04
    11bc:	61 e0       	ldi	r22, 0x01	; 1
    11be:	0e 94 28 31 	call	0x6250	; 0x6250 <pinMode>
    11c2:	89 81       	ldd	r24, Y+1	; 0x01
    11c4:	9a 81       	ldd	r25, Y+2	; 0x02
    11c6:	fc 01       	movw	r30, r24
    11c8:	85 81       	ldd	r24, Z+5	; 0x05
    11ca:	8f 3f       	cpi	r24, 0xFF	; 255
    11cc:	39 f0       	breq	.+14     	; 0x11dc <_ZN13LiquidCrystal4initEhhhhhhhhhhhh+0xc8>
    11ce:	89 81       	ldd	r24, Y+1	; 0x01
    11d0:	9a 81       	ldd	r25, Y+2	; 0x02
    11d2:	fc 01       	movw	r30, r24
    11d4:	85 81       	ldd	r24, Z+5	; 0x05
    11d6:	61 e0       	ldi	r22, 0x01	; 1
    11d8:	0e 94 28 31 	call	0x6250	; 0x6250 <pinMode>
    11dc:	89 81       	ldd	r24, Y+1	; 0x01
    11de:	9a 81       	ldd	r25, Y+2	; 0x02
    11e0:	fc 01       	movw	r30, r24
    11e2:	86 81       	ldd	r24, Z+6	; 0x06
    11e4:	61 e0       	ldi	r22, 0x01	; 1
    11e6:	0e 94 28 31 	call	0x6250	; 0x6250 <pinMode>
    11ea:	8b 81       	ldd	r24, Y+3	; 0x03
    11ec:	88 23       	and	r24, r24
    11ee:	29 f0       	breq	.+10     	; 0x11fa <_ZN13LiquidCrystal4initEhhhhhhhhhhhh+0xe6>
    11f0:	89 81       	ldd	r24, Y+1	; 0x01
    11f2:	9a 81       	ldd	r25, Y+2	; 0x02
    11f4:	fc 01       	movw	r30, r24
    11f6:	17 86       	std	Z+15, r1	; 0x0f
    11f8:	05 c0       	rjmp	.+10     	; 0x1204 <_ZN13LiquidCrystal4initEhhhhhhhhhhhh+0xf0>
    11fa:	89 81       	ldd	r24, Y+1	; 0x01
    11fc:	9a 81       	ldd	r25, Y+2	; 0x02
    11fe:	20 e1       	ldi	r18, 0x10	; 16
    1200:	fc 01       	movw	r30, r24
    1202:	27 87       	std	Z+15, r18	; 0x0f
    1204:	89 81       	ldd	r24, Y+1	; 0x01
    1206:	9a 81       	ldd	r25, Y+2	; 0x02
    1208:	20 e0       	ldi	r18, 0x00	; 0
    120a:	41 e0       	ldi	r20, 0x01	; 1
    120c:	60 e1       	ldi	r22, 0x10	; 16
    120e:	0e d0       	rcall	.+28     	; 0x122c <_ZN13LiquidCrystal5beginEhhh>
    1210:	2a 96       	adiw	r28, 0x0a	; 10
    1212:	0f b6       	in	r0, 0x3f	; 63
    1214:	f8 94       	cli
    1216:	de bf       	out	0x3e, r29	; 62
    1218:	0f be       	out	0x3f, r0	; 63
    121a:	cd bf       	out	0x3d, r28	; 61
    121c:	df 91       	pop	r29
    121e:	cf 91       	pop	r28
    1220:	0f 91       	pop	r16
    1222:	ef 90       	pop	r14
    1224:	cf 90       	pop	r12
    1226:	af 90       	pop	r10
    1228:	8f 90       	pop	r8
    122a:	08 95       	ret

0000122c <_ZN13LiquidCrystal5beginEhhh>:
    122c:	a5 e0       	ldi	r26, 0x05	; 5
    122e:	b0 e0       	ldi	r27, 0x00	; 0
    1230:	ec e1       	ldi	r30, 0x1C	; 28
    1232:	f9 e0       	ldi	r31, 0x09	; 9
    1234:	0c 94 fc 34 	jmp	0x69f8	; 0x69f8 <__prologue_saves__+0x1c>
    1238:	9a 83       	std	Y+2, r25	; 0x02
    123a:	89 83       	std	Y+1, r24	; 0x01
    123c:	6b 83       	std	Y+3, r22	; 0x03
    123e:	4c 83       	std	Y+4, r20	; 0x04
    1240:	2d 83       	std	Y+5, r18	; 0x05
    1242:	8c 81       	ldd	r24, Y+4	; 0x04
    1244:	82 30       	cpi	r24, 0x02	; 2
    1246:	50 f0       	brcs	.+20     	; 0x125c <_ZN13LiquidCrystal5beginEhhh+0x30>
    1248:	89 81       	ldd	r24, Y+1	; 0x01
    124a:	9a 81       	ldd	r25, Y+2	; 0x02
    124c:	fc 01       	movw	r30, r24
    124e:	87 85       	ldd	r24, Z+15	; 0x0f
    1250:	28 2f       	mov	r18, r24
    1252:	28 60       	ori	r18, 0x08	; 8
    1254:	89 81       	ldd	r24, Y+1	; 0x01
    1256:	9a 81       	ldd	r25, Y+2	; 0x02
    1258:	fc 01       	movw	r30, r24
    125a:	27 87       	std	Z+15, r18	; 0x0f
    125c:	89 81       	ldd	r24, Y+1	; 0x01
    125e:	9a 81       	ldd	r25, Y+2	; 0x02
    1260:	2c 81       	ldd	r18, Y+4	; 0x04
    1262:	fc 01       	movw	r30, r24
    1264:	23 8b       	std	Z+19, r18	; 0x13
    1266:	8b 81       	ldd	r24, Y+3	; 0x03
    1268:	88 2f       	mov	r24, r24
    126a:	90 e0       	ldi	r25, 0x00	; 0
    126c:	ac 01       	movw	r20, r24
    126e:	40 5c       	subi	r20, 0xC0	; 192
    1270:	5f 4f       	sbci	r21, 0xFF	; 255
    1272:	8b 81       	ldd	r24, Y+3	; 0x03
    1274:	28 2f       	mov	r18, r24
    1276:	30 e0       	ldi	r19, 0x00	; 0
    1278:	89 81       	ldd	r24, Y+1	; 0x01
    127a:	9a 81       	ldd	r25, Y+2	; 0x02
    127c:	8a 01       	movw	r16, r20
    127e:	40 e4       	ldi	r20, 0x40	; 64
    1280:	50 e0       	ldi	r21, 0x00	; 0
    1282:	60 e0       	ldi	r22, 0x00	; 0
    1284:	70 e0       	ldi	r23, 0x00	; 0
    1286:	a4 d0       	rcall	.+328    	; 0x13d0 <_ZN13LiquidCrystal13setRowOffsetsEiiii>
    1288:	8d 81       	ldd	r24, Y+5	; 0x05
    128a:	88 23       	and	r24, r24
    128c:	69 f0       	breq	.+26     	; 0x12a8 <_ZN13LiquidCrystal5beginEhhh+0x7c>
    128e:	8c 81       	ldd	r24, Y+4	; 0x04
    1290:	81 30       	cpi	r24, 0x01	; 1
    1292:	51 f4       	brne	.+20     	; 0x12a8 <_ZN13LiquidCrystal5beginEhhh+0x7c>
    1294:	89 81       	ldd	r24, Y+1	; 0x01
    1296:	9a 81       	ldd	r25, Y+2	; 0x02
    1298:	fc 01       	movw	r30, r24
    129a:	87 85       	ldd	r24, Z+15	; 0x0f
    129c:	28 2f       	mov	r18, r24
    129e:	24 60       	ori	r18, 0x04	; 4
    12a0:	89 81       	ldd	r24, Y+1	; 0x01
    12a2:	9a 81       	ldd	r25, Y+2	; 0x02
    12a4:	fc 01       	movw	r30, r24
    12a6:	27 87       	std	Z+15, r18	; 0x0f
    12a8:	80 e5       	ldi	r24, 0x50	; 80
    12aa:	93 ec       	ldi	r25, 0xC3	; 195
    12ac:	0e 94 9c 30 	call	0x6138	; 0x6138 <delayMicroseconds>
    12b0:	89 81       	ldd	r24, Y+1	; 0x01
    12b2:	9a 81       	ldd	r25, Y+2	; 0x02
    12b4:	fc 01       	movw	r30, r24
    12b6:	84 81       	ldd	r24, Z+4	; 0x04
    12b8:	60 e0       	ldi	r22, 0x00	; 0
    12ba:	0e 94 64 31 	call	0x62c8	; 0x62c8 <digitalWrite>
    12be:	89 81       	ldd	r24, Y+1	; 0x01
    12c0:	9a 81       	ldd	r25, Y+2	; 0x02
    12c2:	fc 01       	movw	r30, r24
    12c4:	86 81       	ldd	r24, Z+6	; 0x06
    12c6:	60 e0       	ldi	r22, 0x00	; 0
    12c8:	0e 94 64 31 	call	0x62c8	; 0x62c8 <digitalWrite>
    12cc:	89 81       	ldd	r24, Y+1	; 0x01
    12ce:	9a 81       	ldd	r25, Y+2	; 0x02
    12d0:	fc 01       	movw	r30, r24
    12d2:	85 81       	ldd	r24, Z+5	; 0x05
    12d4:	8f 3f       	cpi	r24, 0xFF	; 255
    12d6:	39 f0       	breq	.+14     	; 0x12e6 <_ZN13LiquidCrystal5beginEhhh+0xba>
    12d8:	89 81       	ldd	r24, Y+1	; 0x01
    12da:	9a 81       	ldd	r25, Y+2	; 0x02
    12dc:	fc 01       	movw	r30, r24
    12de:	85 81       	ldd	r24, Z+5	; 0x05
    12e0:	60 e0       	ldi	r22, 0x00	; 0
    12e2:	0e 94 64 31 	call	0x62c8	; 0x62c8 <digitalWrite>
    12e6:	89 81       	ldd	r24, Y+1	; 0x01
    12e8:	9a 81       	ldd	r25, Y+2	; 0x02
    12ea:	fc 01       	movw	r30, r24
    12ec:	87 85       	ldd	r24, Z+15	; 0x0f
    12ee:	88 2f       	mov	r24, r24
    12f0:	90 e0       	ldi	r25, 0x00	; 0
    12f2:	80 71       	andi	r24, 0x10	; 16
    12f4:	99 27       	eor	r25, r25
    12f6:	89 2b       	or	r24, r25
    12f8:	e9 f4       	brne	.+58     	; 0x1334 <_ZN13LiquidCrystal5beginEhhh+0x108>
    12fa:	89 81       	ldd	r24, Y+1	; 0x01
    12fc:	9a 81       	ldd	r25, Y+2	; 0x02
    12fe:	63 e0       	ldi	r22, 0x03	; 3
    1300:	91 d1       	rcall	.+802    	; 0x1624 <_ZN13LiquidCrystal10write4bitsEh>
    1302:	84 e9       	ldi	r24, 0x94	; 148
    1304:	91 e1       	ldi	r25, 0x11	; 17
    1306:	0e 94 9c 30 	call	0x6138	; 0x6138 <delayMicroseconds>
    130a:	89 81       	ldd	r24, Y+1	; 0x01
    130c:	9a 81       	ldd	r25, Y+2	; 0x02
    130e:	63 e0       	ldi	r22, 0x03	; 3
    1310:	89 d1       	rcall	.+786    	; 0x1624 <_ZN13LiquidCrystal10write4bitsEh>
    1312:	84 e9       	ldi	r24, 0x94	; 148
    1314:	91 e1       	ldi	r25, 0x11	; 17
    1316:	0e 94 9c 30 	call	0x6138	; 0x6138 <delayMicroseconds>
    131a:	89 81       	ldd	r24, Y+1	; 0x01
    131c:	9a 81       	ldd	r25, Y+2	; 0x02
    131e:	63 e0       	ldi	r22, 0x03	; 3
    1320:	81 d1       	rcall	.+770    	; 0x1624 <_ZN13LiquidCrystal10write4bitsEh>
    1322:	86 e9       	ldi	r24, 0x96	; 150
    1324:	90 e0       	ldi	r25, 0x00	; 0
    1326:	0e 94 9c 30 	call	0x6138	; 0x6138 <delayMicroseconds>
    132a:	89 81       	ldd	r24, Y+1	; 0x01
    132c:	9a 81       	ldd	r25, Y+2	; 0x02
    132e:	62 e0       	ldi	r22, 0x02	; 2
    1330:	79 d1       	rcall	.+754    	; 0x1624 <_ZN13LiquidCrystal10write4bitsEh>
    1332:	26 c0       	rjmp	.+76     	; 0x1380 <_ZN13LiquidCrystal5beginEhhh+0x154>
    1334:	89 81       	ldd	r24, Y+1	; 0x01
    1336:	9a 81       	ldd	r25, Y+2	; 0x02
    1338:	fc 01       	movw	r30, r24
    133a:	87 85       	ldd	r24, Z+15	; 0x0f
    133c:	28 2f       	mov	r18, r24
    133e:	20 62       	ori	r18, 0x20	; 32
    1340:	89 81       	ldd	r24, Y+1	; 0x01
    1342:	9a 81       	ldd	r25, Y+2	; 0x02
    1344:	62 2f       	mov	r22, r18
    1346:	d6 d0       	rcall	.+428    	; 0x14f4 <_ZN13LiquidCrystal7commandEh>
    1348:	84 e9       	ldi	r24, 0x94	; 148
    134a:	91 e1       	ldi	r25, 0x11	; 17
    134c:	0e 94 9c 30 	call	0x6138	; 0x6138 <delayMicroseconds>
    1350:	89 81       	ldd	r24, Y+1	; 0x01
    1352:	9a 81       	ldd	r25, Y+2	; 0x02
    1354:	fc 01       	movw	r30, r24
    1356:	87 85       	ldd	r24, Z+15	; 0x0f
    1358:	28 2f       	mov	r18, r24
    135a:	20 62       	ori	r18, 0x20	; 32
    135c:	89 81       	ldd	r24, Y+1	; 0x01
    135e:	9a 81       	ldd	r25, Y+2	; 0x02
    1360:	62 2f       	mov	r22, r18
    1362:	c8 d0       	rcall	.+400    	; 0x14f4 <_ZN13LiquidCrystal7commandEh>
    1364:	86 e9       	ldi	r24, 0x96	; 150
    1366:	90 e0       	ldi	r25, 0x00	; 0
    1368:	0e 94 9c 30 	call	0x6138	; 0x6138 <delayMicroseconds>
    136c:	89 81       	ldd	r24, Y+1	; 0x01
    136e:	9a 81       	ldd	r25, Y+2	; 0x02
    1370:	fc 01       	movw	r30, r24
    1372:	87 85       	ldd	r24, Z+15	; 0x0f
    1374:	28 2f       	mov	r18, r24
    1376:	20 62       	ori	r18, 0x20	; 32
    1378:	89 81       	ldd	r24, Y+1	; 0x01
    137a:	9a 81       	ldd	r25, Y+2	; 0x02
    137c:	62 2f       	mov	r22, r18
    137e:	ba d0       	rcall	.+372    	; 0x14f4 <_ZN13LiquidCrystal7commandEh>
    1380:	89 81       	ldd	r24, Y+1	; 0x01
    1382:	9a 81       	ldd	r25, Y+2	; 0x02
    1384:	fc 01       	movw	r30, r24
    1386:	87 85       	ldd	r24, Z+15	; 0x0f
    1388:	28 2f       	mov	r18, r24
    138a:	20 62       	ori	r18, 0x20	; 32
    138c:	89 81       	ldd	r24, Y+1	; 0x01
    138e:	9a 81       	ldd	r25, Y+2	; 0x02
    1390:	62 2f       	mov	r22, r18
    1392:	b0 d0       	rcall	.+352    	; 0x14f4 <_ZN13LiquidCrystal7commandEh>
    1394:	89 81       	ldd	r24, Y+1	; 0x01
    1396:	9a 81       	ldd	r25, Y+2	; 0x02
    1398:	24 e0       	ldi	r18, 0x04	; 4
    139a:	fc 01       	movw	r30, r24
    139c:	20 8b       	std	Z+16, r18	; 0x10
    139e:	89 81       	ldd	r24, Y+1	; 0x01
    13a0:	9a 81       	ldd	r25, Y+2	; 0x02
    13a2:	88 d0       	rcall	.+272    	; 0x14b4 <_ZN13LiquidCrystal7displayEv>
    13a4:	89 81       	ldd	r24, Y+1	; 0x01
    13a6:	9a 81       	ldd	r25, Y+2	; 0x02
    13a8:	3b d0       	rcall	.+118    	; 0x1420 <_ZN13LiquidCrystal5clearEv>
    13aa:	89 81       	ldd	r24, Y+1	; 0x01
    13ac:	9a 81       	ldd	r25, Y+2	; 0x02
    13ae:	22 e0       	ldi	r18, 0x02	; 2
    13b0:	fc 01       	movw	r30, r24
    13b2:	21 8b       	std	Z+17, r18	; 0x11
    13b4:	89 81       	ldd	r24, Y+1	; 0x01
    13b6:	9a 81       	ldd	r25, Y+2	; 0x02
    13b8:	fc 01       	movw	r30, r24
    13ba:	81 89       	ldd	r24, Z+17	; 0x11
    13bc:	28 2f       	mov	r18, r24
    13be:	24 60       	ori	r18, 0x04	; 4
    13c0:	89 81       	ldd	r24, Y+1	; 0x01
    13c2:	9a 81       	ldd	r25, Y+2	; 0x02
    13c4:	62 2f       	mov	r22, r18
    13c6:	96 d0       	rcall	.+300    	; 0x14f4 <_ZN13LiquidCrystal7commandEh>
    13c8:	25 96       	adiw	r28, 0x05	; 5
    13ca:	e4 e0       	ldi	r30, 0x04	; 4
    13cc:	0c 94 18 35 	jmp	0x6a30	; 0x6a30 <__epilogue_restores__+0x1c>

000013d0 <_ZN13LiquidCrystal13setRowOffsetsEiiii>:
    13d0:	aa e0       	ldi	r26, 0x0A	; 10
    13d2:	b0 e0       	ldi	r27, 0x00	; 0
    13d4:	ee ee       	ldi	r30, 0xEE	; 238
    13d6:	f9 e0       	ldi	r31, 0x09	; 9
    13d8:	0c 94 fc 34 	jmp	0x69f8	; 0x69f8 <__prologue_saves__+0x1c>
    13dc:	9a 83       	std	Y+2, r25	; 0x02
    13de:	89 83       	std	Y+1, r24	; 0x01
    13e0:	7c 83       	std	Y+4, r23	; 0x04
    13e2:	6b 83       	std	Y+3, r22	; 0x03
    13e4:	5e 83       	std	Y+6, r21	; 0x06
    13e6:	4d 83       	std	Y+5, r20	; 0x05
    13e8:	38 87       	std	Y+8, r19	; 0x08
    13ea:	2f 83       	std	Y+7, r18	; 0x07
    13ec:	1a 87       	std	Y+10, r17	; 0x0a
    13ee:	09 87       	std	Y+9, r16	; 0x09
    13f0:	2b 81       	ldd	r18, Y+3	; 0x03
    13f2:	89 81       	ldd	r24, Y+1	; 0x01
    13f4:	9a 81       	ldd	r25, Y+2	; 0x02
    13f6:	fc 01       	movw	r30, r24
    13f8:	24 8b       	std	Z+20, r18	; 0x14
    13fa:	2d 81       	ldd	r18, Y+5	; 0x05
    13fc:	89 81       	ldd	r24, Y+1	; 0x01
    13fe:	9a 81       	ldd	r25, Y+2	; 0x02
    1400:	fc 01       	movw	r30, r24
    1402:	25 8b       	std	Z+21, r18	; 0x15
    1404:	2f 81       	ldd	r18, Y+7	; 0x07
    1406:	89 81       	ldd	r24, Y+1	; 0x01
    1408:	9a 81       	ldd	r25, Y+2	; 0x02
    140a:	fc 01       	movw	r30, r24
    140c:	26 8b       	std	Z+22, r18	; 0x16
    140e:	29 85       	ldd	r18, Y+9	; 0x09
    1410:	89 81       	ldd	r24, Y+1	; 0x01
    1412:	9a 81       	ldd	r25, Y+2	; 0x02
    1414:	fc 01       	movw	r30, r24
    1416:	27 8b       	std	Z+23, r18	; 0x17
    1418:	2a 96       	adiw	r28, 0x0a	; 10
    141a:	e4 e0       	ldi	r30, 0x04	; 4
    141c:	0c 94 18 35 	jmp	0x6a30	; 0x6a30 <__epilogue_restores__+0x1c>

00001420 <_ZN13LiquidCrystal5clearEv>:
    1420:	a2 e0       	ldi	r26, 0x02	; 2
    1422:	b0 e0       	ldi	r27, 0x00	; 0
    1424:	e6 e1       	ldi	r30, 0x16	; 22
    1426:	fa e0       	ldi	r31, 0x0A	; 10
    1428:	0c 94 fe 34 	jmp	0x69fc	; 0x69fc <__prologue_saves__+0x20>
    142c:	9a 83       	std	Y+2, r25	; 0x02
    142e:	89 83       	std	Y+1, r24	; 0x01
    1430:	89 81       	ldd	r24, Y+1	; 0x01
    1432:	9a 81       	ldd	r25, Y+2	; 0x02
    1434:	61 e0       	ldi	r22, 0x01	; 1
    1436:	5e d0       	rcall	.+188    	; 0x14f4 <_ZN13LiquidCrystal7commandEh>
    1438:	80 ed       	ldi	r24, 0xD0	; 208
    143a:	97 e0       	ldi	r25, 0x07	; 7
    143c:	0e 94 9c 30 	call	0x6138	; 0x6138 <delayMicroseconds>
    1440:	22 96       	adiw	r28, 0x02	; 2
    1442:	e2 e0       	ldi	r30, 0x02	; 2
    1444:	0c 94 1a 35 	jmp	0x6a34	; 0x6a34 <__epilogue_restores__+0x20>

00001448 <_ZN13LiquidCrystal9setCursorEhh>:
    1448:	a6 e0       	ldi	r26, 0x06	; 6
    144a:	b0 e0       	ldi	r27, 0x00	; 0
    144c:	ea e2       	ldi	r30, 0x2A	; 42
    144e:	fa e0       	ldi	r31, 0x0A	; 10
    1450:	0c 94 fe 34 	jmp	0x69fc	; 0x69fc <__prologue_saves__+0x20>
    1454:	9c 83       	std	Y+4, r25	; 0x04
    1456:	8b 83       	std	Y+3, r24	; 0x03
    1458:	6d 83       	std	Y+5, r22	; 0x05
    145a:	4e 83       	std	Y+6, r20	; 0x06
    145c:	84 e0       	ldi	r24, 0x04	; 4
    145e:	90 e0       	ldi	r25, 0x00	; 0
    1460:	9a 83       	std	Y+2, r25	; 0x02
    1462:	89 83       	std	Y+1, r24	; 0x01
    1464:	8e 81       	ldd	r24, Y+6	; 0x06
    1466:	84 30       	cpi	r24, 0x04	; 4
    1468:	10 f0       	brcs	.+4      	; 0x146e <_ZN13LiquidCrystal9setCursorEhh+0x26>
    146a:	83 e0       	ldi	r24, 0x03	; 3
    146c:	8e 83       	std	Y+6, r24	; 0x06
    146e:	8b 81       	ldd	r24, Y+3	; 0x03
    1470:	9c 81       	ldd	r25, Y+4	; 0x04
    1472:	fc 01       	movw	r30, r24
    1474:	93 89       	ldd	r25, Z+19	; 0x13
    1476:	8e 81       	ldd	r24, Y+6	; 0x06
    1478:	89 17       	cp	r24, r25
    147a:	30 f0       	brcs	.+12     	; 0x1488 <_ZN13LiquidCrystal9setCursorEhh+0x40>
    147c:	8b 81       	ldd	r24, Y+3	; 0x03
    147e:	9c 81       	ldd	r25, Y+4	; 0x04
    1480:	fc 01       	movw	r30, r24
    1482:	83 89       	ldd	r24, Z+19	; 0x13
    1484:	81 50       	subi	r24, 0x01	; 1
    1486:	8e 83       	std	Y+6, r24	; 0x06
    1488:	8e 81       	ldd	r24, Y+6	; 0x06
    148a:	88 2f       	mov	r24, r24
    148c:	90 e0       	ldi	r25, 0x00	; 0
    148e:	2b 81       	ldd	r18, Y+3	; 0x03
    1490:	3c 81       	ldd	r19, Y+4	; 0x04
    1492:	82 0f       	add	r24, r18
    1494:	93 1f       	adc	r25, r19
    1496:	44 96       	adiw	r24, 0x14	; 20
    1498:	fc 01       	movw	r30, r24
    149a:	90 81       	ld	r25, Z
    149c:	8d 81       	ldd	r24, Y+5	; 0x05
    149e:	89 0f       	add	r24, r25
    14a0:	80 68       	ori	r24, 0x80	; 128
    14a2:	28 2f       	mov	r18, r24
    14a4:	8b 81       	ldd	r24, Y+3	; 0x03
    14a6:	9c 81       	ldd	r25, Y+4	; 0x04
    14a8:	62 2f       	mov	r22, r18
    14aa:	24 d0       	rcall	.+72     	; 0x14f4 <_ZN13LiquidCrystal7commandEh>
    14ac:	26 96       	adiw	r28, 0x06	; 6
    14ae:	e2 e0       	ldi	r30, 0x02	; 2
    14b0:	0c 94 1a 35 	jmp	0x6a34	; 0x6a34 <__epilogue_restores__+0x20>

000014b4 <_ZN13LiquidCrystal7displayEv>:
    14b4:	a2 e0       	ldi	r26, 0x02	; 2
    14b6:	b0 e0       	ldi	r27, 0x00	; 0
    14b8:	e0 e6       	ldi	r30, 0x60	; 96
    14ba:	fa e0       	ldi	r31, 0x0A	; 10
    14bc:	0c 94 fe 34 	jmp	0x69fc	; 0x69fc <__prologue_saves__+0x20>
    14c0:	9a 83       	std	Y+2, r25	; 0x02
    14c2:	89 83       	std	Y+1, r24	; 0x01
    14c4:	89 81       	ldd	r24, Y+1	; 0x01
    14c6:	9a 81       	ldd	r25, Y+2	; 0x02
    14c8:	fc 01       	movw	r30, r24
    14ca:	80 89       	ldd	r24, Z+16	; 0x10
    14cc:	28 2f       	mov	r18, r24
    14ce:	24 60       	ori	r18, 0x04	; 4
    14d0:	89 81       	ldd	r24, Y+1	; 0x01
    14d2:	9a 81       	ldd	r25, Y+2	; 0x02
    14d4:	fc 01       	movw	r30, r24
    14d6:	20 8b       	std	Z+16, r18	; 0x10
    14d8:	89 81       	ldd	r24, Y+1	; 0x01
    14da:	9a 81       	ldd	r25, Y+2	; 0x02
    14dc:	fc 01       	movw	r30, r24
    14de:	80 89       	ldd	r24, Z+16	; 0x10
    14e0:	28 2f       	mov	r18, r24
    14e2:	28 60       	ori	r18, 0x08	; 8
    14e4:	89 81       	ldd	r24, Y+1	; 0x01
    14e6:	9a 81       	ldd	r25, Y+2	; 0x02
    14e8:	62 2f       	mov	r22, r18
    14ea:	04 d0       	rcall	.+8      	; 0x14f4 <_ZN13LiquidCrystal7commandEh>
    14ec:	22 96       	adiw	r28, 0x02	; 2
    14ee:	e2 e0       	ldi	r30, 0x02	; 2
    14f0:	0c 94 1a 35 	jmp	0x6a34	; 0x6a34 <__epilogue_restores__+0x20>

000014f4 <_ZN13LiquidCrystal7commandEh>:

/*********** mid level commands, for sending data/cmds */

inline void LiquidCrystal::command(uint8_t value) {
    14f4:	a3 e0       	ldi	r26, 0x03	; 3
    14f6:	b0 e0       	ldi	r27, 0x00	; 0
    14f8:	e0 e8       	ldi	r30, 0x80	; 128
    14fa:	fa e0       	ldi	r31, 0x0A	; 10
    14fc:	0c 94 fe 34 	jmp	0x69fc	; 0x69fc <__prologue_saves__+0x20>
    1500:	9a 83       	std	Y+2, r25	; 0x02
    1502:	89 83       	std	Y+1, r24	; 0x01
    1504:	6b 83       	std	Y+3, r22	; 0x03
  send(value, LOW);
    1506:	89 81       	ldd	r24, Y+1	; 0x01
    1508:	9a 81       	ldd	r25, Y+2	; 0x02
    150a:	40 e0       	ldi	r20, 0x00	; 0
    150c:	6b 81       	ldd	r22, Y+3	; 0x03
    150e:	18 d0       	rcall	.+48     	; 0x1540 <_ZN13LiquidCrystal4sendEhh>
}
    1510:	23 96       	adiw	r28, 0x03	; 3
    1512:	e2 e0       	ldi	r30, 0x02	; 2
    1514:	0c 94 1a 35 	jmp	0x6a34	; 0x6a34 <__epilogue_restores__+0x20>

00001518 <_ZN13LiquidCrystal5writeEh>:

inline size_t LiquidCrystal::write(uint8_t value) {
    1518:	a3 e0       	ldi	r26, 0x03	; 3
    151a:	b0 e0       	ldi	r27, 0x00	; 0
    151c:	e2 e9       	ldi	r30, 0x92	; 146
    151e:	fa e0       	ldi	r31, 0x0A	; 10
    1520:	0c 94 fe 34 	jmp	0x69fc	; 0x69fc <__prologue_saves__+0x20>
    1524:	9a 83       	std	Y+2, r25	; 0x02
    1526:	89 83       	std	Y+1, r24	; 0x01
    1528:	6b 83       	std	Y+3, r22	; 0x03
  send(value, HIGH);
    152a:	89 81       	ldd	r24, Y+1	; 0x01
    152c:	9a 81       	ldd	r25, Y+2	; 0x02
    152e:	41 e0       	ldi	r20, 0x01	; 1
    1530:	6b 81       	ldd	r22, Y+3	; 0x03
    1532:	06 d0       	rcall	.+12     	; 0x1540 <_ZN13LiquidCrystal4sendEhh>
  return 1; // assume sucess
    1534:	81 e0       	ldi	r24, 0x01	; 1
    1536:	90 e0       	ldi	r25, 0x00	; 0
}
    1538:	23 96       	adiw	r28, 0x03	; 3
    153a:	e2 e0       	ldi	r30, 0x02	; 2
    153c:	0c 94 1a 35 	jmp	0x6a34	; 0x6a34 <__epilogue_restores__+0x20>

00001540 <_ZN13LiquidCrystal4sendEhh>:

/************ low level data pushing commands **********/

// write either command or data, with automatic 4/8-bit selection
void LiquidCrystal::send(uint8_t value, uint8_t mode) {
    1540:	a4 e0       	ldi	r26, 0x04	; 4
    1542:	b0 e0       	ldi	r27, 0x00	; 0
    1544:	e6 ea       	ldi	r30, 0xA6	; 166
    1546:	fa e0       	ldi	r31, 0x0A	; 10
    1548:	0c 94 fe 34 	jmp	0x69fc	; 0x69fc <__prologue_saves__+0x20>
    154c:	9a 83       	std	Y+2, r25	; 0x02
    154e:	89 83       	std	Y+1, r24	; 0x01
    1550:	6b 83       	std	Y+3, r22	; 0x03
    1552:	4c 83       	std	Y+4, r20	; 0x04
  digitalWrite(_rs_pin, mode);
    1554:	89 81       	ldd	r24, Y+1	; 0x01
    1556:	9a 81       	ldd	r25, Y+2	; 0x02
    1558:	fc 01       	movw	r30, r24
    155a:	84 81       	ldd	r24, Z+4	; 0x04
    155c:	6c 81       	ldd	r22, Y+4	; 0x04
    155e:	0e 94 64 31 	call	0x62c8	; 0x62c8 <digitalWrite>

  // if there is a RW pin indicated, set it low to Write
  if (_rw_pin != 255) { 
    1562:	89 81       	ldd	r24, Y+1	; 0x01
    1564:	9a 81       	ldd	r25, Y+2	; 0x02
    1566:	fc 01       	movw	r30, r24
    1568:	85 81       	ldd	r24, Z+5	; 0x05
    156a:	8f 3f       	cpi	r24, 0xFF	; 255
    156c:	39 f0       	breq	.+14     	; 0x157c <_ZN13LiquidCrystal4sendEhh+0x3c>
    digitalWrite(_rw_pin, LOW);
    156e:	89 81       	ldd	r24, Y+1	; 0x01
    1570:	9a 81       	ldd	r25, Y+2	; 0x02
    1572:	fc 01       	movw	r30, r24
    1574:	85 81       	ldd	r24, Z+5	; 0x05
    1576:	60 e0       	ldi	r22, 0x00	; 0
    1578:	0e 94 64 31 	call	0x62c8	; 0x62c8 <digitalWrite>
  }
  
  if (_displayfunction & LCD_8BITMODE) {
    157c:	89 81       	ldd	r24, Y+1	; 0x01
    157e:	9a 81       	ldd	r25, Y+2	; 0x02
    1580:	fc 01       	movw	r30, r24
    1582:	87 85       	ldd	r24, Z+15	; 0x0f
    1584:	88 2f       	mov	r24, r24
    1586:	90 e0       	ldi	r25, 0x00	; 0
    1588:	80 71       	andi	r24, 0x10	; 16
    158a:	99 27       	eor	r25, r25
    158c:	89 2b       	or	r24, r25
    158e:	29 f0       	breq	.+10     	; 0x159a <_ZN13LiquidCrystal4sendEhh+0x5a>
    write8bits(value); 
    1590:	89 81       	ldd	r24, Y+1	; 0x01
    1592:	9a 81       	ldd	r25, Y+2	; 0x02
    1594:	6b 81       	ldd	r22, Y+3	; 0x03
    1596:	85 d0       	rcall	.+266    	; 0x16a2 <_ZN13LiquidCrystal10write8bitsEh>
    1598:	14 c0       	rjmp	.+40     	; 0x15c2 <_ZN13LiquidCrystal4sendEhh+0x82>
  } else {
    write4bits(value>>4);
    159a:	8b 81       	ldd	r24, Y+3	; 0x03
    159c:	88 2f       	mov	r24, r24
    159e:	90 e0       	ldi	r25, 0x00	; 0
    15a0:	95 95       	asr	r25
    15a2:	87 95       	ror	r24
    15a4:	95 95       	asr	r25
    15a6:	87 95       	ror	r24
    15a8:	95 95       	asr	r25
    15aa:	87 95       	ror	r24
    15ac:	95 95       	asr	r25
    15ae:	87 95       	ror	r24
    15b0:	28 2f       	mov	r18, r24
    15b2:	89 81       	ldd	r24, Y+1	; 0x01
    15b4:	9a 81       	ldd	r25, Y+2	; 0x02
    15b6:	62 2f       	mov	r22, r18
    15b8:	35 d0       	rcall	.+106    	; 0x1624 <_ZN13LiquidCrystal10write4bitsEh>
    write4bits(value);
    15ba:	89 81       	ldd	r24, Y+1	; 0x01
    15bc:	9a 81       	ldd	r25, Y+2	; 0x02
    15be:	6b 81       	ldd	r22, Y+3	; 0x03
    15c0:	31 d0       	rcall	.+98     	; 0x1624 <_ZN13LiquidCrystal10write4bitsEh>
  }
}
    15c2:	24 96       	adiw	r28, 0x04	; 4
    15c4:	e2 e0       	ldi	r30, 0x02	; 2
    15c6:	0c 94 1a 35 	jmp	0x6a34	; 0x6a34 <__epilogue_restores__+0x20>

000015ca <_ZN13LiquidCrystal11pulseEnableEv>:

void LiquidCrystal::pulseEnable(void) {
    15ca:	a2 e0       	ldi	r26, 0x02	; 2
    15cc:	b0 e0       	ldi	r27, 0x00	; 0
    15ce:	eb ee       	ldi	r30, 0xEB	; 235
    15d0:	fa e0       	ldi	r31, 0x0A	; 10
    15d2:	0c 94 fe 34 	jmp	0x69fc	; 0x69fc <__prologue_saves__+0x20>
    15d6:	9a 83       	std	Y+2, r25	; 0x02
    15d8:	89 83       	std	Y+1, r24	; 0x01
  digitalWrite(_enable_pin, LOW);
    15da:	89 81       	ldd	r24, Y+1	; 0x01
    15dc:	9a 81       	ldd	r25, Y+2	; 0x02
    15de:	fc 01       	movw	r30, r24
    15e0:	86 81       	ldd	r24, Z+6	; 0x06
    15e2:	60 e0       	ldi	r22, 0x00	; 0
    15e4:	0e 94 64 31 	call	0x62c8	; 0x62c8 <digitalWrite>
  delayMicroseconds(1);    
    15e8:	81 e0       	ldi	r24, 0x01	; 1
    15ea:	90 e0       	ldi	r25, 0x00	; 0
    15ec:	0e 94 9c 30 	call	0x6138	; 0x6138 <delayMicroseconds>
  digitalWrite(_enable_pin, HIGH);
    15f0:	89 81       	ldd	r24, Y+1	; 0x01
    15f2:	9a 81       	ldd	r25, Y+2	; 0x02
    15f4:	fc 01       	movw	r30, r24
    15f6:	86 81       	ldd	r24, Z+6	; 0x06
    15f8:	61 e0       	ldi	r22, 0x01	; 1
    15fa:	0e 94 64 31 	call	0x62c8	; 0x62c8 <digitalWrite>
  delayMicroseconds(1);    // enable pulse must be >450ns
    15fe:	81 e0       	ldi	r24, 0x01	; 1
    1600:	90 e0       	ldi	r25, 0x00	; 0
    1602:	0e 94 9c 30 	call	0x6138	; 0x6138 <delayMicroseconds>
  digitalWrite(_enable_pin, LOW);
    1606:	89 81       	ldd	r24, Y+1	; 0x01
    1608:	9a 81       	ldd	r25, Y+2	; 0x02
    160a:	fc 01       	movw	r30, r24
    160c:	86 81       	ldd	r24, Z+6	; 0x06
    160e:	60 e0       	ldi	r22, 0x00	; 0
    1610:	0e 94 64 31 	call	0x62c8	; 0x62c8 <digitalWrite>
  delayMicroseconds(100);   // commands need > 37us to settle
    1614:	84 e6       	ldi	r24, 0x64	; 100
    1616:	90 e0       	ldi	r25, 0x00	; 0
    1618:	0e 94 9c 30 	call	0x6138	; 0x6138 <delayMicroseconds>
}
    161c:	22 96       	adiw	r28, 0x02	; 2
    161e:	e2 e0       	ldi	r30, 0x02	; 2
    1620:	0c 94 1a 35 	jmp	0x6a34	; 0x6a34 <__epilogue_restores__+0x20>

00001624 <_ZN13LiquidCrystal10write4bitsEh>:

void LiquidCrystal::write4bits(uint8_t value) {
    1624:	a5 e0       	ldi	r26, 0x05	; 5
    1626:	b0 e0       	ldi	r27, 0x00	; 0
    1628:	e8 e1       	ldi	r30, 0x18	; 24
    162a:	fb e0       	ldi	r31, 0x0B	; 11
    162c:	0c 94 fe 34 	jmp	0x69fc	; 0x69fc <__prologue_saves__+0x20>
    1630:	9c 83       	std	Y+4, r25	; 0x04
    1632:	8b 83       	std	Y+3, r24	; 0x03
    1634:	6d 83       	std	Y+5, r22	; 0x05
  for (int i = 0; i < 4; i++) {
    1636:	1a 82       	std	Y+2, r1	; 0x02
    1638:	19 82       	std	Y+1, r1	; 0x01
    163a:	28 c0       	rjmp	.+80     	; 0x168c <_ZN13LiquidCrystal10write4bitsEh+0x68>
    pinMode(_data_pins[i], OUTPUT);
    163c:	2b 81       	ldd	r18, Y+3	; 0x03
    163e:	3c 81       	ldd	r19, Y+4	; 0x04
    1640:	89 81       	ldd	r24, Y+1	; 0x01
    1642:	9a 81       	ldd	r25, Y+2	; 0x02
    1644:	82 0f       	add	r24, r18
    1646:	93 1f       	adc	r25, r19
    1648:	07 96       	adiw	r24, 0x07	; 7
    164a:	fc 01       	movw	r30, r24
    164c:	80 81       	ld	r24, Z
    164e:	61 e0       	ldi	r22, 0x01	; 1
    1650:	0e 94 28 31 	call	0x6250	; 0x6250 <pinMode>
    digitalWrite(_data_pins[i], (value >> i) & 0x01);
    1654:	8d 81       	ldd	r24, Y+5	; 0x05
    1656:	88 2f       	mov	r24, r24
    1658:	90 e0       	ldi	r25, 0x00	; 0
    165a:	09 80       	ldd	r0, Y+1	; 0x01
    165c:	02 c0       	rjmp	.+4      	; 0x1662 <_ZN13LiquidCrystal10write4bitsEh+0x3e>
    165e:	95 95       	asr	r25
    1660:	87 95       	ror	r24
    1662:	0a 94       	dec	r0
    1664:	e2 f7       	brpl	.-8      	; 0x165e <_ZN13LiquidCrystal10write4bitsEh+0x3a>
    1666:	48 2f       	mov	r20, r24
    1668:	41 70       	andi	r20, 0x01	; 1
    166a:	2b 81       	ldd	r18, Y+3	; 0x03
    166c:	3c 81       	ldd	r19, Y+4	; 0x04
    166e:	89 81       	ldd	r24, Y+1	; 0x01
    1670:	9a 81       	ldd	r25, Y+2	; 0x02
    1672:	82 0f       	add	r24, r18
    1674:	93 1f       	adc	r25, r19
    1676:	07 96       	adiw	r24, 0x07	; 7
    1678:	fc 01       	movw	r30, r24
    167a:	80 81       	ld	r24, Z
    167c:	64 2f       	mov	r22, r20
    167e:	0e 94 64 31 	call	0x62c8	; 0x62c8 <digitalWrite>
  digitalWrite(_enable_pin, LOW);
  delayMicroseconds(100);   // commands need > 37us to settle
}

void LiquidCrystal::write4bits(uint8_t value) {
  for (int i = 0; i < 4; i++) {
    1682:	89 81       	ldd	r24, Y+1	; 0x01
    1684:	9a 81       	ldd	r25, Y+2	; 0x02
    1686:	01 96       	adiw	r24, 0x01	; 1
    1688:	9a 83       	std	Y+2, r25	; 0x02
    168a:	89 83       	std	Y+1, r24	; 0x01
    168c:	89 81       	ldd	r24, Y+1	; 0x01
    168e:	9a 81       	ldd	r25, Y+2	; 0x02
    1690:	04 97       	sbiw	r24, 0x04	; 4
    1692:	a4 f2       	brlt	.-88     	; 0x163c <_ZN13LiquidCrystal10write4bitsEh+0x18>
    pinMode(_data_pins[i], OUTPUT);
    digitalWrite(_data_pins[i], (value >> i) & 0x01);
  }

  pulseEnable();
    1694:	8b 81       	ldd	r24, Y+3	; 0x03
    1696:	9c 81       	ldd	r25, Y+4	; 0x04
    1698:	98 df       	rcall	.-208    	; 0x15ca <_ZN13LiquidCrystal11pulseEnableEv>
}
    169a:	25 96       	adiw	r28, 0x05	; 5
    169c:	e2 e0       	ldi	r30, 0x02	; 2
    169e:	0c 94 1a 35 	jmp	0x6a34	; 0x6a34 <__epilogue_restores__+0x20>

000016a2 <_ZN13LiquidCrystal10write8bitsEh>:

void LiquidCrystal::write8bits(uint8_t value) {
    16a2:	a5 e0       	ldi	r26, 0x05	; 5
    16a4:	b0 e0       	ldi	r27, 0x00	; 0
    16a6:	e7 e5       	ldi	r30, 0x57	; 87
    16a8:	fb e0       	ldi	r31, 0x0B	; 11
    16aa:	0c 94 fe 34 	jmp	0x69fc	; 0x69fc <__prologue_saves__+0x20>
    16ae:	9c 83       	std	Y+4, r25	; 0x04
    16b0:	8b 83       	std	Y+3, r24	; 0x03
    16b2:	6d 83       	std	Y+5, r22	; 0x05
  for (int i = 0; i < 8; i++) {
    16b4:	1a 82       	std	Y+2, r1	; 0x02
    16b6:	19 82       	std	Y+1, r1	; 0x01
    16b8:	28 c0       	rjmp	.+80     	; 0x170a <_ZN13LiquidCrystal10write8bitsEh+0x68>
    pinMode(_data_pins[i], OUTPUT);
    16ba:	2b 81       	ldd	r18, Y+3	; 0x03
    16bc:	3c 81       	ldd	r19, Y+4	; 0x04
    16be:	89 81       	ldd	r24, Y+1	; 0x01
    16c0:	9a 81       	ldd	r25, Y+2	; 0x02
    16c2:	82 0f       	add	r24, r18
    16c4:	93 1f       	adc	r25, r19
    16c6:	07 96       	adiw	r24, 0x07	; 7
    16c8:	fc 01       	movw	r30, r24
    16ca:	80 81       	ld	r24, Z
    16cc:	61 e0       	ldi	r22, 0x01	; 1
    16ce:	0e 94 28 31 	call	0x6250	; 0x6250 <pinMode>
    digitalWrite(_data_pins[i], (value >> i) & 0x01);
    16d2:	8d 81       	ldd	r24, Y+5	; 0x05
    16d4:	88 2f       	mov	r24, r24
    16d6:	90 e0       	ldi	r25, 0x00	; 0
    16d8:	09 80       	ldd	r0, Y+1	; 0x01
    16da:	02 c0       	rjmp	.+4      	; 0x16e0 <_ZN13LiquidCrystal10write8bitsEh+0x3e>
    16dc:	95 95       	asr	r25
    16de:	87 95       	ror	r24
    16e0:	0a 94       	dec	r0
    16e2:	e2 f7       	brpl	.-8      	; 0x16dc <_ZN13LiquidCrystal10write8bitsEh+0x3a>
    16e4:	48 2f       	mov	r20, r24
    16e6:	41 70       	andi	r20, 0x01	; 1
    16e8:	2b 81       	ldd	r18, Y+3	; 0x03
    16ea:	3c 81       	ldd	r19, Y+4	; 0x04
    16ec:	89 81       	ldd	r24, Y+1	; 0x01
    16ee:	9a 81       	ldd	r25, Y+2	; 0x02
    16f0:	82 0f       	add	r24, r18
    16f2:	93 1f       	adc	r25, r19
    16f4:	07 96       	adiw	r24, 0x07	; 7
    16f6:	fc 01       	movw	r30, r24
    16f8:	80 81       	ld	r24, Z
    16fa:	64 2f       	mov	r22, r20
    16fc:	0e 94 64 31 	call	0x62c8	; 0x62c8 <digitalWrite>

  pulseEnable();
}

void LiquidCrystal::write8bits(uint8_t value) {
  for (int i = 0; i < 8; i++) {
    1700:	89 81       	ldd	r24, Y+1	; 0x01
    1702:	9a 81       	ldd	r25, Y+2	; 0x02
    1704:	01 96       	adiw	r24, 0x01	; 1
    1706:	9a 83       	std	Y+2, r25	; 0x02
    1708:	89 83       	std	Y+1, r24	; 0x01
    170a:	89 81       	ldd	r24, Y+1	; 0x01
    170c:	9a 81       	ldd	r25, Y+2	; 0x02
    170e:	08 97       	sbiw	r24, 0x08	; 8
    1710:	a4 f2       	brlt	.-88     	; 0x16ba <_ZN13LiquidCrystal10write8bitsEh+0x18>
    pinMode(_data_pins[i], OUTPUT);
    digitalWrite(_data_pins[i], (value >> i) & 0x01);
  }
  
  pulseEnable();
    1712:	8b 81       	ldd	r24, Y+3	; 0x03
    1714:	9c 81       	ldd	r25, Y+4	; 0x04
    1716:	59 df       	rcall	.-334    	; 0x15ca <_ZN13LiquidCrystal11pulseEnableEv>
}
    1718:	25 96       	adiw	r28, 0x05	; 5
    171a:	e2 e0       	ldi	r30, 0x02	; 2
    171c:	0c 94 1a 35 	jmp	0x6a34	; 0x6a34 <__epilogue_restores__+0x20>

00001720 <_ZN4erom6Access8instanceEv>:

// -=-=-=-=-=-=-=-=-=-=-=-=-=-=-=-=-=-=-=-=-=-=-=-=-=-=-=-=-=-=-=-=-=-=-=-=- //
// EEPROM storage management, inherits the 'Storage' class and is used to
// verify whether data currently stored in EEPROM is valid and can be used by
// the running application/sketch.
class VerifiedStorage : public Storage {
    1720:	a0 e0       	ldi	r26, 0x00	; 0
    1722:	b0 e0       	ldi	r27, 0x00	; 0
    1724:	e6 e9       	ldi	r30, 0x96	; 150
    1726:	fb e0       	ldi	r31, 0x0B	; 11
    1728:	0c 94 fe 34 	jmp	0x69fc	; 0x69fc <__prologue_saves__+0x20>
    172c:	81 ee       	ldi	r24, 0xE1	; 225
    172e:	92 e0       	ldi	r25, 0x02	; 2
    1730:	fc 01       	movw	r30, r24
    1732:	80 81       	ld	r24, Z
    1734:	88 23       	and	r24, r24
    1736:	51 f4       	brne	.+20     	; 0x174c <_ZN4erom6Access8instanceEv+0x2c>
    1738:	60 e0       	ldi	r22, 0x00	; 0
    173a:	70 e0       	ldi	r23, 0x00	; 0
    173c:	8b ee       	ldi	r24, 0xEB	; 235
    173e:	92 e0       	ldi	r25, 0x02	; 2
    1740:	0a d0       	rcall	.+20     	; 0x1756 <_ZN4erom6AccessC1Ej>
    1742:	81 ee       	ldi	r24, 0xE1	; 225
    1744:	92 e0       	ldi	r25, 0x02	; 2
    1746:	21 e0       	ldi	r18, 0x01	; 1
    1748:	fc 01       	movw	r30, r24
    174a:	20 83       	st	Z, r18
    174c:	8b ee       	ldi	r24, 0xEB	; 235
    174e:	92 e0       	ldi	r25, 0x02	; 2
    1750:	e2 e0       	ldi	r30, 0x02	; 2
    1752:	0c 94 1a 35 	jmp	0x6a34	; 0x6a34 <__epilogue_restores__+0x20>

00001756 <_ZN4erom6AccessC1Ej>:
    1756:	a4 e0       	ldi	r26, 0x04	; 4
    1758:	b0 e0       	ldi	r27, 0x00	; 0
    175a:	e1 eb       	ldi	r30, 0xB1	; 177
    175c:	fb e0       	ldi	r31, 0x0B	; 11
    175e:	0c 94 fe 34 	jmp	0x69fc	; 0x69fc <__prologue_saves__+0x20>
    1762:	9a 83       	std	Y+2, r25	; 0x02
    1764:	89 83       	std	Y+1, r24	; 0x01
    1766:	7c 83       	std	Y+4, r23	; 0x04
    1768:	6b 83       	std	Y+3, r22	; 0x03
    176a:	89 81       	ldd	r24, Y+1	; 0x01
    176c:	9a 81       	ldd	r25, Y+2	; 0x02
    176e:	2b 81       	ldd	r18, Y+3	; 0x03
    1770:	3c 81       	ldd	r19, Y+4	; 0x04
    1772:	fc 01       	movw	r30, r24
    1774:	31 83       	std	Z+1, r19	; 0x01
    1776:	20 83       	st	Z, r18
    1778:	0a d0       	rcall	.+20     	; 0x178e <_ZN4erom6Access18device_memory_sizeEv>
    177a:	9c 01       	movw	r18, r24
    177c:	89 81       	ldd	r24, Y+1	; 0x01
    177e:	9a 81       	ldd	r25, Y+2	; 0x02
    1780:	fc 01       	movw	r30, r24
    1782:	33 83       	std	Z+3, r19	; 0x03
    1784:	22 83       	std	Z+2, r18	; 0x02
    1786:	24 96       	adiw	r28, 0x04	; 4
    1788:	e2 e0       	ldi	r30, 0x02	; 2
    178a:	0c 94 1a 35 	jmp	0x6a34	; 0x6a34 <__epilogue_restores__+0x20>

0000178e <_ZN4erom6Access18device_memory_sizeEv>:
    178e:	a0 e0       	ldi	r26, 0x00	; 0
    1790:	b0 e0       	ldi	r27, 0x00	; 0
    1792:	ed ec       	ldi	r30, 0xCD	; 205
    1794:	fb e0       	ldi	r31, 0x0B	; 11
    1796:	0c 94 fe 34 	jmp	0x69fc	; 0x69fc <__prologue_saves__+0x20>
    179a:	80 e0       	ldi	r24, 0x00	; 0
    179c:	94 e0       	ldi	r25, 0x04	; 4
    179e:	e2 e0       	ldi	r30, 0x02	; 2
    17a0:	0c 94 1a 35 	jmp	0x6a34	; 0x6a34 <__epilogue_restores__+0x20>

000017a4 <_Z41__static_initialization_and_destruction_0ii>:
  return __ok;
}

// -=-=-=-=-=-=-=-=-=-=-=-=-=-=-=-=-=-=-=-=-=-=-=-=-=-=-=-=-=-=-=-=-=-=-=-=- //

} // namespace erom
    17a4:	a4 e0       	ldi	r26, 0x04	; 4
    17a6:	b0 e0       	ldi	r27, 0x00	; 0
    17a8:	e8 ed       	ldi	r30, 0xD8	; 216
    17aa:	fb e0       	ldi	r31, 0x0B	; 11
    17ac:	0c 94 fe 34 	jmp	0x69fc	; 0x69fc <__prologue_saves__+0x20>
    17b0:	9a 83       	std	Y+2, r25	; 0x02
    17b2:	89 83       	std	Y+1, r24	; 0x01
    17b4:	7c 83       	std	Y+4, r23	; 0x04
    17b6:	6b 83       	std	Y+3, r22	; 0x03
    17b8:	89 81       	ldd	r24, Y+1	; 0x01
    17ba:	9a 81       	ldd	r25, Y+2	; 0x02
    17bc:	01 97       	sbiw	r24, 0x01	; 1
    17be:	49 f4       	brne	.+18     	; 0x17d2 <_Z41__static_initialization_and_destruction_0ii+0x2e>
    17c0:	8b 81       	ldd	r24, Y+3	; 0x03
    17c2:	9c 81       	ldd	r25, Y+4	; 0x04
    17c4:	01 96       	adiw	r24, 0x01	; 1
    17c6:	29 f4       	brne	.+10     	; 0x17d2 <_Z41__static_initialization_and_destruction_0ii+0x2e>

namespace erom {

// -=-=-=-=-=-=-=-=-=-=-=-=-=-=-=-=-=-=-=-=-=-=-=-=-=-=-=-=-=-=-=-=-=-=-=-=- //

erom::Access &access = Access::instance();
    17c8:	ab df       	rcall	.-170    	; 0x1720 <_ZN4erom6Access8instanceEv>
    17ca:	90 93 ea 02 	sts	0x02EA, r25	; 0x8002ea <_ZN4erom6accessE+0x1>
    17ce:	80 93 e9 02 	sts	0x02E9, r24	; 0x8002e9 <_ZN4erom6accessE>
  return __ok;
}

// -=-=-=-=-=-=-=-=-=-=-=-=-=-=-=-=-=-=-=-=-=-=-=-=-=-=-=-=-=-=-=-=-=-=-=-=- //

} // namespace erom
    17d2:	24 96       	adiw	r28, 0x04	; 4
    17d4:	e2 e0       	ldi	r30, 0x02	; 2
    17d6:	0c 94 1a 35 	jmp	0x6a34	; 0x6a34 <__epilogue_restores__+0x20>

000017da <_GLOBAL__sub_I__ZN4erom6accessE>:
    17da:	a0 e0       	ldi	r26, 0x00	; 0
    17dc:	b0 e0       	ldi	r27, 0x00	; 0
    17de:	e3 ef       	ldi	r30, 0xF3	; 243
    17e0:	fb e0       	ldi	r31, 0x0B	; 11
    17e2:	0c 94 fe 34 	jmp	0x69fc	; 0x69fc <__prologue_saves__+0x20>
    17e6:	6f ef       	ldi	r22, 0xFF	; 255
    17e8:	7f ef       	ldi	r23, 0xFF	; 255
    17ea:	81 e0       	ldi	r24, 0x01	; 1
    17ec:	90 e0       	ldi	r25, 0x00	; 0
    17ee:	da df       	rcall	.-76     	; 0x17a4 <_Z41__static_initialization_and_destruction_0ii>
    17f0:	e2 e0       	ldi	r30, 0x02	; 2
    17f2:	0c 94 1a 35 	jmp	0x6a34	; 0x6a34 <__epilogue_restores__+0x20>

000017f6 <_ZL7elapsedv>:
#include "SimpleTimer.h"


// Select time function:
//static inline unsigned long elapsed() { return micros(); }
static inline unsigned long elapsed() { return millis(); }
    17f6:	a0 e0       	ldi	r26, 0x00	; 0
    17f8:	b0 e0       	ldi	r27, 0x00	; 0
    17fa:	e1 e0       	ldi	r30, 0x01	; 1
    17fc:	fc e0       	ldi	r31, 0x0C	; 12
    17fe:	0c 94 fe 34 	jmp	0x69fc	; 0x69fc <__prologue_saves__+0x20>
    1802:	0e 94 32 30 	call	0x6064	; 0x6064 <millis>
    1806:	dc 01       	movw	r26, r24
    1808:	cb 01       	movw	r24, r22
    180a:	bc 01       	movw	r22, r24
    180c:	cd 01       	movw	r24, r26
    180e:	e2 e0       	ldi	r30, 0x02	; 2
    1810:	0c 94 1a 35 	jmp	0x6a34	; 0x6a34 <__epilogue_restores__+0x20>

00001814 <_ZN11SimpleTimerC1Ev>:


SimpleTimer::SimpleTimer() {
    1814:	a8 e0       	ldi	r26, 0x08	; 8
    1816:	b0 e0       	ldi	r27, 0x00	; 0
    1818:	e0 e1       	ldi	r30, 0x10	; 16
    181a:	fc e0       	ldi	r31, 0x0C	; 12
    181c:	0c 94 fe 34 	jmp	0x69fc	; 0x69fc <__prologue_saves__+0x20>
    1820:	98 87       	std	Y+8, r25	; 0x08
    1822:	8f 83       	std	Y+7, r24	; 0x07
    1824:	8f 81       	ldd	r24, Y+7	; 0x07
    1826:	98 85       	ldd	r25, Y+8	; 0x08
    1828:	2f e8       	ldi	r18, 0x8F	; 143
    182a:	31 e0       	ldi	r19, 0x01	; 1
    182c:	fc 01       	movw	r30, r24
    182e:	31 83       	std	Z+1, r19	; 0x01
    1830:	20 83       	st	Z, r18
    unsigned long current_millis = elapsed();
    1832:	e1 df       	rcall	.-62     	; 0x17f6 <_ZL7elapsedv>
    1834:	dc 01       	movw	r26, r24
    1836:	cb 01       	movw	r24, r22
    1838:	8b 83       	std	Y+3, r24	; 0x03
    183a:	9c 83       	std	Y+4, r25	; 0x04
    183c:	ad 83       	std	Y+5, r26	; 0x05
    183e:	be 83       	std	Y+6, r27	; 0x06

    for (int i = 0; i < MAX_TIMERS; i++) {
    1840:	1a 82       	std	Y+2, r1	; 0x02
    1842:	19 82       	std	Y+1, r1	; 0x01
    1844:	3d c0       	rjmp	.+122    	; 0x18c0 <_ZN11SimpleTimerC1Ev+0xac>
        enabled[i] = false;
    1846:	2f 81       	ldd	r18, Y+7	; 0x07
    1848:	38 85       	ldd	r19, Y+8	; 0x08
    184a:	89 81       	ldd	r24, Y+1	; 0x01
    184c:	9a 81       	ldd	r25, Y+2	; 0x02
    184e:	82 0f       	add	r24, r18
    1850:	93 1f       	adc	r25, r19
    1852:	82 57       	subi	r24, 0x72	; 114
    1854:	9f 4f       	sbci	r25, 0xFF	; 255
    1856:	fc 01       	movw	r30, r24
    1858:	10 82       	st	Z, r1
        callbacks[i] = 0;                   // if the callback pointer is zero, the slot is free, i.e. doesn't "contain" any timer
    185a:	2f 81       	ldd	r18, Y+7	; 0x07
    185c:	38 85       	ldd	r19, Y+8	; 0x08
    185e:	89 81       	ldd	r24, Y+1	; 0x01
    1860:	9a 81       	ldd	r25, Y+2	; 0x02
    1862:	45 96       	adiw	r24, 0x15	; 21
    1864:	88 0f       	add	r24, r24
    1866:	99 1f       	adc	r25, r25
    1868:	82 0f       	add	r24, r18
    186a:	93 1f       	adc	r25, r19
    186c:	fc 01       	movw	r30, r24
    186e:	11 82       	std	Z+1, r1	; 0x01
    1870:	10 82       	st	Z, r1
        prev_millis[i] = current_millis;
    1872:	2f 81       	ldd	r18, Y+7	; 0x07
    1874:	38 85       	ldd	r19, Y+8	; 0x08
    1876:	89 81       	ldd	r24, Y+1	; 0x01
    1878:	9a 81       	ldd	r25, Y+2	; 0x02
    187a:	88 0f       	add	r24, r24
    187c:	99 1f       	adc	r25, r25
    187e:	88 0f       	add	r24, r24
    1880:	99 1f       	adc	r25, r25
    1882:	82 0f       	add	r24, r18
    1884:	93 1f       	adc	r25, r19
    1886:	9c 01       	movw	r18, r24
    1888:	2e 5f       	subi	r18, 0xFE	; 254
    188a:	3f 4f       	sbci	r19, 0xFF	; 255
    188c:	8b 81       	ldd	r24, Y+3	; 0x03
    188e:	9c 81       	ldd	r25, Y+4	; 0x04
    1890:	ad 81       	ldd	r26, Y+5	; 0x05
    1892:	be 81       	ldd	r27, Y+6	; 0x06
    1894:	f9 01       	movw	r30, r18
    1896:	80 83       	st	Z, r24
    1898:	91 83       	std	Z+1, r25	; 0x01
    189a:	a2 83       	std	Z+2, r26	; 0x02
    189c:	b3 83       	std	Z+3, r27	; 0x03
        numRuns[i] = 0;
    189e:	2f 81       	ldd	r18, Y+7	; 0x07
    18a0:	38 85       	ldd	r19, Y+8	; 0x08
    18a2:	89 81       	ldd	r24, Y+1	; 0x01
    18a4:	9a 81       	ldd	r25, Y+2	; 0x02
    18a6:	cd 96       	adiw	r24, 0x3d	; 61
    18a8:	88 0f       	add	r24, r24
    18aa:	99 1f       	adc	r25, r25
    18ac:	82 0f       	add	r24, r18
    18ae:	93 1f       	adc	r25, r19
    18b0:	fc 01       	movw	r30, r24
    18b2:	11 82       	std	Z+1, r1	; 0x01
    18b4:	10 82       	st	Z, r1


SimpleTimer::SimpleTimer() {
    unsigned long current_millis = elapsed();

    for (int i = 0; i < MAX_TIMERS; i++) {
    18b6:	89 81       	ldd	r24, Y+1	; 0x01
    18b8:	9a 81       	ldd	r25, Y+2	; 0x02
    18ba:	01 96       	adiw	r24, 0x01	; 1
    18bc:	9a 83       	std	Y+2, r25	; 0x02
    18be:	89 83       	std	Y+1, r24	; 0x01
    18c0:	89 81       	ldd	r24, Y+1	; 0x01
    18c2:	9a 81       	ldd	r25, Y+2	; 0x02
    18c4:	0a 97       	sbiw	r24, 0x0a	; 10
    18c6:	0c f4       	brge	.+2      	; 0x18ca <_ZN11SimpleTimerC1Ev+0xb6>
    18c8:	be cf       	rjmp	.-132    	; 0x1846 <_ZN11SimpleTimerC1Ev+0x32>
        callbacks[i] = 0;                   // if the callback pointer is zero, the slot is free, i.e. doesn't "contain" any timer
        prev_millis[i] = current_millis;
        numRuns[i] = 0;
    }

    numTimers = 0;
    18ca:	8f 81       	ldd	r24, Y+7	; 0x07
    18cc:	98 85       	ldd	r25, Y+8	; 0x08
    18ce:	84 55       	subi	r24, 0x54	; 84
    18d0:	9f 4f       	sbci	r25, 0xFF	; 255
    18d2:	fc 01       	movw	r30, r24
    18d4:	11 82       	std	Z+1, r1	; 0x01
    18d6:	10 82       	st	Z, r1
}
    18d8:	28 96       	adiw	r28, 0x08	; 8
    18da:	e2 e0       	ldi	r30, 0x02	; 2
    18dc:	0c 94 1a 35 	jmp	0x6a34	; 0x6a34 <__epilogue_restores__+0x20>

000018e0 <_ZN11SimpleTimer3runEv>:


void SimpleTimer::run() {
    18e0:	a8 e0       	ldi	r26, 0x08	; 8
    18e2:	b0 e0       	ldi	r27, 0x00	; 0
    18e4:	e6 e7       	ldi	r30, 0x76	; 118
    18e6:	fc e0       	ldi	r31, 0x0C	; 12
    18e8:	0c 94 fa 34 	jmp	0x69f4	; 0x69f4 <__prologue_saves__+0x18>
    18ec:	98 87       	std	Y+8, r25	; 0x08
    18ee:	8f 83       	std	Y+7, r24	; 0x07
    int i;
    unsigned long current_millis;

    // get current time
    current_millis = elapsed();
    18f0:	82 df       	rcall	.-252    	; 0x17f6 <_ZL7elapsedv>
    18f2:	dc 01       	movw	r26, r24
    18f4:	cb 01       	movw	r24, r22
    18f6:	8b 83       	std	Y+3, r24	; 0x03
    18f8:	9c 83       	std	Y+4, r25	; 0x04
    18fa:	ad 83       	std	Y+5, r26	; 0x05
    18fc:	be 83       	std	Y+6, r27	; 0x06

    for (i = 0; i < MAX_TIMERS; i++) {
    18fe:	1a 82       	std	Y+2, r1	; 0x02
    1900:	19 82       	std	Y+1, r1	; 0x01
    1902:	25 c1       	rjmp	.+586    	; 0x1b4e <_ZN11SimpleTimer3runEv+0x26e>

        toBeCalled[i] = DEFCALL_DONTRUN;
    1904:	2f 81       	ldd	r18, Y+7	; 0x07
    1906:	38 85       	ldd	r19, Y+8	; 0x08
    1908:	89 81       	ldd	r24, Y+1	; 0x01
    190a:	9a 81       	ldd	r25, Y+2	; 0x02
    190c:	84 5b       	subi	r24, 0xB4	; 180
    190e:	9f 4f       	sbci	r25, 0xFF	; 255
    1910:	88 0f       	add	r24, r24
    1912:	99 1f       	adc	r25, r25
    1914:	82 0f       	add	r24, r18
    1916:	93 1f       	adc	r25, r19
    1918:	fc 01       	movw	r30, r24
    191a:	11 82       	std	Z+1, r1	; 0x01
    191c:	10 82       	st	Z, r1

        // no callback == no timer, i.e. jump over empty slots
        if (callbacks[i]) {
    191e:	2f 81       	ldd	r18, Y+7	; 0x07
    1920:	38 85       	ldd	r19, Y+8	; 0x08
    1922:	89 81       	ldd	r24, Y+1	; 0x01
    1924:	9a 81       	ldd	r25, Y+2	; 0x02
    1926:	45 96       	adiw	r24, 0x15	; 21
    1928:	88 0f       	add	r24, r24
    192a:	99 1f       	adc	r25, r25
    192c:	82 0f       	add	r24, r18
    192e:	93 1f       	adc	r25, r19
    1930:	fc 01       	movw	r30, r24
    1932:	80 81       	ld	r24, Z
    1934:	91 81       	ldd	r25, Z+1	; 0x01
    1936:	89 2b       	or	r24, r25
    1938:	09 f4       	brne	.+2      	; 0x193c <_ZN11SimpleTimer3runEv+0x5c>
    193a:	04 c1       	rjmp	.+520    	; 0x1b44 <_ZN11SimpleTimer3runEv+0x264>

            // is it time to process this timer ?
            // see http://arduino.cc/forum/index.php/topic,124048.msg932592.html#msg932592

            if (current_millis - prev_millis[i] >= delays[i]) {
    193c:	2f 81       	ldd	r18, Y+7	; 0x07
    193e:	38 85       	ldd	r19, Y+8	; 0x08
    1940:	89 81       	ldd	r24, Y+1	; 0x01
    1942:	9a 81       	ldd	r25, Y+2	; 0x02
    1944:	88 0f       	add	r24, r24
    1946:	99 1f       	adc	r25, r25
    1948:	88 0f       	add	r24, r24
    194a:	99 1f       	adc	r25, r25
    194c:	82 0f       	add	r24, r18
    194e:	93 1f       	adc	r25, r19
    1950:	02 96       	adiw	r24, 0x02	; 2
    1952:	fc 01       	movw	r30, r24
    1954:	80 81       	ld	r24, Z
    1956:	91 81       	ldd	r25, Z+1	; 0x01
    1958:	a2 81       	ldd	r26, Z+2	; 0x02
    195a:	b3 81       	ldd	r27, Z+3	; 0x03
    195c:	2b 81       	ldd	r18, Y+3	; 0x03
    195e:	3c 81       	ldd	r19, Y+4	; 0x04
    1960:	4d 81       	ldd	r20, Y+5	; 0x05
    1962:	5e 81       	ldd	r21, Y+6	; 0x06
    1964:	79 01       	movw	r14, r18
    1966:	8a 01       	movw	r16, r20
    1968:	e8 1a       	sub	r14, r24
    196a:	f9 0a       	sbc	r15, r25
    196c:	0a 0b       	sbc	r16, r26
    196e:	1b 0b       	sbc	r17, r27
    1970:	d8 01       	movw	r26, r16
    1972:	c7 01       	movw	r24, r14
    1974:	4f 81       	ldd	r20, Y+7	; 0x07
    1976:	58 85       	ldd	r21, Y+8	; 0x08
    1978:	29 81       	ldd	r18, Y+1	; 0x01
    197a:	3a 81       	ldd	r19, Y+2	; 0x02
    197c:	22 0f       	add	r18, r18
    197e:	33 1f       	adc	r19, r19
    1980:	22 0f       	add	r18, r18
    1982:	33 1f       	adc	r19, r19
    1984:	24 0f       	add	r18, r20
    1986:	35 1f       	adc	r19, r21
    1988:	22 5c       	subi	r18, 0xC2	; 194
    198a:	3f 4f       	sbci	r19, 0xFF	; 255
    198c:	f9 01       	movw	r30, r18
    198e:	20 81       	ld	r18, Z
    1990:	31 81       	ldd	r19, Z+1	; 0x01
    1992:	42 81       	ldd	r20, Z+2	; 0x02
    1994:	53 81       	ldd	r21, Z+3	; 0x03
    1996:	82 17       	cp	r24, r18
    1998:	93 07       	cpc	r25, r19
    199a:	a4 07       	cpc	r26, r20
    199c:	b5 07       	cpc	r27, r21
    199e:	08 f4       	brcc	.+2      	; 0x19a2 <_ZN11SimpleTimer3runEv+0xc2>
    19a0:	d1 c0       	rjmp	.+418    	; 0x1b44 <_ZN11SimpleTimer3runEv+0x264>

                // update time
                //prev_millis[i] = current_millis;
                prev_millis[i] += delays[i];
    19a2:	2f 81       	ldd	r18, Y+7	; 0x07
    19a4:	38 85       	ldd	r19, Y+8	; 0x08
    19a6:	89 81       	ldd	r24, Y+1	; 0x01
    19a8:	9a 81       	ldd	r25, Y+2	; 0x02
    19aa:	88 0f       	add	r24, r24
    19ac:	99 1f       	adc	r25, r25
    19ae:	88 0f       	add	r24, r24
    19b0:	99 1f       	adc	r25, r25
    19b2:	82 0f       	add	r24, r18
    19b4:	93 1f       	adc	r25, r19
    19b6:	02 96       	adiw	r24, 0x02	; 2
    19b8:	fc 01       	movw	r30, r24
    19ba:	80 81       	ld	r24, Z
    19bc:	91 81       	ldd	r25, Z+1	; 0x01
    19be:	a2 81       	ldd	r26, Z+2	; 0x02
    19c0:	b3 81       	ldd	r27, Z+3	; 0x03
    19c2:	4f 81       	ldd	r20, Y+7	; 0x07
    19c4:	58 85       	ldd	r21, Y+8	; 0x08
    19c6:	29 81       	ldd	r18, Y+1	; 0x01
    19c8:	3a 81       	ldd	r19, Y+2	; 0x02
    19ca:	22 0f       	add	r18, r18
    19cc:	33 1f       	adc	r19, r19
    19ce:	22 0f       	add	r18, r18
    19d0:	33 1f       	adc	r19, r19
    19d2:	24 0f       	add	r18, r20
    19d4:	35 1f       	adc	r19, r21
    19d6:	22 5c       	subi	r18, 0xC2	; 194
    19d8:	3f 4f       	sbci	r19, 0xFF	; 255
    19da:	f9 01       	movw	r30, r18
    19dc:	20 81       	ld	r18, Z
    19de:	31 81       	ldd	r19, Z+1	; 0x01
    19e0:	42 81       	ldd	r20, Z+2	; 0x02
    19e2:	53 81       	ldd	r21, Z+3	; 0x03
    19e4:	82 0f       	add	r24, r18
    19e6:	93 1f       	adc	r25, r19
    19e8:	a4 1f       	adc	r26, r20
    19ea:	b5 1f       	adc	r27, r21
    19ec:	4f 81       	ldd	r20, Y+7	; 0x07
    19ee:	58 85       	ldd	r21, Y+8	; 0x08
    19f0:	29 81       	ldd	r18, Y+1	; 0x01
    19f2:	3a 81       	ldd	r19, Y+2	; 0x02
    19f4:	22 0f       	add	r18, r18
    19f6:	33 1f       	adc	r19, r19
    19f8:	22 0f       	add	r18, r18
    19fa:	33 1f       	adc	r19, r19
    19fc:	24 0f       	add	r18, r20
    19fe:	35 1f       	adc	r19, r21
    1a00:	2e 5f       	subi	r18, 0xFE	; 254
    1a02:	3f 4f       	sbci	r19, 0xFF	; 255
    1a04:	f9 01       	movw	r30, r18
    1a06:	80 83       	st	Z, r24
    1a08:	91 83       	std	Z+1, r25	; 0x01
    1a0a:	a2 83       	std	Z+2, r26	; 0x02
    1a0c:	b3 83       	std	Z+3, r27	; 0x03

                // check if the timer callback has to be executed
                if (enabled[i]) {
    1a0e:	2f 81       	ldd	r18, Y+7	; 0x07
    1a10:	38 85       	ldd	r19, Y+8	; 0x08
    1a12:	89 81       	ldd	r24, Y+1	; 0x01
    1a14:	9a 81       	ldd	r25, Y+2	; 0x02
    1a16:	82 0f       	add	r24, r18
    1a18:	93 1f       	adc	r25, r19
    1a1a:	82 57       	subi	r24, 0x72	; 114
    1a1c:	9f 4f       	sbci	r25, 0xFF	; 255
    1a1e:	fc 01       	movw	r30, r24
    1a20:	80 81       	ld	r24, Z
    1a22:	88 23       	and	r24, r24
    1a24:	09 f4       	brne	.+2      	; 0x1a28 <_ZN11SimpleTimer3runEv+0x148>
    1a26:	8e c0       	rjmp	.+284    	; 0x1b44 <_ZN11SimpleTimer3runEv+0x264>

                    // "run forever" timers must always be executed
                    if (maxNumRuns[i] == RUN_FOREVER) {
    1a28:	2f 81       	ldd	r18, Y+7	; 0x07
    1a2a:	38 85       	ldd	r19, Y+8	; 0x08
    1a2c:	89 81       	ldd	r24, Y+1	; 0x01
    1a2e:	9a 81       	ldd	r25, Y+2	; 0x02
    1a30:	c3 96       	adiw	r24, 0x33	; 51
    1a32:	88 0f       	add	r24, r24
    1a34:	99 1f       	adc	r25, r25
    1a36:	82 0f       	add	r24, r18
    1a38:	93 1f       	adc	r25, r19
    1a3a:	fc 01       	movw	r30, r24
    1a3c:	80 81       	ld	r24, Z
    1a3e:	91 81       	ldd	r25, Z+1	; 0x01
    1a40:	89 2b       	or	r24, r25
    1a42:	81 f4       	brne	.+32     	; 0x1a64 <_ZN11SimpleTimer3runEv+0x184>
                        toBeCalled[i] = DEFCALL_RUNONLY;
    1a44:	2f 81       	ldd	r18, Y+7	; 0x07
    1a46:	38 85       	ldd	r19, Y+8	; 0x08
    1a48:	89 81       	ldd	r24, Y+1	; 0x01
    1a4a:	9a 81       	ldd	r25, Y+2	; 0x02
    1a4c:	84 5b       	subi	r24, 0xB4	; 180
    1a4e:	9f 4f       	sbci	r25, 0xFF	; 255
    1a50:	88 0f       	add	r24, r24
    1a52:	99 1f       	adc	r25, r25
    1a54:	82 0f       	add	r24, r18
    1a56:	93 1f       	adc	r25, r19
    1a58:	21 e0       	ldi	r18, 0x01	; 1
    1a5a:	30 e0       	ldi	r19, 0x00	; 0
    1a5c:	fc 01       	movw	r30, r24
    1a5e:	31 83       	std	Z+1, r19	; 0x01
    1a60:	20 83       	st	Z, r18
    1a62:	70 c0       	rjmp	.+224    	; 0x1b44 <_ZN11SimpleTimer3runEv+0x264>
                    }
                    // other timers get executed the specified number of times
                    else if (numRuns[i] < maxNumRuns[i]) {
    1a64:	2f 81       	ldd	r18, Y+7	; 0x07
    1a66:	38 85       	ldd	r19, Y+8	; 0x08
    1a68:	89 81       	ldd	r24, Y+1	; 0x01
    1a6a:	9a 81       	ldd	r25, Y+2	; 0x02
    1a6c:	cd 96       	adiw	r24, 0x3d	; 61
    1a6e:	88 0f       	add	r24, r24
    1a70:	99 1f       	adc	r25, r25
    1a72:	82 0f       	add	r24, r18
    1a74:	93 1f       	adc	r25, r19
    1a76:	fc 01       	movw	r30, r24
    1a78:	20 81       	ld	r18, Z
    1a7a:	31 81       	ldd	r19, Z+1	; 0x01
    1a7c:	4f 81       	ldd	r20, Y+7	; 0x07
    1a7e:	58 85       	ldd	r21, Y+8	; 0x08
    1a80:	89 81       	ldd	r24, Y+1	; 0x01
    1a82:	9a 81       	ldd	r25, Y+2	; 0x02
    1a84:	c3 96       	adiw	r24, 0x33	; 51
    1a86:	88 0f       	add	r24, r24
    1a88:	99 1f       	adc	r25, r25
    1a8a:	84 0f       	add	r24, r20
    1a8c:	95 1f       	adc	r25, r21
    1a8e:	fc 01       	movw	r30, r24
    1a90:	80 81       	ld	r24, Z
    1a92:	91 81       	ldd	r25, Z+1	; 0x01
    1a94:	28 17       	cp	r18, r24
    1a96:	39 07       	cpc	r19, r25
    1a98:	0c f0       	brlt	.+2      	; 0x1a9c <_ZN11SimpleTimer3runEv+0x1bc>
    1a9a:	54 c0       	rjmp	.+168    	; 0x1b44 <_ZN11SimpleTimer3runEv+0x264>
                        toBeCalled[i] = DEFCALL_RUNONLY;
    1a9c:	2f 81       	ldd	r18, Y+7	; 0x07
    1a9e:	38 85       	ldd	r19, Y+8	; 0x08
    1aa0:	89 81       	ldd	r24, Y+1	; 0x01
    1aa2:	9a 81       	ldd	r25, Y+2	; 0x02
    1aa4:	84 5b       	subi	r24, 0xB4	; 180
    1aa6:	9f 4f       	sbci	r25, 0xFF	; 255
    1aa8:	88 0f       	add	r24, r24
    1aaa:	99 1f       	adc	r25, r25
    1aac:	82 0f       	add	r24, r18
    1aae:	93 1f       	adc	r25, r19
    1ab0:	21 e0       	ldi	r18, 0x01	; 1
    1ab2:	30 e0       	ldi	r19, 0x00	; 0
    1ab4:	fc 01       	movw	r30, r24
    1ab6:	31 83       	std	Z+1, r19	; 0x01
    1ab8:	20 83       	st	Z, r18
                        numRuns[i]++;
    1aba:	2f 81       	ldd	r18, Y+7	; 0x07
    1abc:	38 85       	ldd	r19, Y+8	; 0x08
    1abe:	89 81       	ldd	r24, Y+1	; 0x01
    1ac0:	9a 81       	ldd	r25, Y+2	; 0x02
    1ac2:	cd 96       	adiw	r24, 0x3d	; 61
    1ac4:	88 0f       	add	r24, r24
    1ac6:	99 1f       	adc	r25, r25
    1ac8:	82 0f       	add	r24, r18
    1aca:	93 1f       	adc	r25, r19
    1acc:	fc 01       	movw	r30, r24
    1ace:	80 81       	ld	r24, Z
    1ad0:	91 81       	ldd	r25, Z+1	; 0x01
    1ad2:	9c 01       	movw	r18, r24
    1ad4:	2f 5f       	subi	r18, 0xFF	; 255
    1ad6:	3f 4f       	sbci	r19, 0xFF	; 255
    1ad8:	4f 81       	ldd	r20, Y+7	; 0x07
    1ada:	58 85       	ldd	r21, Y+8	; 0x08
    1adc:	89 81       	ldd	r24, Y+1	; 0x01
    1ade:	9a 81       	ldd	r25, Y+2	; 0x02
    1ae0:	cd 96       	adiw	r24, 0x3d	; 61
    1ae2:	88 0f       	add	r24, r24
    1ae4:	99 1f       	adc	r25, r25
    1ae6:	84 0f       	add	r24, r20
    1ae8:	95 1f       	adc	r25, r21
    1aea:	fc 01       	movw	r30, r24
    1aec:	31 83       	std	Z+1, r19	; 0x01
    1aee:	20 83       	st	Z, r18

                        // after the last run, delete the timer
                        if (numRuns[i] >= maxNumRuns[i]) {
    1af0:	2f 81       	ldd	r18, Y+7	; 0x07
    1af2:	38 85       	ldd	r19, Y+8	; 0x08
    1af4:	89 81       	ldd	r24, Y+1	; 0x01
    1af6:	9a 81       	ldd	r25, Y+2	; 0x02
    1af8:	cd 96       	adiw	r24, 0x3d	; 61
    1afa:	88 0f       	add	r24, r24
    1afc:	99 1f       	adc	r25, r25
    1afe:	82 0f       	add	r24, r18
    1b00:	93 1f       	adc	r25, r19
    1b02:	fc 01       	movw	r30, r24
    1b04:	20 81       	ld	r18, Z
    1b06:	31 81       	ldd	r19, Z+1	; 0x01
    1b08:	4f 81       	ldd	r20, Y+7	; 0x07
    1b0a:	58 85       	ldd	r21, Y+8	; 0x08
    1b0c:	89 81       	ldd	r24, Y+1	; 0x01
    1b0e:	9a 81       	ldd	r25, Y+2	; 0x02
    1b10:	c3 96       	adiw	r24, 0x33	; 51
    1b12:	88 0f       	add	r24, r24
    1b14:	99 1f       	adc	r25, r25
    1b16:	84 0f       	add	r24, r20
    1b18:	95 1f       	adc	r25, r21
    1b1a:	fc 01       	movw	r30, r24
    1b1c:	80 81       	ld	r24, Z
    1b1e:	91 81       	ldd	r25, Z+1	; 0x01
    1b20:	28 17       	cp	r18, r24
    1b22:	39 07       	cpc	r19, r25
    1b24:	7c f0       	brlt	.+30     	; 0x1b44 <_ZN11SimpleTimer3runEv+0x264>
                            toBeCalled[i] = DEFCALL_RUNANDDEL;
    1b26:	2f 81       	ldd	r18, Y+7	; 0x07
    1b28:	38 85       	ldd	r19, Y+8	; 0x08
    1b2a:	89 81       	ldd	r24, Y+1	; 0x01
    1b2c:	9a 81       	ldd	r25, Y+2	; 0x02
    1b2e:	84 5b       	subi	r24, 0xB4	; 180
    1b30:	9f 4f       	sbci	r25, 0xFF	; 255
    1b32:	88 0f       	add	r24, r24
    1b34:	99 1f       	adc	r25, r25
    1b36:	82 0f       	add	r24, r18
    1b38:	93 1f       	adc	r25, r19
    1b3a:	22 e0       	ldi	r18, 0x02	; 2
    1b3c:	30 e0       	ldi	r19, 0x00	; 0
    1b3e:	fc 01       	movw	r30, r24
    1b40:	31 83       	std	Z+1, r19	; 0x01
    1b42:	20 83       	st	Z, r18
    unsigned long current_millis;

    // get current time
    current_millis = elapsed();

    for (i = 0; i < MAX_TIMERS; i++) {
    1b44:	89 81       	ldd	r24, Y+1	; 0x01
    1b46:	9a 81       	ldd	r25, Y+2	; 0x02
    1b48:	01 96       	adiw	r24, 0x01	; 1
    1b4a:	9a 83       	std	Y+2, r25	; 0x02
    1b4c:	89 83       	std	Y+1, r24	; 0x01
    1b4e:	89 81       	ldd	r24, Y+1	; 0x01
    1b50:	9a 81       	ldd	r25, Y+2	; 0x02
    1b52:	0a 97       	sbiw	r24, 0x0a	; 10
    1b54:	0c f4       	brge	.+2      	; 0x1b58 <_ZN11SimpleTimer3runEv+0x278>
    1b56:	d6 ce       	rjmp	.-596    	; 0x1904 <_ZN11SimpleTimer3runEv+0x24>
                }
            }
        }
    }

    for (i = 0; i < MAX_TIMERS; i++) {
    1b58:	1a 82       	std	Y+2, r1	; 0x02
    1b5a:	19 82       	std	Y+1, r1	; 0x01
    1b5c:	46 c0       	rjmp	.+140    	; 0x1bea <_ZN11SimpleTimer3runEv+0x30a>
        switch(toBeCalled[i]) {
    1b5e:	2f 81       	ldd	r18, Y+7	; 0x07
    1b60:	38 85       	ldd	r19, Y+8	; 0x08
    1b62:	89 81       	ldd	r24, Y+1	; 0x01
    1b64:	9a 81       	ldd	r25, Y+2	; 0x02
    1b66:	84 5b       	subi	r24, 0xB4	; 180
    1b68:	9f 4f       	sbci	r25, 0xFF	; 255
    1b6a:	88 0f       	add	r24, r24
    1b6c:	99 1f       	adc	r25, r25
    1b6e:	82 0f       	add	r24, r18
    1b70:	93 1f       	adc	r25, r19
    1b72:	fc 01       	movw	r30, r24
    1b74:	80 81       	ld	r24, Z
    1b76:	91 81       	ldd	r25, Z+1	; 0x01
    1b78:	81 30       	cpi	r24, 0x01	; 1
    1b7a:	91 05       	cpc	r25, r1
    1b7c:	19 f0       	breq	.+6      	; 0x1b84 <_ZN11SimpleTimer3runEv+0x2a4>
    1b7e:	02 97       	sbiw	r24, 0x02	; 2
    1b80:	81 f0       	breq	.+32     	; 0x1ba2 <_ZN11SimpleTimer3runEv+0x2c2>
            case DEFCALL_DONTRUN:
                break;
    1b82:	2e c0       	rjmp	.+92     	; 0x1be0 <_ZN11SimpleTimer3runEv+0x300>

            case DEFCALL_RUNONLY:
                (*callbacks[i])();
    1b84:	2f 81       	ldd	r18, Y+7	; 0x07
    1b86:	38 85       	ldd	r19, Y+8	; 0x08
    1b88:	89 81       	ldd	r24, Y+1	; 0x01
    1b8a:	9a 81       	ldd	r25, Y+2	; 0x02
    1b8c:	45 96       	adiw	r24, 0x15	; 21
    1b8e:	88 0f       	add	r24, r24
    1b90:	99 1f       	adc	r25, r25
    1b92:	82 0f       	add	r24, r18
    1b94:	93 1f       	adc	r25, r19
    1b96:	fc 01       	movw	r30, r24
    1b98:	80 81       	ld	r24, Z
    1b9a:	91 81       	ldd	r25, Z+1	; 0x01
    1b9c:	fc 01       	movw	r30, r24
    1b9e:	09 95       	icall
                break;
    1ba0:	1f c0       	rjmp	.+62     	; 0x1be0 <_ZN11SimpleTimer3runEv+0x300>

            case DEFCALL_RUNANDDEL:
                (*callbacks[i])();
    1ba2:	2f 81       	ldd	r18, Y+7	; 0x07
    1ba4:	38 85       	ldd	r19, Y+8	; 0x08
    1ba6:	89 81       	ldd	r24, Y+1	; 0x01
    1ba8:	9a 81       	ldd	r25, Y+2	; 0x02
    1baa:	45 96       	adiw	r24, 0x15	; 21
    1bac:	88 0f       	add	r24, r24
    1bae:	99 1f       	adc	r25, r25
    1bb0:	82 0f       	add	r24, r18
    1bb2:	93 1f       	adc	r25, r19
    1bb4:	fc 01       	movw	r30, r24
    1bb6:	80 81       	ld	r24, Z
    1bb8:	91 81       	ldd	r25, Z+1	; 0x01
    1bba:	fc 01       	movw	r30, r24
    1bbc:	09 95       	icall
                deleteTimer(i);
    1bbe:	8f 81       	ldd	r24, Y+7	; 0x07
    1bc0:	98 85       	ldd	r25, Y+8	; 0x08
    1bc2:	fc 01       	movw	r30, r24
    1bc4:	80 81       	ld	r24, Z
    1bc6:	91 81       	ldd	r25, Z+1	; 0x01
    1bc8:	08 96       	adiw	r24, 0x08	; 8
    1bca:	fc 01       	movw	r30, r24
    1bcc:	20 81       	ld	r18, Z
    1bce:	31 81       	ldd	r19, Z+1	; 0x01
    1bd0:	49 81       	ldd	r20, Y+1	; 0x01
    1bd2:	5a 81       	ldd	r21, Y+2	; 0x02
    1bd4:	8f 81       	ldd	r24, Y+7	; 0x07
    1bd6:	98 85       	ldd	r25, Y+8	; 0x08
    1bd8:	ba 01       	movw	r22, r20
    1bda:	f9 01       	movw	r30, r18
    1bdc:	09 95       	icall
                break;
    1bde:	00 00       	nop
                }
            }
        }
    }

    for (i = 0; i < MAX_TIMERS; i++) {
    1be0:	89 81       	ldd	r24, Y+1	; 0x01
    1be2:	9a 81       	ldd	r25, Y+2	; 0x02
    1be4:	01 96       	adiw	r24, 0x01	; 1
    1be6:	9a 83       	std	Y+2, r25	; 0x02
    1be8:	89 83       	std	Y+1, r24	; 0x01
    1bea:	89 81       	ldd	r24, Y+1	; 0x01
    1bec:	9a 81       	ldd	r25, Y+2	; 0x02
    1bee:	0a 97       	sbiw	r24, 0x0a	; 10
    1bf0:	0c f4       	brge	.+2      	; 0x1bf4 <_ZN11SimpleTimer3runEv+0x314>
    1bf2:	b5 cf       	rjmp	.-150    	; 0x1b5e <_ZN11SimpleTimer3runEv+0x27e>
                (*callbacks[i])();
                deleteTimer(i);
                break;
        }
    }
}
    1bf4:	28 96       	adiw	r28, 0x08	; 8
    1bf6:	e6 e0       	ldi	r30, 0x06	; 6
    1bf8:	0c 94 16 35 	jmp	0x6a2c	; 0x6a2c <__epilogue_restores__+0x18>

00001bfc <_ZN11SimpleTimer17findFirstFreeSlotEv>:


// find the first available slot
// return -1 if none found
int SimpleTimer::findFirstFreeSlot() {
    1bfc:	a4 e0       	ldi	r26, 0x04	; 4
    1bfe:	b0 e0       	ldi	r27, 0x00	; 0
    1c00:	e4 e0       	ldi	r30, 0x04	; 4
    1c02:	fe e0       	ldi	r31, 0x0E	; 14
    1c04:	0c 94 fe 34 	jmp	0x69fc	; 0x69fc <__prologue_saves__+0x20>
    1c08:	9c 83       	std	Y+4, r25	; 0x04
    1c0a:	8b 83       	std	Y+3, r24	; 0x03
    int i;

    // all slots are used
    if (numTimers >= MAX_TIMERS) {
    1c0c:	8b 81       	ldd	r24, Y+3	; 0x03
    1c0e:	9c 81       	ldd	r25, Y+4	; 0x04
    1c10:	84 55       	subi	r24, 0x54	; 84
    1c12:	9f 4f       	sbci	r25, 0xFF	; 255
    1c14:	fc 01       	movw	r30, r24
    1c16:	80 81       	ld	r24, Z
    1c18:	91 81       	ldd	r25, Z+1	; 0x01
    1c1a:	0a 97       	sbiw	r24, 0x0a	; 10
    1c1c:	1c f0       	brlt	.+6      	; 0x1c24 <_ZN11SimpleTimer17findFirstFreeSlotEv+0x28>
        return -1;
    1c1e:	8f ef       	ldi	r24, 0xFF	; 255
    1c20:	9f ef       	ldi	r25, 0xFF	; 255
    1c22:	1f c0       	rjmp	.+62     	; 0x1c62 <_ZN11SimpleTimer17findFirstFreeSlotEv+0x66>
    }

    // return the first slot with no callback (i.e. free)
    for (i = 0; i < MAX_TIMERS; i++) {
    1c24:	1a 82       	std	Y+2, r1	; 0x02
    1c26:	19 82       	std	Y+1, r1	; 0x01
    1c28:	16 c0       	rjmp	.+44     	; 0x1c56 <_ZN11SimpleTimer17findFirstFreeSlotEv+0x5a>
        if (callbacks[i] == 0) {
    1c2a:	2b 81       	ldd	r18, Y+3	; 0x03
    1c2c:	3c 81       	ldd	r19, Y+4	; 0x04
    1c2e:	89 81       	ldd	r24, Y+1	; 0x01
    1c30:	9a 81       	ldd	r25, Y+2	; 0x02
    1c32:	45 96       	adiw	r24, 0x15	; 21
    1c34:	88 0f       	add	r24, r24
    1c36:	99 1f       	adc	r25, r25
    1c38:	82 0f       	add	r24, r18
    1c3a:	93 1f       	adc	r25, r19
    1c3c:	fc 01       	movw	r30, r24
    1c3e:	80 81       	ld	r24, Z
    1c40:	91 81       	ldd	r25, Z+1	; 0x01
    1c42:	89 2b       	or	r24, r25
    1c44:	19 f4       	brne	.+6      	; 0x1c4c <_ZN11SimpleTimer17findFirstFreeSlotEv+0x50>
            return i;
    1c46:	89 81       	ldd	r24, Y+1	; 0x01
    1c48:	9a 81       	ldd	r25, Y+2	; 0x02
    1c4a:	0b c0       	rjmp	.+22     	; 0x1c62 <_ZN11SimpleTimer17findFirstFreeSlotEv+0x66>
    if (numTimers >= MAX_TIMERS) {
        return -1;
    }

    // return the first slot with no callback (i.e. free)
    for (i = 0; i < MAX_TIMERS; i++) {
    1c4c:	89 81       	ldd	r24, Y+1	; 0x01
    1c4e:	9a 81       	ldd	r25, Y+2	; 0x02
    1c50:	01 96       	adiw	r24, 0x01	; 1
    1c52:	9a 83       	std	Y+2, r25	; 0x02
    1c54:	89 83       	std	Y+1, r24	; 0x01
    1c56:	89 81       	ldd	r24, Y+1	; 0x01
    1c58:	9a 81       	ldd	r25, Y+2	; 0x02
    1c5a:	0a 97       	sbiw	r24, 0x0a	; 10
    1c5c:	34 f3       	brlt	.-52     	; 0x1c2a <_ZN11SimpleTimer17findFirstFreeSlotEv+0x2e>
            return i;
        }
    }

    // no free slots found
    return -1;
    1c5e:	8f ef       	ldi	r24, 0xFF	; 255
    1c60:	9f ef       	ldi	r25, 0xFF	; 255
}
    1c62:	24 96       	adiw	r28, 0x04	; 4
    1c64:	e2 e0       	ldi	r30, 0x02	; 2
    1c66:	0c 94 1a 35 	jmp	0x6a34	; 0x6a34 <__epilogue_restores__+0x20>

00001c6a <_ZN11SimpleTimer8setTimerElPFvvEi>:


int SimpleTimer::setTimer(long d, timer_callback f, int n) {
    1c6a:	ac e0       	ldi	r26, 0x0C	; 12
    1c6c:	b0 e0       	ldi	r27, 0x00	; 0
    1c6e:	eb e3       	ldi	r30, 0x3B	; 59
    1c70:	fe e0       	ldi	r31, 0x0E	; 14
    1c72:	0c 94 fc 34 	jmp	0x69f8	; 0x69f8 <__prologue_saves__+0x1c>
    1c76:	9c 83       	std	Y+4, r25	; 0x04
    1c78:	8b 83       	std	Y+3, r24	; 0x03
    1c7a:	4d 83       	std	Y+5, r20	; 0x05
    1c7c:	5e 83       	std	Y+6, r21	; 0x06
    1c7e:	6f 83       	std	Y+7, r22	; 0x07
    1c80:	78 87       	std	Y+8, r23	; 0x08
    1c82:	3a 87       	std	Y+10, r19	; 0x0a
    1c84:	29 87       	std	Y+9, r18	; 0x09
    1c86:	1c 87       	std	Y+12, r17	; 0x0c
    1c88:	0b 87       	std	Y+11, r16	; 0x0b
    int freeTimer;

    freeTimer = findFirstFreeSlot();
    1c8a:	8b 81       	ldd	r24, Y+3	; 0x03
    1c8c:	9c 81       	ldd	r25, Y+4	; 0x04
    1c8e:	b6 df       	rcall	.-148    	; 0x1bfc <_ZN11SimpleTimer17findFirstFreeSlotEv>
    1c90:	9a 83       	std	Y+2, r25	; 0x02
    1c92:	89 83       	std	Y+1, r24	; 0x01
    if (freeTimer < 0) {
    1c94:	89 81       	ldd	r24, Y+1	; 0x01
    1c96:	9a 81       	ldd	r25, Y+2	; 0x02
    1c98:	99 23       	and	r25, r25
    1c9a:	1c f4       	brge	.+6      	; 0x1ca2 <_ZN11SimpleTimer8setTimerElPFvvEi+0x38>
        return -1;
    1c9c:	8f ef       	ldi	r24, 0xFF	; 255
    1c9e:	9f ef       	ldi	r25, 0xFF	; 255
    1ca0:	6b c0       	rjmp	.+214    	; 0x1d78 <_ZN11SimpleTimer8setTimerElPFvvEi+0x10e>
    }

    if (f == NULL) {
    1ca2:	89 85       	ldd	r24, Y+9	; 0x09
    1ca4:	9a 85       	ldd	r25, Y+10	; 0x0a
    1ca6:	89 2b       	or	r24, r25
    1ca8:	19 f4       	brne	.+6      	; 0x1cb0 <_ZN11SimpleTimer8setTimerElPFvvEi+0x46>
        return -1;
    1caa:	8f ef       	ldi	r24, 0xFF	; 255
    1cac:	9f ef       	ldi	r25, 0xFF	; 255
    1cae:	64 c0       	rjmp	.+200    	; 0x1d78 <_ZN11SimpleTimer8setTimerElPFvvEi+0x10e>
    }

    delays[freeTimer] = d;
    1cb0:	2b 81       	ldd	r18, Y+3	; 0x03
    1cb2:	3c 81       	ldd	r19, Y+4	; 0x04
    1cb4:	89 81       	ldd	r24, Y+1	; 0x01
    1cb6:	9a 81       	ldd	r25, Y+2	; 0x02
    1cb8:	88 0f       	add	r24, r24
    1cba:	99 1f       	adc	r25, r25
    1cbc:	88 0f       	add	r24, r24
    1cbe:	99 1f       	adc	r25, r25
    1cc0:	82 0f       	add	r24, r18
    1cc2:	93 1f       	adc	r25, r19
    1cc4:	9c 01       	movw	r18, r24
    1cc6:	22 5c       	subi	r18, 0xC2	; 194
    1cc8:	3f 4f       	sbci	r19, 0xFF	; 255
    1cca:	8d 81       	ldd	r24, Y+5	; 0x05
    1ccc:	9e 81       	ldd	r25, Y+6	; 0x06
    1cce:	af 81       	ldd	r26, Y+7	; 0x07
    1cd0:	b8 85       	ldd	r27, Y+8	; 0x08
    1cd2:	f9 01       	movw	r30, r18
    1cd4:	80 83       	st	Z, r24
    1cd6:	91 83       	std	Z+1, r25	; 0x01
    1cd8:	a2 83       	std	Z+2, r26	; 0x02
    1cda:	b3 83       	std	Z+3, r27	; 0x03
    callbacks[freeTimer] = f;
    1cdc:	2b 81       	ldd	r18, Y+3	; 0x03
    1cde:	3c 81       	ldd	r19, Y+4	; 0x04
    1ce0:	89 81       	ldd	r24, Y+1	; 0x01
    1ce2:	9a 81       	ldd	r25, Y+2	; 0x02
    1ce4:	45 96       	adiw	r24, 0x15	; 21
    1ce6:	88 0f       	add	r24, r24
    1ce8:	99 1f       	adc	r25, r25
    1cea:	82 0f       	add	r24, r18
    1cec:	93 1f       	adc	r25, r19
    1cee:	29 85       	ldd	r18, Y+9	; 0x09
    1cf0:	3a 85       	ldd	r19, Y+10	; 0x0a
    1cf2:	fc 01       	movw	r30, r24
    1cf4:	31 83       	std	Z+1, r19	; 0x01
    1cf6:	20 83       	st	Z, r18
    maxNumRuns[freeTimer] = n;
    1cf8:	2b 81       	ldd	r18, Y+3	; 0x03
    1cfa:	3c 81       	ldd	r19, Y+4	; 0x04
    1cfc:	89 81       	ldd	r24, Y+1	; 0x01
    1cfe:	9a 81       	ldd	r25, Y+2	; 0x02
    1d00:	c3 96       	adiw	r24, 0x33	; 51
    1d02:	88 0f       	add	r24, r24
    1d04:	99 1f       	adc	r25, r25
    1d06:	82 0f       	add	r24, r18
    1d08:	93 1f       	adc	r25, r19
    1d0a:	2b 85       	ldd	r18, Y+11	; 0x0b
    1d0c:	3c 85       	ldd	r19, Y+12	; 0x0c
    1d0e:	fc 01       	movw	r30, r24
    1d10:	31 83       	std	Z+1, r19	; 0x01
    1d12:	20 83       	st	Z, r18
    enabled[freeTimer] = true;
    1d14:	2b 81       	ldd	r18, Y+3	; 0x03
    1d16:	3c 81       	ldd	r19, Y+4	; 0x04
    1d18:	89 81       	ldd	r24, Y+1	; 0x01
    1d1a:	9a 81       	ldd	r25, Y+2	; 0x02
    1d1c:	82 0f       	add	r24, r18
    1d1e:	93 1f       	adc	r25, r19
    1d20:	82 57       	subi	r24, 0x72	; 114
    1d22:	9f 4f       	sbci	r25, 0xFF	; 255
    1d24:	21 e0       	ldi	r18, 0x01	; 1
    1d26:	fc 01       	movw	r30, r24
    1d28:	20 83       	st	Z, r18
    prev_millis[freeTimer] = elapsed();
    1d2a:	65 dd       	rcall	.-1334   	; 0x17f6 <_ZL7elapsedv>
    1d2c:	dc 01       	movw	r26, r24
    1d2e:	cb 01       	movw	r24, r22
    1d30:	4b 81       	ldd	r20, Y+3	; 0x03
    1d32:	5c 81       	ldd	r21, Y+4	; 0x04
    1d34:	29 81       	ldd	r18, Y+1	; 0x01
    1d36:	3a 81       	ldd	r19, Y+2	; 0x02
    1d38:	22 0f       	add	r18, r18
    1d3a:	33 1f       	adc	r19, r19
    1d3c:	22 0f       	add	r18, r18
    1d3e:	33 1f       	adc	r19, r19
    1d40:	24 0f       	add	r18, r20
    1d42:	35 1f       	adc	r19, r21
    1d44:	2e 5f       	subi	r18, 0xFE	; 254
    1d46:	3f 4f       	sbci	r19, 0xFF	; 255
    1d48:	f9 01       	movw	r30, r18
    1d4a:	80 83       	st	Z, r24
    1d4c:	91 83       	std	Z+1, r25	; 0x01
    1d4e:	a2 83       	std	Z+2, r26	; 0x02
    1d50:	b3 83       	std	Z+3, r27	; 0x03

    numTimers++;
    1d52:	8b 81       	ldd	r24, Y+3	; 0x03
    1d54:	9c 81       	ldd	r25, Y+4	; 0x04
    1d56:	84 55       	subi	r24, 0x54	; 84
    1d58:	9f 4f       	sbci	r25, 0xFF	; 255
    1d5a:	fc 01       	movw	r30, r24
    1d5c:	80 81       	ld	r24, Z
    1d5e:	91 81       	ldd	r25, Z+1	; 0x01
    1d60:	9c 01       	movw	r18, r24
    1d62:	2f 5f       	subi	r18, 0xFF	; 255
    1d64:	3f 4f       	sbci	r19, 0xFF	; 255
    1d66:	8b 81       	ldd	r24, Y+3	; 0x03
    1d68:	9c 81       	ldd	r25, Y+4	; 0x04
    1d6a:	84 55       	subi	r24, 0x54	; 84
    1d6c:	9f 4f       	sbci	r25, 0xFF	; 255
    1d6e:	fc 01       	movw	r30, r24
    1d70:	31 83       	std	Z+1, r19	; 0x01
    1d72:	20 83       	st	Z, r18

    return freeTimer;
    1d74:	89 81       	ldd	r24, Y+1	; 0x01
    1d76:	9a 81       	ldd	r25, Y+2	; 0x02
}
    1d78:	2c 96       	adiw	r28, 0x0c	; 12
    1d7a:	e4 e0       	ldi	r30, 0x04	; 4
    1d7c:	0c 94 18 35 	jmp	0x6a30	; 0x6a30 <__epilogue_restores__+0x1c>

00001d80 <_ZN11SimpleTimer11setIntervalElPFvvE>:


int SimpleTimer::setInterval(long d, timer_callback f) {
    1d80:	a8 e0       	ldi	r26, 0x08	; 8
    1d82:	b0 e0       	ldi	r27, 0x00	; 0
    1d84:	e6 ec       	ldi	r30, 0xC6	; 198
    1d86:	fe e0       	ldi	r31, 0x0E	; 14
    1d88:	0c 94 fa 34 	jmp	0x69f4	; 0x69f4 <__prologue_saves__+0x18>
    1d8c:	9a 83       	std	Y+2, r25	; 0x02
    1d8e:	89 83       	std	Y+1, r24	; 0x01
    1d90:	4b 83       	std	Y+3, r20	; 0x03
    1d92:	5c 83       	std	Y+4, r21	; 0x04
    1d94:	6d 83       	std	Y+5, r22	; 0x05
    1d96:	7e 83       	std	Y+6, r23	; 0x06
    1d98:	38 87       	std	Y+8, r19	; 0x08
    1d9a:	2f 83       	std	Y+7, r18	; 0x07
    return setTimer(d, f, RUN_FOREVER);
    1d9c:	89 81       	ldd	r24, Y+1	; 0x01
    1d9e:	9a 81       	ldd	r25, Y+2	; 0x02
    1da0:	dc 01       	movw	r26, r24
    1da2:	8d 91       	ld	r24, X+
    1da4:	9c 91       	ld	r25, X
    1da6:	06 96       	adiw	r24, 0x06	; 6
    1da8:	dc 01       	movw	r26, r24
    1daa:	ed 91       	ld	r30, X+
    1dac:	fc 91       	ld	r31, X
    1dae:	2f 81       	ldd	r18, Y+7	; 0x07
    1db0:	38 85       	ldd	r19, Y+8	; 0x08
    1db2:	8b 81       	ldd	r24, Y+3	; 0x03
    1db4:	9c 81       	ldd	r25, Y+4	; 0x04
    1db6:	ad 81       	ldd	r26, Y+5	; 0x05
    1db8:	be 81       	ldd	r27, Y+6	; 0x06
    1dba:	e9 80       	ldd	r14, Y+1	; 0x01
    1dbc:	fa 80       	ldd	r15, Y+2	; 0x02
    1dbe:	00 e0       	ldi	r16, 0x00	; 0
    1dc0:	10 e0       	ldi	r17, 0x00	; 0
    1dc2:	ac 01       	movw	r20, r24
    1dc4:	bd 01       	movw	r22, r26
    1dc6:	c7 01       	movw	r24, r14
    1dc8:	09 95       	icall
}
    1dca:	28 96       	adiw	r28, 0x08	; 8
    1dcc:	e6 e0       	ldi	r30, 0x06	; 6
    1dce:	0c 94 16 35 	jmp	0x6a2c	; 0x6a2c <__epilogue_restores__+0x18>

00001dd2 <_ZN11SimpleTimer10setTimeoutElPFvvE>:


int SimpleTimer::setTimeout(long d, timer_callback f) {
    1dd2:	a8 e0       	ldi	r26, 0x08	; 8
    1dd4:	b0 e0       	ldi	r27, 0x00	; 0
    1dd6:	ef ee       	ldi	r30, 0xEF	; 239
    1dd8:	fe e0       	ldi	r31, 0x0E	; 14
    1dda:	0c 94 fa 34 	jmp	0x69f4	; 0x69f4 <__prologue_saves__+0x18>
    1dde:	9a 83       	std	Y+2, r25	; 0x02
    1de0:	89 83       	std	Y+1, r24	; 0x01
    1de2:	4b 83       	std	Y+3, r20	; 0x03
    1de4:	5c 83       	std	Y+4, r21	; 0x04
    1de6:	6d 83       	std	Y+5, r22	; 0x05
    1de8:	7e 83       	std	Y+6, r23	; 0x06
    1dea:	38 87       	std	Y+8, r19	; 0x08
    1dec:	2f 83       	std	Y+7, r18	; 0x07
    return setTimer(d, f, RUN_ONCE);
    1dee:	89 81       	ldd	r24, Y+1	; 0x01
    1df0:	9a 81       	ldd	r25, Y+2	; 0x02
    1df2:	dc 01       	movw	r26, r24
    1df4:	8d 91       	ld	r24, X+
    1df6:	9c 91       	ld	r25, X
    1df8:	06 96       	adiw	r24, 0x06	; 6
    1dfa:	dc 01       	movw	r26, r24
    1dfc:	ed 91       	ld	r30, X+
    1dfe:	fc 91       	ld	r31, X
    1e00:	2f 81       	ldd	r18, Y+7	; 0x07
    1e02:	38 85       	ldd	r19, Y+8	; 0x08
    1e04:	8b 81       	ldd	r24, Y+3	; 0x03
    1e06:	9c 81       	ldd	r25, Y+4	; 0x04
    1e08:	ad 81       	ldd	r26, Y+5	; 0x05
    1e0a:	be 81       	ldd	r27, Y+6	; 0x06
    1e0c:	e9 80       	ldd	r14, Y+1	; 0x01
    1e0e:	fa 80       	ldd	r15, Y+2	; 0x02
    1e10:	01 e0       	ldi	r16, 0x01	; 1
    1e12:	10 e0       	ldi	r17, 0x00	; 0
    1e14:	ac 01       	movw	r20, r24
    1e16:	bd 01       	movw	r22, r26
    1e18:	c7 01       	movw	r24, r14
    1e1a:	09 95       	icall
}
    1e1c:	28 96       	adiw	r28, 0x08	; 8
    1e1e:	e6 e0       	ldi	r30, 0x06	; 6
    1e20:	0c 94 16 35 	jmp	0x6a2c	; 0x6a2c <__epilogue_restores__+0x18>

00001e24 <_ZN11SimpleTimer11deleteTimerEi>:


void SimpleTimer::deleteTimer(int timerId) {
    1e24:	a4 e0       	ldi	r26, 0x04	; 4
    1e26:	b0 e0       	ldi	r27, 0x00	; 0
    1e28:	e8 e1       	ldi	r30, 0x18	; 24
    1e2a:	ff e0       	ldi	r31, 0x0F	; 15
    1e2c:	0c 94 fe 34 	jmp	0x69fc	; 0x69fc <__prologue_saves__+0x20>
    1e30:	9a 83       	std	Y+2, r25	; 0x02
    1e32:	89 83       	std	Y+1, r24	; 0x01
    1e34:	7c 83       	std	Y+4, r23	; 0x04
    1e36:	6b 83       	std	Y+3, r22	; 0x03
    if (timerId >= MAX_TIMERS) {
    1e38:	8b 81       	ldd	r24, Y+3	; 0x03
    1e3a:	9c 81       	ldd	r25, Y+4	; 0x04
    1e3c:	0a 97       	sbiw	r24, 0x0a	; 10
    1e3e:	0c f0       	brlt	.+2      	; 0x1e42 <_ZN11SimpleTimer11deleteTimerEi+0x1e>
        return;
    1e40:	69 c0       	rjmp	.+210    	; 0x1f14 <_ZN11SimpleTimer11deleteTimerEi+0xf0>
    }

    // nothing to delete if no timers are in use
    if (numTimers == 0) {
    1e42:	89 81       	ldd	r24, Y+1	; 0x01
    1e44:	9a 81       	ldd	r25, Y+2	; 0x02
    1e46:	84 55       	subi	r24, 0x54	; 84
    1e48:	9f 4f       	sbci	r25, 0xFF	; 255
    1e4a:	fc 01       	movw	r30, r24
    1e4c:	80 81       	ld	r24, Z
    1e4e:	91 81       	ldd	r25, Z+1	; 0x01
    1e50:	89 2b       	or	r24, r25
    1e52:	09 f4       	brne	.+2      	; 0x1e56 <_ZN11SimpleTimer11deleteTimerEi+0x32>
        return;
    1e54:	5f c0       	rjmp	.+190    	; 0x1f14 <_ZN11SimpleTimer11deleteTimerEi+0xf0>
    }

    // don't decrease the number of timers if the
    // specified slot is already empty
    if (callbacks[timerId] != NULL) {
    1e56:	29 81       	ldd	r18, Y+1	; 0x01
    1e58:	3a 81       	ldd	r19, Y+2	; 0x02
    1e5a:	8b 81       	ldd	r24, Y+3	; 0x03
    1e5c:	9c 81       	ldd	r25, Y+4	; 0x04
    1e5e:	45 96       	adiw	r24, 0x15	; 21
    1e60:	88 0f       	add	r24, r24
    1e62:	99 1f       	adc	r25, r25
    1e64:	82 0f       	add	r24, r18
    1e66:	93 1f       	adc	r25, r19
    1e68:	fc 01       	movw	r30, r24
    1e6a:	80 81       	ld	r24, Z
    1e6c:	91 81       	ldd	r25, Z+1	; 0x01
    1e6e:	89 2b       	or	r24, r25
    1e70:	09 f4       	brne	.+2      	; 0x1e74 <_ZN11SimpleTimer11deleteTimerEi+0x50>
    1e72:	50 c0       	rjmp	.+160    	; 0x1f14 <_ZN11SimpleTimer11deleteTimerEi+0xf0>
        callbacks[timerId] = 0;
    1e74:	29 81       	ldd	r18, Y+1	; 0x01
    1e76:	3a 81       	ldd	r19, Y+2	; 0x02
    1e78:	8b 81       	ldd	r24, Y+3	; 0x03
    1e7a:	9c 81       	ldd	r25, Y+4	; 0x04
    1e7c:	45 96       	adiw	r24, 0x15	; 21
    1e7e:	88 0f       	add	r24, r24
    1e80:	99 1f       	adc	r25, r25
    1e82:	82 0f       	add	r24, r18
    1e84:	93 1f       	adc	r25, r19
    1e86:	fc 01       	movw	r30, r24
    1e88:	11 82       	std	Z+1, r1	; 0x01
    1e8a:	10 82       	st	Z, r1
        enabled[timerId] = false;
    1e8c:	29 81       	ldd	r18, Y+1	; 0x01
    1e8e:	3a 81       	ldd	r19, Y+2	; 0x02
    1e90:	8b 81       	ldd	r24, Y+3	; 0x03
    1e92:	9c 81       	ldd	r25, Y+4	; 0x04
    1e94:	82 0f       	add	r24, r18
    1e96:	93 1f       	adc	r25, r19
    1e98:	82 57       	subi	r24, 0x72	; 114
    1e9a:	9f 4f       	sbci	r25, 0xFF	; 255
    1e9c:	fc 01       	movw	r30, r24
    1e9e:	10 82       	st	Z, r1
        toBeCalled[timerId] = DEFCALL_DONTRUN;
    1ea0:	29 81       	ldd	r18, Y+1	; 0x01
    1ea2:	3a 81       	ldd	r19, Y+2	; 0x02
    1ea4:	8b 81       	ldd	r24, Y+3	; 0x03
    1ea6:	9c 81       	ldd	r25, Y+4	; 0x04
    1ea8:	84 5b       	subi	r24, 0xB4	; 180
    1eaa:	9f 4f       	sbci	r25, 0xFF	; 255
    1eac:	88 0f       	add	r24, r24
    1eae:	99 1f       	adc	r25, r25
    1eb0:	82 0f       	add	r24, r18
    1eb2:	93 1f       	adc	r25, r19
    1eb4:	fc 01       	movw	r30, r24
    1eb6:	11 82       	std	Z+1, r1	; 0x01
    1eb8:	10 82       	st	Z, r1
        delays[timerId] = 0;
    1eba:	29 81       	ldd	r18, Y+1	; 0x01
    1ebc:	3a 81       	ldd	r19, Y+2	; 0x02
    1ebe:	8b 81       	ldd	r24, Y+3	; 0x03
    1ec0:	9c 81       	ldd	r25, Y+4	; 0x04
    1ec2:	88 0f       	add	r24, r24
    1ec4:	99 1f       	adc	r25, r25
    1ec6:	88 0f       	add	r24, r24
    1ec8:	99 1f       	adc	r25, r25
    1eca:	82 0f       	add	r24, r18
    1ecc:	93 1f       	adc	r25, r19
    1ece:	ce 96       	adiw	r24, 0x3e	; 62
    1ed0:	fc 01       	movw	r30, r24
    1ed2:	10 82       	st	Z, r1
    1ed4:	11 82       	std	Z+1, r1	; 0x01
    1ed6:	12 82       	std	Z+2, r1	; 0x02
    1ed8:	13 82       	std	Z+3, r1	; 0x03
        numRuns[timerId] = 0;
    1eda:	29 81       	ldd	r18, Y+1	; 0x01
    1edc:	3a 81       	ldd	r19, Y+2	; 0x02
    1ede:	8b 81       	ldd	r24, Y+3	; 0x03
    1ee0:	9c 81       	ldd	r25, Y+4	; 0x04
    1ee2:	cd 96       	adiw	r24, 0x3d	; 61
    1ee4:	88 0f       	add	r24, r24
    1ee6:	99 1f       	adc	r25, r25
    1ee8:	82 0f       	add	r24, r18
    1eea:	93 1f       	adc	r25, r19
    1eec:	fc 01       	movw	r30, r24
    1eee:	11 82       	std	Z+1, r1	; 0x01
    1ef0:	10 82       	st	Z, r1

        // update number of timers
        numTimers--;
    1ef2:	89 81       	ldd	r24, Y+1	; 0x01
    1ef4:	9a 81       	ldd	r25, Y+2	; 0x02
    1ef6:	84 55       	subi	r24, 0x54	; 84
    1ef8:	9f 4f       	sbci	r25, 0xFF	; 255
    1efa:	fc 01       	movw	r30, r24
    1efc:	80 81       	ld	r24, Z
    1efe:	91 81       	ldd	r25, Z+1	; 0x01
    1f00:	9c 01       	movw	r18, r24
    1f02:	21 50       	subi	r18, 0x01	; 1
    1f04:	31 09       	sbc	r19, r1
    1f06:	89 81       	ldd	r24, Y+1	; 0x01
    1f08:	9a 81       	ldd	r25, Y+2	; 0x02
    1f0a:	84 55       	subi	r24, 0x54	; 84
    1f0c:	9f 4f       	sbci	r25, 0xFF	; 255
    1f0e:	fc 01       	movw	r30, r24
    1f10:	31 83       	std	Z+1, r19	; 0x01
    1f12:	20 83       	st	Z, r18
    }
}
    1f14:	24 96       	adiw	r28, 0x04	; 4
    1f16:	e2 e0       	ldi	r30, 0x02	; 2
    1f18:	0c 94 1a 35 	jmp	0x6a34	; 0x6a34 <__epilogue_restores__+0x20>

00001f1c <_ZN11SimpleTimer12restartTimerEi>:


// function contributed by code@rowansimms.com
void SimpleTimer::restartTimer(int numTimer) {
    1f1c:	a4 e0       	ldi	r26, 0x04	; 4
    1f1e:	b0 e0       	ldi	r27, 0x00	; 0
    1f20:	e4 e9       	ldi	r30, 0x94	; 148
    1f22:	ff e0       	ldi	r31, 0x0F	; 15
    1f24:	0c 94 fe 34 	jmp	0x69fc	; 0x69fc <__prologue_saves__+0x20>
    1f28:	9a 83       	std	Y+2, r25	; 0x02
    1f2a:	89 83       	std	Y+1, r24	; 0x01
    1f2c:	7c 83       	std	Y+4, r23	; 0x04
    1f2e:	6b 83       	std	Y+3, r22	; 0x03
    if (numTimer >= MAX_TIMERS) {
    1f30:	8b 81       	ldd	r24, Y+3	; 0x03
    1f32:	9c 81       	ldd	r25, Y+4	; 0x04
    1f34:	0a 97       	sbiw	r24, 0x0a	; 10
    1f36:	0c f0       	brlt	.+2      	; 0x1f3a <_ZN11SimpleTimer12restartTimerEi+0x1e>
        return;
    1f38:	14 c0       	rjmp	.+40     	; 0x1f62 <_ZN11SimpleTimer12restartTimerEi+0x46>
    }

    prev_millis[numTimer] = elapsed();
    1f3a:	5d dc       	rcall	.-1862   	; 0x17f6 <_ZL7elapsedv>
    1f3c:	dc 01       	movw	r26, r24
    1f3e:	cb 01       	movw	r24, r22
    1f40:	49 81       	ldd	r20, Y+1	; 0x01
    1f42:	5a 81       	ldd	r21, Y+2	; 0x02
    1f44:	2b 81       	ldd	r18, Y+3	; 0x03
    1f46:	3c 81       	ldd	r19, Y+4	; 0x04
    1f48:	22 0f       	add	r18, r18
    1f4a:	33 1f       	adc	r19, r19
    1f4c:	22 0f       	add	r18, r18
    1f4e:	33 1f       	adc	r19, r19
    1f50:	24 0f       	add	r18, r20
    1f52:	35 1f       	adc	r19, r21
    1f54:	2e 5f       	subi	r18, 0xFE	; 254
    1f56:	3f 4f       	sbci	r19, 0xFF	; 255
    1f58:	f9 01       	movw	r30, r18
    1f5a:	80 83       	st	Z, r24
    1f5c:	91 83       	std	Z+1, r25	; 0x01
    1f5e:	a2 83       	std	Z+2, r26	; 0x02
    1f60:	b3 83       	std	Z+3, r27	; 0x03
}
    1f62:	24 96       	adiw	r28, 0x04	; 4
    1f64:	e2 e0       	ldi	r30, 0x02	; 2
    1f66:	0c 94 1a 35 	jmp	0x6a34	; 0x6a34 <__epilogue_restores__+0x20>

00001f6a <_ZN11SimpleTimer9isEnabledEi>:


boolean SimpleTimer::isEnabled(int numTimer) {
    1f6a:	a4 e0       	ldi	r26, 0x04	; 4
    1f6c:	b0 e0       	ldi	r27, 0x00	; 0
    1f6e:	eb eb       	ldi	r30, 0xBB	; 187
    1f70:	ff e0       	ldi	r31, 0x0F	; 15
    1f72:	0c 94 fe 34 	jmp	0x69fc	; 0x69fc <__prologue_saves__+0x20>
    1f76:	9a 83       	std	Y+2, r25	; 0x02
    1f78:	89 83       	std	Y+1, r24	; 0x01
    1f7a:	7c 83       	std	Y+4, r23	; 0x04
    1f7c:	6b 83       	std	Y+3, r22	; 0x03
    if (numTimer >= MAX_TIMERS) {
    1f7e:	8b 81       	ldd	r24, Y+3	; 0x03
    1f80:	9c 81       	ldd	r25, Y+4	; 0x04
    1f82:	0a 97       	sbiw	r24, 0x0a	; 10
    1f84:	14 f0       	brlt	.+4      	; 0x1f8a <_ZN11SimpleTimer9isEnabledEi+0x20>
        return false;
    1f86:	80 e0       	ldi	r24, 0x00	; 0
    1f88:	0a c0       	rjmp	.+20     	; 0x1f9e <_ZN11SimpleTimer9isEnabledEi+0x34>
    }

    return enabled[numTimer];
    1f8a:	29 81       	ldd	r18, Y+1	; 0x01
    1f8c:	3a 81       	ldd	r19, Y+2	; 0x02
    1f8e:	8b 81       	ldd	r24, Y+3	; 0x03
    1f90:	9c 81       	ldd	r25, Y+4	; 0x04
    1f92:	82 0f       	add	r24, r18
    1f94:	93 1f       	adc	r25, r19
    1f96:	82 57       	subi	r24, 0x72	; 114
    1f98:	9f 4f       	sbci	r25, 0xFF	; 255
    1f9a:	fc 01       	movw	r30, r24
    1f9c:	80 81       	ld	r24, Z
}
    1f9e:	24 96       	adiw	r28, 0x04	; 4
    1fa0:	e2 e0       	ldi	r30, 0x02	; 2
    1fa2:	0c 94 1a 35 	jmp	0x6a34	; 0x6a34 <__epilogue_restores__+0x20>

00001fa6 <_ZN11SimpleTimer6enableEi>:


void SimpleTimer::enable(int numTimer) {
    1fa6:	a4 e0       	ldi	r26, 0x04	; 4
    1fa8:	b0 e0       	ldi	r27, 0x00	; 0
    1faa:	e9 ed       	ldi	r30, 0xD9	; 217
    1fac:	ff e0       	ldi	r31, 0x0F	; 15
    1fae:	0c 94 fe 34 	jmp	0x69fc	; 0x69fc <__prologue_saves__+0x20>
    1fb2:	9a 83       	std	Y+2, r25	; 0x02
    1fb4:	89 83       	std	Y+1, r24	; 0x01
    1fb6:	7c 83       	std	Y+4, r23	; 0x04
    1fb8:	6b 83       	std	Y+3, r22	; 0x03
    if (numTimer >= MAX_TIMERS) {
    1fba:	8b 81       	ldd	r24, Y+3	; 0x03
    1fbc:	9c 81       	ldd	r25, Y+4	; 0x04
    1fbe:	0a 97       	sbiw	r24, 0x0a	; 10
    1fc0:	0c f0       	brlt	.+2      	; 0x1fc4 <_ZN11SimpleTimer6enableEi+0x1e>
        return;
    1fc2:	0b c0       	rjmp	.+22     	; 0x1fda <_ZN11SimpleTimer6enableEi+0x34>
    }

    enabled[numTimer] = true;
    1fc4:	29 81       	ldd	r18, Y+1	; 0x01
    1fc6:	3a 81       	ldd	r19, Y+2	; 0x02
    1fc8:	8b 81       	ldd	r24, Y+3	; 0x03
    1fca:	9c 81       	ldd	r25, Y+4	; 0x04
    1fcc:	82 0f       	add	r24, r18
    1fce:	93 1f       	adc	r25, r19
    1fd0:	82 57       	subi	r24, 0x72	; 114
    1fd2:	9f 4f       	sbci	r25, 0xFF	; 255
    1fd4:	21 e0       	ldi	r18, 0x01	; 1
    1fd6:	fc 01       	movw	r30, r24
    1fd8:	20 83       	st	Z, r18
}
    1fda:	24 96       	adiw	r28, 0x04	; 4
    1fdc:	e2 e0       	ldi	r30, 0x02	; 2
    1fde:	0c 94 1a 35 	jmp	0x6a34	; 0x6a34 <__epilogue_restores__+0x20>

00001fe2 <_ZN11SimpleTimer7disableEi>:


void SimpleTimer::disable(int numTimer) {
    1fe2:	a4 e0       	ldi	r26, 0x04	; 4
    1fe4:	b0 e0       	ldi	r27, 0x00	; 0
    1fe6:	e7 ef       	ldi	r30, 0xF7	; 247
    1fe8:	ff e0       	ldi	r31, 0x0F	; 15
    1fea:	0c 94 fe 34 	jmp	0x69fc	; 0x69fc <__prologue_saves__+0x20>
    1fee:	9a 83       	std	Y+2, r25	; 0x02
    1ff0:	89 83       	std	Y+1, r24	; 0x01
    1ff2:	7c 83       	std	Y+4, r23	; 0x04
    1ff4:	6b 83       	std	Y+3, r22	; 0x03
    if (numTimer >= MAX_TIMERS) {
    1ff6:	8b 81       	ldd	r24, Y+3	; 0x03
    1ff8:	9c 81       	ldd	r25, Y+4	; 0x04
    1ffa:	0a 97       	sbiw	r24, 0x0a	; 10
    1ffc:	0c f0       	brlt	.+2      	; 0x2000 <_ZN11SimpleTimer7disableEi+0x1e>
        return;
    1ffe:	0a c0       	rjmp	.+20     	; 0x2014 <_ZN11SimpleTimer7disableEi+0x32>
    }

    enabled[numTimer] = false;
    2000:	29 81       	ldd	r18, Y+1	; 0x01
    2002:	3a 81       	ldd	r19, Y+2	; 0x02
    2004:	8b 81       	ldd	r24, Y+3	; 0x03
    2006:	9c 81       	ldd	r25, Y+4	; 0x04
    2008:	82 0f       	add	r24, r18
    200a:	93 1f       	adc	r25, r19
    200c:	82 57       	subi	r24, 0x72	; 114
    200e:	9f 4f       	sbci	r25, 0xFF	; 255
    2010:	fc 01       	movw	r30, r24
    2012:	10 82       	st	Z, r1
}
    2014:	24 96       	adiw	r28, 0x04	; 4
    2016:	e2 e0       	ldi	r30, 0x02	; 2
    2018:	0c 94 1a 35 	jmp	0x6a34	; 0x6a34 <__epilogue_restores__+0x20>

0000201c <_ZN7LCDBaseC1Ev>:

//LCDBase::LCDBase(): _lcd(8, 9, 4, 5, 6, 7) {
//Init();
//}

LCDBase::LCDBase(): LiquidCrystal(8, 9, 4, 5, 6, 7) {
    201c:	cf 92       	push	r12
    201e:	ef 92       	push	r14
    2020:	0f 93       	push	r16
    2022:	cf 93       	push	r28
    2024:	df 93       	push	r29
    2026:	00 d0       	rcall	.+0      	; 0x2028 <_ZN7LCDBaseC1Ev+0xc>
    2028:	cd b7       	in	r28, 0x3d	; 61
    202a:	de b7       	in	r29, 0x3e	; 62
    202c:	9a 83       	std	Y+2, r25	; 0x02
    202e:	89 83       	std	Y+1, r24	; 0x01
    2030:	89 81       	ldd	r24, Y+1	; 0x01
    2032:	9a 81       	ldd	r25, Y+2	; 0x02
    2034:	0f 2e       	mov	r0, r31
    2036:	f7 e0       	ldi	r31, 0x07	; 7
    2038:	cf 2e       	mov	r12, r31
    203a:	f0 2d       	mov	r31, r0
    203c:	0f 2e       	mov	r0, r31
    203e:	f6 e0       	ldi	r31, 0x06	; 6
    2040:	ef 2e       	mov	r14, r31
    2042:	f0 2d       	mov	r31, r0
    2044:	05 e0       	ldi	r16, 0x05	; 5
    2046:	24 e0       	ldi	r18, 0x04	; 4
    2048:	49 e0       	ldi	r20, 0x09	; 9
    204a:	68 e0       	ldi	r22, 0x08	; 8
    204c:	21 d8       	rcall	.-4030   	; 0x1090 <_ZN13LiquidCrystalC1Ehhhhhh>
    204e:	89 81       	ldd	r24, Y+1	; 0x01
    2050:	9a 81       	ldd	r25, Y+2	; 0x02
    2052:	25 ea       	ldi	r18, 0xA5	; 165
    2054:	31 e0       	ldi	r19, 0x01	; 1
    2056:	fc 01       	movw	r30, r24
    2058:	31 83       	std	Z+1, r19	; 0x01
    205a:	20 83       	st	Z, r18
    205c:	89 81       	ldd	r24, Y+1	; 0x01
    205e:	9a 81       	ldd	r25, Y+2	; 0x02
    2060:	2a e0       	ldi	r18, 0x0A	; 10
    2062:	e5 e1       	ldi	r30, 0x15	; 21
    2064:	f1 e0       	ldi	r31, 0x01	; 1
    2066:	dc 01       	movw	r26, r24
    2068:	58 96       	adiw	r26, 0x18	; 24
    206a:	01 90       	ld	r0, Z+
    206c:	0d 92       	st	X+, r0
    206e:	2a 95       	dec	r18
    2070:	e1 f7       	brne	.-8      	; 0x206a <_ZN7LCDBaseC1Ev+0x4e>
    2072:	89 81       	ldd	r24, Y+1	; 0x01
    2074:	9a 81       	ldd	r25, Y+2	; 0x02
    2076:	25 e0       	ldi	r18, 0x05	; 5
    2078:	30 e0       	ldi	r19, 0x00	; 0
    207a:	fc 01       	movw	r30, r24
    207c:	33 a3       	std	Z+35, r19	; 0x23
    207e:	22 a3       	std	Z+34, r18	; 0x22
    Init();
    2080:	89 81       	ldd	r24, Y+1	; 0x01
    2082:	9a 81       	ldd	r25, Y+2	; 0x02
    2084:	08 d0       	rcall	.+16     	; 0x2096 <_ZN7LCDBase4InitEv>
}
    2086:	0f 90       	pop	r0
    2088:	0f 90       	pop	r0
    208a:	df 91       	pop	r29
    208c:	cf 91       	pop	r28
    208e:	0f 91       	pop	r16
    2090:	ef 90       	pop	r14
    2092:	cf 90       	pop	r12
    2094:	08 95       	ret

00002096 <_ZN7LCDBase4InitEv>:

void LCDBase::Init() {
    2096:	a2 e0       	ldi	r26, 0x02	; 2
    2098:	b0 e0       	ldi	r27, 0x00	; 0
    209a:	e1 e5       	ldi	r30, 0x51	; 81
    209c:	f0 e1       	ldi	r31, 0x10	; 16
    209e:	0c 94 fe 34 	jmp	0x69fc	; 0x69fc <__prologue_saves__+0x20>
    20a2:	9a 83       	std	Y+2, r25	; 0x02
    20a4:	89 83       	std	Y+1, r24	; 0x01
    begin(16, 2);
    20a6:	89 81       	ldd	r24, Y+1	; 0x01
    20a8:	9a 81       	ldd	r25, Y+2	; 0x02
    20aa:	20 e0       	ldi	r18, 0x00	; 0
    20ac:	42 e0       	ldi	r20, 0x02	; 2
    20ae:	60 e1       	ldi	r22, 0x10	; 16
    20b0:	bd d8       	rcall	.-3718   	; 0x122c <_ZN13LiquidCrystal5beginEhhh>
    clear();
    20b2:	89 81       	ldd	r24, Y+1	; 0x01
    20b4:	9a 81       	ldd	r25, Y+2	; 0x02
    20b6:	b4 d9       	rcall	.-3224   	; 0x1420 <_ZN13LiquidCrystal5clearEv>
    setCursor(0, 0);
    20b8:	89 81       	ldd	r24, Y+1	; 0x01
    20ba:	9a 81       	ldd	r25, Y+2	; 0x02
    20bc:	40 e0       	ldi	r20, 0x00	; 0
    20be:	60 e0       	ldi	r22, 0x00	; 0
    20c0:	c3 d9       	rcall	.-3194   	; 0x1448 <_ZN13LiquidCrystal9setCursorEhh>

}
    20c2:	22 96       	adiw	r28, 0x02	; 2
    20c4:	e2 e0       	ldi	r30, 0x02	; 2
    20c6:	0c 94 1a 35 	jmp	0x6a34	; 0x6a34 <__epilogue_restores__+0x20>

000020ca <_ZN7LCDBase9ClearLineEs>:
void LCDBase::ClearLine(short lineNum) {
    20ca:	a4 e0       	ldi	r26, 0x04	; 4
    20cc:	b0 e0       	ldi	r27, 0x00	; 0
    20ce:	eb e6       	ldi	r30, 0x6B	; 107
    20d0:	f0 e1       	ldi	r31, 0x10	; 16
    20d2:	0c 94 fe 34 	jmp	0x69fc	; 0x69fc <__prologue_saves__+0x20>
    20d6:	9a 83       	std	Y+2, r25	; 0x02
    20d8:	89 83       	std	Y+1, r24	; 0x01
    20da:	7c 83       	std	Y+4, r23	; 0x04
    20dc:	6b 83       	std	Y+3, r22	; 0x03
    setCursor(0, lineNum);
    20de:	2b 81       	ldd	r18, Y+3	; 0x03
    20e0:	89 81       	ldd	r24, Y+1	; 0x01
    20e2:	9a 81       	ldd	r25, Y+2	; 0x02
    20e4:	42 2f       	mov	r20, r18
    20e6:	60 e0       	ldi	r22, 0x00	; 0
    20e8:	af d9       	rcall	.-3234   	; 0x1448 <_ZN13LiquidCrystal9setCursorEhh>
    print(F("                "));
    20ea:	2f e8       	ldi	r18, 0x8F	; 143
    20ec:	33 e0       	ldi	r19, 0x03	; 3
    20ee:	89 81       	ldd	r24, Y+1	; 0x01
    20f0:	9a 81       	ldd	r25, Y+2	; 0x02
    20f2:	b9 01       	movw	r22, r18
    20f4:	0e 94 dc 2d 	call	0x5bb8	; 0x5bb8 <_ZN5Print5printEPK19__FlashStringHelper>
}
    20f8:	24 96       	adiw	r28, 0x04	; 4
    20fa:	e2 e0       	ldi	r30, 0x02	; 2
    20fc:	0c 94 1a 35 	jmp	0x6a34	; 0x6a34 <__epilogue_restores__+0x20>

00002100 <_ZN7LCDBase9PrintLineEs6String>:
void LCDBase::PrintLine(short lineNum, String text) {
    2100:	a6 e0       	ldi	r26, 0x06	; 6
    2102:	b0 e0       	ldi	r27, 0x00	; 0
    2104:	e6 e8       	ldi	r30, 0x86	; 134
    2106:	f0 e1       	ldi	r31, 0x10	; 16
    2108:	0c 94 fe 34 	jmp	0x69fc	; 0x69fc <__prologue_saves__+0x20>
    210c:	9a 83       	std	Y+2, r25	; 0x02
    210e:	89 83       	std	Y+1, r24	; 0x01
    2110:	7c 83       	std	Y+4, r23	; 0x04
    2112:	6b 83       	std	Y+3, r22	; 0x03
    2114:	5e 83       	std	Y+6, r21	; 0x06
    2116:	4d 83       	std	Y+5, r20	; 0x05
    ClearLine(lineNum);
    2118:	2b 81       	ldd	r18, Y+3	; 0x03
    211a:	3c 81       	ldd	r19, Y+4	; 0x04
    211c:	89 81       	ldd	r24, Y+1	; 0x01
    211e:	9a 81       	ldd	r25, Y+2	; 0x02
    2120:	b9 01       	movw	r22, r18
    2122:	d3 df       	rcall	.-90     	; 0x20ca <_ZN7LCDBase9ClearLineEs>
    setCursor(0, lineNum);
    2124:	2b 81       	ldd	r18, Y+3	; 0x03
    2126:	89 81       	ldd	r24, Y+1	; 0x01
    2128:	9a 81       	ldd	r25, Y+2	; 0x02
    212a:	42 2f       	mov	r20, r18
    212c:	60 e0       	ldi	r22, 0x00	; 0
    212e:	8c d9       	rcall	.-3304   	; 0x1448 <_ZN13LiquidCrystal9setCursorEhh>
    print(text);
    2130:	89 81       	ldd	r24, Y+1	; 0x01
    2132:	9a 81       	ldd	r25, Y+2	; 0x02
    2134:	2d 81       	ldd	r18, Y+5	; 0x05
    2136:	3e 81       	ldd	r19, Y+6	; 0x06
    2138:	b9 01       	movw	r22, r18
    213a:	0e 94 00 2e 	call	0x5c00	; 0x5c00 <_ZN5Print5printERK6String>
}
    213e:	26 96       	adiw	r28, 0x06	; 6
    2140:	e2 e0       	ldi	r30, 0x02	; 2
    2142:	0c 94 1a 35 	jmp	0x6a34	; 0x6a34 <__epilogue_restores__+0x20>

00002146 <_ZN7LCDBase14DetectKeyPressEv>:
//void LCDBase::Print(short lineNum, T&& text) {
//_lcd.setCursor(0, lineNum);
//_lcd.print(text);
//}

LcdKeyPress LCDBase::DetectKeyPress() {
    2146:	a4 e0       	ldi	r26, 0x04	; 4
    2148:	b0 e0       	ldi	r27, 0x00	; 0
    214a:	e9 ea       	ldi	r30, 0xA9	; 169
    214c:	f0 e1       	ldi	r31, 0x10	; 16
    214e:	0c 94 fe 34 	jmp	0x69fc	; 0x69fc <__prologue_saves__+0x20>
    2152:	9c 83       	std	Y+4, r25	; 0x04
    2154:	8b 83       	std	Y+3, r24	; 0x03
    int key = getKey();
    2156:	8b 81       	ldd	r24, Y+3	; 0x03
    2158:	9c 81       	ldd	r25, Y+4	; 0x04
    215a:	69 d0       	rcall	.+210    	; 0x222e <_ZN7LCDBase6getKeyEv>
    215c:	9a 83       	std	Y+2, r25	; 0x02
    215e:	89 83       	std	Y+1, r24	; 0x01
    if(key == 0 || key == 1 || key == 2 || key == 3 || key == 4) {
        //_optionChanged = true;
    }


    switch(key) {
    2160:	89 81       	ldd	r24, Y+1	; 0x01
    2162:	9a 81       	ldd	r25, Y+2	; 0x02
    2164:	82 30       	cpi	r24, 0x02	; 2
    2166:	91 05       	cpc	r25, r1
    2168:	91 f0       	breq	.+36     	; 0x218e <_ZN7LCDBase14DetectKeyPressEv+0x48>
    216a:	83 30       	cpi	r24, 0x03	; 3
    216c:	91 05       	cpc	r25, r1
    216e:	2c f4       	brge	.+10     	; 0x217a <_ZN7LCDBase14DetectKeyPressEv+0x34>
    2170:	00 97       	sbiw	r24, 0x00	; 0
    2172:	49 f0       	breq	.+18     	; 0x2186 <_ZN7LCDBase14DetectKeyPressEv+0x40>
    2174:	01 97       	sbiw	r24, 0x01	; 1
    2176:	49 f0       	breq	.+18     	; 0x218a <_ZN7LCDBase14DetectKeyPressEv+0x44>
    2178:	10 c0       	rjmp	.+32     	; 0x219a <_ZN7LCDBase14DetectKeyPressEv+0x54>
    217a:	83 30       	cpi	r24, 0x03	; 3
    217c:	91 05       	cpc	r25, r1
    217e:	49 f0       	breq	.+18     	; 0x2192 <_ZN7LCDBase14DetectKeyPressEv+0x4c>
    2180:	04 97       	sbiw	r24, 0x04	; 4
    2182:	49 f0       	breq	.+18     	; 0x2196 <_ZN7LCDBase14DetectKeyPressEv+0x50>
    2184:	0a c0       	rjmp	.+20     	; 0x219a <_ZN7LCDBase14DetectKeyPressEv+0x54>
        case 0: //right
            return LcdKeyPress::Right;
    2186:	80 e0       	ldi	r24, 0x00	; 0
    2188:	09 c0       	rjmp	.+18     	; 0x219c <_ZN7LCDBase14DetectKeyPressEv+0x56>
        case 1: //up
            return LcdKeyPress::Up;
    218a:	81 e0       	ldi	r24, 0x01	; 1
    218c:	07 c0       	rjmp	.+14     	; 0x219c <_ZN7LCDBase14DetectKeyPressEv+0x56>
        case 2: //down
            return LcdKeyPress::Down;
    218e:	82 e0       	ldi	r24, 0x02	; 2
    2190:	05 c0       	rjmp	.+10     	; 0x219c <_ZN7LCDBase14DetectKeyPressEv+0x56>
        case 3: //left
            return LcdKeyPress::Left;
    2192:	83 e0       	ldi	r24, 0x03	; 3
    2194:	03 c0       	rjmp	.+6      	; 0x219c <_ZN7LCDBase14DetectKeyPressEv+0x56>
        case 4: //select
            return LcdKeyPress::Select;
    2196:	84 e0       	ldi	r24, 0x04	; 4
    2198:	01 c0       	rjmp	.+2      	; 0x219c <_ZN7LCDBase14DetectKeyPressEv+0x56>
        default:
            return LcdKeyPress::None;
    219a:	85 e0       	ldi	r24, 0x05	; 5

    }
}
    219c:	24 96       	adiw	r28, 0x04	; 4
    219e:	e2 e0       	ldi	r30, 0x02	; 2
    21a0:	0c 94 1a 35 	jmp	0x6a34	; 0x6a34 <__epilogue_restores__+0x20>

000021a4 <_ZN7LCDBase13getKeyFromValEj>:

//--key press
int LCDBase::getKeyFromVal(unsigned int input) {
    21a4:	a6 e0       	ldi	r26, 0x06	; 6
    21a6:	b0 e0       	ldi	r27, 0x00	; 0
    21a8:	e8 ed       	ldi	r30, 0xD8	; 216
    21aa:	f0 e1       	ldi	r31, 0x10	; 16
    21ac:	0c 94 fe 34 	jmp	0x69fc	; 0x69fc <__prologue_saves__+0x20>
    21b0:	9c 83       	std	Y+4, r25	; 0x04
    21b2:	8b 83       	std	Y+3, r24	; 0x03
    21b4:	7e 83       	std	Y+6, r23	; 0x06
    21b6:	6d 83       	std	Y+5, r22	; 0x05
    int k;
    for(k = 0; k < _numOfKeys; k++) {
    21b8:	1a 82       	std	Y+2, r1	; 0x02
    21ba:	19 82       	std	Y+1, r1	; 0x01
    21bc:	1a c0       	rjmp	.+52     	; 0x21f2 <_ZN7LCDBase13getKeyFromValEj+0x4e>
        if(input < _keyValues[k]) {
    21be:	2b 81       	ldd	r18, Y+3	; 0x03
    21c0:	3c 81       	ldd	r19, Y+4	; 0x04
    21c2:	89 81       	ldd	r24, Y+1	; 0x01
    21c4:	9a 81       	ldd	r25, Y+2	; 0x02
    21c6:	0c 96       	adiw	r24, 0x0c	; 12
    21c8:	88 0f       	add	r24, r24
    21ca:	99 1f       	adc	r25, r25
    21cc:	82 0f       	add	r24, r18
    21ce:	93 1f       	adc	r25, r19
    21d0:	fc 01       	movw	r30, r24
    21d2:	80 81       	ld	r24, Z
    21d4:	91 81       	ldd	r25, Z+1	; 0x01
    21d6:	9c 01       	movw	r18, r24
    21d8:	8d 81       	ldd	r24, Y+5	; 0x05
    21da:	9e 81       	ldd	r25, Y+6	; 0x06
    21dc:	82 17       	cp	r24, r18
    21de:	93 07       	cpc	r25, r19
    21e0:	18 f4       	brcc	.+6      	; 0x21e8 <_ZN7LCDBase13getKeyFromValEj+0x44>
            return k;
    21e2:	89 81       	ldd	r24, Y+1	; 0x01
    21e4:	9a 81       	ldd	r25, Y+2	; 0x02
    21e6:	1f c0       	rjmp	.+62     	; 0x2226 <_ZN7LCDBase13getKeyFromValEj+0x82>
}

//--key press
int LCDBase::getKeyFromVal(unsigned int input) {
    int k;
    for(k = 0; k < _numOfKeys; k++) {
    21e8:	89 81       	ldd	r24, Y+1	; 0x01
    21ea:	9a 81       	ldd	r25, Y+2	; 0x02
    21ec:	01 96       	adiw	r24, 0x01	; 1
    21ee:	9a 83       	std	Y+2, r25	; 0x02
    21f0:	89 83       	std	Y+1, r24	; 0x01
    21f2:	8b 81       	ldd	r24, Y+3	; 0x03
    21f4:	9c 81       	ldd	r25, Y+4	; 0x04
    21f6:	fc 01       	movw	r30, r24
    21f8:	22 a1       	ldd	r18, Z+34	; 0x22
    21fa:	33 a1       	ldd	r19, Z+35	; 0x23
    21fc:	89 81       	ldd	r24, Y+1	; 0x01
    21fe:	9a 81       	ldd	r25, Y+2	; 0x02
    2200:	82 17       	cp	r24, r18
    2202:	93 07       	cpc	r25, r19
    2204:	e4 f2       	brlt	.-72     	; 0x21be <_ZN7LCDBase13getKeyFromValEj+0x1a>
        if(input < _keyValues[k]) {
            return k;
        }
    }
    if(k >= _numOfKeys) {
    2206:	8b 81       	ldd	r24, Y+3	; 0x03
    2208:	9c 81       	ldd	r25, Y+4	; 0x04
    220a:	fc 01       	movw	r30, r24
    220c:	22 a1       	ldd	r18, Z+34	; 0x22
    220e:	33 a1       	ldd	r19, Z+35	; 0x23
    2210:	89 81       	ldd	r24, Y+1	; 0x01
    2212:	9a 81       	ldd	r25, Y+2	; 0x02
    2214:	82 17       	cp	r24, r18
    2216:	93 07       	cpc	r25, r19
    2218:	24 f0       	brlt	.+8      	; 0x2222 <_ZN7LCDBase13getKeyFromValEj+0x7e>
        k = -1;
    221a:	8f ef       	ldi	r24, 0xFF	; 255
    221c:	9f ef       	ldi	r25, 0xFF	; 255
    221e:	9a 83       	std	Y+2, r25	; 0x02
    2220:	89 83       	std	Y+1, r24	; 0x01
    }
    return k;
    2222:	89 81       	ldd	r24, Y+1	; 0x01
    2224:	9a 81       	ldd	r25, Y+2	; 0x02
}
    2226:	26 96       	adiw	r28, 0x06	; 6
    2228:	e2 e0       	ldi	r30, 0x02	; 2
    222a:	0c 94 1a 35 	jmp	0x6a34	; 0x6a34 <__epilogue_restores__+0x20>

0000222e <_ZN7LCDBase6getKeyEv>:

int LCDBase::getKey() {
    222e:	a6 e0       	ldi	r26, 0x06	; 6
    2230:	b0 e0       	ldi	r27, 0x00	; 0
    2232:	ed e1       	ldi	r30, 0x1D	; 29
    2234:	f1 e1       	ldi	r31, 0x11	; 17
    2236:	0c 94 fe 34 	jmp	0x69fc	; 0x69fc <__prologue_saves__+0x20>
    223a:	9e 83       	std	Y+6, r25	; 0x06
    223c:	8d 83       	std	Y+5, r24	; 0x05
    int keyVal = analogRead(0);
    223e:	80 e0       	ldi	r24, 0x00	; 0
    2240:	0e 94 e2 30 	call	0x61c4	; 0x61c4 <analogRead>
    2244:	9a 83       	std	Y+2, r25	; 0x02
    2246:	89 83       	std	Y+1, r24	; 0x01
    //SerialExt::Debug(F("keyVal"), keyVal);
    int key = getKeyFromVal(keyVal);
    2248:	29 81       	ldd	r18, Y+1	; 0x01
    224a:	3a 81       	ldd	r19, Y+2	; 0x02
    224c:	8d 81       	ldd	r24, Y+5	; 0x05
    224e:	9e 81       	ldd	r25, Y+6	; 0x06
    2250:	b9 01       	movw	r22, r18
    2252:	a8 df       	rcall	.-176    	; 0x21a4 <_ZN7LCDBase13getKeyFromValEj>
    2254:	9c 83       	std	Y+4, r25	; 0x04
    2256:	8b 83       	std	Y+3, r24	; 0x03
    //SerialExt::Debug(F("key"), key);
    //_lastKey = key;
    return key;
    2258:	8b 81       	ldd	r24, Y+3	; 0x03
    225a:	9c 81       	ldd	r25, Y+4	; 0x04
}
    225c:	26 96       	adiw	r28, 0x06	; 6
    225e:	e2 e0       	ldi	r30, 0x02	; 2
    2260:	0c 94 1a 35 	jmp	0x6a34	; 0x6a34 <__epilogue_restores__+0x20>

00002264 <_ZnwjPv>:
		typename Operation::second_argument_type value;
	public:
		binder2nd(const Operation& x, const typename Operation::second_argument_type& y) : op(x), value(y) {  }
		typename Operation::result_type operator()(const typename Operation::first_argument_type& x) const{
			return op(x,value);
		}
    2264:	a4 e0       	ldi	r26, 0x04	; 4
    2266:	b0 e0       	ldi	r27, 0x00	; 0
    2268:	e8 e3       	ldi	r30, 0x38	; 56
    226a:	f1 e1       	ldi	r31, 0x11	; 17
    226c:	0c 94 fe 34 	jmp	0x69fc	; 0x69fc <__prologue_saves__+0x20>
    2270:	9a 83       	std	Y+2, r25	; 0x02
    2272:	89 83       	std	Y+1, r24	; 0x01
    2274:	7c 83       	std	Y+4, r23	; 0x04
    2276:	6b 83       	std	Y+3, r22	; 0x03
    2278:	8b 81       	ldd	r24, Y+3	; 0x03
    227a:	9c 81       	ldd	r25, Y+4	; 0x04
    227c:	24 96       	adiw	r28, 0x04	; 4
    227e:	e2 e0       	ldi	r30, 0x02	; 2
    2280:	0c 94 1a 35 	jmp	0x6a34	; 0x6a34 <__epilogue_restores__+0x20>

00002284 <_ZN7MathExt10GetAverageESt6vectorIdSaIdEE>:
    2284:	aa e0       	ldi	r26, 0x0A	; 10
    2286:	b0 e0       	ldi	r27, 0x00	; 0
    2288:	e8 e4       	ldi	r30, 0x48	; 72
    228a:	f1 e1       	ldi	r31, 0x11	; 17
    228c:	0c 94 fc 34 	jmp	0x69f8	; 0x69f8 <__prologue_saves__+0x1c>
    2290:	9a 87       	std	Y+10, r25	; 0x0a
    2292:	89 87       	std	Y+9, r24	; 0x09
    2294:	89 85       	ldd	r24, Y+9	; 0x09
    2296:	9a 85       	ldd	r25, Y+10	; 0x0a
    2298:	a4 d1       	rcall	.+840    	; 0x25e2 <_ZNSt6vectorIdSaIdEE3endEv>
    229a:	8c 01       	movw	r16, r24
    229c:	89 85       	ldd	r24, Y+9	; 0x09
    229e:	9a 85       	ldd	r25, Y+10	; 0x0a
    22a0:	8f d1       	rcall	.+798    	; 0x25c0 <_ZNSt6vectorIdSaIdEE5beginEv>
    22a2:	20 e0       	ldi	r18, 0x00	; 0
    22a4:	30 e0       	ldi	r19, 0x00	; 0
    22a6:	a9 01       	movw	r20, r18
    22a8:	b8 01       	movw	r22, r16
    22aa:	b7 d1       	rcall	.+878    	; 0x261a <_ZSt10accumulateIPddET0_T_S2_S1_>
    22ac:	dc 01       	movw	r26, r24
    22ae:	cb 01       	movw	r24, r22
    22b0:	89 83       	std	Y+1, r24	; 0x01
    22b2:	9a 83       	std	Y+2, r25	; 0x02
    22b4:	ab 83       	std	Y+3, r26	; 0x03
    22b6:	bc 83       	std	Y+4, r27	; 0x04
    22b8:	89 85       	ldd	r24, Y+9	; 0x09
    22ba:	9a 85       	ldd	r25, Y+10	; 0x0a
    22bc:	e8 d1       	rcall	.+976    	; 0x268e <_ZNKSt6vectorIdSaIdEE4sizeEv>
    22be:	cc 01       	movw	r24, r24
    22c0:	a0 e0       	ldi	r26, 0x00	; 0
    22c2:	b0 e0       	ldi	r27, 0x00	; 0
    22c4:	bc 01       	movw	r22, r24
    22c6:	cd 01       	movw	r24, r26
    22c8:	0e 94 bc 2a 	call	0x5578	; 0x5578 <__floatunsisf>
    22cc:	dc 01       	movw	r26, r24
    22ce:	cb 01       	movw	r24, r22
    22d0:	9c 01       	movw	r18, r24
    22d2:	ad 01       	movw	r20, r26
    22d4:	69 81       	ldd	r22, Y+1	; 0x01
    22d6:	7a 81       	ldd	r23, Y+2	; 0x02
    22d8:	8b 81       	ldd	r24, Y+3	; 0x03
    22da:	9c 81       	ldd	r25, Y+4	; 0x04
    22dc:	0e 94 23 2a 	call	0x5446	; 0x5446 <__divsf3>
    22e0:	dc 01       	movw	r26, r24
    22e2:	cb 01       	movw	r24, r22
    22e4:	8d 83       	std	Y+5, r24	; 0x05
    22e6:	9e 83       	std	Y+6, r25	; 0x06
    22e8:	af 83       	std	Y+7, r26	; 0x07
    22ea:	b8 87       	std	Y+8, r27	; 0x08
    22ec:	8d 81       	ldd	r24, Y+5	; 0x05
    22ee:	9e 81       	ldd	r25, Y+6	; 0x06
    22f0:	af 81       	ldd	r26, Y+7	; 0x07
    22f2:	b8 85       	ldd	r27, Y+8	; 0x08
    22f4:	bc 01       	movw	r22, r24
    22f6:	cd 01       	movw	r24, r26
    22f8:	2a 96       	adiw	r28, 0x0a	; 10
    22fa:	e4 e0       	ldi	r30, 0x04	; 4
    22fc:	0c 94 18 35 	jmp	0x6a30	; 0x6a30 <__epilogue_restores__+0x1c>

00002300 <_ZN7MathExt16CalculateAverageEPii>:
    2300:	cf 92       	push	r12
    2302:	df 92       	push	r13
    2304:	ef 92       	push	r14
    2306:	ff 92       	push	r15
    2308:	cf 93       	push	r28
    230a:	df 93       	push	r29
    230c:	cd b7       	in	r28, 0x3d	; 61
    230e:	de b7       	in	r29, 0x3e	; 62
    2310:	66 97       	sbiw	r28, 0x16	; 22
    2312:	0f b6       	in	r0, 0x3f	; 63
    2314:	f8 94       	cli
    2316:	de bf       	out	0x3e, r29	; 62
    2318:	0f be       	out	0x3f, r0	; 63
    231a:	cd bf       	out	0x3d, r28	; 61
    231c:	98 8b       	std	Y+16, r25	; 0x10
    231e:	8f 87       	std	Y+15, r24	; 0x0f
    2320:	7a 8b       	std	Y+18, r23	; 0x12
    2322:	69 8b       	std	Y+17, r22	; 0x11
    2324:	1f 82       	std	Y+7, r1	; 0x07
    2326:	18 86       	std	Y+8, r1	; 0x08
    2328:	19 86       	std	Y+9, r1	; 0x09
    232a:	1a 86       	std	Y+10, r1	; 0x0a
    232c:	89 89       	ldd	r24, Y+17	; 0x11
    232e:	9a 89       	ldd	r25, Y+18	; 0x12
    2330:	18 16       	cp	r1, r24
    2332:	19 06       	cpc	r1, r25
    2334:	5c f0       	brlt	.+22     	; 0x234c <_ZN7MathExt16CalculateAverageEPii+0x4c>
    2336:	80 ea       	ldi	r24, 0xA0	; 160
    2338:	93 e0       	ldi	r25, 0x03	; 3
    233a:	bc 01       	movw	r22, r24
    233c:	86 e8       	ldi	r24, 0x86	; 134
    233e:	95 e0       	ldi	r25, 0x05	; 5
    2340:	0e 94 18 2e 	call	0x5c30	; 0x5c30 <_ZN5Print7printlnEPK19__FlashStringHelper>
    2344:	80 e0       	ldi	r24, 0x00	; 0
    2346:	90 e0       	ldi	r25, 0x00	; 0
    2348:	dc 01       	movw	r26, r24
    234a:	2b c1       	rjmp	.+598    	; 0x25a2 <_ZN7MathExt16CalculateAverageEPii+0x2a2>
    234c:	89 89       	ldd	r24, Y+17	; 0x11
    234e:	9a 89       	ldd	r25, Y+18	; 0x12
    2350:	05 97       	sbiw	r24, 0x05	; 5
    2352:	0c f0       	brlt	.+2      	; 0x2356 <_ZN7MathExt16CalculateAverageEPii+0x56>
    2354:	49 c0       	rjmp	.+146    	; 0x23e8 <_ZN7MathExt16CalculateAverageEPii+0xe8>
    2356:	1a 82       	std	Y+2, r1	; 0x02
    2358:	19 82       	std	Y+1, r1	; 0x01
    235a:	20 c0       	rjmp	.+64     	; 0x239c <_ZN7MathExt16CalculateAverageEPii+0x9c>
    235c:	89 81       	ldd	r24, Y+1	; 0x01
    235e:	9a 81       	ldd	r25, Y+2	; 0x02
    2360:	88 0f       	add	r24, r24
    2362:	99 1f       	adc	r25, r25
    2364:	2f 85       	ldd	r18, Y+15	; 0x0f
    2366:	38 89       	ldd	r19, Y+16	; 0x10
    2368:	82 0f       	add	r24, r18
    236a:	93 1f       	adc	r25, r19
    236c:	fc 01       	movw	r30, r24
    236e:	80 81       	ld	r24, Z
    2370:	91 81       	ldd	r25, Z+1	; 0x01
    2372:	09 2e       	mov	r0, r25
    2374:	00 0c       	add	r0, r0
    2376:	aa 0b       	sbc	r26, r26
    2378:	bb 0b       	sbc	r27, r27
    237a:	2f 81       	ldd	r18, Y+7	; 0x07
    237c:	38 85       	ldd	r19, Y+8	; 0x08
    237e:	49 85       	ldd	r20, Y+9	; 0x09
    2380:	5a 85       	ldd	r21, Y+10	; 0x0a
    2382:	82 0f       	add	r24, r18
    2384:	93 1f       	adc	r25, r19
    2386:	a4 1f       	adc	r26, r20
    2388:	b5 1f       	adc	r27, r21
    238a:	8f 83       	std	Y+7, r24	; 0x07
    238c:	98 87       	std	Y+8, r25	; 0x08
    238e:	a9 87       	std	Y+9, r26	; 0x09
    2390:	ba 87       	std	Y+10, r27	; 0x0a
    2392:	89 81       	ldd	r24, Y+1	; 0x01
    2394:	9a 81       	ldd	r25, Y+2	; 0x02
    2396:	01 96       	adiw	r24, 0x01	; 1
    2398:	9a 83       	std	Y+2, r25	; 0x02
    239a:	89 83       	std	Y+1, r24	; 0x01
    239c:	29 81       	ldd	r18, Y+1	; 0x01
    239e:	3a 81       	ldd	r19, Y+2	; 0x02
    23a0:	89 89       	ldd	r24, Y+17	; 0x11
    23a2:	9a 89       	ldd	r25, Y+18	; 0x12
    23a4:	28 17       	cp	r18, r24
    23a6:	39 07       	cpc	r19, r25
    23a8:	cc f2       	brlt	.-78     	; 0x235c <_ZN7MathExt16CalculateAverageEPii+0x5c>
    23aa:	89 89       	ldd	r24, Y+17	; 0x11
    23ac:	9a 89       	ldd	r25, Y+18	; 0x12
    23ae:	9c 01       	movw	r18, r24
    23b0:	99 0f       	add	r25, r25
    23b2:	44 0b       	sbc	r20, r20
    23b4:	55 0b       	sbc	r21, r21
    23b6:	8f 81       	ldd	r24, Y+7	; 0x07
    23b8:	98 85       	ldd	r25, Y+8	; 0x08
    23ba:	a9 85       	ldd	r26, Y+9	; 0x09
    23bc:	ba 85       	ldd	r27, Y+10	; 0x0a
    23be:	bc 01       	movw	r22, r24
    23c0:	cd 01       	movw	r24, r26
    23c2:	0e 94 c2 34 	call	0x6984	; 0x6984 <__divmodsi4>
    23c6:	da 01       	movw	r26, r20
    23c8:	c9 01       	movw	r24, r18
    23ca:	bc 01       	movw	r22, r24
    23cc:	cd 01       	movw	r24, r26
    23ce:	0e 94 be 2a 	call	0x557c	; 0x557c <__floatsisf>
    23d2:	dc 01       	movw	r26, r24
    23d4:	cb 01       	movw	r24, r22
    23d6:	8b 87       	std	Y+11, r24	; 0x0b
    23d8:	9c 87       	std	Y+12, r25	; 0x0c
    23da:	ad 87       	std	Y+13, r26	; 0x0d
    23dc:	be 87       	std	Y+14, r27	; 0x0e
    23de:	8b 85       	ldd	r24, Y+11	; 0x0b
    23e0:	9c 85       	ldd	r25, Y+12	; 0x0c
    23e2:	ad 85       	ldd	r26, Y+13	; 0x0d
    23e4:	be 85       	ldd	r27, Y+14	; 0x0e
    23e6:	dd c0       	rjmp	.+442    	; 0x25a2 <_ZN7MathExt16CalculateAverageEPii+0x2a2>
    23e8:	8f 85       	ldd	r24, Y+15	; 0x0f
    23ea:	98 89       	ldd	r25, Y+16	; 0x10
    23ec:	fc 01       	movw	r30, r24
    23ee:	20 81       	ld	r18, Z
    23f0:	31 81       	ldd	r19, Z+1	; 0x01
    23f2:	8f 85       	ldd	r24, Y+15	; 0x0f
    23f4:	98 89       	ldd	r25, Y+16	; 0x10
    23f6:	02 96       	adiw	r24, 0x02	; 2
    23f8:	fc 01       	movw	r30, r24
    23fa:	80 81       	ld	r24, Z
    23fc:	91 81       	ldd	r25, Z+1	; 0x01
    23fe:	28 17       	cp	r18, r24
    2400:	39 07       	cpc	r19, r25
    2402:	7c f4       	brge	.+30     	; 0x2422 <_ZN7MathExt16CalculateAverageEPii+0x122>
    2404:	8f 85       	ldd	r24, Y+15	; 0x0f
    2406:	98 89       	ldd	r25, Y+16	; 0x10
    2408:	fc 01       	movw	r30, r24
    240a:	80 81       	ld	r24, Z
    240c:	91 81       	ldd	r25, Z+1	; 0x01
    240e:	9e 83       	std	Y+6, r25	; 0x06
    2410:	8d 83       	std	Y+5, r24	; 0x05
    2412:	8f 85       	ldd	r24, Y+15	; 0x0f
    2414:	98 89       	ldd	r25, Y+16	; 0x10
    2416:	fc 01       	movw	r30, r24
    2418:	82 81       	ldd	r24, Z+2	; 0x02
    241a:	93 81       	ldd	r25, Z+3	; 0x03
    241c:	9c 83       	std	Y+4, r25	; 0x04
    241e:	8b 83       	std	Y+3, r24	; 0x03
    2420:	0e c0       	rjmp	.+28     	; 0x243e <_ZN7MathExt16CalculateAverageEPii+0x13e>
    2422:	8f 85       	ldd	r24, Y+15	; 0x0f
    2424:	98 89       	ldd	r25, Y+16	; 0x10
    2426:	fc 01       	movw	r30, r24
    2428:	82 81       	ldd	r24, Z+2	; 0x02
    242a:	93 81       	ldd	r25, Z+3	; 0x03
    242c:	9e 83       	std	Y+6, r25	; 0x06
    242e:	8d 83       	std	Y+5, r24	; 0x05
    2430:	8f 85       	ldd	r24, Y+15	; 0x0f
    2432:	98 89       	ldd	r25, Y+16	; 0x10
    2434:	fc 01       	movw	r30, r24
    2436:	80 81       	ld	r24, Z
    2438:	91 81       	ldd	r25, Z+1	; 0x01
    243a:	9c 83       	std	Y+4, r25	; 0x04
    243c:	8b 83       	std	Y+3, r24	; 0x03
    243e:	82 e0       	ldi	r24, 0x02	; 2
    2440:	90 e0       	ldi	r25, 0x00	; 0
    2442:	9a 83       	std	Y+2, r25	; 0x02
    2444:	89 83       	std	Y+1, r24	; 0x01
    2446:	80 c0       	rjmp	.+256    	; 0x2548 <_ZN7MathExt16CalculateAverageEPii+0x248>
    2448:	89 81       	ldd	r24, Y+1	; 0x01
    244a:	9a 81       	ldd	r25, Y+2	; 0x02
    244c:	88 0f       	add	r24, r24
    244e:	99 1f       	adc	r25, r25
    2450:	2f 85       	ldd	r18, Y+15	; 0x0f
    2452:	38 89       	ldd	r19, Y+16	; 0x10
    2454:	82 0f       	add	r24, r18
    2456:	93 1f       	adc	r25, r19
    2458:	fc 01       	movw	r30, r24
    245a:	20 81       	ld	r18, Z
    245c:	31 81       	ldd	r19, Z+1	; 0x01
    245e:	8d 81       	ldd	r24, Y+5	; 0x05
    2460:	9e 81       	ldd	r25, Y+6	; 0x06
    2462:	28 17       	cp	r18, r24
    2464:	39 07       	cpc	r19, r25
    2466:	04 f5       	brge	.+64     	; 0x24a8 <_ZN7MathExt16CalculateAverageEPii+0x1a8>
    2468:	8d 81       	ldd	r24, Y+5	; 0x05
    246a:	9e 81       	ldd	r25, Y+6	; 0x06
    246c:	09 2e       	mov	r0, r25
    246e:	00 0c       	add	r0, r0
    2470:	aa 0b       	sbc	r26, r26
    2472:	bb 0b       	sbc	r27, r27
    2474:	2f 81       	ldd	r18, Y+7	; 0x07
    2476:	38 85       	ldd	r19, Y+8	; 0x08
    2478:	49 85       	ldd	r20, Y+9	; 0x09
    247a:	5a 85       	ldd	r21, Y+10	; 0x0a
    247c:	82 0f       	add	r24, r18
    247e:	93 1f       	adc	r25, r19
    2480:	a4 1f       	adc	r26, r20
    2482:	b5 1f       	adc	r27, r21
    2484:	8f 83       	std	Y+7, r24	; 0x07
    2486:	98 87       	std	Y+8, r25	; 0x08
    2488:	a9 87       	std	Y+9, r26	; 0x09
    248a:	ba 87       	std	Y+10, r27	; 0x0a
    248c:	89 81       	ldd	r24, Y+1	; 0x01
    248e:	9a 81       	ldd	r25, Y+2	; 0x02
    2490:	88 0f       	add	r24, r24
    2492:	99 1f       	adc	r25, r25
    2494:	2f 85       	ldd	r18, Y+15	; 0x0f
    2496:	38 89       	ldd	r19, Y+16	; 0x10
    2498:	82 0f       	add	r24, r18
    249a:	93 1f       	adc	r25, r19
    249c:	fc 01       	movw	r30, r24
    249e:	80 81       	ld	r24, Z
    24a0:	91 81       	ldd	r25, Z+1	; 0x01
    24a2:	9e 83       	std	Y+6, r25	; 0x06
    24a4:	8d 83       	std	Y+5, r24	; 0x05
    24a6:	4b c0       	rjmp	.+150    	; 0x253e <_ZN7MathExt16CalculateAverageEPii+0x23e>
    24a8:	89 81       	ldd	r24, Y+1	; 0x01
    24aa:	9a 81       	ldd	r25, Y+2	; 0x02
    24ac:	88 0f       	add	r24, r24
    24ae:	99 1f       	adc	r25, r25
    24b0:	2f 85       	ldd	r18, Y+15	; 0x0f
    24b2:	38 89       	ldd	r19, Y+16	; 0x10
    24b4:	82 0f       	add	r24, r18
    24b6:	93 1f       	adc	r25, r19
    24b8:	fc 01       	movw	r30, r24
    24ba:	20 81       	ld	r18, Z
    24bc:	31 81       	ldd	r19, Z+1	; 0x01
    24be:	8b 81       	ldd	r24, Y+3	; 0x03
    24c0:	9c 81       	ldd	r25, Y+4	; 0x04
    24c2:	82 17       	cp	r24, r18
    24c4:	93 07       	cpc	r25, r19
    24c6:	04 f5       	brge	.+64     	; 0x2508 <_ZN7MathExt16CalculateAverageEPii+0x208>
    24c8:	8b 81       	ldd	r24, Y+3	; 0x03
    24ca:	9c 81       	ldd	r25, Y+4	; 0x04
    24cc:	09 2e       	mov	r0, r25
    24ce:	00 0c       	add	r0, r0
    24d0:	aa 0b       	sbc	r26, r26
    24d2:	bb 0b       	sbc	r27, r27
    24d4:	2f 81       	ldd	r18, Y+7	; 0x07
    24d6:	38 85       	ldd	r19, Y+8	; 0x08
    24d8:	49 85       	ldd	r20, Y+9	; 0x09
    24da:	5a 85       	ldd	r21, Y+10	; 0x0a
    24dc:	82 0f       	add	r24, r18
    24de:	93 1f       	adc	r25, r19
    24e0:	a4 1f       	adc	r26, r20
    24e2:	b5 1f       	adc	r27, r21
    24e4:	8f 83       	std	Y+7, r24	; 0x07
    24e6:	98 87       	std	Y+8, r25	; 0x08
    24e8:	a9 87       	std	Y+9, r26	; 0x09
    24ea:	ba 87       	std	Y+10, r27	; 0x0a
    24ec:	89 81       	ldd	r24, Y+1	; 0x01
    24ee:	9a 81       	ldd	r25, Y+2	; 0x02
    24f0:	88 0f       	add	r24, r24
    24f2:	99 1f       	adc	r25, r25
    24f4:	2f 85       	ldd	r18, Y+15	; 0x0f
    24f6:	38 89       	ldd	r19, Y+16	; 0x10
    24f8:	82 0f       	add	r24, r18
    24fa:	93 1f       	adc	r25, r19
    24fc:	fc 01       	movw	r30, r24
    24fe:	80 81       	ld	r24, Z
    2500:	91 81       	ldd	r25, Z+1	; 0x01
    2502:	9c 83       	std	Y+4, r25	; 0x04
    2504:	8b 83       	std	Y+3, r24	; 0x03
    2506:	1b c0       	rjmp	.+54     	; 0x253e <_ZN7MathExt16CalculateAverageEPii+0x23e>
    2508:	89 81       	ldd	r24, Y+1	; 0x01
    250a:	9a 81       	ldd	r25, Y+2	; 0x02
    250c:	88 0f       	add	r24, r24
    250e:	99 1f       	adc	r25, r25
    2510:	2f 85       	ldd	r18, Y+15	; 0x0f
    2512:	38 89       	ldd	r19, Y+16	; 0x10
    2514:	82 0f       	add	r24, r18
    2516:	93 1f       	adc	r25, r19
    2518:	fc 01       	movw	r30, r24
    251a:	80 81       	ld	r24, Z
    251c:	91 81       	ldd	r25, Z+1	; 0x01
    251e:	09 2e       	mov	r0, r25
    2520:	00 0c       	add	r0, r0
    2522:	aa 0b       	sbc	r26, r26
    2524:	bb 0b       	sbc	r27, r27
    2526:	2f 81       	ldd	r18, Y+7	; 0x07
    2528:	38 85       	ldd	r19, Y+8	; 0x08
    252a:	49 85       	ldd	r20, Y+9	; 0x09
    252c:	5a 85       	ldd	r21, Y+10	; 0x0a
    252e:	82 0f       	add	r24, r18
    2530:	93 1f       	adc	r25, r19
    2532:	a4 1f       	adc	r26, r20
    2534:	b5 1f       	adc	r27, r21
    2536:	8f 83       	std	Y+7, r24	; 0x07
    2538:	98 87       	std	Y+8, r25	; 0x08
    253a:	a9 87       	std	Y+9, r26	; 0x09
    253c:	ba 87       	std	Y+10, r27	; 0x0a
    253e:	89 81       	ldd	r24, Y+1	; 0x01
    2540:	9a 81       	ldd	r25, Y+2	; 0x02
    2542:	01 96       	adiw	r24, 0x01	; 1
    2544:	9a 83       	std	Y+2, r25	; 0x02
    2546:	89 83       	std	Y+1, r24	; 0x01
    2548:	29 81       	ldd	r18, Y+1	; 0x01
    254a:	3a 81       	ldd	r19, Y+2	; 0x02
    254c:	89 89       	ldd	r24, Y+17	; 0x11
    254e:	9a 89       	ldd	r25, Y+18	; 0x12
    2550:	28 17       	cp	r18, r24
    2552:	39 07       	cpc	r19, r25
    2554:	0c f4       	brge	.+2      	; 0x2558 <_ZN7MathExt16CalculateAverageEPii+0x258>
    2556:	78 cf       	rjmp	.-272    	; 0x2448 <_ZN7MathExt16CalculateAverageEPii+0x148>
    2558:	6f 81       	ldd	r22, Y+7	; 0x07
    255a:	78 85       	ldd	r23, Y+8	; 0x08
    255c:	89 85       	ldd	r24, Y+9	; 0x09
    255e:	9a 85       	ldd	r25, Y+10	; 0x0a
    2560:	0e 94 be 2a 	call	0x557c	; 0x557c <__floatsisf>
    2564:	6b 01       	movw	r12, r22
    2566:	7c 01       	movw	r14, r24
    2568:	89 89       	ldd	r24, Y+17	; 0x11
    256a:	9a 89       	ldd	r25, Y+18	; 0x12
    256c:	02 97       	sbiw	r24, 0x02	; 2
    256e:	09 2e       	mov	r0, r25
    2570:	00 0c       	add	r0, r0
    2572:	aa 0b       	sbc	r26, r26
    2574:	bb 0b       	sbc	r27, r27
    2576:	bc 01       	movw	r22, r24
    2578:	cd 01       	movw	r24, r26
    257a:	0e 94 be 2a 	call	0x557c	; 0x557c <__floatsisf>
    257e:	dc 01       	movw	r26, r24
    2580:	cb 01       	movw	r24, r22
    2582:	9c 01       	movw	r18, r24
    2584:	ad 01       	movw	r20, r26
    2586:	c7 01       	movw	r24, r14
    2588:	b6 01       	movw	r22, r12
    258a:	0e 94 23 2a 	call	0x5446	; 0x5446 <__divsf3>
    258e:	dc 01       	movw	r26, r24
    2590:	cb 01       	movw	r24, r22
    2592:	8b 87       	std	Y+11, r24	; 0x0b
    2594:	9c 87       	std	Y+12, r25	; 0x0c
    2596:	ad 87       	std	Y+13, r26	; 0x0d
    2598:	be 87       	std	Y+14, r27	; 0x0e
    259a:	8b 85       	ldd	r24, Y+11	; 0x0b
    259c:	9c 85       	ldd	r25, Y+12	; 0x0c
    259e:	ad 85       	ldd	r26, Y+13	; 0x0d
    25a0:	be 85       	ldd	r27, Y+14	; 0x0e
    25a2:	bc 01       	movw	r22, r24
    25a4:	cd 01       	movw	r24, r26
    25a6:	66 96       	adiw	r28, 0x16	; 22
    25a8:	0f b6       	in	r0, 0x3f	; 63
    25aa:	f8 94       	cli
    25ac:	de bf       	out	0x3e, r29	; 62
    25ae:	0f be       	out	0x3f, r0	; 63
    25b0:	cd bf       	out	0x3d, r28	; 61
    25b2:	df 91       	pop	r29
    25b4:	cf 91       	pop	r28
    25b6:	ff 90       	pop	r15
    25b8:	ef 90       	pop	r14
    25ba:	df 90       	pop	r13
    25bc:	cf 90       	pop	r12
    25be:	08 95       	ret

000025c0 <_ZNSt6vectorIdSaIdEE5beginEv>:
    25c0:	a2 e0       	ldi	r26, 0x02	; 2
    25c2:	b0 e0       	ldi	r27, 0x00	; 0
    25c4:	e6 ee       	ldi	r30, 0xE6	; 230
    25c6:	f2 e1       	ldi	r31, 0x12	; 18
    25c8:	0c 94 fe 34 	jmp	0x69fc	; 0x69fc <__prologue_saves__+0x20>
    25cc:	9a 83       	std	Y+2, r25	; 0x02
    25ce:	89 83       	std	Y+1, r24	; 0x01
    25d0:	89 81       	ldd	r24, Y+1	; 0x01
    25d2:	9a 81       	ldd	r25, Y+2	; 0x02
    25d4:	fc 01       	movw	r30, r24
    25d6:	80 81       	ld	r24, Z
    25d8:	91 81       	ldd	r25, Z+1	; 0x01
    25da:	22 96       	adiw	r28, 0x02	; 2
    25dc:	e2 e0       	ldi	r30, 0x02	; 2
    25de:	0c 94 1a 35 	jmp	0x6a34	; 0x6a34 <__epilogue_restores__+0x20>

000025e2 <_ZNSt6vectorIdSaIdEE3endEv>:
    25e2:	a2 e0       	ldi	r26, 0x02	; 2
    25e4:	b0 e0       	ldi	r27, 0x00	; 0
    25e6:	e7 ef       	ldi	r30, 0xF7	; 247
    25e8:	f2 e1       	ldi	r31, 0x12	; 18
    25ea:	0c 94 fe 34 	jmp	0x69fc	; 0x69fc <__prologue_saves__+0x20>
    25ee:	9a 83       	std	Y+2, r25	; 0x02
    25f0:	89 83       	std	Y+1, r24	; 0x01
    25f2:	89 81       	ldd	r24, Y+1	; 0x01
    25f4:	9a 81       	ldd	r25, Y+2	; 0x02
    25f6:	fc 01       	movw	r30, r24
    25f8:	20 81       	ld	r18, Z
    25fa:	31 81       	ldd	r19, Z+1	; 0x01
    25fc:	89 81       	ldd	r24, Y+1	; 0x01
    25fe:	9a 81       	ldd	r25, Y+2	; 0x02
    2600:	fc 01       	movw	r30, r24
    2602:	84 81       	ldd	r24, Z+4	; 0x04
    2604:	95 81       	ldd	r25, Z+5	; 0x05
    2606:	88 0f       	add	r24, r24
    2608:	99 1f       	adc	r25, r25
    260a:	88 0f       	add	r24, r24
    260c:	99 1f       	adc	r25, r25
    260e:	82 0f       	add	r24, r18
    2610:	93 1f       	adc	r25, r19
    2612:	22 96       	adiw	r28, 0x02	; 2
    2614:	e2 e0       	ldi	r30, 0x02	; 2
    2616:	0c 94 1a 35 	jmp	0x6a34	; 0x6a34 <__epilogue_restores__+0x20>

0000261a <_ZSt10accumulateIPddET0_T_S2_S1_>:
    261a:	a8 e0       	ldi	r26, 0x08	; 8
    261c:	b0 e0       	ldi	r27, 0x00	; 0
    261e:	e3 e1       	ldi	r30, 0x13	; 19
    2620:	f3 e1       	ldi	r31, 0x13	; 19
    2622:	0c 94 fe 34 	jmp	0x69fc	; 0x69fc <__prologue_saves__+0x20>
    2626:	9a 83       	std	Y+2, r25	; 0x02
    2628:	89 83       	std	Y+1, r24	; 0x01
    262a:	7c 83       	std	Y+4, r23	; 0x04
    262c:	6b 83       	std	Y+3, r22	; 0x03
    262e:	2d 83       	std	Y+5, r18	; 0x05
    2630:	3e 83       	std	Y+6, r19	; 0x06
    2632:	4f 83       	std	Y+7, r20	; 0x07
    2634:	58 87       	std	Y+8, r21	; 0x08
    2636:	1a c0       	rjmp	.+52     	; 0x266c <_ZSt10accumulateIPddET0_T_S2_S1_+0x52>
    2638:	89 81       	ldd	r24, Y+1	; 0x01
    263a:	9a 81       	ldd	r25, Y+2	; 0x02
    263c:	fc 01       	movw	r30, r24
    263e:	80 81       	ld	r24, Z
    2640:	91 81       	ldd	r25, Z+1	; 0x01
    2642:	a2 81       	ldd	r26, Z+2	; 0x02
    2644:	b3 81       	ldd	r27, Z+3	; 0x03
    2646:	9c 01       	movw	r18, r24
    2648:	ad 01       	movw	r20, r26
    264a:	6d 81       	ldd	r22, Y+5	; 0x05
    264c:	7e 81       	ldd	r23, Y+6	; 0x06
    264e:	8f 81       	ldd	r24, Y+7	; 0x07
    2650:	98 85       	ldd	r25, Y+8	; 0x08
    2652:	0e 94 bb 29 	call	0x5376	; 0x5376 <__addsf3>
    2656:	dc 01       	movw	r26, r24
    2658:	cb 01       	movw	r24, r22
    265a:	8d 83       	std	Y+5, r24	; 0x05
    265c:	9e 83       	std	Y+6, r25	; 0x06
    265e:	af 83       	std	Y+7, r26	; 0x07
    2660:	b8 87       	std	Y+8, r27	; 0x08
    2662:	89 81       	ldd	r24, Y+1	; 0x01
    2664:	9a 81       	ldd	r25, Y+2	; 0x02
    2666:	04 96       	adiw	r24, 0x04	; 4
    2668:	9a 83       	std	Y+2, r25	; 0x02
    266a:	89 83       	std	Y+1, r24	; 0x01
    266c:	29 81       	ldd	r18, Y+1	; 0x01
    266e:	3a 81       	ldd	r19, Y+2	; 0x02
    2670:	8b 81       	ldd	r24, Y+3	; 0x03
    2672:	9c 81       	ldd	r25, Y+4	; 0x04
    2674:	28 17       	cp	r18, r24
    2676:	39 07       	cpc	r19, r25
    2678:	f9 f6       	brne	.-66     	; 0x2638 <_ZSt10accumulateIPddET0_T_S2_S1_+0x1e>
    267a:	8d 81       	ldd	r24, Y+5	; 0x05
    267c:	9e 81       	ldd	r25, Y+6	; 0x06
    267e:	af 81       	ldd	r26, Y+7	; 0x07
    2680:	b8 85       	ldd	r27, Y+8	; 0x08
    2682:	bc 01       	movw	r22, r24
    2684:	cd 01       	movw	r24, r26
    2686:	28 96       	adiw	r28, 0x08	; 8
    2688:	e2 e0       	ldi	r30, 0x02	; 2
    268a:	0c 94 1a 35 	jmp	0x6a34	; 0x6a34 <__epilogue_restores__+0x20>

0000268e <_ZNKSt6vectorIdSaIdEE4sizeEv>:
    268e:	a2 e0       	ldi	r26, 0x02	; 2
    2690:	b0 e0       	ldi	r27, 0x00	; 0
    2692:	ed e4       	ldi	r30, 0x4D	; 77
    2694:	f3 e1       	ldi	r31, 0x13	; 19
    2696:	0c 94 fe 34 	jmp	0x69fc	; 0x69fc <__prologue_saves__+0x20>
    269a:	9a 83       	std	Y+2, r25	; 0x02
    269c:	89 83       	std	Y+1, r24	; 0x01
    269e:	89 81       	ldd	r24, Y+1	; 0x01
    26a0:	9a 81       	ldd	r25, Y+2	; 0x02
    26a2:	fc 01       	movw	r30, r24
    26a4:	84 81       	ldd	r24, Z+4	; 0x04
    26a6:	95 81       	ldd	r25, Z+5	; 0x05
    26a8:	22 96       	adiw	r28, 0x02	; 2
    26aa:	e2 e0       	ldi	r30, 0x02	; 2
    26ac:	0c 94 1a 35 	jmp	0x6a34	; 0x6a34 <__epilogue_restores__+0x20>

000026b0 <_ZNSaIdEC1Ev>:
    26b0:	a2 e0       	ldi	r26, 0x02	; 2
    26b2:	b0 e0       	ldi	r27, 0x00	; 0
    26b4:	ee e5       	ldi	r30, 0x5E	; 94
    26b6:	f3 e1       	ldi	r31, 0x13	; 19
    26b8:	0c 94 fe 34 	jmp	0x69fc	; 0x69fc <__prologue_saves__+0x20>
    26bc:	9a 83       	std	Y+2, r25	; 0x02
    26be:	89 83       	std	Y+1, r24	; 0x01
    26c0:	22 96       	adiw	r28, 0x02	; 2
    26c2:	e2 e0       	ldi	r30, 0x02	; 2
    26c4:	0c 94 1a 35 	jmp	0x6a34	; 0x6a34 <__epilogue_restores__+0x20>

000026c8 <_ZNSaIdED1Ev>:
    26c8:	a2 e0       	ldi	r26, 0x02	; 2
    26ca:	b0 e0       	ldi	r27, 0x00	; 0
    26cc:	ea e6       	ldi	r30, 0x6A	; 106
    26ce:	f3 e1       	ldi	r31, 0x13	; 19
    26d0:	0c 94 fe 34 	jmp	0x69fc	; 0x69fc <__prologue_saves__+0x20>
    26d4:	9a 83       	std	Y+2, r25	; 0x02
    26d6:	89 83       	std	Y+1, r24	; 0x01
    26d8:	22 96       	adiw	r28, 0x02	; 2
    26da:	e2 e0       	ldi	r30, 0x02	; 2
    26dc:	0c 94 1a 35 	jmp	0x6a34	; 0x6a34 <__epilogue_restores__+0x20>

000026e0 <_ZNSt6vectorIdSaIdEED1Ev>:
    26e0:	a4 e0       	ldi	r26, 0x04	; 4
    26e2:	b0 e0       	ldi	r27, 0x00	; 0
    26e4:	e6 e7       	ldi	r30, 0x76	; 118
    26e6:	f3 e1       	ldi	r31, 0x13	; 19
    26e8:	0c 94 fe 34 	jmp	0x69fc	; 0x69fc <__prologue_saves__+0x20>
    26ec:	9c 83       	std	Y+4, r25	; 0x04
    26ee:	8b 83       	std	Y+3, r24	; 0x03
    26f0:	1a 82       	std	Y+2, r1	; 0x02
    26f2:	19 82       	std	Y+1, r1	; 0x01
    26f4:	17 c0       	rjmp	.+46     	; 0x2724 <_ZNSt6vectorIdSaIdEED1Ev+0x44>
    26f6:	8b 81       	ldd	r24, Y+3	; 0x03
    26f8:	9c 81       	ldd	r25, Y+4	; 0x04
    26fa:	fc 01       	movw	r30, r24
    26fc:	20 81       	ld	r18, Z
    26fe:	31 81       	ldd	r19, Z+1	; 0x01
    2700:	89 81       	ldd	r24, Y+1	; 0x01
    2702:	9a 81       	ldd	r25, Y+2	; 0x02
    2704:	88 0f       	add	r24, r24
    2706:	99 1f       	adc	r25, r25
    2708:	88 0f       	add	r24, r24
    270a:	99 1f       	adc	r25, r25
    270c:	28 0f       	add	r18, r24
    270e:	39 1f       	adc	r19, r25
    2710:	8b 81       	ldd	r24, Y+3	; 0x03
    2712:	9c 81       	ldd	r25, Y+4	; 0x04
    2714:	06 96       	adiw	r24, 0x06	; 6
    2716:	b9 01       	movw	r22, r18
    2718:	a2 d0       	rcall	.+324    	; 0x285e <_ZNSaIdE7destroyEPd>
    271a:	89 81       	ldd	r24, Y+1	; 0x01
    271c:	9a 81       	ldd	r25, Y+2	; 0x02
    271e:	01 96       	adiw	r24, 0x01	; 1
    2720:	9a 83       	std	Y+2, r25	; 0x02
    2722:	89 83       	std	Y+1, r24	; 0x01
    2724:	8b 81       	ldd	r24, Y+3	; 0x03
    2726:	9c 81       	ldd	r25, Y+4	; 0x04
    2728:	fc 01       	movw	r30, r24
    272a:	24 81       	ldd	r18, Z+4	; 0x04
    272c:	35 81       	ldd	r19, Z+5	; 0x05
    272e:	89 81       	ldd	r24, Y+1	; 0x01
    2730:	9a 81       	ldd	r25, Y+2	; 0x02
    2732:	82 17       	cp	r24, r18
    2734:	93 07       	cpc	r25, r19
    2736:	f8 f2       	brcs	.-66     	; 0x26f6 <_ZNSt6vectorIdSaIdEED1Ev+0x16>
    2738:	8b 81       	ldd	r24, Y+3	; 0x03
    273a:	9c 81       	ldd	r25, Y+4	; 0x04
    273c:	fc 01       	movw	r30, r24
    273e:	42 81       	ldd	r20, Z+2	; 0x02
    2740:	53 81       	ldd	r21, Z+3	; 0x03
    2742:	8b 81       	ldd	r24, Y+3	; 0x03
    2744:	9c 81       	ldd	r25, Y+4	; 0x04
    2746:	fc 01       	movw	r30, r24
    2748:	20 81       	ld	r18, Z
    274a:	31 81       	ldd	r19, Z+1	; 0x01
    274c:	8b 81       	ldd	r24, Y+3	; 0x03
    274e:	9c 81       	ldd	r25, Y+4	; 0x04
    2750:	06 96       	adiw	r24, 0x06	; 6
    2752:	b9 01       	movw	r22, r18
    2754:	92 d0       	rcall	.+292    	; 0x287a <_ZNSaIdE10deallocateEPdj>
    2756:	8b 81       	ldd	r24, Y+3	; 0x03
    2758:	9c 81       	ldd	r25, Y+4	; 0x04
    275a:	06 96       	adiw	r24, 0x06	; 6
    275c:	b5 df       	rcall	.-150    	; 0x26c8 <_ZNSaIdED1Ev>
    275e:	24 96       	adiw	r28, 0x04	; 4
    2760:	e2 e0       	ldi	r30, 0x02	; 2
    2762:	0c 94 1a 35 	jmp	0x6a34	; 0x6a34 <__epilogue_restores__+0x20>

00002766 <_ZNSaIdE8allocateEjPKv>:
    2766:	a6 e0       	ldi	r26, 0x06	; 6
    2768:	b0 e0       	ldi	r27, 0x00	; 0
    276a:	e9 eb       	ldi	r30, 0xB9	; 185
    276c:	f3 e1       	ldi	r31, 0x13	; 19
    276e:	0c 94 fe 34 	jmp	0x69fc	; 0x69fc <__prologue_saves__+0x20>
    2772:	9a 83       	std	Y+2, r25	; 0x02
    2774:	89 83       	std	Y+1, r24	; 0x01
    2776:	7c 83       	std	Y+4, r23	; 0x04
    2778:	6b 83       	std	Y+3, r22	; 0x03
    277a:	5e 83       	std	Y+6, r21	; 0x06
    277c:	4d 83       	std	Y+5, r20	; 0x05
    277e:	8b 81       	ldd	r24, Y+3	; 0x03
    2780:	9c 81       	ldd	r25, Y+4	; 0x04
    2782:	88 0f       	add	r24, r24
    2784:	99 1f       	adc	r25, r25
    2786:	88 0f       	add	r24, r24
    2788:	99 1f       	adc	r25, r25
    278a:	0e 94 99 2d 	call	0x5b32	; 0x5b32 <_Znwj>
    278e:	26 96       	adiw	r28, 0x06	; 6
    2790:	e2 e0       	ldi	r30, 0x02	; 2
    2792:	0c 94 1a 35 	jmp	0x6a34	; 0x6a34 <__epilogue_restores__+0x20>

00002796 <_ZNSt6vectorIdSaIdEE6resizeEjRKd>:
    2796:	a8 e0       	ldi	r26, 0x08	; 8
    2798:	b0 e0       	ldi	r27, 0x00	; 0
    279a:	e1 ed       	ldi	r30, 0xD1	; 209
    279c:	f3 e1       	ldi	r31, 0x13	; 19
    279e:	0c 94 fe 34 	jmp	0x69fc	; 0x69fc <__prologue_saves__+0x20>
    27a2:	9c 83       	std	Y+4, r25	; 0x04
    27a4:	8b 83       	std	Y+3, r24	; 0x03
    27a6:	7e 83       	std	Y+6, r23	; 0x06
    27a8:	6d 83       	std	Y+5, r22	; 0x05
    27aa:	58 87       	std	Y+8, r21	; 0x08
    27ac:	4f 83       	std	Y+7, r20	; 0x07
    27ae:	8b 81       	ldd	r24, Y+3	; 0x03
    27b0:	9c 81       	ldd	r25, Y+4	; 0x04
    27b2:	fc 01       	movw	r30, r24
    27b4:	24 81       	ldd	r18, Z+4	; 0x04
    27b6:	35 81       	ldd	r19, Z+5	; 0x05
    27b8:	8d 81       	ldd	r24, Y+5	; 0x05
    27ba:	9e 81       	ldd	r25, Y+6	; 0x06
    27bc:	28 17       	cp	r18, r24
    27be:	39 07       	cpc	r19, r25
    27c0:	08 f0       	brcs	.+2      	; 0x27c4 <_ZNSt6vectorIdSaIdEE6resizeEjRKd+0x2e>
    27c2:	43 c0       	rjmp	.+134    	; 0x284a <_ZNSt6vectorIdSaIdEE6resizeEjRKd+0xb4>
    27c4:	8b 81       	ldd	r24, Y+3	; 0x03
    27c6:	9c 81       	ldd	r25, Y+4	; 0x04
    27c8:	fc 01       	movw	r30, r24
    27ca:	22 81       	ldd	r18, Z+2	; 0x02
    27cc:	33 81       	ldd	r19, Z+3	; 0x03
    27ce:	8d 81       	ldd	r24, Y+5	; 0x05
    27d0:	9e 81       	ldd	r25, Y+6	; 0x06
    27d2:	28 17       	cp	r18, r24
    27d4:	39 07       	cpc	r19, r25
    27d6:	48 f4       	brcc	.+18     	; 0x27ea <_ZNSt6vectorIdSaIdEE6resizeEjRKd+0x54>
    27d8:	8d 81       	ldd	r24, Y+5	; 0x05
    27da:	9e 81       	ldd	r25, Y+6	; 0x06
    27dc:	9c 01       	movw	r18, r24
    27de:	28 5f       	subi	r18, 0xF8	; 248
    27e0:	3f 4f       	sbci	r19, 0xFF	; 255
    27e2:	8b 81       	ldd	r24, Y+3	; 0x03
    27e4:	9c 81       	ldd	r25, Y+4	; 0x04
    27e6:	b9 01       	movw	r22, r18
    27e8:	5c d0       	rcall	.+184    	; 0x28a2 <_ZNSt6vectorIdSaIdEE7reserveEj>
    27ea:	8b 81       	ldd	r24, Y+3	; 0x03
    27ec:	9c 81       	ldd	r25, Y+4	; 0x04
    27ee:	fc 01       	movw	r30, r24
    27f0:	84 81       	ldd	r24, Z+4	; 0x04
    27f2:	95 81       	ldd	r25, Z+5	; 0x05
    27f4:	9a 83       	std	Y+2, r25	; 0x02
    27f6:	89 83       	std	Y+1, r24	; 0x01
    27f8:	19 c0       	rjmp	.+50     	; 0x282c <_ZNSt6vectorIdSaIdEE6resizeEjRKd+0x96>
    27fa:	8b 81       	ldd	r24, Y+3	; 0x03
    27fc:	9c 81       	ldd	r25, Y+4	; 0x04
    27fe:	fc 01       	movw	r30, r24
    2800:	20 81       	ld	r18, Z
    2802:	31 81       	ldd	r19, Z+1	; 0x01
    2804:	89 81       	ldd	r24, Y+1	; 0x01
    2806:	9a 81       	ldd	r25, Y+2	; 0x02
    2808:	88 0f       	add	r24, r24
    280a:	99 1f       	adc	r25, r25
    280c:	88 0f       	add	r24, r24
    280e:	99 1f       	adc	r25, r25
    2810:	28 0f       	add	r18, r24
    2812:	39 1f       	adc	r19, r25
    2814:	8b 81       	ldd	r24, Y+3	; 0x03
    2816:	9c 81       	ldd	r25, Y+4	; 0x04
    2818:	06 96       	adiw	r24, 0x06	; 6
    281a:	4f 81       	ldd	r20, Y+7	; 0x07
    281c:	58 85       	ldd	r21, Y+8	; 0x08
    281e:	b9 01       	movw	r22, r18
    2820:	c7 d0       	rcall	.+398    	; 0x29b0 <_ZNSaIdE9constructEPdRKd>
    2822:	89 81       	ldd	r24, Y+1	; 0x01
    2824:	9a 81       	ldd	r25, Y+2	; 0x02
    2826:	01 96       	adiw	r24, 0x01	; 1
    2828:	9a 83       	std	Y+2, r25	; 0x02
    282a:	89 83       	std	Y+1, r24	; 0x01
    282c:	29 81       	ldd	r18, Y+1	; 0x01
    282e:	3a 81       	ldd	r19, Y+2	; 0x02
    2830:	8d 81       	ldd	r24, Y+5	; 0x05
    2832:	9e 81       	ldd	r25, Y+6	; 0x06
    2834:	28 17       	cp	r18, r24
    2836:	39 07       	cpc	r19, r25
    2838:	00 f3       	brcs	.-64     	; 0x27fa <_ZNSt6vectorIdSaIdEE6resizeEjRKd+0x64>
    283a:	8b 81       	ldd	r24, Y+3	; 0x03
    283c:	9c 81       	ldd	r25, Y+4	; 0x04
    283e:	2d 81       	ldd	r18, Y+5	; 0x05
    2840:	3e 81       	ldd	r19, Y+6	; 0x06
    2842:	fc 01       	movw	r30, r24
    2844:	35 83       	std	Z+5, r19	; 0x05
    2846:	24 83       	std	Z+4, r18	; 0x04
    2848:	06 c0       	rjmp	.+12     	; 0x2856 <_ZNSt6vectorIdSaIdEE6resizeEjRKd+0xc0>
    284a:	2d 81       	ldd	r18, Y+5	; 0x05
    284c:	3e 81       	ldd	r19, Y+6	; 0x06
    284e:	8b 81       	ldd	r24, Y+3	; 0x03
    2850:	9c 81       	ldd	r25, Y+4	; 0x04
    2852:	b9 01       	movw	r22, r18
    2854:	d3 d0       	rcall	.+422    	; 0x29fc <_ZNSt6vectorIdSaIdEE8downsizeEj>
    2856:	28 96       	adiw	r28, 0x08	; 8
    2858:	e2 e0       	ldi	r30, 0x02	; 2
    285a:	0c 94 1a 35 	jmp	0x6a34	; 0x6a34 <__epilogue_restores__+0x20>

0000285e <_ZNSaIdE7destroyEPd>:
    285e:	a4 e0       	ldi	r26, 0x04	; 4
    2860:	b0 e0       	ldi	r27, 0x00	; 0
    2862:	e5 e3       	ldi	r30, 0x35	; 53
    2864:	f4 e1       	ldi	r31, 0x14	; 20
    2866:	0c 94 fe 34 	jmp	0x69fc	; 0x69fc <__prologue_saves__+0x20>
    286a:	9a 83       	std	Y+2, r25	; 0x02
    286c:	89 83       	std	Y+1, r24	; 0x01
    286e:	7c 83       	std	Y+4, r23	; 0x04
    2870:	6b 83       	std	Y+3, r22	; 0x03
    2872:	24 96       	adiw	r28, 0x04	; 4
    2874:	e2 e0       	ldi	r30, 0x02	; 2
    2876:	0c 94 1a 35 	jmp	0x6a34	; 0x6a34 <__epilogue_restores__+0x20>

0000287a <_ZNSaIdE10deallocateEPdj>:
    287a:	a6 e0       	ldi	r26, 0x06	; 6
    287c:	b0 e0       	ldi	r27, 0x00	; 0
    287e:	e3 e4       	ldi	r30, 0x43	; 67
    2880:	f4 e1       	ldi	r31, 0x14	; 20
    2882:	0c 94 fe 34 	jmp	0x69fc	; 0x69fc <__prologue_saves__+0x20>
    2886:	9a 83       	std	Y+2, r25	; 0x02
    2888:	89 83       	std	Y+1, r24	; 0x01
    288a:	7c 83       	std	Y+4, r23	; 0x04
    288c:	6b 83       	std	Y+3, r22	; 0x03
    288e:	5e 83       	std	Y+6, r21	; 0x06
    2890:	4d 83       	std	Y+5, r20	; 0x05
    2892:	8b 81       	ldd	r24, Y+3	; 0x03
    2894:	9c 81       	ldd	r25, Y+4	; 0x04
    2896:	0e 94 9a 2d 	call	0x5b34	; 0x5b34 <_ZdlPv>
    289a:	26 96       	adiw	r28, 0x06	; 6
    289c:	e2 e0       	ldi	r30, 0x02	; 2
    289e:	0c 94 1a 35 	jmp	0x6a34	; 0x6a34 <__epilogue_restores__+0x20>

000028a2 <_ZNSt6vectorIdSaIdEE7reserveEj>:
		}
		a.deallocate(data, data_size);
	}


	template<class T, class Allocator> _UCXXEXPORT void vector<T, Allocator>::reserve(size_type n){
    28a2:	aa e0       	ldi	r26, 0x0A	; 10
    28a4:	b0 e0       	ldi	r27, 0x00	; 0
    28a6:	e7 e5       	ldi	r30, 0x57	; 87
    28a8:	f4 e1       	ldi	r31, 0x14	; 20
    28aa:	0c 94 fe 34 	jmp	0x69fc	; 0x69fc <__prologue_saves__+0x20>
    28ae:	98 87       	std	Y+8, r25	; 0x08
    28b0:	8f 83       	std	Y+7, r24	; 0x07
    28b2:	7a 87       	std	Y+10, r23	; 0x0a
    28b4:	69 87       	std	Y+9, r22	; 0x09
		if(n > data_size){              //We never shrink...
    28b6:	8f 81       	ldd	r24, Y+7	; 0x07
    28b8:	98 85       	ldd	r25, Y+8	; 0x08
    28ba:	fc 01       	movw	r30, r24
    28bc:	22 81       	ldd	r18, Z+2	; 0x02
    28be:	33 81       	ldd	r19, Z+3	; 0x03
    28c0:	89 85       	ldd	r24, Y+9	; 0x09
    28c2:	9a 85       	ldd	r25, Y+10	; 0x0a
    28c4:	28 17       	cp	r18, r24
    28c6:	39 07       	cpc	r19, r25
    28c8:	08 f0       	brcs	.+2      	; 0x28cc <_ZNSt6vectorIdSaIdEE7reserveEj+0x2a>
    28ca:	6e c0       	rjmp	.+220    	; 0x29a8 <_ZNSt6vectorIdSaIdEE7reserveEj+0x106>
			T * temp_ptr = data;
    28cc:	8f 81       	ldd	r24, Y+7	; 0x07
    28ce:	98 85       	ldd	r25, Y+8	; 0x08
    28d0:	fc 01       	movw	r30, r24
    28d2:	80 81       	ld	r24, Z
    28d4:	91 81       	ldd	r25, Z+1	; 0x01
    28d6:	9c 83       	std	Y+4, r25	; 0x04
    28d8:	8b 83       	std	Y+3, r24	; 0x03
			size_type temp_size = data_size;
    28da:	8f 81       	ldd	r24, Y+7	; 0x07
    28dc:	98 85       	ldd	r25, Y+8	; 0x08
    28de:	fc 01       	movw	r30, r24
    28e0:	82 81       	ldd	r24, Z+2	; 0x02
    28e2:	93 81       	ldd	r25, Z+3	; 0x03
    28e4:	9e 83       	std	Y+6, r25	; 0x06
    28e6:	8d 83       	std	Y+5, r24	; 0x05

			data_size = n;
    28e8:	8f 81       	ldd	r24, Y+7	; 0x07
    28ea:	98 85       	ldd	r25, Y+8	; 0x08
    28ec:	29 85       	ldd	r18, Y+9	; 0x09
    28ee:	3a 85       	ldd	r19, Y+10	; 0x0a
    28f0:	fc 01       	movw	r30, r24
    28f2:	33 83       	std	Z+3, r19	; 0x03
    28f4:	22 83       	std	Z+2, r18	; 0x02
			data = a.allocate(data_size);
    28f6:	8f 81       	ldd	r24, Y+7	; 0x07
    28f8:	98 85       	ldd	r25, Y+8	; 0x08
    28fa:	fc 01       	movw	r30, r24
    28fc:	22 81       	ldd	r18, Z+2	; 0x02
    28fe:	33 81       	ldd	r19, Z+3	; 0x03
    2900:	8f 81       	ldd	r24, Y+7	; 0x07
    2902:	98 85       	ldd	r25, Y+8	; 0x08
    2904:	06 96       	adiw	r24, 0x06	; 6
    2906:	40 e0       	ldi	r20, 0x00	; 0
    2908:	50 e0       	ldi	r21, 0x00	; 0
    290a:	b9 01       	movw	r22, r18
    290c:	2c df       	rcall	.-424    	; 0x2766 <_ZNSaIdE8allocateEjPKv>
    290e:	9c 01       	movw	r18, r24
    2910:	8f 81       	ldd	r24, Y+7	; 0x07
    2912:	98 85       	ldd	r25, Y+8	; 0x08
    2914:	fc 01       	movw	r30, r24
    2916:	31 83       	std	Z+1, r19	; 0x01
    2918:	20 83       	st	Z, r18

			for(size_type i = 0; i<elements; ++i){
    291a:	1a 82       	std	Y+2, r1	; 0x02
    291c:	19 82       	std	Y+1, r1	; 0x01
    291e:	31 c0       	rjmp	.+98     	; 0x2982 <_ZNSt6vectorIdSaIdEE7reserveEj+0xe0>
				a.construct(data+i, temp_ptr[i]);
    2920:	89 81       	ldd	r24, Y+1	; 0x01
    2922:	9a 81       	ldd	r25, Y+2	; 0x02
    2924:	88 0f       	add	r24, r24
    2926:	99 1f       	adc	r25, r25
    2928:	88 0f       	add	r24, r24
    292a:	99 1f       	adc	r25, r25
    292c:	2b 81       	ldd	r18, Y+3	; 0x03
    292e:	3c 81       	ldd	r19, Y+4	; 0x04
    2930:	a9 01       	movw	r20, r18
    2932:	48 0f       	add	r20, r24
    2934:	59 1f       	adc	r21, r25
    2936:	8f 81       	ldd	r24, Y+7	; 0x07
    2938:	98 85       	ldd	r25, Y+8	; 0x08
    293a:	fc 01       	movw	r30, r24
    293c:	20 81       	ld	r18, Z
    293e:	31 81       	ldd	r19, Z+1	; 0x01
    2940:	89 81       	ldd	r24, Y+1	; 0x01
    2942:	9a 81       	ldd	r25, Y+2	; 0x02
    2944:	88 0f       	add	r24, r24
    2946:	99 1f       	adc	r25, r25
    2948:	88 0f       	add	r24, r24
    294a:	99 1f       	adc	r25, r25
    294c:	28 0f       	add	r18, r24
    294e:	39 1f       	adc	r19, r25
    2950:	8f 81       	ldd	r24, Y+7	; 0x07
    2952:	98 85       	ldd	r25, Y+8	; 0x08
    2954:	06 96       	adiw	r24, 0x06	; 6
    2956:	b9 01       	movw	r22, r18
    2958:	2b d0       	rcall	.+86     	; 0x29b0 <_ZNSaIdE9constructEPdRKd>
				a.destroy(temp_ptr+i);
    295a:	89 81       	ldd	r24, Y+1	; 0x01
    295c:	9a 81       	ldd	r25, Y+2	; 0x02
    295e:	88 0f       	add	r24, r24
    2960:	99 1f       	adc	r25, r25
    2962:	88 0f       	add	r24, r24
    2964:	99 1f       	adc	r25, r25
    2966:	2b 81       	ldd	r18, Y+3	; 0x03
    2968:	3c 81       	ldd	r19, Y+4	; 0x04
    296a:	28 0f       	add	r18, r24
    296c:	39 1f       	adc	r19, r25
    296e:	8f 81       	ldd	r24, Y+7	; 0x07
    2970:	98 85       	ldd	r25, Y+8	; 0x08
    2972:	06 96       	adiw	r24, 0x06	; 6
    2974:	b9 01       	movw	r22, r18
    2976:	73 df       	rcall	.-282    	; 0x285e <_ZNSaIdE7destroyEPd>
			size_type temp_size = data_size;

			data_size = n;
			data = a.allocate(data_size);

			for(size_type i = 0; i<elements; ++i){
    2978:	89 81       	ldd	r24, Y+1	; 0x01
    297a:	9a 81       	ldd	r25, Y+2	; 0x02
    297c:	01 96       	adiw	r24, 0x01	; 1
    297e:	9a 83       	std	Y+2, r25	; 0x02
    2980:	89 83       	std	Y+1, r24	; 0x01
    2982:	8f 81       	ldd	r24, Y+7	; 0x07
    2984:	98 85       	ldd	r25, Y+8	; 0x08
    2986:	fc 01       	movw	r30, r24
    2988:	24 81       	ldd	r18, Z+4	; 0x04
    298a:	35 81       	ldd	r19, Z+5	; 0x05
    298c:	89 81       	ldd	r24, Y+1	; 0x01
    298e:	9a 81       	ldd	r25, Y+2	; 0x02
    2990:	82 17       	cp	r24, r18
    2992:	93 07       	cpc	r25, r19
    2994:	28 f2       	brcs	.-118    	; 0x2920 <_ZNSt6vectorIdSaIdEE7reserveEj+0x7e>
				a.construct(data+i, temp_ptr[i]);
				a.destroy(temp_ptr+i);
			}
			a.deallocate(temp_ptr, temp_size);
    2996:	8f 81       	ldd	r24, Y+7	; 0x07
    2998:	98 85       	ldd	r25, Y+8	; 0x08
    299a:	06 96       	adiw	r24, 0x06	; 6
    299c:	4d 81       	ldd	r20, Y+5	; 0x05
    299e:	5e 81       	ldd	r21, Y+6	; 0x06
    29a0:	2b 81       	ldd	r18, Y+3	; 0x03
    29a2:	3c 81       	ldd	r19, Y+4	; 0x04
    29a4:	b9 01       	movw	r22, r18
    29a6:	69 df       	rcall	.-302    	; 0x287a <_ZNSaIdE10deallocateEPdj>
		}
	}
    29a8:	2a 96       	adiw	r28, 0x0a	; 10
    29aa:	e2 e0       	ldi	r30, 0x02	; 2
    29ac:	0c 94 1a 35 	jmp	0x6a34	; 0x6a34 <__epilogue_restores__+0x20>

000029b0 <_ZNSaIdE9constructEPdRKd>:
	void deallocate(pointer p, size_type){
		::operator delete(p);
	}

	//Use placement new to engage the constructor
	void construct(pointer p, const T& val) { new((void*)p) T(val); }
    29b0:	a6 e0       	ldi	r26, 0x06	; 6
    29b2:	b0 e0       	ldi	r27, 0x00	; 0
    29b4:	ee ed       	ldi	r30, 0xDE	; 222
    29b6:	f4 e1       	ldi	r31, 0x14	; 20
    29b8:	0c 94 fe 34 	jmp	0x69fc	; 0x69fc <__prologue_saves__+0x20>
    29bc:	9a 83       	std	Y+2, r25	; 0x02
    29be:	89 83       	std	Y+1, r24	; 0x01
    29c0:	7c 83       	std	Y+4, r23	; 0x04
    29c2:	6b 83       	std	Y+3, r22	; 0x03
    29c4:	5e 83       	std	Y+6, r21	; 0x06
    29c6:	4d 83       	std	Y+5, r20	; 0x05
    29c8:	8b 81       	ldd	r24, Y+3	; 0x03
    29ca:	9c 81       	ldd	r25, Y+4	; 0x04
    29cc:	bc 01       	movw	r22, r24
    29ce:	84 e0       	ldi	r24, 0x04	; 4
    29d0:	90 e0       	ldi	r25, 0x00	; 0
    29d2:	48 dc       	rcall	.-1904   	; 0x2264 <_ZnwjPv>
    29d4:	9c 01       	movw	r18, r24
    29d6:	21 15       	cp	r18, r1
    29d8:	31 05       	cpc	r19, r1
    29da:	61 f0       	breq	.+24     	; 0x29f4 <_ZNSaIdE9constructEPdRKd+0x44>
    29dc:	8d 81       	ldd	r24, Y+5	; 0x05
    29de:	9e 81       	ldd	r25, Y+6	; 0x06
    29e0:	fc 01       	movw	r30, r24
    29e2:	80 81       	ld	r24, Z
    29e4:	91 81       	ldd	r25, Z+1	; 0x01
    29e6:	a2 81       	ldd	r26, Z+2	; 0x02
    29e8:	b3 81       	ldd	r27, Z+3	; 0x03
    29ea:	f9 01       	movw	r30, r18
    29ec:	80 83       	st	Z, r24
    29ee:	91 83       	std	Z+1, r25	; 0x01
    29f0:	a2 83       	std	Z+2, r26	; 0x02
    29f2:	b3 83       	std	Z+3, r27	; 0x03
    29f4:	26 96       	adiw	r28, 0x06	; 6
    29f6:	e2 e0       	ldi	r30, 0x02	; 2
    29f8:	0c 94 1a 35 	jmp	0x6a34	; 0x6a34 <__epilogue_restores__+0x20>

000029fc <_ZNSt6vectorIdSaIdEE8downsizeEj>:
		}else{
			downsize(sz);
		}
	}

	template<class T, class Allocator> _UCXXEXPORT void vector<T, Allocator>::downsize(size_type sz){
    29fc:	a6 e0       	ldi	r26, 0x06	; 6
    29fe:	b0 e0       	ldi	r27, 0x00	; 0
    2a00:	e4 e0       	ldi	r30, 0x04	; 4
    2a02:	f5 e1       	ldi	r31, 0x15	; 21
    2a04:	0c 94 fe 34 	jmp	0x69fc	; 0x69fc <__prologue_saves__+0x20>
    2a08:	9c 83       	std	Y+4, r25	; 0x04
    2a0a:	8b 83       	std	Y+3, r24	; 0x03
    2a0c:	7e 83       	std	Y+6, r23	; 0x06
    2a0e:	6d 83       	std	Y+5, r22	; 0x05
		if(sz < elements){      //Actually are downsizing
    2a10:	8b 81       	ldd	r24, Y+3	; 0x03
    2a12:	9c 81       	ldd	r25, Y+4	; 0x04
    2a14:	fc 01       	movw	r30, r24
    2a16:	24 81       	ldd	r18, Z+4	; 0x04
    2a18:	35 81       	ldd	r19, Z+5	; 0x05
    2a1a:	8d 81       	ldd	r24, Y+5	; 0x05
    2a1c:	9e 81       	ldd	r25, Y+6	; 0x06
    2a1e:	82 17       	cp	r24, r18
    2a20:	93 07       	cpc	r25, r19
    2a22:	68 f5       	brcc	.+90     	; 0x2a7e <_ZNSt6vectorIdSaIdEE8downsizeEj+0x82>
			for(size_t i = sz; i< elements; ++i){
    2a24:	8d 81       	ldd	r24, Y+5	; 0x05
    2a26:	9e 81       	ldd	r25, Y+6	; 0x06
    2a28:	9a 83       	std	Y+2, r25	; 0x02
    2a2a:	89 83       	std	Y+1, r24	; 0x01
    2a2c:	17 c0       	rjmp	.+46     	; 0x2a5c <_ZNSt6vectorIdSaIdEE8downsizeEj+0x60>
				a.destroy(data+i);
    2a2e:	8b 81       	ldd	r24, Y+3	; 0x03
    2a30:	9c 81       	ldd	r25, Y+4	; 0x04
    2a32:	fc 01       	movw	r30, r24
    2a34:	20 81       	ld	r18, Z
    2a36:	31 81       	ldd	r19, Z+1	; 0x01
    2a38:	89 81       	ldd	r24, Y+1	; 0x01
    2a3a:	9a 81       	ldd	r25, Y+2	; 0x02
    2a3c:	88 0f       	add	r24, r24
    2a3e:	99 1f       	adc	r25, r25
    2a40:	88 0f       	add	r24, r24
    2a42:	99 1f       	adc	r25, r25
    2a44:	28 0f       	add	r18, r24
    2a46:	39 1f       	adc	r19, r25
    2a48:	8b 81       	ldd	r24, Y+3	; 0x03
    2a4a:	9c 81       	ldd	r25, Y+4	; 0x04
    2a4c:	06 96       	adiw	r24, 0x06	; 6
    2a4e:	b9 01       	movw	r22, r18
    2a50:	06 df       	rcall	.-500    	; 0x285e <_ZNSaIdE7destroyEPd>
		}
	}

	template<class T, class Allocator> _UCXXEXPORT void vector<T, Allocator>::downsize(size_type sz){
		if(sz < elements){      //Actually are downsizing
			for(size_t i = sz; i< elements; ++i){
    2a52:	89 81       	ldd	r24, Y+1	; 0x01
    2a54:	9a 81       	ldd	r25, Y+2	; 0x02
    2a56:	01 96       	adiw	r24, 0x01	; 1
    2a58:	9a 83       	std	Y+2, r25	; 0x02
    2a5a:	89 83       	std	Y+1, r24	; 0x01
    2a5c:	8b 81       	ldd	r24, Y+3	; 0x03
    2a5e:	9c 81       	ldd	r25, Y+4	; 0x04
    2a60:	fc 01       	movw	r30, r24
    2a62:	24 81       	ldd	r18, Z+4	; 0x04
    2a64:	35 81       	ldd	r19, Z+5	; 0x05
    2a66:	89 81       	ldd	r24, Y+1	; 0x01
    2a68:	9a 81       	ldd	r25, Y+2	; 0x02
    2a6a:	82 17       	cp	r24, r18
    2a6c:	93 07       	cpc	r25, r19
    2a6e:	f8 f2       	brcs	.-66     	; 0x2a2e <_ZNSt6vectorIdSaIdEE8downsizeEj+0x32>
				a.destroy(data+i);
			}
			elements = sz;
    2a70:	8b 81       	ldd	r24, Y+3	; 0x03
    2a72:	9c 81       	ldd	r25, Y+4	; 0x04
    2a74:	2d 81       	ldd	r18, Y+5	; 0x05
    2a76:	3e 81       	ldd	r19, Y+6	; 0x06
    2a78:	fc 01       	movw	r30, r24
    2a7a:	35 83       	std	Z+5, r19	; 0x05
    2a7c:	24 83       	std	Z+4, r18	; 0x04
		}
	}
    2a7e:	26 96       	adiw	r28, 0x06	; 6
    2a80:	e2 e0       	ldi	r30, 0x02	; 2
    2a82:	0c 94 1a 35 	jmp	0x6a34	; 0x6a34 <__epilogue_restores__+0x20>

00002a86 <_ZNK6String5c_strEv>:
    2a86:	a2 e0       	ldi	r26, 0x02	; 2
    2a88:	b0 e0       	ldi	r27, 0x00	; 0
    2a8a:	e9 e4       	ldi	r30, 0x49	; 73
    2a8c:	f5 e1       	ldi	r31, 0x15	; 21
    2a8e:	0c 94 fe 34 	jmp	0x69fc	; 0x69fc <__prologue_saves__+0x20>
    2a92:	9a 83       	std	Y+2, r25	; 0x02
    2a94:	89 83       	std	Y+1, r24	; 0x01
    2a96:	89 81       	ldd	r24, Y+1	; 0x01
    2a98:	9a 81       	ldd	r25, Y+2	; 0x02
    2a9a:	fc 01       	movw	r30, r24
    2a9c:	80 81       	ld	r24, Z
    2a9e:	91 81       	ldd	r25, Z+1	; 0x01
    2aa0:	22 96       	adiw	r28, 0x02	; 2
    2aa2:	e2 e0       	ldi	r30, 0x02	; 2
    2aa4:	0c 94 1a 35 	jmp	0x6a34	; 0x6a34 <__epilogue_restores__+0x20>

00002aa8 <_ZN15StringSumHelperC1EPKc>:
    2aa8:	a4 e0       	ldi	r26, 0x04	; 4
    2aaa:	b0 e0       	ldi	r27, 0x00	; 0
    2aac:	ea e5       	ldi	r30, 0x5A	; 90
    2aae:	f5 e1       	ldi	r31, 0x15	; 21
    2ab0:	0c 94 fe 34 	jmp	0x69fc	; 0x69fc <__prologue_saves__+0x20>
    2ab4:	9a 83       	std	Y+2, r25	; 0x02
    2ab6:	89 83       	std	Y+1, r24	; 0x01
    2ab8:	7c 83       	std	Y+4, r23	; 0x04
    2aba:	6b 83       	std	Y+3, r22	; 0x03
    2abc:	89 81       	ldd	r24, Y+1	; 0x01
    2abe:	9a 81       	ldd	r25, Y+2	; 0x02
    2ac0:	2b 81       	ldd	r18, Y+3	; 0x03
    2ac2:	3c 81       	ldd	r19, Y+4	; 0x04
    2ac4:	b9 01       	movw	r22, r18
    2ac6:	0e 94 22 32 	call	0x6444	; 0x6444 <_ZN6StringC1EPKc>
    2aca:	24 96       	adiw	r28, 0x04	; 4
    2acc:	e2 e0       	ldi	r30, 0x02	; 2
    2ace:	0c 94 1a 35 	jmp	0x6a34	; 0x6a34 <__epilogue_restores__+0x20>

00002ad2 <_ZN5EERefC1Ei>:
    2ad2:	a4 e0       	ldi	r26, 0x04	; 4
    2ad4:	b0 e0       	ldi	r27, 0x00	; 0
    2ad6:	ef e6       	ldi	r30, 0x6F	; 111
    2ad8:	f5 e1       	ldi	r31, 0x15	; 21
    2ada:	0c 94 fe 34 	jmp	0x69fc	; 0x69fc <__prologue_saves__+0x20>
    2ade:	9a 83       	std	Y+2, r25	; 0x02
    2ae0:	89 83       	std	Y+1, r24	; 0x01
    2ae2:	7c 83       	std	Y+4, r23	; 0x04
    2ae4:	6b 83       	std	Y+3, r22	; 0x03
    2ae6:	89 81       	ldd	r24, Y+1	; 0x01
    2ae8:	9a 81       	ldd	r25, Y+2	; 0x02
    2aea:	2b 81       	ldd	r18, Y+3	; 0x03
    2aec:	3c 81       	ldd	r19, Y+4	; 0x04
    2aee:	fc 01       	movw	r30, r24
    2af0:	31 83       	std	Z+1, r19	; 0x01
    2af2:	20 83       	st	Z, r18
    2af4:	24 96       	adiw	r28, 0x04	; 4
    2af6:	e2 e0       	ldi	r30, 0x02	; 2
    2af8:	0c 94 1a 35 	jmp	0x6a34	; 0x6a34 <__epilogue_restores__+0x20>

00002afc <_ZNK5EERefdeEv>:
    2afc:	a2 e0       	ldi	r26, 0x02	; 2
    2afe:	b0 e0       	ldi	r27, 0x00	; 0
    2b00:	e4 e8       	ldi	r30, 0x84	; 132
    2b02:	f5 e1       	ldi	r31, 0x15	; 21
    2b04:	0c 94 fe 34 	jmp	0x69fc	; 0x69fc <__prologue_saves__+0x20>
    2b08:	9a 83       	std	Y+2, r25	; 0x02
    2b0a:	89 83       	std	Y+1, r24	; 0x01
    2b0c:	89 81       	ldd	r24, Y+1	; 0x01
    2b0e:	9a 81       	ldd	r25, Y+2	; 0x02
    2b10:	fc 01       	movw	r30, r24
    2b12:	80 81       	ld	r24, Z
    2b14:	91 81       	ldd	r25, Z+1	; 0x01
    2b16:	0e 94 00 3c 	call	0x7800	; 0x7800 <eeprom_read_byte>
    2b1a:	22 96       	adiw	r28, 0x02	; 2
    2b1c:	e2 e0       	ldi	r30, 0x02	; 2
    2b1e:	0c 94 1a 35 	jmp	0x6a34	; 0x6a34 <__epilogue_restores__+0x20>

00002b22 <_ZNK5EERefcvKhEv>:
    2b22:	a2 e0       	ldi	r26, 0x02	; 2
    2b24:	b0 e0       	ldi	r27, 0x00	; 0
    2b26:	e7 e9       	ldi	r30, 0x97	; 151
    2b28:	f5 e1       	ldi	r31, 0x15	; 21
    2b2a:	0c 94 fe 34 	jmp	0x69fc	; 0x69fc <__prologue_saves__+0x20>
    2b2e:	9a 83       	std	Y+2, r25	; 0x02
    2b30:	89 83       	std	Y+1, r24	; 0x01
    2b32:	89 81       	ldd	r24, Y+1	; 0x01
    2b34:	9a 81       	ldd	r25, Y+2	; 0x02
    2b36:	e2 df       	rcall	.-60     	; 0x2afc <_ZNK5EERefdeEv>
    2b38:	22 96       	adiw	r28, 0x02	; 2
    2b3a:	e2 e0       	ldi	r30, 0x02	; 2
    2b3c:	0c 94 1a 35 	jmp	0x6a34	; 0x6a34 <__epilogue_restores__+0x20>

00002b40 <_ZN5EERefaSEh>:
    2b40:	a3 e0       	ldi	r26, 0x03	; 3
    2b42:	b0 e0       	ldi	r27, 0x00	; 0
    2b44:	e6 ea       	ldi	r30, 0xA6	; 166
    2b46:	f5 e1       	ldi	r31, 0x15	; 21
    2b48:	0c 94 fe 34 	jmp	0x69fc	; 0x69fc <__prologue_saves__+0x20>
    2b4c:	9a 83       	std	Y+2, r25	; 0x02
    2b4e:	89 83       	std	Y+1, r24	; 0x01
    2b50:	6b 83       	std	Y+3, r22	; 0x03
    2b52:	89 81       	ldd	r24, Y+1	; 0x01
    2b54:	9a 81       	ldd	r25, Y+2	; 0x02
    2b56:	fc 01       	movw	r30, r24
    2b58:	80 81       	ld	r24, Z
    2b5a:	91 81       	ldd	r25, Z+1	; 0x01
    2b5c:	6b 81       	ldd	r22, Y+3	; 0x03
    2b5e:	0e 94 08 3c 	call	0x7810	; 0x7810 <eeprom_write_byte>
    2b62:	89 81       	ldd	r24, Y+1	; 0x01
    2b64:	9a 81       	ldd	r25, Y+2	; 0x02
    2b66:	23 96       	adiw	r28, 0x03	; 3
    2b68:	e2 e0       	ldi	r30, 0x02	; 2
    2b6a:	0c 94 1a 35 	jmp	0x6a34	; 0x6a34 <__epilogue_restores__+0x20>

00002b6e <_ZN5EERef6updateEh>:
    2b6e:	a3 e0       	ldi	r26, 0x03	; 3
    2b70:	b0 e0       	ldi	r27, 0x00	; 0
    2b72:	ed eb       	ldi	r30, 0xBD	; 189
    2b74:	f5 e1       	ldi	r31, 0x15	; 21
    2b76:	0c 94 fe 34 	jmp	0x69fc	; 0x69fc <__prologue_saves__+0x20>
    2b7a:	9a 83       	std	Y+2, r25	; 0x02
    2b7c:	89 83       	std	Y+1, r24	; 0x01
    2b7e:	6b 83       	std	Y+3, r22	; 0x03
    2b80:	89 81       	ldd	r24, Y+1	; 0x01
    2b82:	9a 81       	ldd	r25, Y+2	; 0x02
    2b84:	ce df       	rcall	.-100    	; 0x2b22 <_ZNK5EERefcvKhEv>
    2b86:	98 2f       	mov	r25, r24
    2b88:	8b 81       	ldd	r24, Y+3	; 0x03
    2b8a:	98 17       	cp	r25, r24
    2b8c:	29 f0       	breq	.+10     	; 0x2b98 <_ZN5EERef6updateEh+0x2a>
    2b8e:	89 81       	ldd	r24, Y+1	; 0x01
    2b90:	9a 81       	ldd	r25, Y+2	; 0x02
    2b92:	6b 81       	ldd	r22, Y+3	; 0x03
    2b94:	d5 df       	rcall	.-86     	; 0x2b40 <_ZN5EERefaSEh>
    2b96:	02 c0       	rjmp	.+4      	; 0x2b9c <_ZN5EERef6updateEh+0x2e>
    2b98:	89 81       	ldd	r24, Y+1	; 0x01
    2b9a:	9a 81       	ldd	r25, Y+2	; 0x02
    2b9c:	23 96       	adiw	r28, 0x03	; 3
    2b9e:	e2 e0       	ldi	r30, 0x02	; 2
    2ba0:	0c 94 1a 35 	jmp	0x6a34	; 0x6a34 <__epilogue_restores__+0x20>

00002ba4 <_ZN11EEPROMClassixEi>:
    2ba4:	a6 e0       	ldi	r26, 0x06	; 6
    2ba6:	b0 e0       	ldi	r27, 0x00	; 0
    2ba8:	e8 ed       	ldi	r30, 0xD8	; 216
    2baa:	f5 e1       	ldi	r31, 0x15	; 21
    2bac:	0c 94 fe 34 	jmp	0x69fc	; 0x69fc <__prologue_saves__+0x20>
    2bb0:	9c 83       	std	Y+4, r25	; 0x04
    2bb2:	8b 83       	std	Y+3, r24	; 0x03
    2bb4:	7e 83       	std	Y+6, r23	; 0x06
    2bb6:	6d 83       	std	Y+5, r22	; 0x05
    2bb8:	8d 81       	ldd	r24, Y+5	; 0x05
    2bba:	9e 81       	ldd	r25, Y+6	; 0x06
    2bbc:	bc 01       	movw	r22, r24
    2bbe:	ce 01       	movw	r24, r28
    2bc0:	01 96       	adiw	r24, 0x01	; 1
    2bc2:	87 df       	rcall	.-242    	; 0x2ad2 <_ZN5EERefC1Ei>
    2bc4:	89 81       	ldd	r24, Y+1	; 0x01
    2bc6:	9a 81       	ldd	r25, Y+2	; 0x02
    2bc8:	26 96       	adiw	r28, 0x06	; 6
    2bca:	e2 e0       	ldi	r30, 0x02	; 2
    2bcc:	0c 94 1a 35 	jmp	0x6a34	; 0x6a34 <__epilogue_restores__+0x20>

00002bd0 <_ZN2ee5tools18EEReadBlockElementEPcPhj>:
    2bd0:	aa e0       	ldi	r26, 0x0A	; 10
    2bd2:	b0 e0       	ldi	r27, 0x00	; 0
    2bd4:	ee ee       	ldi	r30, 0xEE	; 238
    2bd6:	f5 e1       	ldi	r31, 0x15	; 21
    2bd8:	0c 94 fc 34 	jmp	0x69f8	; 0x69f8 <__prologue_saves__+0x1c>
    2bdc:	9e 83       	std	Y+6, r25	; 0x06
    2bde:	8d 83       	std	Y+5, r24	; 0x05
    2be0:	78 87       	std	Y+8, r23	; 0x08
    2be2:	6f 83       	std	Y+7, r22	; 0x07
    2be4:	5a 87       	std	Y+10, r21	; 0x0a
    2be6:	49 87       	std	Y+9, r20	; 0x09
    2be8:	1a 82       	std	Y+2, r1	; 0x02
    2bea:	19 82       	std	Y+1, r1	; 0x01
    2bec:	1d c0       	rjmp	.+58     	; 0x2c28 <_ZN2ee5tools18EEReadBlockElementEPcPhj+0x58>
    2bee:	0d 81       	ldd	r16, Y+5	; 0x05
    2bf0:	1e 81       	ldd	r17, Y+6	; 0x06
    2bf2:	c8 01       	movw	r24, r16
    2bf4:	01 97       	sbiw	r24, 0x01	; 1
    2bf6:	9e 83       	std	Y+6, r25	; 0x06
    2bf8:	8d 83       	std	Y+5, r24	; 0x05
    2bfa:	8f 81       	ldd	r24, Y+7	; 0x07
    2bfc:	98 85       	ldd	r25, Y+8	; 0x08
    2bfe:	9c 01       	movw	r18, r24
    2c00:	2f 5f       	subi	r18, 0xFF	; 255
    2c02:	3f 4f       	sbci	r19, 0xFF	; 255
    2c04:	38 87       	std	Y+8, r19	; 0x08
    2c06:	2f 83       	std	Y+7, r18	; 0x07
    2c08:	bc 01       	movw	r22, r24
    2c0a:	8f ee       	ldi	r24, 0xEF	; 239
    2c0c:	92 e0       	ldi	r25, 0x02	; 2
    2c0e:	ca df       	rcall	.-108    	; 0x2ba4 <_ZN11EEPROMClassixEi>
    2c10:	9c 83       	std	Y+4, r25	; 0x04
    2c12:	8b 83       	std	Y+3, r24	; 0x03
    2c14:	ce 01       	movw	r24, r28
    2c16:	03 96       	adiw	r24, 0x03	; 3
    2c18:	84 df       	rcall	.-248    	; 0x2b22 <_ZNK5EERefcvKhEv>
    2c1a:	f8 01       	movw	r30, r16
    2c1c:	80 83       	st	Z, r24
    2c1e:	89 81       	ldd	r24, Y+1	; 0x01
    2c20:	9a 81       	ldd	r25, Y+2	; 0x02
    2c22:	01 96       	adiw	r24, 0x01	; 1
    2c24:	9a 83       	std	Y+2, r25	; 0x02
    2c26:	89 83       	std	Y+1, r24	; 0x01
    2c28:	29 81       	ldd	r18, Y+1	; 0x01
    2c2a:	3a 81       	ldd	r19, Y+2	; 0x02
    2c2c:	89 85       	ldd	r24, Y+9	; 0x09
    2c2e:	9a 85       	ldd	r25, Y+10	; 0x0a
    2c30:	28 17       	cp	r18, r24
    2c32:	39 07       	cpc	r19, r25
    2c34:	e0 f2       	brcs	.-72     	; 0x2bee <_ZN2ee5tools18EEReadBlockElementEPcPhj+0x1e>
    2c36:	2a 96       	adiw	r28, 0x0a	; 10
    2c38:	e4 e0       	ldi	r30, 0x04	; 4
    2c3a:	0c 94 18 35 	jmp	0x6a30	; 0x6a30 <__epilogue_restores__+0x1c>

00002c3e <_ZN2ee5tools19EEWriteBlockElementEPKcPhj>:
    2c3e:	ab e0       	ldi	r26, 0x0B	; 11
    2c40:	b0 e0       	ldi	r27, 0x00	; 0
    2c42:	e5 e2       	ldi	r30, 0x25	; 37
    2c44:	f6 e1       	ldi	r31, 0x16	; 22
    2c46:	0c 94 fe 34 	jmp	0x69fc	; 0x69fc <__prologue_saves__+0x20>
    2c4a:	9f 83       	std	Y+7, r25	; 0x07
    2c4c:	8e 83       	std	Y+6, r24	; 0x06
    2c4e:	79 87       	std	Y+9, r23	; 0x09
    2c50:	68 87       	std	Y+8, r22	; 0x08
    2c52:	5b 87       	std	Y+11, r21	; 0x0b
    2c54:	4a 87       	std	Y+10, r20	; 0x0a
    2c56:	1a 82       	std	Y+2, r1	; 0x02
    2c58:	19 82       	std	Y+1, r1	; 0x01
    2c5a:	20 c0       	rjmp	.+64     	; 0x2c9c <_ZN2ee5tools19EEWriteBlockElementEPKcPhj+0x5e>
    2c5c:	8e 81       	ldd	r24, Y+6	; 0x06
    2c5e:	9f 81       	ldd	r25, Y+7	; 0x07
    2c60:	fc 01       	movw	r30, r24
    2c62:	80 81       	ld	r24, Z
    2c64:	8b 83       	std	Y+3, r24	; 0x03
    2c66:	88 85       	ldd	r24, Y+8	; 0x08
    2c68:	99 85       	ldd	r25, Y+9	; 0x09
    2c6a:	9c 01       	movw	r18, r24
    2c6c:	2f 5f       	subi	r18, 0xFF	; 255
    2c6e:	3f 4f       	sbci	r19, 0xFF	; 255
    2c70:	39 87       	std	Y+9, r19	; 0x09
    2c72:	28 87       	std	Y+8, r18	; 0x08
    2c74:	bc 01       	movw	r22, r24
    2c76:	8f ee       	ldi	r24, 0xEF	; 239
    2c78:	92 e0       	ldi	r25, 0x02	; 2
    2c7a:	94 df       	rcall	.-216    	; 0x2ba4 <_ZN11EEPROMClassixEi>
    2c7c:	9d 83       	std	Y+5, r25	; 0x05
    2c7e:	8c 83       	std	Y+4, r24	; 0x04
    2c80:	ce 01       	movw	r24, r28
    2c82:	04 96       	adiw	r24, 0x04	; 4
    2c84:	6b 81       	ldd	r22, Y+3	; 0x03
    2c86:	73 df       	rcall	.-282    	; 0x2b6e <_ZN5EERef6updateEh>
    2c88:	8e 81       	ldd	r24, Y+6	; 0x06
    2c8a:	9f 81       	ldd	r25, Y+7	; 0x07
    2c8c:	01 97       	sbiw	r24, 0x01	; 1
    2c8e:	9f 83       	std	Y+7, r25	; 0x07
    2c90:	8e 83       	std	Y+6, r24	; 0x06
    2c92:	89 81       	ldd	r24, Y+1	; 0x01
    2c94:	9a 81       	ldd	r25, Y+2	; 0x02
    2c96:	01 96       	adiw	r24, 0x01	; 1
    2c98:	9a 83       	std	Y+2, r25	; 0x02
    2c9a:	89 83       	std	Y+1, r24	; 0x01
    2c9c:	29 81       	ldd	r18, Y+1	; 0x01
    2c9e:	3a 81       	ldd	r19, Y+2	; 0x02
    2ca0:	8a 85       	ldd	r24, Y+10	; 0x0a
    2ca2:	9b 85       	ldd	r25, Y+11	; 0x0b
    2ca4:	28 17       	cp	r18, r24
    2ca6:	39 07       	cpc	r19, r25
    2ca8:	c8 f2       	brcs	.-78     	; 0x2c5c <_ZN2ee5tools19EEWriteBlockElementEPKcPhj+0x1e>
    2caa:	2b 96       	adiw	r28, 0x0b	; 11
    2cac:	e2 e0       	ldi	r30, 0x02	; 2
    2cae:	0c 94 1a 35 	jmp	0x6a34	; 0x6a34 <__epilogue_restores__+0x20>

00002cb2 <_ZN5PrintC1ERKS_>:
    2cb2:	a4 e0       	ldi	r26, 0x04	; 4
    2cb4:	b0 e0       	ldi	r27, 0x00	; 0
    2cb6:	ef e5       	ldi	r30, 0x5F	; 95
    2cb8:	f6 e1       	ldi	r31, 0x16	; 22
    2cba:	0c 94 fe 34 	jmp	0x69fc	; 0x69fc <__prologue_saves__+0x20>
    2cbe:	9a 83       	std	Y+2, r25	; 0x02
    2cc0:	89 83       	std	Y+1, r24	; 0x01
    2cc2:	7c 83       	std	Y+4, r23	; 0x04
    2cc4:	6b 83       	std	Y+3, r22	; 0x03
    2cc6:	89 81       	ldd	r24, Y+1	; 0x01
    2cc8:	9a 81       	ldd	r25, Y+2	; 0x02
    2cca:	26 ed       	ldi	r18, 0xD6	; 214
    2ccc:	31 e0       	ldi	r19, 0x01	; 1
    2cce:	fc 01       	movw	r30, r24
    2cd0:	31 83       	std	Z+1, r19	; 0x01
    2cd2:	20 83       	st	Z, r18
    2cd4:	8b 81       	ldd	r24, Y+3	; 0x03
    2cd6:	9c 81       	ldd	r25, Y+4	; 0x04
    2cd8:	fc 01       	movw	r30, r24
    2cda:	22 81       	ldd	r18, Z+2	; 0x02
    2cdc:	33 81       	ldd	r19, Z+3	; 0x03
    2cde:	89 81       	ldd	r24, Y+1	; 0x01
    2ce0:	9a 81       	ldd	r25, Y+2	; 0x02
    2ce2:	fc 01       	movw	r30, r24
    2ce4:	33 83       	std	Z+3, r19	; 0x03
    2ce6:	22 83       	std	Z+2, r18	; 0x02
    2ce8:	24 96       	adiw	r28, 0x04	; 4
    2cea:	e2 e0       	ldi	r30, 0x02	; 2
    2cec:	0c 94 1a 35 	jmp	0x6a34	; 0x6a34 <__epilogue_restores__+0x20>

00002cf0 <_ZN13LiquidCrystalC1ERKS_>:
    2cf0:	a4 e0       	ldi	r26, 0x04	; 4
    2cf2:	b0 e0       	ldi	r27, 0x00	; 0
    2cf4:	ee e7       	ldi	r30, 0x7E	; 126
    2cf6:	f6 e1       	ldi	r31, 0x16	; 22
    2cf8:	0c 94 fe 34 	jmp	0x69fc	; 0x69fc <__prologue_saves__+0x20>
    2cfc:	9a 83       	std	Y+2, r25	; 0x02
    2cfe:	89 83       	std	Y+1, r24	; 0x01
    2d00:	7c 83       	std	Y+4, r23	; 0x04
    2d02:	6b 83       	std	Y+3, r22	; 0x03
    2d04:	2b 81       	ldd	r18, Y+3	; 0x03
    2d06:	3c 81       	ldd	r19, Y+4	; 0x04
    2d08:	89 81       	ldd	r24, Y+1	; 0x01
    2d0a:	9a 81       	ldd	r25, Y+2	; 0x02
    2d0c:	b9 01       	movw	r22, r18
    2d0e:	d1 df       	rcall	.-94     	; 0x2cb2 <_ZN5PrintC1ERKS_>
    2d10:	89 81       	ldd	r24, Y+1	; 0x01
    2d12:	9a 81       	ldd	r25, Y+2	; 0x02
    2d14:	27 e8       	ldi	r18, 0x87	; 135
    2d16:	31 e0       	ldi	r19, 0x01	; 1
    2d18:	fc 01       	movw	r30, r24
    2d1a:	31 83       	std	Z+1, r19	; 0x01
    2d1c:	20 83       	st	Z, r18
    2d1e:	8b 81       	ldd	r24, Y+3	; 0x03
    2d20:	9c 81       	ldd	r25, Y+4	; 0x04
    2d22:	fc 01       	movw	r30, r24
    2d24:	24 81       	ldd	r18, Z+4	; 0x04
    2d26:	89 81       	ldd	r24, Y+1	; 0x01
    2d28:	9a 81       	ldd	r25, Y+2	; 0x02
    2d2a:	fc 01       	movw	r30, r24
    2d2c:	24 83       	std	Z+4, r18	; 0x04
    2d2e:	8b 81       	ldd	r24, Y+3	; 0x03
    2d30:	9c 81       	ldd	r25, Y+4	; 0x04
    2d32:	fc 01       	movw	r30, r24
    2d34:	25 81       	ldd	r18, Z+5	; 0x05
    2d36:	89 81       	ldd	r24, Y+1	; 0x01
    2d38:	9a 81       	ldd	r25, Y+2	; 0x02
    2d3a:	fc 01       	movw	r30, r24
    2d3c:	25 83       	std	Z+5, r18	; 0x05
    2d3e:	8b 81       	ldd	r24, Y+3	; 0x03
    2d40:	9c 81       	ldd	r25, Y+4	; 0x04
    2d42:	fc 01       	movw	r30, r24
    2d44:	26 81       	ldd	r18, Z+6	; 0x06
    2d46:	89 81       	ldd	r24, Y+1	; 0x01
    2d48:	9a 81       	ldd	r25, Y+2	; 0x02
    2d4a:	fc 01       	movw	r30, r24
    2d4c:	26 83       	std	Z+6, r18	; 0x06
    2d4e:	89 81       	ldd	r24, Y+1	; 0x01
    2d50:	9a 81       	ldd	r25, Y+2	; 0x02
    2d52:	2b 81       	ldd	r18, Y+3	; 0x03
    2d54:	3c 81       	ldd	r19, Y+4	; 0x04
    2d56:	48 e0       	ldi	r20, 0x08	; 8
    2d58:	f9 01       	movw	r30, r18
    2d5a:	37 96       	adiw	r30, 0x07	; 7
    2d5c:	dc 01       	movw	r26, r24
    2d5e:	17 96       	adiw	r26, 0x07	; 7
    2d60:	01 90       	ld	r0, Z+
    2d62:	0d 92       	st	X+, r0
    2d64:	4a 95       	dec	r20
    2d66:	e1 f7       	brne	.-8      	; 0x2d60 <_ZN13LiquidCrystalC1ERKS_+0x70>
    2d68:	8b 81       	ldd	r24, Y+3	; 0x03
    2d6a:	9c 81       	ldd	r25, Y+4	; 0x04
    2d6c:	fc 01       	movw	r30, r24
    2d6e:	27 85       	ldd	r18, Z+15	; 0x0f
    2d70:	89 81       	ldd	r24, Y+1	; 0x01
    2d72:	9a 81       	ldd	r25, Y+2	; 0x02
    2d74:	fc 01       	movw	r30, r24
    2d76:	27 87       	std	Z+15, r18	; 0x0f
    2d78:	8b 81       	ldd	r24, Y+3	; 0x03
    2d7a:	9c 81       	ldd	r25, Y+4	; 0x04
    2d7c:	fc 01       	movw	r30, r24
    2d7e:	20 89       	ldd	r18, Z+16	; 0x10
    2d80:	89 81       	ldd	r24, Y+1	; 0x01
    2d82:	9a 81       	ldd	r25, Y+2	; 0x02
    2d84:	fc 01       	movw	r30, r24
    2d86:	20 8b       	std	Z+16, r18	; 0x10
    2d88:	8b 81       	ldd	r24, Y+3	; 0x03
    2d8a:	9c 81       	ldd	r25, Y+4	; 0x04
    2d8c:	fc 01       	movw	r30, r24
    2d8e:	21 89       	ldd	r18, Z+17	; 0x11
    2d90:	89 81       	ldd	r24, Y+1	; 0x01
    2d92:	9a 81       	ldd	r25, Y+2	; 0x02
    2d94:	fc 01       	movw	r30, r24
    2d96:	21 8b       	std	Z+17, r18	; 0x11
    2d98:	8b 81       	ldd	r24, Y+3	; 0x03
    2d9a:	9c 81       	ldd	r25, Y+4	; 0x04
    2d9c:	fc 01       	movw	r30, r24
    2d9e:	22 89       	ldd	r18, Z+18	; 0x12
    2da0:	89 81       	ldd	r24, Y+1	; 0x01
    2da2:	9a 81       	ldd	r25, Y+2	; 0x02
    2da4:	fc 01       	movw	r30, r24
    2da6:	22 8b       	std	Z+18, r18	; 0x12
    2da8:	8b 81       	ldd	r24, Y+3	; 0x03
    2daa:	9c 81       	ldd	r25, Y+4	; 0x04
    2dac:	fc 01       	movw	r30, r24
    2dae:	23 89       	ldd	r18, Z+19	; 0x13
    2db0:	89 81       	ldd	r24, Y+1	; 0x01
    2db2:	9a 81       	ldd	r25, Y+2	; 0x02
    2db4:	fc 01       	movw	r30, r24
    2db6:	23 8b       	std	Z+19, r18	; 0x13
    2db8:	29 81       	ldd	r18, Y+1	; 0x01
    2dba:	3a 81       	ldd	r19, Y+2	; 0x02
    2dbc:	8b 81       	ldd	r24, Y+3	; 0x03
    2dbe:	9c 81       	ldd	r25, Y+4	; 0x04
    2dc0:	fc 01       	movw	r30, r24
    2dc2:	84 89       	ldd	r24, Z+20	; 0x14
    2dc4:	95 89       	ldd	r25, Z+21	; 0x15
    2dc6:	a6 89       	ldd	r26, Z+22	; 0x16
    2dc8:	b7 89       	ldd	r27, Z+23	; 0x17
    2dca:	f9 01       	movw	r30, r18
    2dcc:	84 8b       	std	Z+20, r24	; 0x14
    2dce:	95 8b       	std	Z+21, r25	; 0x15
    2dd0:	a6 8b       	std	Z+22, r26	; 0x16
    2dd2:	b7 8b       	std	Z+23, r27	; 0x17
    2dd4:	24 96       	adiw	r28, 0x04	; 4
    2dd6:	e2 e0       	ldi	r30, 0x02	; 2
    2dd8:	0c 94 1a 35 	jmp	0x6a34	; 0x6a34 <__epilogue_restores__+0x20>

00002ddc <_ZN7LCDBaseC1ERKS_>:
    2ddc:	a4 e0       	ldi	r26, 0x04	; 4
    2dde:	b0 e0       	ldi	r27, 0x00	; 0
    2de0:	e4 ef       	ldi	r30, 0xF4	; 244
    2de2:	f6 e1       	ldi	r31, 0x16	; 22
    2de4:	0c 94 fe 34 	jmp	0x69fc	; 0x69fc <__prologue_saves__+0x20>
    2de8:	9a 83       	std	Y+2, r25	; 0x02
    2dea:	89 83       	std	Y+1, r24	; 0x01
    2dec:	7c 83       	std	Y+4, r23	; 0x04
    2dee:	6b 83       	std	Y+3, r22	; 0x03
    2df0:	2b 81       	ldd	r18, Y+3	; 0x03
    2df2:	3c 81       	ldd	r19, Y+4	; 0x04
    2df4:	89 81       	ldd	r24, Y+1	; 0x01
    2df6:	9a 81       	ldd	r25, Y+2	; 0x02
    2df8:	b9 01       	movw	r22, r18
    2dfa:	7a df       	rcall	.-268    	; 0x2cf0 <_ZN13LiquidCrystalC1ERKS_>
    2dfc:	89 81       	ldd	r24, Y+1	; 0x01
    2dfe:	9a 81       	ldd	r25, Y+2	; 0x02
    2e00:	25 ea       	ldi	r18, 0xA5	; 165
    2e02:	31 e0       	ldi	r19, 0x01	; 1
    2e04:	fc 01       	movw	r30, r24
    2e06:	31 83       	std	Z+1, r19	; 0x01
    2e08:	20 83       	st	Z, r18
    2e0a:	89 81       	ldd	r24, Y+1	; 0x01
    2e0c:	9a 81       	ldd	r25, Y+2	; 0x02
    2e0e:	2b 81       	ldd	r18, Y+3	; 0x03
    2e10:	3c 81       	ldd	r19, Y+4	; 0x04
    2e12:	4a e0       	ldi	r20, 0x0A	; 10
    2e14:	f9 01       	movw	r30, r18
    2e16:	78 96       	adiw	r30, 0x18	; 24
    2e18:	dc 01       	movw	r26, r24
    2e1a:	58 96       	adiw	r26, 0x18	; 24
    2e1c:	01 90       	ld	r0, Z+
    2e1e:	0d 92       	st	X+, r0
    2e20:	4a 95       	dec	r20
    2e22:	e1 f7       	brne	.-8      	; 0x2e1c <_ZN7LCDBaseC1ERKS_+0x40>
    2e24:	8b 81       	ldd	r24, Y+3	; 0x03
    2e26:	9c 81       	ldd	r25, Y+4	; 0x04
    2e28:	fc 01       	movw	r30, r24
    2e2a:	22 a1       	ldd	r18, Z+34	; 0x22
    2e2c:	33 a1       	ldd	r19, Z+35	; 0x23
    2e2e:	89 81       	ldd	r24, Y+1	; 0x01
    2e30:	9a 81       	ldd	r25, Y+2	; 0x02
    2e32:	fc 01       	movw	r30, r24
    2e34:	33 a3       	std	Z+35, r19	; 0x23
    2e36:	22 a3       	std	Z+34, r18	; 0x22
    2e38:	24 96       	adiw	r28, 0x04	; 4
    2e3a:	e2 e0       	ldi	r30, 0x02	; 2
    2e3c:	0c 94 1a 35 	jmp	0x6a34	; 0x6a34 <__epilogue_restores__+0x20>

00002e40 <_ZN8PHSensorC1Eiib7LCDBasei>:
    2e40:	ac e0       	ldi	r26, 0x0C	; 12
    2e42:	b0 e0       	ldi	r27, 0x00	; 0
    2e44:	e6 e2       	ldi	r30, 0x26	; 38
    2e46:	f7 e1       	ldi	r31, 0x17	; 23
    2e48:	0c 94 fa 34 	jmp	0x69f4	; 0x69f4 <__prologue_saves__+0x18>
    2e4c:	9b 83       	std	Y+3, r25	; 0x03
    2e4e:	8a 83       	std	Y+2, r24	; 0x02
    2e50:	7d 83       	std	Y+5, r23	; 0x05
    2e52:	6c 83       	std	Y+4, r22	; 0x04
    2e54:	5f 83       	std	Y+7, r21	; 0x07
    2e56:	4e 83       	std	Y+6, r20	; 0x06
    2e58:	28 87       	std	Y+8, r18	; 0x08
    2e5a:	1a 87       	std	Y+10, r17	; 0x0a
    2e5c:	09 87       	std	Y+9, r16	; 0x09
    2e5e:	fc 86       	std	Y+12, r15	; 0x0c
    2e60:	eb 86       	std	Y+11, r14	; 0x0b
    2e62:	8a 81       	ldd	r24, Y+2	; 0x02
    2e64:	9b 81       	ldd	r25, Y+3	; 0x03
    2e66:	2c 81       	ldd	r18, Y+4	; 0x04
    2e68:	3d 81       	ldd	r19, Y+5	; 0x05
    2e6a:	fc 01       	movw	r30, r24
    2e6c:	31 83       	std	Z+1, r19	; 0x01
    2e6e:	20 83       	st	Z, r18
    2e70:	8a 81       	ldd	r24, Y+2	; 0x02
    2e72:	9b 81       	ldd	r25, Y+3	; 0x03
    2e74:	fc 01       	movw	r30, r24
    2e76:	17 ae       	std	Z+63, r1	; 0x3f
    2e78:	16 ae       	std	Z+62, r1	; 0x3e
    2e7a:	8a 81       	ldd	r24, Y+2	; 0x02
    2e7c:	9b 81       	ldd	r25, Y+3	; 0x03
    2e7e:	80 5c       	subi	r24, 0xC0	; 192
    2e80:	9f 4f       	sbci	r25, 0xFF	; 255
    2e82:	2e 81       	ldd	r18, Y+6	; 0x06
    2e84:	3f 81       	ldd	r19, Y+7	; 0x07
    2e86:	fc 01       	movw	r30, r24
    2e88:	31 83       	std	Z+1, r19	; 0x01
    2e8a:	20 83       	st	Z, r18
    2e8c:	ce 01       	movw	r24, r28
    2e8e:	01 96       	adiw	r24, 0x01	; 1
    2e90:	0f dc       	rcall	.-2018   	; 0x26b0 <_ZNSaIdEC1Ev>
    2e92:	8a 81       	ldd	r24, Y+2	; 0x02
    2e94:	9b 81       	ldd	r25, Y+3	; 0x03
    2e96:	8e 5b       	subi	r24, 0xBE	; 190
    2e98:	9f 4f       	sbci	r25, 0xFF	; 255
    2e9a:	9e 01       	movw	r18, r28
    2e9c:	2f 5f       	subi	r18, 0xFF	; 255
    2e9e:	3f 4f       	sbci	r19, 0xFF	; 255
    2ea0:	b9 01       	movw	r22, r18
    2ea2:	58 d5       	rcall	.+2736   	; 0x3954 <_ZNSt6vectorIdSaIdEEC1ERKS0_>
    2ea4:	ce 01       	movw	r24, r28
    2ea6:	01 96       	adiw	r24, 0x01	; 1
    2ea8:	0f dc       	rcall	.-2018   	; 0x26c8 <_ZNSaIdED1Ev>
    2eaa:	8a 81       	ldd	r24, Y+2	; 0x02
    2eac:	9b 81       	ldd	r25, Y+3	; 0x03
    2eae:	87 5b       	subi	r24, 0xB7	; 183
    2eb0:	9f 4f       	sbci	r25, 0xFF	; 255
    2eb2:	fc 01       	movw	r30, r24
    2eb4:	11 82       	std	Z+1, r1	; 0x01
    2eb6:	10 82       	st	Z, r1
    2eb8:	8a 81       	ldd	r24, Y+2	; 0x02
    2eba:	9b 81       	ldd	r25, Y+3	; 0x03
    2ebc:	89 5a       	subi	r24, 0xA9	; 169
    2ebe:	9f 4f       	sbci	r25, 0xFF	; 255
    2ec0:	28 85       	ldd	r18, Y+8	; 0x08
    2ec2:	fc 01       	movw	r30, r24
    2ec4:	20 83       	st	Z, r18
    2ec6:	8a 81       	ldd	r24, Y+2	; 0x02
    2ec8:	9b 81       	ldd	r25, Y+3	; 0x03
    2eca:	88 5a       	subi	r24, 0xA8	; 168
    2ecc:	9f 4f       	sbci	r25, 0xFF	; 255
    2ece:	2b 85       	ldd	r18, Y+11	; 0x0b
    2ed0:	3c 85       	ldd	r19, Y+12	; 0x0c
    2ed2:	fc 01       	movw	r30, r24
    2ed4:	31 83       	std	Z+1, r19	; 0x01
    2ed6:	20 83       	st	Z, r18
    2ed8:	8a 81       	ldd	r24, Y+2	; 0x02
    2eda:	9b 81       	ldd	r25, Y+3	; 0x03
    2edc:	85 5a       	subi	r24, 0xA5	; 165
    2ede:	9f 4f       	sbci	r25, 0xFF	; 255
    2ee0:	fc 01       	movw	r30, r24
    2ee2:	11 82       	std	Z+1, r1	; 0x01
    2ee4:	10 82       	st	Z, r1
    2ee6:	8a 81       	ldd	r24, Y+2	; 0x02
    2ee8:	9b 81       	ldd	r25, Y+3	; 0x03
    2eea:	83 5a       	subi	r24, 0xA3	; 163
    2eec:	9f 4f       	sbci	r25, 0xFF	; 255
    2eee:	29 85       	ldd	r18, Y+9	; 0x09
    2ef0:	3a 85       	ldd	r19, Y+10	; 0x0a
    2ef2:	b9 01       	movw	r22, r18
    2ef4:	73 df       	rcall	.-282    	; 0x2ddc <_ZN7LCDBaseC1ERKS_>
    2ef6:	8a 81       	ldd	r24, Y+2	; 0x02
    2ef8:	9b 81       	ldd	r25, Y+3	; 0x03
    2efa:	8f 57       	subi	r24, 0x7F	; 127
    2efc:	9f 4f       	sbci	r25, 0xFF	; 255
    2efe:	6f e1       	ldi	r22, 0x1F	; 31
    2f00:	71 e0       	ldi	r23, 0x01	; 1
    2f02:	0e 94 22 32 	call	0x6444	; 0x6444 <_ZN6StringC1EPKc>
    2f06:	8a 81       	ldd	r24, Y+2	; 0x02
    2f08:	9b 81       	ldd	r25, Y+3	; 0x03
    2f0a:	89 57       	subi	r24, 0x79	; 121
    2f0c:	9f 4f       	sbci	r25, 0xFF	; 255
    2f0e:	6f e1       	ldi	r22, 0x1F	; 31
    2f10:	71 e0       	ldi	r23, 0x01	; 1
    2f12:	0e 94 22 32 	call	0x6444	; 0x6444 <_ZN6StringC1EPKc>
    2f16:	8a 81       	ldd	r24, Y+2	; 0x02
    2f18:	9b 81       	ldd	r25, Y+3	; 0x03
    2f1a:	9c 01       	movw	r18, r24
    2f1c:	23 57       	subi	r18, 0x73	; 115
    2f1e:	3f 4f       	sbci	r19, 0xFF	; 255
    2f20:	80 e0       	ldi	r24, 0x00	; 0
    2f22:	90 e0       	ldi	r25, 0x00	; 0
    2f24:	a0 e4       	ldi	r26, 0x40	; 64
    2f26:	b0 e4       	ldi	r27, 0x40	; 64
    2f28:	f9 01       	movw	r30, r18
    2f2a:	80 83       	st	Z, r24
    2f2c:	91 83       	std	Z+1, r25	; 0x01
    2f2e:	a2 83       	std	Z+2, r26	; 0x02
    2f30:	b3 83       	std	Z+3, r27	; 0x03
    2f32:	8a 81       	ldd	r24, Y+2	; 0x02
    2f34:	9b 81       	ldd	r25, Y+3	; 0x03
    2f36:	04 d0       	rcall	.+8      	; 0x2f40 <_ZN8PHSensor4initEv>
    2f38:	2c 96       	adiw	r28, 0x0c	; 12
    2f3a:	e6 e0       	ldi	r30, 0x06	; 6
    2f3c:	0c 94 16 35 	jmp	0x6a2c	; 0x6a2c <__epilogue_restores__+0x18>

00002f40 <_ZN8PHSensor4initEv>:
    2f40:	a6 e0       	ldi	r26, 0x06	; 6
    2f42:	b0 e0       	ldi	r27, 0x00	; 0
    2f44:	e6 ea       	ldi	r30, 0xA6	; 166
    2f46:	f7 e1       	ldi	r31, 0x17	; 23
    2f48:	0c 94 fe 34 	jmp	0x69fc	; 0x69fc <__prologue_saves__+0x20>
    2f4c:	9e 83       	std	Y+6, r25	; 0x06
    2f4e:	8d 83       	std	Y+5, r24	; 0x05
    2f50:	61 e0       	ldi	r22, 0x01	; 1
    2f52:	8d e0       	ldi	r24, 0x0D	; 13
    2f54:	0e 94 28 31 	call	0x6250	; 0x6250 <pinMode>
    2f58:	8d 81       	ldd	r24, Y+5	; 0x05
    2f5a:	9e 81       	ldd	r25, Y+6	; 0x06
    2f5c:	88 5a       	subi	r24, 0xA8	; 168
    2f5e:	9f 4f       	sbci	r25, 0xFF	; 255
    2f60:	fc 01       	movw	r30, r24
    2f62:	80 81       	ld	r24, Z
    2f64:	91 81       	ldd	r25, Z+1	; 0x01
    2f66:	61 e0       	ldi	r22, 0x01	; 1
    2f68:	0e 94 28 31 	call	0x6250	; 0x6250 <pinMode>
    2f6c:	80 91 a9 01 	lds	r24, 0x01A9	; 0x8001a9 <_ZN6Memory13TheSensorsMemE>
    2f70:	90 91 aa 01 	lds	r25, 0x01AA	; 0x8001aa <_ZN6Memory13TheSensorsMemE+0x1>
    2f74:	21 d5       	rcall	.+2626   	; 0x39b8 <_ZN6EEWrapIfEcvKfEv>
    2f76:	dc 01       	movw	r26, r24
    2f78:	cb 01       	movw	r24, r22
    2f7a:	89 83       	std	Y+1, r24	; 0x01
    2f7c:	9a 83       	std	Y+2, r25	; 0x02
    2f7e:	ab 83       	std	Y+3, r26	; 0x03
    2f80:	bc 83       	std	Y+4, r27	; 0x04
    2f82:	29 81       	ldd	r18, Y+1	; 0x01
    2f84:	3a 81       	ldd	r19, Y+2	; 0x02
    2f86:	4b 81       	ldd	r20, Y+3	; 0x03
    2f88:	5c 81       	ldd	r21, Y+4	; 0x04
    2f8a:	69 81       	ldd	r22, Y+1	; 0x01
    2f8c:	7a 81       	ldd	r23, Y+2	; 0x02
    2f8e:	8b 81       	ldd	r24, Y+3	; 0x03
    2f90:	9c 81       	ldd	r25, Y+4	; 0x04
    2f92:	0e 94 d5 2b 	call	0x57aa	; 0x57aa <__unordsf2>
    2f96:	88 23       	and	r24, r24
    2f98:	71 f4       	brne	.+28     	; 0x2fb6 <_ZN8PHSensor4initEv+0x76>
    2f9a:	8d 81       	ldd	r24, Y+5	; 0x05
    2f9c:	9e 81       	ldd	r25, Y+6	; 0x06
    2f9e:	9c 01       	movw	r18, r24
    2fa0:	23 57       	subi	r18, 0x73	; 115
    2fa2:	3f 4f       	sbci	r19, 0xFF	; 255
    2fa4:	89 81       	ldd	r24, Y+1	; 0x01
    2fa6:	9a 81       	ldd	r25, Y+2	; 0x02
    2fa8:	ab 81       	ldd	r26, Y+3	; 0x03
    2faa:	bc 81       	ldd	r27, Y+4	; 0x04
    2fac:	f9 01       	movw	r30, r18
    2fae:	80 83       	st	Z, r24
    2fb0:	91 83       	std	Z+1, r25	; 0x01
    2fb2:	a2 83       	std	Z+2, r26	; 0x02
    2fb4:	b3 83       	std	Z+3, r27	; 0x03
    2fb6:	26 96       	adiw	r28, 0x06	; 6
    2fb8:	e2 e0       	ldi	r30, 0x02	; 2
    2fba:	0c 94 1a 35 	jmp	0x6a34	; 0x6a34 <__epilogue_restores__+0x20>

00002fbe <_ZN8PHSensor6UpdateEd>:
    2fbe:	aa e0       	ldi	r26, 0x0A	; 10
    2fc0:	b0 e0       	ldi	r27, 0x00	; 0
    2fc2:	e5 ee       	ldi	r30, 0xE5	; 229
    2fc4:	f7 e1       	ldi	r31, 0x17	; 23
    2fc6:	0c 94 fe 34 	jmp	0x69fc	; 0x69fc <__prologue_saves__+0x20>
    2fca:	9e 83       	std	Y+6, r25	; 0x06
    2fcc:	8d 83       	std	Y+5, r24	; 0x05
    2fce:	4f 83       	std	Y+7, r20	; 0x07
    2fd0:	58 87       	std	Y+8, r21	; 0x08
    2fd2:	69 87       	std	Y+9, r22	; 0x09
    2fd4:	7a 87       	std	Y+10, r23	; 0x0a
    2fd6:	8d 81       	ldd	r24, Y+5	; 0x05
    2fd8:	9e 81       	ldd	r25, Y+6	; 0x06
    2fda:	9c 01       	movw	r18, r24
    2fdc:	23 57       	subi	r18, 0x73	; 115
    2fde:	3f 4f       	sbci	r19, 0xFF	; 255
    2fe0:	8f 81       	ldd	r24, Y+7	; 0x07
    2fe2:	98 85       	ldd	r25, Y+8	; 0x08
    2fe4:	a9 85       	ldd	r26, Y+9	; 0x09
    2fe6:	ba 85       	ldd	r27, Y+10	; 0x0a
    2fe8:	f9 01       	movw	r30, r18
    2fea:	80 83       	st	Z, r24
    2fec:	91 83       	std	Z+1, r25	; 0x01
    2fee:	a2 83       	std	Z+2, r26	; 0x02
    2ff0:	b3 83       	std	Z+3, r27	; 0x03
    2ff2:	8d 81       	ldd	r24, Y+5	; 0x05
    2ff4:	9e 81       	ldd	r25, Y+6	; 0x06
    2ff6:	83 57       	subi	r24, 0x73	; 115
    2ff8:	9f 4f       	sbci	r25, 0xFF	; 255
    2ffa:	fc 01       	movw	r30, r24
    2ffc:	80 81       	ld	r24, Z
    2ffe:	91 81       	ldd	r25, Z+1	; 0x01
    3000:	a2 81       	ldd	r26, Z+2	; 0x02
    3002:	b3 81       	ldd	r27, Z+3	; 0x03
    3004:	89 83       	std	Y+1, r24	; 0x01
    3006:	9a 83       	std	Y+2, r25	; 0x02
    3008:	ab 83       	std	Y+3, r26	; 0x03
    300a:	bc 83       	std	Y+4, r27	; 0x04
    300c:	80 91 a9 01 	lds	r24, 0x01A9	; 0x8001a9 <_ZN6Memory13TheSensorsMemE>
    3010:	90 91 aa 01 	lds	r25, 0x01AA	; 0x8001aa <_ZN6Memory13TheSensorsMemE+0x1>
    3014:	9c 01       	movw	r18, r24
    3016:	ce 01       	movw	r24, r28
    3018:	01 96       	adiw	r24, 0x01	; 1
    301a:	bc 01       	movw	r22, r24
    301c:	c9 01       	movw	r24, r18
    301e:	df d4       	rcall	.+2494   	; 0x39de <_ZN6EEWrapIfEaSERKf>
    3020:	2a 96       	adiw	r28, 0x0a	; 10
    3022:	e2 e0       	ldi	r30, 0x02	; 2
    3024:	0c 94 1a 35 	jmp	0x6a34	; 0x6a34 <__epilogue_restores__+0x20>

00003028 <_ZN8PHSensor5GetPHEv>:
    3028:	ae e0       	ldi	r26, 0x0E	; 14
    302a:	b0 e0       	ldi	r27, 0x00	; 0
    302c:	ea e1       	ldi	r30, 0x1A	; 26
    302e:	f8 e1       	ldi	r31, 0x18	; 24
    3030:	0c 94 fe 34 	jmp	0x69fc	; 0x69fc <__prologue_saves__+0x20>
    3034:	9e 87       	std	Y+14, r25	; 0x0e
    3036:	8d 87       	std	Y+13, r24	; 0x0d
    3038:	8d 85       	ldd	r24, Y+13	; 0x0d
    303a:	9e 85       	ldd	r25, Y+14	; 0x0e
    303c:	85 5b       	subi	r24, 0xB5	; 181
    303e:	9f 4f       	sbci	r25, 0xFF	; 255
    3040:	fc 01       	movw	r30, r24
    3042:	80 81       	ld	r24, Z
    3044:	91 81       	ldd	r25, Z+1	; 0x01
    3046:	a2 81       	ldd	r26, Z+2	; 0x02
    3048:	b3 81       	ldd	r27, Z+3	; 0x03
    304a:	fe 01       	movw	r30, r28
    304c:	37 96       	adiw	r30, 0x07	; 7
    304e:	22 e0       	ldi	r18, 0x02	; 2
    3050:	ac 01       	movw	r20, r24
    3052:	bd 01       	movw	r22, r26
    3054:	cf 01       	movw	r24, r30
    3056:	0e 94 bd 32 	call	0x657a	; 0x657a <_ZN6StringC1Efh>
    305a:	ce 01       	movw	r24, r28
    305c:	07 96       	adiw	r24, 0x07	; 7
    305e:	13 dd       	rcall	.-1498   	; 0x2a86 <_ZNK6String5c_strEv>
    3060:	9c 01       	movw	r18, r24
    3062:	8d 85       	ldd	r24, Y+13	; 0x0d
    3064:	9e 85       	ldd	r25, Y+14	; 0x0e
    3066:	8f 57       	subi	r24, 0x7F	; 127
    3068:	9f 4f       	sbci	r25, 0xFF	; 255
    306a:	b9 01       	movw	r22, r18
    306c:	0e 94 53 32 	call	0x64a6	; 0x64a6 <_ZN6StringaSEPKc>
    3070:	ce 01       	movw	r24, r28
    3072:	07 96       	adiw	r24, 0x07	; 7
    3074:	0e 94 bb 31 	call	0x6376	; 0x6376 <_ZN6StringD1Ev>
    3078:	8d 85       	ldd	r24, Y+13	; 0x0d
    307a:	9e 85       	ldd	r25, Y+14	; 0x0e
    307c:	81 5b       	subi	r24, 0xB1	; 177
    307e:	9f 4f       	sbci	r25, 0xFF	; 255
    3080:	fc 01       	movw	r30, r24
    3082:	80 81       	ld	r24, Z
    3084:	91 81       	ldd	r25, Z+1	; 0x01
    3086:	a2 81       	ldd	r26, Z+2	; 0x02
    3088:	b3 81       	ldd	r27, Z+3	; 0x03
    308a:	22 e0       	ldi	r18, 0x02	; 2
    308c:	ac 01       	movw	r20, r24
    308e:	bd 01       	movw	r22, r26
    3090:	ce 01       	movw	r24, r28
    3092:	01 96       	adiw	r24, 0x01	; 1
    3094:	0e 94 bd 32 	call	0x657a	; 0x657a <_ZN6StringC1Efh>
    3098:	ce 01       	movw	r24, r28
    309a:	01 96       	adiw	r24, 0x01	; 1
    309c:	f4 dc       	rcall	.-1560   	; 0x2a86 <_ZNK6String5c_strEv>
    309e:	9c 01       	movw	r18, r24
    30a0:	8d 85       	ldd	r24, Y+13	; 0x0d
    30a2:	9e 85       	ldd	r25, Y+14	; 0x0e
    30a4:	89 57       	subi	r24, 0x79	; 121
    30a6:	9f 4f       	sbci	r25, 0xFF	; 255
    30a8:	b9 01       	movw	r22, r18
    30aa:	0e 94 53 32 	call	0x64a6	; 0x64a6 <_ZN6StringaSEPKc>
    30ae:	ce 01       	movw	r24, r28
    30b0:	01 96       	adiw	r24, 0x01	; 1
    30b2:	0e 94 bb 31 	call	0x6376	; 0x6376 <_ZN6StringD1Ev>
    30b6:	8d 85       	ldd	r24, Y+13	; 0x0d
    30b8:	9e 85       	ldd	r25, Y+14	; 0x0e
    30ba:	85 5b       	subi	r24, 0xB5	; 181
    30bc:	9f 4f       	sbci	r25, 0xFF	; 255
    30be:	fc 01       	movw	r30, r24
    30c0:	80 81       	ld	r24, Z
    30c2:	91 81       	ldd	r25, Z+1	; 0x01
    30c4:	a2 81       	ldd	r26, Z+2	; 0x02
    30c6:	b3 81       	ldd	r27, Z+3	; 0x03
    30c8:	bc 01       	movw	r22, r24
    30ca:	cd 01       	movw	r24, r26
    30cc:	2e 96       	adiw	r28, 0x0e	; 14
    30ce:	e2 e0       	ldi	r30, 0x02	; 2
    30d0:	0c 94 1a 35 	jmp	0x6a34	; 0x6a34 <__epilogue_restores__+0x20>

000030d4 <_ZN8PHSensor11CalculatePHEv>:
    30d4:	ac e2       	ldi	r26, 0x2C	; 44
    30d6:	b0 e0       	ldi	r27, 0x00	; 0
    30d8:	e0 e7       	ldi	r30, 0x70	; 112
    30da:	f8 e1       	ldi	r31, 0x18	; 24
    30dc:	0c 94 fa 34 	jmp	0x69f4	; 0x69f4 <__prologue_saves__+0x18>
    30e0:	9c a7       	std	Y+44, r25	; 0x2c
    30e2:	8b a7       	std	Y+43, r24	; 0x2b
    30e4:	8b a5       	ldd	r24, Y+43	; 0x2b
    30e6:	9c a5       	ldd	r25, Y+44	; 0x2c
    30e8:	86 5a       	subi	r24, 0xA6	; 166
    30ea:	9f 4f       	sbci	r25, 0xFF	; 255
    30ec:	fc 01       	movw	r30, r24
    30ee:	90 81       	ld	r25, Z
    30f0:	81 e0       	ldi	r24, 0x01	; 1
    30f2:	89 27       	eor	r24, r25
    30f4:	88 23       	and	r24, r24
    30f6:	09 f0       	breq	.+2      	; 0x30fa <_ZN8PHSensor11CalculatePHEv+0x26>
    30f8:	a4 c1       	rjmp	.+840    	; 0x3442 <_ZN8PHSensor11CalculatePHEv+0x36e>
    30fa:	8b a5       	ldd	r24, Y+43	; 0x2b
    30fc:	9c a5       	ldd	r25, Y+44	; 0x2c
    30fe:	a5 d1       	rcall	.+842    	; 0x344a <_ZN8PHSensor10getPHValueEv>
    3100:	dc 01       	movw	r26, r24
    3102:	cb 01       	movw	r24, r22
    3104:	2b a5       	ldd	r18, Y+43	; 0x2b
    3106:	3c a5       	ldd	r19, Y+44	; 0x2c
    3108:	25 5b       	subi	r18, 0xB5	; 181
    310a:	3f 4f       	sbci	r19, 0xFF	; 255
    310c:	f9 01       	movw	r30, r18
    310e:	80 83       	st	Z, r24
    3110:	91 83       	std	Z+1, r25	; 0x01
    3112:	a2 83       	std	Z+2, r26	; 0x02
    3114:	b3 83       	std	Z+3, r27	; 0x03
    3116:	80 ef       	ldi	r24, 0xF0	; 240
    3118:	92 e0       	ldi	r25, 0x02	; 2
    311a:	fc 01       	movw	r30, r24
    311c:	80 81       	ld	r24, Z
    311e:	88 23       	and	r24, r24
    3120:	89 f4       	brne	.+34     	; 0x3144 <_ZN8PHSensor11CalculatePHEv+0x70>
    3122:	0e 94 32 30 	call	0x6064	; 0x6064 <millis>
    3126:	dc 01       	movw	r26, r24
    3128:	cb 01       	movw	r24, r22
    312a:	80 93 08 03 	sts	0x0308, r24	; 0x800308 <_ZZN8PHSensor11CalculatePHEvE12samplingTime>
    312e:	90 93 09 03 	sts	0x0309, r25	; 0x800309 <_ZZN8PHSensor11CalculatePHEvE12samplingTime+0x1>
    3132:	a0 93 0a 03 	sts	0x030A, r26	; 0x80030a <_ZZN8PHSensor11CalculatePHEvE12samplingTime+0x2>
    3136:	b0 93 0b 03 	sts	0x030B, r27	; 0x80030b <_ZZN8PHSensor11CalculatePHEvE12samplingTime+0x3>
    313a:	80 ef       	ldi	r24, 0xF0	; 240
    313c:	92 e0       	ldi	r25, 0x02	; 2
    313e:	21 e0       	ldi	r18, 0x01	; 1
    3140:	fc 01       	movw	r30, r24
    3142:	20 83       	st	Z, r18
    3144:	0e 94 32 30 	call	0x6064	; 0x6064 <millis>
    3148:	9b 01       	movw	r18, r22
    314a:	ac 01       	movw	r20, r24
    314c:	80 91 08 03 	lds	r24, 0x0308	; 0x800308 <_ZZN8PHSensor11CalculatePHEvE12samplingTime>
    3150:	90 91 09 03 	lds	r25, 0x0309	; 0x800309 <_ZZN8PHSensor11CalculatePHEvE12samplingTime+0x1>
    3154:	a0 91 0a 03 	lds	r26, 0x030A	; 0x80030a <_ZZN8PHSensor11CalculatePHEvE12samplingTime+0x2>
    3158:	b0 91 0b 03 	lds	r27, 0x030B	; 0x80030b <_ZZN8PHSensor11CalculatePHEvE12samplingTime+0x3>
    315c:	79 01       	movw	r14, r18
    315e:	8a 01       	movw	r16, r20
    3160:	e8 1a       	sub	r14, r24
    3162:	f9 0a       	sbc	r15, r25
    3164:	0a 0b       	sbc	r16, r26
    3166:	1b 0b       	sbc	r17, r27
    3168:	d8 01       	movw	r26, r16
    316a:	c7 01       	movw	r24, r14
    316c:	21 e0       	ldi	r18, 0x01	; 1
    316e:	81 36       	cpi	r24, 0x61	; 97
    3170:	9a 4e       	sbci	r25, 0xEA	; 234
    3172:	a1 05       	cpc	r26, r1
    3174:	b1 05       	cpc	r27, r1
    3176:	08 f4       	brcc	.+2      	; 0x317a <_ZN8PHSensor11CalculatePHEv+0xa6>
    3178:	20 e0       	ldi	r18, 0x00	; 0
    317a:	22 23       	and	r18, r18
    317c:	09 f4       	brne	.+2      	; 0x3180 <_ZN8PHSensor11CalculatePHEv+0xac>
    317e:	61 c1       	rjmp	.+706    	; 0x3442 <_ZN8PHSensor11CalculatePHEv+0x36e>
    3180:	19 82       	std	Y+1, r1	; 0x01
    3182:	1a 82       	std	Y+2, r1	; 0x02
    3184:	1b 82       	std	Y+3, r1	; 0x03
    3186:	1c 82       	std	Y+4, r1	; 0x04
    3188:	8b a5       	ldd	r24, Y+43	; 0x2b
    318a:	9c a5       	ldd	r25, Y+44	; 0x2c
    318c:	8e 5b       	subi	r24, 0xBE	; 190
    318e:	9f 4f       	sbci	r25, 0xFF	; 255
    3190:	7e da       	rcall	.-2820   	; 0x268e <_ZNKSt6vectorIdSaIdEE4sizeEv>
    3192:	21 e0       	ldi	r18, 0x01	; 1
    3194:	05 97       	sbiw	r24, 0x05	; 5
    3196:	08 f0       	brcs	.+2      	; 0x319a <_ZN8PHSensor11CalculatePHEv+0xc6>
    3198:	20 e0       	ldi	r18, 0x00	; 0
    319a:	22 23       	and	r18, r18
    319c:	d1 f1       	breq	.+116    	; 0x3212 <_ZN8PHSensor11CalculatePHEv+0x13e>
    319e:	8b a5       	ldd	r24, Y+43	; 0x2b
    31a0:	9c a5       	ldd	r25, Y+44	; 0x2c
    31a2:	85 5b       	subi	r24, 0xB5	; 181
    31a4:	9f 4f       	sbci	r25, 0xFF	; 255
    31a6:	fc 01       	movw	r30, r24
    31a8:	80 81       	ld	r24, Z
    31aa:	91 81       	ldd	r25, Z+1	; 0x01
    31ac:	a2 81       	ldd	r26, Z+2	; 0x02
    31ae:	b3 81       	ldd	r27, Z+3	; 0x03
    31b0:	8b a3       	std	Y+35, r24	; 0x23
    31b2:	9c a3       	std	Y+36, r25	; 0x24
    31b4:	ad a3       	std	Y+37, r26	; 0x25
    31b6:	be a3       	std	Y+38, r27	; 0x26
    31b8:	8b a5       	ldd	r24, Y+43	; 0x2b
    31ba:	9c a5       	ldd	r25, Y+44	; 0x2c
    31bc:	8e 5b       	subi	r24, 0xBE	; 190
    31be:	9f 4f       	sbci	r25, 0xFF	; 255
    31c0:	9e 01       	movw	r18, r28
    31c2:	2d 5d       	subi	r18, 0xDD	; 221
    31c4:	3f 4f       	sbci	r19, 0xFF	; 255
    31c6:	b9 01       	movw	r22, r18
    31c8:	1e d4       	rcall	.+2108   	; 0x3a06 <_ZNSt6vectorIdSaIdEE9push_backERKd>
    31ca:	8b a5       	ldd	r24, Y+43	; 0x2b
    31cc:	9c a5       	ldd	r25, Y+44	; 0x2c
    31ce:	9c 01       	movw	r18, r24
    31d0:	2e 5b       	subi	r18, 0xBE	; 190
    31d2:	3f 4f       	sbci	r19, 0xFF	; 255
    31d4:	ce 01       	movw	r24, r28
    31d6:	4c 96       	adiw	r24, 0x1c	; 28
    31d8:	b9 01       	movw	r22, r18
    31da:	31 d4       	rcall	.+2146   	; 0x3a3e <_ZNSt6vectorIdSaIdEEC1ERKS1_>
    31dc:	ce 01       	movw	r24, r28
    31de:	4c 96       	adiw	r24, 0x1c	; 28
    31e0:	51 d8       	rcall	.-3934   	; 0x2284 <_ZN7MathExt10GetAverageESt6vectorIdSaIdEE>
    31e2:	dc 01       	movw	r26, r24
    31e4:	cb 01       	movw	r24, r22
    31e6:	89 83       	std	Y+1, r24	; 0x01
    31e8:	9a 83       	std	Y+2, r25	; 0x02
    31ea:	ab 83       	std	Y+3, r26	; 0x03
    31ec:	bc 83       	std	Y+4, r27	; 0x04
    31ee:	ce 01       	movw	r24, r28
    31f0:	4c 96       	adiw	r24, 0x1c	; 28
    31f2:	76 da       	rcall	.-2836   	; 0x26e0 <_ZNSt6vectorIdSaIdEED1Ev>
    31f4:	8b a5       	ldd	r24, Y+43	; 0x2b
    31f6:	9c a5       	ldd	r25, Y+44	; 0x2c
    31f8:	9c 01       	movw	r18, r24
    31fa:	21 5b       	subi	r18, 0xB1	; 177
    31fc:	3f 4f       	sbci	r19, 0xFF	; 255
    31fe:	89 81       	ldd	r24, Y+1	; 0x01
    3200:	9a 81       	ldd	r25, Y+2	; 0x02
    3202:	ab 81       	ldd	r26, Y+3	; 0x03
    3204:	bc 81       	ldd	r27, Y+4	; 0x04
    3206:	f9 01       	movw	r30, r18
    3208:	80 83       	st	Z, r24
    320a:	91 83       	std	Z+1, r25	; 0x01
    320c:	a2 83       	std	Z+2, r26	; 0x02
    320e:	b3 83       	std	Z+3, r27	; 0x03
    3210:	18 c1       	rjmp	.+560    	; 0x3442 <_ZN8PHSensor11CalculatePHEv+0x36e>
    3212:	8b a5       	ldd	r24, Y+43	; 0x2b
    3214:	9c a5       	ldd	r25, Y+44	; 0x2c
    3216:	9c 01       	movw	r18, r24
    3218:	2e 5b       	subi	r18, 0xBE	; 190
    321a:	3f 4f       	sbci	r19, 0xFF	; 255
    321c:	ce 01       	movw	r24, r28
    321e:	45 96       	adiw	r24, 0x15	; 21
    3220:	b9 01       	movw	r22, r18
    3222:	0d d4       	rcall	.+2074   	; 0x3a3e <_ZNSt6vectorIdSaIdEEC1ERKS1_>
    3224:	ce 01       	movw	r24, r28
    3226:	45 96       	adiw	r24, 0x15	; 21
    3228:	2d d8       	rcall	.-4006   	; 0x2284 <_ZN7MathExt10GetAverageESt6vectorIdSaIdEE>
    322a:	dc 01       	movw	r26, r24
    322c:	cb 01       	movw	r24, r22
    322e:	89 83       	std	Y+1, r24	; 0x01
    3230:	9a 83       	std	Y+2, r25	; 0x02
    3232:	ab 83       	std	Y+3, r26	; 0x03
    3234:	bc 83       	std	Y+4, r27	; 0x04
    3236:	ce 01       	movw	r24, r28
    3238:	45 96       	adiw	r24, 0x15	; 21
    323a:	52 da       	rcall	.-2908   	; 0x26e0 <_ZNSt6vectorIdSaIdEED1Ev>
    323c:	8b a5       	ldd	r24, Y+43	; 0x2b
    323e:	9c a5       	ldd	r25, Y+44	; 0x2c
    3240:	85 5b       	subi	r24, 0xB5	; 181
    3242:	9f 4f       	sbci	r25, 0xFF	; 255
    3244:	fc 01       	movw	r30, r24
    3246:	80 81       	ld	r24, Z
    3248:	91 81       	ldd	r25, Z+1	; 0x01
    324a:	a2 81       	ldd	r26, Z+2	; 0x02
    324c:	b3 81       	ldd	r27, Z+3	; 0x03
    324e:	29 81       	ldd	r18, Y+1	; 0x01
    3250:	3a 81       	ldd	r19, Y+2	; 0x02
    3252:	4b 81       	ldd	r20, Y+3	; 0x03
    3254:	5c 81       	ldd	r21, Y+4	; 0x04
    3256:	bc 01       	movw	r22, r24
    3258:	cd 01       	movw	r24, r26
    325a:	0e 94 bb 29 	call	0x5376	; 0x5376 <__addsf3>
    325e:	dc 01       	movw	r26, r24
    3260:	cb 01       	movw	r24, r22
    3262:	20 e0       	ldi	r18, 0x00	; 0
    3264:	30 e0       	ldi	r19, 0x00	; 0
    3266:	40 e0       	ldi	r20, 0x00	; 0
    3268:	50 e4       	ldi	r21, 0x40	; 64
    326a:	bc 01       	movw	r22, r24
    326c:	cd 01       	movw	r24, r26
    326e:	0e 94 23 2a 	call	0x5446	; 0x5446 <__divsf3>
    3272:	dc 01       	movw	r26, r24
    3274:	cb 01       	movw	r24, r22
    3276:	8f a3       	std	Y+39, r24	; 0x27
    3278:	98 a7       	std	Y+40, r25	; 0x28
    327a:	a9 a7       	std	Y+41, r26	; 0x29
    327c:	ba a7       	std	Y+42, r27	; 0x2a
    327e:	2f a1       	ldd	r18, Y+39	; 0x27
    3280:	38 a5       	ldd	r19, Y+40	; 0x28
    3282:	49 a5       	ldd	r20, Y+41	; 0x29
    3284:	5a a5       	ldd	r21, Y+42	; 0x2a
    3286:	8b a5       	ldd	r24, Y+43	; 0x2b
    3288:	9c a5       	ldd	r25, Y+44	; 0x2c
    328a:	85 5b       	subi	r24, 0xB5	; 181
    328c:	9f 4f       	sbci	r25, 0xFF	; 255
    328e:	fc 01       	movw	r30, r24
    3290:	80 81       	ld	r24, Z
    3292:	91 81       	ldd	r25, Z+1	; 0x01
    3294:	a2 81       	ldd	r26, Z+2	; 0x02
    3296:	b3 81       	ldd	r27, Z+3	; 0x03
    3298:	eb a5       	ldd	r30, Y+43	; 0x2b
    329a:	fc a5       	ldd	r31, Y+44	; 0x2c
    329c:	89 01       	movw	r16, r18
    329e:	9a 01       	movw	r18, r20
    32a0:	ac 01       	movw	r20, r24
    32a2:	bd 01       	movw	r22, r26
    32a4:	cf 01       	movw	r24, r30
    32a6:	fd d2       	rcall	.+1530   	; 0x38a2 <_ZN8PHSensor9isOutlierEdd>
    32a8:	8d 83       	std	Y+5, r24	; 0x05
    32aa:	8d 81       	ldd	r24, Y+5	; 0x05
    32ac:	88 23       	and	r24, r24
    32ae:	d9 f0       	breq	.+54     	; 0x32e6 <_ZN8PHSensor11CalculatePHEv+0x212>
    32b0:	8b a5       	ldd	r24, Y+43	; 0x2b
    32b2:	9c a5       	ldd	r25, Y+44	; 0x2c
    32b4:	85 5a       	subi	r24, 0xA5	; 165
    32b6:	9f 4f       	sbci	r25, 0xFF	; 255
    32b8:	fc 01       	movw	r30, r24
    32ba:	80 81       	ld	r24, Z
    32bc:	91 81       	ldd	r25, Z+1	; 0x01
    32be:	0a 97       	sbiw	r24, 0x0a	; 10
    32c0:	94 f4       	brge	.+36     	; 0x32e6 <_ZN8PHSensor11CalculatePHEv+0x212>
    32c2:	8b a5       	ldd	r24, Y+43	; 0x2b
    32c4:	9c a5       	ldd	r25, Y+44	; 0x2c
    32c6:	85 5a       	subi	r24, 0xA5	; 165
    32c8:	9f 4f       	sbci	r25, 0xFF	; 255
    32ca:	fc 01       	movw	r30, r24
    32cc:	80 81       	ld	r24, Z
    32ce:	91 81       	ldd	r25, Z+1	; 0x01
    32d0:	9c 01       	movw	r18, r24
    32d2:	2f 5f       	subi	r18, 0xFF	; 255
    32d4:	3f 4f       	sbci	r19, 0xFF	; 255
    32d6:	8b a5       	ldd	r24, Y+43	; 0x2b
    32d8:	9c a5       	ldd	r25, Y+44	; 0x2c
    32da:	85 5a       	subi	r24, 0xA5	; 165
    32dc:	9f 4f       	sbci	r25, 0xFF	; 255
    32de:	fc 01       	movw	r30, r24
    32e0:	31 83       	std	Z+1, r19	; 0x01
    32e2:	20 83       	st	Z, r18
    32e4:	ae c0       	rjmp	.+348    	; 0x3442 <_ZN8PHSensor11CalculatePHEv+0x36e>
    32e6:	8b a5       	ldd	r24, Y+43	; 0x2b
    32e8:	9c a5       	ldd	r25, Y+44	; 0x2c
    32ea:	85 5a       	subi	r24, 0xA5	; 165
    32ec:	9f 4f       	sbci	r25, 0xFF	; 255
    32ee:	fc 01       	movw	r30, r24
    32f0:	11 82       	std	Z+1, r1	; 0x01
    32f2:	10 82       	st	Z, r1
    32f4:	8f e0       	ldi	r24, 0x0F	; 15
    32f6:	90 e0       	ldi	r25, 0x00	; 0
    32f8:	9f 83       	std	Y+7, r25	; 0x07
    32fa:	8e 83       	std	Y+6, r24	; 0x06
    32fc:	8b a5       	ldd	r24, Y+43	; 0x2b
    32fe:	9c a5       	ldd	r25, Y+44	; 0x2c
    3300:	8e 5b       	subi	r24, 0xBE	; 190
    3302:	9f 4f       	sbci	r25, 0xFF	; 255
    3304:	c4 d9       	rcall	.-3192   	; 0x268e <_ZNKSt6vectorIdSaIdEE4sizeEv>
    3306:	99 87       	std	Y+9, r25	; 0x09
    3308:	88 87       	std	Y+8, r24	; 0x08
    330a:	28 85       	ldd	r18, Y+8	; 0x08
    330c:	39 85       	ldd	r19, Y+9	; 0x09
    330e:	8e 81       	ldd	r24, Y+6	; 0x06
    3310:	9f 81       	ldd	r25, Y+7	; 0x07
    3312:	28 17       	cp	r18, r24
    3314:	39 07       	cpc	r19, r25
    3316:	ec f4       	brge	.+58     	; 0x3352 <_ZN8PHSensor11CalculatePHEv+0x27e>
    3318:	8a ec       	ldi	r24, 0xCA	; 202
    331a:	93 e0       	ldi	r25, 0x03	; 3
    331c:	bc 01       	movw	r22, r24
    331e:	86 e8       	ldi	r24, 0x86	; 134
    3320:	95 e0       	ldi	r25, 0x05	; 5
    3322:	0e 94 dc 2d 	call	0x5bb8	; 0x5bb8 <_ZN5Print5printEPK19__FlashStringHelper>
    3326:	8f a1       	ldd	r24, Y+39	; 0x27
    3328:	98 a5       	ldd	r25, Y+40	; 0x28
    332a:	a9 a5       	ldd	r26, Y+41	; 0x29
    332c:	ba a5       	ldd	r27, Y+42	; 0x2a
    332e:	22 e0       	ldi	r18, 0x02	; 2
    3330:	30 e0       	ldi	r19, 0x00	; 0
    3332:	ac 01       	movw	r20, r24
    3334:	bd 01       	movw	r22, r26
    3336:	86 e8       	ldi	r24, 0x86	; 134
    3338:	95 e0       	ldi	r25, 0x05	; 5
    333a:	0e 94 d8 2f 	call	0x5fb0	; 0x5fb0 <_ZN5Print7printlnEdi>
    333e:	8b a5       	ldd	r24, Y+43	; 0x2b
    3340:	9c a5       	ldd	r25, Y+44	; 0x2c
    3342:	8e 5b       	subi	r24, 0xBE	; 190
    3344:	9f 4f       	sbci	r25, 0xFF	; 255
    3346:	9e 01       	movw	r18, r28
    3348:	29 5d       	subi	r18, 0xD9	; 217
    334a:	3f 4f       	sbci	r19, 0xFF	; 255
    334c:	b9 01       	movw	r22, r18
    334e:	5b d3       	rcall	.+1718   	; 0x3a06 <_ZNSt6vectorIdSaIdEE9push_backERKd>
    3350:	35 c0       	rjmp	.+106    	; 0x33bc <_ZN8PHSensor11CalculatePHEv+0x2e8>
    3352:	89 ed       	ldi	r24, 0xD9	; 217
    3354:	93 e0       	ldi	r25, 0x03	; 3
    3356:	bc 01       	movw	r22, r24
    3358:	86 e8       	ldi	r24, 0x86	; 134
    335a:	95 e0       	ldi	r25, 0x05	; 5
    335c:	0e 94 dc 2d 	call	0x5bb8	; 0x5bb8 <_ZN5Print5printEPK19__FlashStringHelper>
    3360:	8f a1       	ldd	r24, Y+39	; 0x27
    3362:	98 a5       	ldd	r25, Y+40	; 0x28
    3364:	a9 a5       	ldd	r26, Y+41	; 0x29
    3366:	ba a5       	ldd	r27, Y+42	; 0x2a
    3368:	22 e0       	ldi	r18, 0x02	; 2
    336a:	30 e0       	ldi	r19, 0x00	; 0
    336c:	ac 01       	movw	r20, r24
    336e:	bd 01       	movw	r22, r26
    3370:	86 e8       	ldi	r24, 0x86	; 134
    3372:	95 e0       	ldi	r25, 0x05	; 5
    3374:	0e 94 d8 2f 	call	0x5fb0	; 0x5fb0 <_ZN5Print7printlnEdi>
    3378:	8b a5       	ldd	r24, Y+43	; 0x2b
    337a:	9c a5       	ldd	r25, Y+44	; 0x2c
    337c:	87 5b       	subi	r24, 0xB7	; 183
    337e:	9f 4f       	sbci	r25, 0xFF	; 255
    3380:	fc 01       	movw	r30, r24
    3382:	80 81       	ld	r24, Z
    3384:	91 81       	ldd	r25, Z+1	; 0x01
    3386:	ac 01       	movw	r20, r24
    3388:	4f 5f       	subi	r20, 0xFF	; 255
    338a:	5f 4f       	sbci	r21, 0xFF	; 255
    338c:	2b a5       	ldd	r18, Y+43	; 0x2b
    338e:	3c a5       	ldd	r19, Y+44	; 0x2c
    3390:	27 5b       	subi	r18, 0xB7	; 183
    3392:	3f 4f       	sbci	r19, 0xFF	; 255
    3394:	f9 01       	movw	r30, r18
    3396:	51 83       	std	Z+1, r21	; 0x01
    3398:	40 83       	st	Z, r20
    339a:	9c 01       	movw	r18, r24
    339c:	8b a5       	ldd	r24, Y+43	; 0x2b
    339e:	9c a5       	ldd	r25, Y+44	; 0x2c
    33a0:	8e 5b       	subi	r24, 0xBE	; 190
    33a2:	9f 4f       	sbci	r25, 0xFF	; 255
    33a4:	b9 01       	movw	r22, r18
    33a6:	bb d3       	rcall	.+1910   	; 0x3b1e <_ZNSt6vectorIdSaIdEEixEj>
    33a8:	9c 01       	movw	r18, r24
    33aa:	8f a1       	ldd	r24, Y+39	; 0x27
    33ac:	98 a5       	ldd	r25, Y+40	; 0x28
    33ae:	a9 a5       	ldd	r26, Y+41	; 0x29
    33b0:	ba a5       	ldd	r27, Y+42	; 0x2a
    33b2:	f9 01       	movw	r30, r18
    33b4:	80 83       	st	Z, r24
    33b6:	91 83       	std	Z+1, r25	; 0x01
    33b8:	a2 83       	std	Z+2, r26	; 0x02
    33ba:	b3 83       	std	Z+3, r27	; 0x03
    33bc:	8b a5       	ldd	r24, Y+43	; 0x2b
    33be:	9c a5       	ldd	r25, Y+44	; 0x2c
    33c0:	87 5b       	subi	r24, 0xB7	; 183
    33c2:	9f 4f       	sbci	r25, 0xFF	; 255
    33c4:	fc 01       	movw	r30, r24
    33c6:	20 81       	ld	r18, Z
    33c8:	31 81       	ldd	r19, Z+1	; 0x01
    33ca:	8e 81       	ldd	r24, Y+6	; 0x06
    33cc:	9f 81       	ldd	r25, Y+7	; 0x07
    33ce:	28 17       	cp	r18, r24
    33d0:	39 07       	cpc	r19, r25
    33d2:	39 f4       	brne	.+14     	; 0x33e2 <_ZN8PHSensor11CalculatePHEv+0x30e>
    33d4:	8b a5       	ldd	r24, Y+43	; 0x2b
    33d6:	9c a5       	ldd	r25, Y+44	; 0x2c
    33d8:	87 5b       	subi	r24, 0xB7	; 183
    33da:	9f 4f       	sbci	r25, 0xFF	; 255
    33dc:	fc 01       	movw	r30, r24
    33de:	11 82       	std	Z+1, r1	; 0x01
    33e0:	10 82       	st	Z, r1
    33e2:	8b a5       	ldd	r24, Y+43	; 0x2b
    33e4:	9c a5       	ldd	r25, Y+44	; 0x2c
    33e6:	9c 01       	movw	r18, r24
    33e8:	2e 5b       	subi	r18, 0xBE	; 190
    33ea:	3f 4f       	sbci	r19, 0xFF	; 255
    33ec:	ce 01       	movw	r24, r28
    33ee:	0e 96       	adiw	r24, 0x0e	; 14
    33f0:	b9 01       	movw	r22, r18
    33f2:	25 d3       	rcall	.+1610   	; 0x3a3e <_ZNSt6vectorIdSaIdEEC1ERKS1_>
    33f4:	ce 01       	movw	r24, r28
    33f6:	0e 96       	adiw	r24, 0x0e	; 14
    33f8:	0e 94 42 11 	call	0x2284	; 0x2284 <_ZN7MathExt10GetAverageESt6vectorIdSaIdEE>
    33fc:	dc 01       	movw	r26, r24
    33fe:	cb 01       	movw	r24, r22
    3400:	8a 87       	std	Y+10, r24	; 0x0a
    3402:	9b 87       	std	Y+11, r25	; 0x0b
    3404:	ac 87       	std	Y+12, r26	; 0x0c
    3406:	bd 87       	std	Y+13, r27	; 0x0d
    3408:	ce 01       	movw	r24, r28
    340a:	0e 96       	adiw	r24, 0x0e	; 14
    340c:	69 d9       	rcall	.-3374   	; 0x26e0 <_ZNSt6vectorIdSaIdEED1Ev>
    340e:	8b a5       	ldd	r24, Y+43	; 0x2b
    3410:	9c a5       	ldd	r25, Y+44	; 0x2c
    3412:	9c 01       	movw	r18, r24
    3414:	21 5b       	subi	r18, 0xB1	; 177
    3416:	3f 4f       	sbci	r19, 0xFF	; 255
    3418:	8a 85       	ldd	r24, Y+10	; 0x0a
    341a:	9b 85       	ldd	r25, Y+11	; 0x0b
    341c:	ac 85       	ldd	r26, Y+12	; 0x0c
    341e:	bd 85       	ldd	r27, Y+13	; 0x0d
    3420:	f9 01       	movw	r30, r18
    3422:	80 83       	st	Z, r24
    3424:	91 83       	std	Z+1, r25	; 0x01
    3426:	a2 83       	std	Z+2, r26	; 0x02
    3428:	b3 83       	std	Z+3, r27	; 0x03
    342a:	0e 94 32 30 	call	0x6064	; 0x6064 <millis>
    342e:	dc 01       	movw	r26, r24
    3430:	cb 01       	movw	r24, r22
    3432:	80 93 08 03 	sts	0x0308, r24	; 0x800308 <_ZZN8PHSensor11CalculatePHEvE12samplingTime>
    3436:	90 93 09 03 	sts	0x0309, r25	; 0x800309 <_ZZN8PHSensor11CalculatePHEvE12samplingTime+0x1>
    343a:	a0 93 0a 03 	sts	0x030A, r26	; 0x80030a <_ZZN8PHSensor11CalculatePHEvE12samplingTime+0x2>
    343e:	b0 93 0b 03 	sts	0x030B, r27	; 0x80030b <_ZZN8PHSensor11CalculatePHEvE12samplingTime+0x3>
    3442:	ac 96       	adiw	r28, 0x2c	; 44
    3444:	e6 e0       	ldi	r30, 0x06	; 6
    3446:	0c 94 16 35 	jmp	0x6a2c	; 0x6a2c <__epilogue_restores__+0x18>

0000344a <_ZN8PHSensor10getPHValueEv>:
    344a:	ae e0       	ldi	r26, 0x0E	; 14
    344c:	b0 e0       	ldi	r27, 0x00	; 0
    344e:	eb e2       	ldi	r30, 0x2B	; 43
    3450:	fa e1       	ldi	r31, 0x1A	; 26
    3452:	0c 94 fa 34 	jmp	0x69f4	; 0x69f4 <__prologue_saves__+0x18>
    3456:	9e 87       	std	Y+14, r25	; 0x0e
    3458:	8d 87       	std	Y+13, r24	; 0x0d
    345a:	88 ef       	ldi	r24, 0xF8	; 248
    345c:	92 e0       	ldi	r25, 0x02	; 2
    345e:	fc 01       	movw	r30, r24
    3460:	80 81       	ld	r24, Z
    3462:	88 23       	and	r24, r24
    3464:	89 f4       	brne	.+34     	; 0x3488 <_ZN8PHSensor10getPHValueEv+0x3e>
    3466:	0e 94 32 30 	call	0x6064	; 0x6064 <millis>
    346a:	dc 01       	movw	r26, r24
    346c:	cb 01       	movw	r24, r22
    346e:	80 93 0c 03 	sts	0x030C, r24	; 0x80030c <_ZZN8PHSensor10getPHValueEvE12samplingTime>
    3472:	90 93 0d 03 	sts	0x030D, r25	; 0x80030d <_ZZN8PHSensor10getPHValueEvE12samplingTime+0x1>
    3476:	a0 93 0e 03 	sts	0x030E, r26	; 0x80030e <_ZZN8PHSensor10getPHValueEvE12samplingTime+0x2>
    347a:	b0 93 0f 03 	sts	0x030F, r27	; 0x80030f <_ZZN8PHSensor10getPHValueEvE12samplingTime+0x3>
    347e:	88 ef       	ldi	r24, 0xF8	; 248
    3480:	92 e0       	ldi	r25, 0x02	; 2
    3482:	21 e0       	ldi	r18, 0x01	; 1
    3484:	fc 01       	movw	r30, r24
    3486:	20 83       	st	Z, r18
    3488:	0e 94 32 30 	call	0x6064	; 0x6064 <millis>
    348c:	9b 01       	movw	r18, r22
    348e:	ac 01       	movw	r20, r24
    3490:	80 91 0c 03 	lds	r24, 0x030C	; 0x80030c <_ZZN8PHSensor10getPHValueEvE12samplingTime>
    3494:	90 91 0d 03 	lds	r25, 0x030D	; 0x80030d <_ZZN8PHSensor10getPHValueEvE12samplingTime+0x1>
    3498:	a0 91 0e 03 	lds	r26, 0x030E	; 0x80030e <_ZZN8PHSensor10getPHValueEvE12samplingTime+0x2>
    349c:	b0 91 0f 03 	lds	r27, 0x030F	; 0x80030f <_ZZN8PHSensor10getPHValueEvE12samplingTime+0x3>
    34a0:	79 01       	movw	r14, r18
    34a2:	8a 01       	movw	r16, r20
    34a4:	e8 1a       	sub	r14, r24
    34a6:	f9 0a       	sbc	r15, r25
    34a8:	0a 0b       	sbc	r16, r26
    34aa:	1b 0b       	sbc	r17, r27
    34ac:	d8 01       	movw	r26, r16
    34ae:	c7 01       	movw	r24, r14
    34b0:	21 e0       	ldi	r18, 0x01	; 1
    34b2:	89 3e       	cpi	r24, 0xE9	; 233
    34b4:	93 40       	sbci	r25, 0x03	; 3
    34b6:	a1 05       	cpc	r26, r1
    34b8:	b1 05       	cpc	r27, r1
    34ba:	08 f4       	brcc	.+2      	; 0x34be <_ZN8PHSensor10getPHValueEv+0x74>
    34bc:	20 e0       	ldi	r18, 0x00	; 0
    34be:	22 23       	and	r18, r18
    34c0:	09 f4       	brne	.+2      	; 0x34c4 <_ZN8PHSensor10getPHValueEv+0x7a>
    34c2:	d0 c0       	rjmp	.+416    	; 0x3664 <_ZN8PHSensor10getPHValueEv+0x21a>
    34c4:	8e e1       	ldi	r24, 0x1E	; 30
    34c6:	90 e0       	ldi	r25, 0x00	; 0
    34c8:	9e 83       	std	Y+6, r25	; 0x06
    34ca:	8d 83       	std	Y+5, r24	; 0x05
    34cc:	8d 85       	ldd	r24, Y+13	; 0x0d
    34ce:	9e 85       	ldd	r25, Y+14	; 0x0e
    34d0:	fc 01       	movw	r30, r24
    34d2:	80 81       	ld	r24, Z
    34d4:	91 81       	ldd	r25, Z+1	; 0x01
    34d6:	0e 94 e2 30 	call	0x61c4	; 0x61c4 <analogRead>
    34da:	98 87       	std	Y+8, r25	; 0x08
    34dc:	8f 83       	std	Y+7, r24	; 0x07
    34de:	89 ee       	ldi	r24, 0xE9	; 233
    34e0:	93 e0       	ldi	r25, 0x03	; 3
    34e2:	bc 01       	movw	r22, r24
    34e4:	86 e8       	ldi	r24, 0x86	; 134
    34e6:	95 e0       	ldi	r25, 0x05	; 5
    34e8:	0e 94 dc 2d 	call	0x5bb8	; 0x5bb8 <_ZN5Print5printEPK19__FlashStringHelper>
    34ec:	8f 81       	ldd	r24, Y+7	; 0x07
    34ee:	98 85       	ldd	r25, Y+8	; 0x08
    34f0:	4a e0       	ldi	r20, 0x0A	; 10
    34f2:	50 e0       	ldi	r21, 0x00	; 0
    34f4:	bc 01       	movw	r22, r24
    34f6:	86 e8       	ldi	r24, 0x86	; 134
    34f8:	95 e0       	ldi	r25, 0x05	; 5
    34fa:	0e 94 d1 2e 	call	0x5da2	; 0x5da2 <_ZN5Print7printlnEii>
    34fe:	8d 85       	ldd	r24, Y+13	; 0x0d
    3500:	9e 85       	ldd	r25, Y+14	; 0x0e
    3502:	fc 01       	movw	r30, r24
    3504:	86 ad       	ldd	r24, Z+62	; 0x3e
    3506:	97 ad       	ldd	r25, Z+63	; 0x3f
    3508:	ac 01       	movw	r20, r24
    350a:	4f 5f       	subi	r20, 0xFF	; 255
    350c:	5f 4f       	sbci	r21, 0xFF	; 255
    350e:	2d 85       	ldd	r18, Y+13	; 0x0d
    3510:	3e 85       	ldd	r19, Y+14	; 0x0e
    3512:	f9 01       	movw	r30, r18
    3514:	57 af       	std	Z+63, r21	; 0x3f
    3516:	46 af       	std	Z+62, r20	; 0x3e
    3518:	2d 85       	ldd	r18, Y+13	; 0x0d
    351a:	3e 85       	ldd	r19, Y+14	; 0x0e
    351c:	01 96       	adiw	r24, 0x01	; 1
    351e:	88 0f       	add	r24, r24
    3520:	99 1f       	adc	r25, r25
    3522:	82 0f       	add	r24, r18
    3524:	93 1f       	adc	r25, r19
    3526:	2f 81       	ldd	r18, Y+7	; 0x07
    3528:	38 85       	ldd	r19, Y+8	; 0x08
    352a:	fc 01       	movw	r30, r24
    352c:	31 83       	std	Z+1, r19	; 0x01
    352e:	20 83       	st	Z, r18
    3530:	8d 85       	ldd	r24, Y+13	; 0x0d
    3532:	9e 85       	ldd	r25, Y+14	; 0x0e
    3534:	fc 01       	movw	r30, r24
    3536:	26 ad       	ldd	r18, Z+62	; 0x3e
    3538:	37 ad       	ldd	r19, Z+63	; 0x3f
    353a:	8d 81       	ldd	r24, Y+5	; 0x05
    353c:	9e 81       	ldd	r25, Y+6	; 0x06
    353e:	28 17       	cp	r18, r24
    3540:	39 07       	cpc	r19, r25
    3542:	29 f4       	brne	.+10     	; 0x354e <_ZN8PHSensor10getPHValueEv+0x104>
    3544:	8d 85       	ldd	r24, Y+13	; 0x0d
    3546:	9e 85       	ldd	r25, Y+14	; 0x0e
    3548:	fc 01       	movw	r30, r24
    354a:	17 ae       	std	Z+63, r1	; 0x3f
    354c:	16 ae       	std	Z+62, r1	; 0x3e
    354e:	8d 85       	ldd	r24, Y+13	; 0x0d
    3550:	9e 85       	ldd	r25, Y+14	; 0x0e
    3552:	02 96       	adiw	r24, 0x02	; 2
    3554:	2d 81       	ldd	r18, Y+5	; 0x05
    3556:	3e 81       	ldd	r19, Y+6	; 0x06
    3558:	b9 01       	movw	r22, r18
    355a:	0e 94 80 11 	call	0x2300	; 0x2300 <_ZN7MathExt16CalculateAverageEPii>
    355e:	dc 01       	movw	r26, r24
    3560:	cb 01       	movw	r24, r22
    3562:	89 87       	std	Y+9, r24	; 0x09
    3564:	9a 87       	std	Y+10, r25	; 0x0a
    3566:	ab 87       	std	Y+11, r26	; 0x0b
    3568:	bc 87       	std	Y+12, r27	; 0x0c
    356a:	20 e0       	ldi	r18, 0x00	; 0
    356c:	30 e0       	ldi	r19, 0x00	; 0
    356e:	40 ea       	ldi	r20, 0xA0	; 160
    3570:	50 e4       	ldi	r21, 0x40	; 64
    3572:	69 85       	ldd	r22, Y+9	; 0x09
    3574:	7a 85       	ldd	r23, Y+10	; 0x0a
    3576:	8b 85       	ldd	r24, Y+11	; 0x0b
    3578:	9c 85       	ldd	r25, Y+12	; 0x0c
    357a:	0e 94 72 2b 	call	0x56e4	; 0x56e4 <__mulsf3>
    357e:	dc 01       	movw	r26, r24
    3580:	cb 01       	movw	r24, r22
    3582:	20 e0       	ldi	r18, 0x00	; 0
    3584:	30 e0       	ldi	r19, 0x00	; 0
    3586:	40 e8       	ldi	r20, 0x80	; 128
    3588:	54 e4       	ldi	r21, 0x44	; 68
    358a:	bc 01       	movw	r22, r24
    358c:	cd 01       	movw	r24, r26
    358e:	0e 94 23 2a 	call	0x5446	; 0x5446 <__divsf3>
    3592:	dc 01       	movw	r26, r24
    3594:	cb 01       	movw	r24, r22
    3596:	2d 85       	ldd	r18, Y+13	; 0x0d
    3598:	3e 85       	ldd	r19, Y+14	; 0x0e
    359a:	2d 5a       	subi	r18, 0xAD	; 173
    359c:	3f 4f       	sbci	r19, 0xFF	; 255
    359e:	f9 01       	movw	r30, r18
    35a0:	80 83       	st	Z, r24
    35a2:	91 83       	std	Z+1, r25	; 0x01
    35a4:	a2 83       	std	Z+2, r26	; 0x02
    35a6:	b3 83       	std	Z+3, r27	; 0x03
    35a8:	8d 85       	ldd	r24, Y+13	; 0x0d
    35aa:	9e 85       	ldd	r25, Y+14	; 0x0e
    35ac:	8d 5a       	subi	r24, 0xAD	; 173
    35ae:	9f 4f       	sbci	r25, 0xFF	; 255
    35b0:	fc 01       	movw	r30, r24
    35b2:	80 81       	ld	r24, Z
    35b4:	91 81       	ldd	r25, Z+1	; 0x01
    35b6:	a2 81       	ldd	r26, Z+2	; 0x02
    35b8:	b3 81       	ldd	r27, Z+3	; 0x03
    35ba:	9c 01       	movw	r18, r24
    35bc:	ad 01       	movw	r20, r26
    35be:	60 e0       	ldi	r22, 0x00	; 0
    35c0:	70 e0       	ldi	r23, 0x00	; 0
    35c2:	80 e2       	ldi	r24, 0x20	; 32
    35c4:	90 e4       	ldi	r25, 0x40	; 64
    35c6:	0e 94 ba 29 	call	0x5374	; 0x5374 <__subsf3>
    35ca:	dc 01       	movw	r26, r24
    35cc:	cb 01       	movw	r24, r22
    35ce:	2c ee       	ldi	r18, 0xEC	; 236
    35d0:	31 e5       	ldi	r19, 0x51	; 81
    35d2:	48 e3       	ldi	r20, 0x38	; 56
    35d4:	5e e3       	ldi	r21, 0x3E	; 62
    35d6:	bc 01       	movw	r22, r24
    35d8:	cd 01       	movw	r24, r26
    35da:	0e 94 23 2a 	call	0x5446	; 0x5446 <__divsf3>
    35de:	dc 01       	movw	r26, r24
    35e0:	cb 01       	movw	r24, r22
    35e2:	20 e0       	ldi	r18, 0x00	; 0
    35e4:	30 e0       	ldi	r19, 0x00	; 0
    35e6:	40 ee       	ldi	r20, 0xE0	; 224
    35e8:	50 e4       	ldi	r21, 0x40	; 64
    35ea:	bc 01       	movw	r22, r24
    35ec:	cd 01       	movw	r24, r26
    35ee:	0e 94 bb 29 	call	0x5376	; 0x5376 <__addsf3>
    35f2:	dc 01       	movw	r26, r24
    35f4:	cb 01       	movw	r24, r22
    35f6:	7c 01       	movw	r14, r24
    35f8:	8d 01       	movw	r16, r26
    35fa:	8d 85       	ldd	r24, Y+13	; 0x0d
    35fc:	9e 85       	ldd	r25, Y+14	; 0x0e
    35fe:	83 57       	subi	r24, 0x73	; 115
    3600:	9f 4f       	sbci	r25, 0xFF	; 255
    3602:	fc 01       	movw	r30, r24
    3604:	80 81       	ld	r24, Z
    3606:	91 81       	ldd	r25, Z+1	; 0x01
    3608:	a2 81       	ldd	r26, Z+2	; 0x02
    360a:	b3 81       	ldd	r27, Z+3	; 0x03
    360c:	9c 01       	movw	r18, r24
    360e:	ad 01       	movw	r20, r26
    3610:	c8 01       	movw	r24, r16
    3612:	b7 01       	movw	r22, r14
    3614:	0e 94 bb 29 	call	0x5376	; 0x5376 <__addsf3>
    3618:	dc 01       	movw	r26, r24
    361a:	cb 01       	movw	r24, r22
    361c:	89 83       	std	Y+1, r24	; 0x01
    361e:	9a 83       	std	Y+2, r25	; 0x02
    3620:	ab 83       	std	Y+3, r26	; 0x03
    3622:	bc 83       	std	Y+4, r27	; 0x04
    3624:	20 e0       	ldi	r18, 0x00	; 0
    3626:	30 e0       	ldi	r19, 0x00	; 0
    3628:	a9 01       	movw	r20, r18
    362a:	69 81       	ldd	r22, Y+1	; 0x01
    362c:	7a 81       	ldd	r23, Y+2	; 0x02
    362e:	8b 81       	ldd	r24, Y+3	; 0x03
    3630:	9c 81       	ldd	r25, Y+4	; 0x04
    3632:	0e 94 1f 2a 	call	0x543e	; 0x543e <__cmpsf2>
    3636:	88 23       	and	r24, r24
    3638:	24 f4       	brge	.+8      	; 0x3642 <_ZN8PHSensor10getPHValueEv+0x1f8>
    363a:	19 82       	std	Y+1, r1	; 0x01
    363c:	1a 82       	std	Y+2, r1	; 0x02
    363e:	1b 82       	std	Y+3, r1	; 0x03
    3640:	1c 82       	std	Y+4, r1	; 0x04
    3642:	0e 94 32 30 	call	0x6064	; 0x6064 <millis>
    3646:	dc 01       	movw	r26, r24
    3648:	cb 01       	movw	r24, r22
    364a:	80 93 0c 03 	sts	0x030C, r24	; 0x80030c <_ZZN8PHSensor10getPHValueEvE12samplingTime>
    364e:	90 93 0d 03 	sts	0x030D, r25	; 0x80030d <_ZZN8PHSensor10getPHValueEvE12samplingTime+0x1>
    3652:	a0 93 0e 03 	sts	0x030E, r26	; 0x80030e <_ZZN8PHSensor10getPHValueEvE12samplingTime+0x2>
    3656:	b0 93 0f 03 	sts	0x030F, r27	; 0x80030f <_ZZN8PHSensor10getPHValueEvE12samplingTime+0x3>
    365a:	89 81       	ldd	r24, Y+1	; 0x01
    365c:	9a 81       	ldd	r25, Y+2	; 0x02
    365e:	ab 81       	ldd	r26, Y+3	; 0x03
    3660:	bc 81       	ldd	r27, Y+4	; 0x04
    3662:	09 c0       	rjmp	.+18     	; 0x3676 <_ZN8PHSensor10getPHValueEv+0x22c>
    3664:	8d 85       	ldd	r24, Y+13	; 0x0d
    3666:	9e 85       	ldd	r25, Y+14	; 0x0e
    3668:	85 5b       	subi	r24, 0xB5	; 181
    366a:	9f 4f       	sbci	r25, 0xFF	; 255
    366c:	fc 01       	movw	r30, r24
    366e:	80 81       	ld	r24, Z
    3670:	91 81       	ldd	r25, Z+1	; 0x01
    3672:	a2 81       	ldd	r26, Z+2	; 0x02
    3674:	b3 81       	ldd	r27, Z+3	; 0x03
    3676:	bc 01       	movw	r22, r24
    3678:	cd 01       	movw	r24, r26
    367a:	2e 96       	adiw	r28, 0x0e	; 14
    367c:	e6 e0       	ldi	r30, 0x06	; 6
    367e:	0c 94 16 35 	jmp	0x6a2c	; 0x6a2c <__epilogue_restores__+0x18>

00003682 <_ZN15StringSumHelperD1Ev>:
    3682:	a2 e0       	ldi	r26, 0x02	; 2
    3684:	b0 e0       	ldi	r27, 0x00	; 0
    3686:	e7 e4       	ldi	r30, 0x47	; 71
    3688:	fb e1       	ldi	r31, 0x1B	; 27
    368a:	0c 94 fe 34 	jmp	0x69fc	; 0x69fc <__prologue_saves__+0x20>
    368e:	9a 83       	std	Y+2, r25	; 0x02
    3690:	89 83       	std	Y+1, r24	; 0x01
    3692:	89 81       	ldd	r24, Y+1	; 0x01
    3694:	9a 81       	ldd	r25, Y+2	; 0x02
    3696:	0e 94 bb 31 	call	0x6376	; 0x6376 <_ZN6StringD1Ev>
    369a:	22 96       	adiw	r28, 0x02	; 2
    369c:	e2 e0       	ldi	r30, 0x02	; 2
    369e:	0c 94 1a 35 	jmp	0x6a34	; 0x6a34 <__epilogue_restores__+0x20>

000036a2 <_ZN8PHSensor12PrintPHToLCDEv>:
    36a2:	aa e1       	ldi	r26, 0x1A	; 26
    36a4:	b0 e0       	ldi	r27, 0x00	; 0
    36a6:	e7 e5       	ldi	r30, 0x57	; 87
    36a8:	fb e1       	ldi	r31, 0x1B	; 27
    36aa:	0c 94 fa 34 	jmp	0x69f4	; 0x69f4 <__prologue_saves__+0x18>
    36ae:	9a 8f       	std	Y+26, r25	; 0x1a
    36b0:	89 8f       	std	Y+25, r24	; 0x19
    36b2:	89 8d       	ldd	r24, Y+25	; 0x19
    36b4:	9a 8d       	ldd	r25, Y+26	; 0x1a
    36b6:	b8 dc       	rcall	.-1680   	; 0x3028 <_ZN8PHSensor5GetPHEv>
    36b8:	80 e0       	ldi	r24, 0x00	; 0
    36ba:	93 e0       	ldi	r25, 0x03	; 3
    36bc:	fc 01       	movw	r30, r24
    36be:	80 81       	ld	r24, Z
    36c0:	88 23       	and	r24, r24
    36c2:	89 f4       	brne	.+34     	; 0x36e6 <_ZN8PHSensor12PrintPHToLCDEv+0x44>
    36c4:	0e 94 32 30 	call	0x6064	; 0x6064 <millis>
    36c8:	dc 01       	movw	r26, r24
    36ca:	cb 01       	movw	r24, r22
    36cc:	80 93 10 03 	sts	0x0310, r24	; 0x800310 <_ZZN8PHSensor12PrintPHToLCDEvE9printTime>
    36d0:	90 93 11 03 	sts	0x0311, r25	; 0x800311 <_ZZN8PHSensor12PrintPHToLCDEvE9printTime+0x1>
    36d4:	a0 93 12 03 	sts	0x0312, r26	; 0x800312 <_ZZN8PHSensor12PrintPHToLCDEvE9printTime+0x2>
    36d8:	b0 93 13 03 	sts	0x0313, r27	; 0x800313 <_ZZN8PHSensor12PrintPHToLCDEvE9printTime+0x3>
    36dc:	80 e0       	ldi	r24, 0x00	; 0
    36de:	93 e0       	ldi	r25, 0x03	; 3
    36e0:	21 e0       	ldi	r18, 0x01	; 1
    36e2:	fc 01       	movw	r30, r24
    36e4:	20 83       	st	Z, r18
    36e6:	0e 94 32 30 	call	0x6064	; 0x6064 <millis>
    36ea:	9b 01       	movw	r18, r22
    36ec:	ac 01       	movw	r20, r24
    36ee:	80 91 10 03 	lds	r24, 0x0310	; 0x800310 <_ZZN8PHSensor12PrintPHToLCDEvE9printTime>
    36f2:	90 91 11 03 	lds	r25, 0x0311	; 0x800311 <_ZZN8PHSensor12PrintPHToLCDEvE9printTime+0x1>
    36f6:	a0 91 12 03 	lds	r26, 0x0312	; 0x800312 <_ZZN8PHSensor12PrintPHToLCDEvE9printTime+0x2>
    36fa:	b0 91 13 03 	lds	r27, 0x0313	; 0x800313 <_ZZN8PHSensor12PrintPHToLCDEvE9printTime+0x3>
    36fe:	28 1b       	sub	r18, r24
    3700:	39 0b       	sbc	r19, r25
    3702:	4a 0b       	sbc	r20, r26
    3704:	5b 0b       	sbc	r21, r27
    3706:	89 8d       	ldd	r24, Y+25	; 0x19
    3708:	9a 8d       	ldd	r25, Y+26	; 0x1a
    370a:	80 5c       	subi	r24, 0xC0	; 192
    370c:	9f 4f       	sbci	r25, 0xFF	; 255
    370e:	fc 01       	movw	r30, r24
    3710:	80 81       	ld	r24, Z
    3712:	91 81       	ldd	r25, Z+1	; 0x01
    3714:	80 57       	subi	r24, 0x70	; 112
    3716:	9e 4f       	sbci	r25, 0xFE	; 254
    3718:	09 2e       	mov	r0, r25
    371a:	00 0c       	add	r0, r0
    371c:	aa 0b       	sbc	r26, r26
    371e:	bb 0b       	sbc	r27, r27
    3720:	61 e0       	ldi	r22, 0x01	; 1
    3722:	82 17       	cp	r24, r18
    3724:	93 07       	cpc	r25, r19
    3726:	a4 07       	cpc	r26, r20
    3728:	b5 07       	cpc	r27, r21
    372a:	08 f0       	brcs	.+2      	; 0x372e <_ZN8PHSensor12PrintPHToLCDEv+0x8c>
    372c:	60 e0       	ldi	r22, 0x00	; 0
    372e:	66 23       	and	r22, r22
    3730:	09 f4       	brne	.+2      	; 0x3734 <_ZN8PHSensor12PrintPHToLCDEv+0x92>
    3732:	74 c0       	rjmp	.+232    	; 0x381c <_ZN8PHSensor12PrintPHToLCDEv+0x17a>
    3734:	89 8d       	ldd	r24, Y+25	; 0x19
    3736:	9a 8d       	ldd	r25, Y+26	; 0x1a
    3738:	89 5a       	subi	r24, 0xA9	; 169
    373a:	9f 4f       	sbci	r25, 0xFF	; 255
    373c:	fc 01       	movw	r30, r24
    373e:	80 81       	ld	r24, Z
    3740:	88 23       	and	r24, r24
    3742:	09 f4       	brne	.+2      	; 0x3746 <_ZN8PHSensor12PrintPHToLCDEv+0xa4>
    3744:	5f c0       	rjmp	.+190    	; 0x3804 <_ZN8PHSensor12PrintPHToLCDEv+0x162>
    3746:	ce 01       	movw	r24, r28
    3748:	0d 96       	adiw	r24, 0x0d	; 13
    374a:	6f e1       	ldi	r22, 0x1F	; 31
    374c:	71 e0       	ldi	r23, 0x01	; 1
    374e:	0e 94 22 32 	call	0x6444	; 0x6444 <_ZN6StringC1EPKc>
    3752:	89 8d       	ldd	r24, Y+25	; 0x19
    3754:	9a 8d       	ldd	r25, Y+26	; 0x1a
    3756:	86 5a       	subi	r24, 0xA6	; 166
    3758:	9f 4f       	sbci	r25, 0xFF	; 255
    375a:	fc 01       	movw	r30, r24
    375c:	80 81       	ld	r24, Z
    375e:	88 23       	and	r24, r24
    3760:	31 f0       	breq	.+12     	; 0x376e <_ZN8PHSensor12PrintPHToLCDEv+0xcc>
    3762:	ce 01       	movw	r24, r28
    3764:	0d 96       	adiw	r24, 0x0d	; 13
    3766:	60 e2       	ldi	r22, 0x20	; 32
    3768:	71 e0       	ldi	r23, 0x01	; 1
    376a:	0e 94 53 32 	call	0x64a6	; 0x64a6 <_ZN6StringaSEPKc>
    376e:	89 8d       	ldd	r24, Y+25	; 0x19
    3770:	9a 8d       	ldd	r25, Y+26	; 0x1a
    3772:	8c 01       	movw	r16, r24
    3774:	0f 57       	subi	r16, 0x7F	; 127
    3776:	1f 4f       	sbci	r17, 0xFF	; 255
    3778:	89 8d       	ldd	r24, Y+25	; 0x19
    377a:	9a 8d       	ldd	r25, Y+26	; 0x1a
    377c:	7c 01       	movw	r14, r24
    377e:	f7 e8       	ldi	r31, 0x87	; 135
    3780:	ef 0e       	add	r14, r31
    3782:	f1 1c       	adc	r15, r1
    3784:	ce 01       	movw	r24, r28
    3786:	07 96       	adiw	r24, 0x07	; 7
    3788:	62 e2       	ldi	r22, 0x22	; 34
    378a:	71 e0       	ldi	r23, 0x01	; 1
    378c:	8d d9       	rcall	.-3302   	; 0x2aa8 <_ZN15StringSumHelperC1EPKc>
    378e:	ce 01       	movw	r24, r28
    3790:	07 96       	adiw	r24, 0x07	; 7
    3792:	b7 01       	movw	r22, r14
    3794:	0e 94 65 33 	call	0x66ca	; 0x66ca <_ZplRK15StringSumHelperRK6String>
    3798:	67 e2       	ldi	r22, 0x27	; 39
    379a:	71 e0       	ldi	r23, 0x01	; 1
    379c:	0e 94 76 33 	call	0x66ec	; 0x66ec <_ZplRK15StringSumHelperPKc>
    37a0:	b8 01       	movw	r22, r16
    37a2:	0e 94 65 33 	call	0x66ca	; 0x66ca <_ZplRK15StringSumHelperRK6String>
    37a6:	9c 01       	movw	r18, r24
    37a8:	ce 01       	movw	r24, r28
    37aa:	0d 96       	adiw	r24, 0x0d	; 13
    37ac:	bc 01       	movw	r22, r24
    37ae:	c9 01       	movw	r24, r18
    37b0:	0e 94 65 33 	call	0x66ca	; 0x66ca <_ZplRK15StringSumHelperRK6String>
    37b4:	9c 01       	movw	r18, r24
    37b6:	ce 01       	movw	r24, r28
    37b8:	43 96       	adiw	r24, 0x13	; 19
    37ba:	b9 01       	movw	r22, r18
    37bc:	0e 94 4b 32 	call	0x6496	; 0x6496 <_ZN6StringC1ERKS_>
    37c0:	ce 01       	movw	r24, r28
    37c2:	07 96       	adiw	r24, 0x07	; 7
    37c4:	5e df       	rcall	.-324    	; 0x3682 <_ZN15StringSumHelperD1Ev>
    37c6:	ce 01       	movw	r24, r28
    37c8:	43 96       	adiw	r24, 0x13	; 19
    37ca:	bc 01       	movw	r22, r24
    37cc:	ce 01       	movw	r24, r28
    37ce:	01 96       	adiw	r24, 0x01	; 1
    37d0:	0e 94 4b 32 	call	0x6496	; 0x6496 <_ZN6StringC1ERKS_>
    37d4:	89 8d       	ldd	r24, Y+25	; 0x19
    37d6:	9a 8d       	ldd	r25, Y+26	; 0x1a
    37d8:	83 5a       	subi	r24, 0xA3	; 163
    37da:	9f 4f       	sbci	r25, 0xFF	; 255
    37dc:	9e 01       	movw	r18, r28
    37de:	2f 5f       	subi	r18, 0xFF	; 255
    37e0:	3f 4f       	sbci	r19, 0xFF	; 255
    37e2:	a9 01       	movw	r20, r18
    37e4:	60 e0       	ldi	r22, 0x00	; 0
    37e6:	70 e0       	ldi	r23, 0x00	; 0
    37e8:	0e 94 80 10 	call	0x2100	; 0x2100 <_ZN7LCDBase9PrintLineEs6String>
    37ec:	ce 01       	movw	r24, r28
    37ee:	01 96       	adiw	r24, 0x01	; 1
    37f0:	0e 94 bb 31 	call	0x6376	; 0x6376 <_ZN6StringD1Ev>
    37f4:	ce 01       	movw	r24, r28
    37f6:	43 96       	adiw	r24, 0x13	; 19
    37f8:	0e 94 bb 31 	call	0x6376	; 0x6376 <_ZN6StringD1Ev>
    37fc:	ce 01       	movw	r24, r28
    37fe:	0d 96       	adiw	r24, 0x0d	; 13
    3800:	0e 94 bb 31 	call	0x6376	; 0x6376 <_ZN6StringD1Ev>
    3804:	0e 94 32 30 	call	0x6064	; 0x6064 <millis>
    3808:	dc 01       	movw	r26, r24
    380a:	cb 01       	movw	r24, r22
    380c:	80 93 10 03 	sts	0x0310, r24	; 0x800310 <_ZZN8PHSensor12PrintPHToLCDEvE9printTime>
    3810:	90 93 11 03 	sts	0x0311, r25	; 0x800311 <_ZZN8PHSensor12PrintPHToLCDEvE9printTime+0x1>
    3814:	a0 93 12 03 	sts	0x0312, r26	; 0x800312 <_ZZN8PHSensor12PrintPHToLCDEvE9printTime+0x2>
    3818:	b0 93 13 03 	sts	0x0313, r27	; 0x800313 <_ZZN8PHSensor12PrintPHToLCDEvE9printTime+0x3>
    381c:	6a 96       	adiw	r28, 0x1a	; 26
    381e:	e6 e0       	ldi	r30, 0x06	; 6
    3820:	0c 94 16 35 	jmp	0x6a2c	; 0x6a2c <__epilogue_restores__+0x18>

00003824 <_ZN8PHSensor6TurnOnEv>:
    3824:	a2 e0       	ldi	r26, 0x02	; 2
    3826:	b0 e0       	ldi	r27, 0x00	; 0
    3828:	e8 e1       	ldi	r30, 0x18	; 24
    382a:	fc e1       	ldi	r31, 0x1C	; 28
    382c:	0c 94 fe 34 	jmp	0x69fc	; 0x69fc <__prologue_saves__+0x20>
    3830:	9a 83       	std	Y+2, r25	; 0x02
    3832:	89 83       	std	Y+1, r24	; 0x01
    3834:	89 81       	ldd	r24, Y+1	; 0x01
    3836:	9a 81       	ldd	r25, Y+2	; 0x02
    3838:	86 5a       	subi	r24, 0xA6	; 166
    383a:	9f 4f       	sbci	r25, 0xFF	; 255
    383c:	21 e0       	ldi	r18, 0x01	; 1
    383e:	fc 01       	movw	r30, r24
    3840:	20 83       	st	Z, r18
    3842:	89 81       	ldd	r24, Y+1	; 0x01
    3844:	9a 81       	ldd	r25, Y+2	; 0x02
    3846:	88 5a       	subi	r24, 0xA8	; 168
    3848:	9f 4f       	sbci	r25, 0xFF	; 255
    384a:	fc 01       	movw	r30, r24
    384c:	80 81       	ld	r24, Z
    384e:	91 81       	ldd	r25, Z+1	; 0x01
    3850:	61 e0       	ldi	r22, 0x01	; 1
    3852:	0e 94 64 31 	call	0x62c8	; 0x62c8 <digitalWrite>
    3856:	22 96       	adiw	r28, 0x02	; 2
    3858:	e2 e0       	ldi	r30, 0x02	; 2
    385a:	0c 94 1a 35 	jmp	0x6a34	; 0x6a34 <__epilogue_restores__+0x20>

0000385e <_ZN8PHSensor7TurnOffEv>:
    385e:	a2 e0       	ldi	r26, 0x02	; 2
    3860:	b0 e0       	ldi	r27, 0x00	; 0
    3862:	e5 e3       	ldi	r30, 0x35	; 53
    3864:	fc e1       	ldi	r31, 0x1C	; 28
    3866:	0c 94 fe 34 	jmp	0x69fc	; 0x69fc <__prologue_saves__+0x20>
    386a:	9a 83       	std	Y+2, r25	; 0x02
    386c:	89 83       	std	Y+1, r24	; 0x01
    386e:	89 81       	ldd	r24, Y+1	; 0x01
    3870:	9a 81       	ldd	r25, Y+2	; 0x02
    3872:	86 5a       	subi	r24, 0xA6	; 166
    3874:	9f 4f       	sbci	r25, 0xFF	; 255
    3876:	fc 01       	movw	r30, r24
    3878:	10 82       	st	Z, r1
    387a:	89 81       	ldd	r24, Y+1	; 0x01
    387c:	9a 81       	ldd	r25, Y+2	; 0x02
    387e:	88 5a       	subi	r24, 0xA8	; 168
    3880:	9f 4f       	sbci	r25, 0xFF	; 255
    3882:	fc 01       	movw	r30, r24
    3884:	80 81       	ld	r24, Z
    3886:	91 81       	ldd	r25, Z+1	; 0x01
    3888:	60 e0       	ldi	r22, 0x00	; 0
    388a:	0e 94 64 31 	call	0x62c8	; 0x62c8 <digitalWrite>
    388e:	68 ee       	ldi	r22, 0xE8	; 232
    3890:	73 e0       	ldi	r23, 0x03	; 3
    3892:	80 e0       	ldi	r24, 0x00	; 0
    3894:	90 e0       	ldi	r25, 0x00	; 0
    3896:	0e 94 63 30 	call	0x60c6	; 0x60c6 <delay>
    389a:	22 96       	adiw	r28, 0x02	; 2
    389c:	e2 e0       	ldi	r30, 0x02	; 2
    389e:	0c 94 1a 35 	jmp	0x6a34	; 0x6a34 <__epilogue_restores__+0x20>

000038a2 <_ZN8PHSensor9isOutlierEdd>:
    38a2:	a1 e1       	ldi	r26, 0x11	; 17
    38a4:	b0 e0       	ldi	r27, 0x00	; 0
    38a6:	e7 e5       	ldi	r30, 0x57	; 87
    38a8:	fc e1       	ldi	r31, 0x1C	; 28
    38aa:	0c 94 fc 34 	jmp	0x69f8	; 0x69f8 <__prologue_saves__+0x1c>
    38ae:	99 87       	std	Y+9, r25	; 0x09
    38b0:	88 87       	std	Y+8, r24	; 0x08
    38b2:	4a 87       	std	Y+10, r20	; 0x0a
    38b4:	5b 87       	std	Y+11, r21	; 0x0b
    38b6:	6c 87       	std	Y+12, r22	; 0x0c
    38b8:	7d 87       	std	Y+13, r23	; 0x0d
    38ba:	0e 87       	std	Y+14, r16	; 0x0e
    38bc:	1f 87       	std	Y+15, r17	; 0x0f
    38be:	28 8b       	std	Y+16, r18	; 0x10
    38c0:	39 8b       	std	Y+17, r19	; 0x11
    38c2:	8d ec       	ldi	r24, 0xCD	; 205
    38c4:	9c ec       	ldi	r25, 0xCC	; 204
    38c6:	ac e4       	ldi	r26, 0x4C	; 76
    38c8:	be e3       	ldi	r27, 0x3E	; 62
    38ca:	89 83       	std	Y+1, r24	; 0x01
    38cc:	9a 83       	std	Y+2, r25	; 0x02
    38ce:	ab 83       	std	Y+3, r26	; 0x03
    38d0:	bc 83       	std	Y+4, r27	; 0x04
    38d2:	29 81       	ldd	r18, Y+1	; 0x01
    38d4:	3a 81       	ldd	r19, Y+2	; 0x02
    38d6:	4b 81       	ldd	r20, Y+3	; 0x03
    38d8:	5c 81       	ldd	r21, Y+4	; 0x04
    38da:	6e 85       	ldd	r22, Y+14	; 0x0e
    38dc:	7f 85       	ldd	r23, Y+15	; 0x0f
    38de:	88 89       	ldd	r24, Y+16	; 0x10
    38e0:	99 89       	ldd	r25, Y+17	; 0x11
    38e2:	0e 94 ba 29 	call	0x5374	; 0x5374 <__subsf3>
    38e6:	dc 01       	movw	r26, r24
    38e8:	cb 01       	movw	r24, r22
    38ea:	11 e0       	ldi	r17, 0x01	; 1
    38ec:	2a 85       	ldd	r18, Y+10	; 0x0a
    38ee:	3b 85       	ldd	r19, Y+11	; 0x0b
    38f0:	4c 85       	ldd	r20, Y+12	; 0x0c
    38f2:	5d 85       	ldd	r21, Y+13	; 0x0d
    38f4:	bc 01       	movw	r22, r24
    38f6:	cd 01       	movw	r24, r26
    38f8:	0e 94 6e 2b 	call	0x56dc	; 0x56dc <__gesf2>
    38fc:	18 16       	cp	r1, r24
    38fe:	0c f0       	brlt	.+2      	; 0x3902 <_ZN8PHSensor9isOutlierEdd+0x60>
    3900:	10 e0       	ldi	r17, 0x00	; 0
    3902:	1d 83       	std	Y+5, r17	; 0x05
    3904:	29 81       	ldd	r18, Y+1	; 0x01
    3906:	3a 81       	ldd	r19, Y+2	; 0x02
    3908:	4b 81       	ldd	r20, Y+3	; 0x03
    390a:	5c 81       	ldd	r21, Y+4	; 0x04
    390c:	6e 85       	ldd	r22, Y+14	; 0x0e
    390e:	7f 85       	ldd	r23, Y+15	; 0x0f
    3910:	88 89       	ldd	r24, Y+16	; 0x10
    3912:	99 89       	ldd	r25, Y+17	; 0x11
    3914:	0e 94 bb 29 	call	0x5376	; 0x5376 <__addsf3>
    3918:	dc 01       	movw	r26, r24
    391a:	cb 01       	movw	r24, r22
    391c:	11 e0       	ldi	r17, 0x01	; 1
    391e:	2a 85       	ldd	r18, Y+10	; 0x0a
    3920:	3b 85       	ldd	r19, Y+11	; 0x0b
    3922:	4c 85       	ldd	r20, Y+12	; 0x0c
    3924:	5d 85       	ldd	r21, Y+13	; 0x0d
    3926:	bc 01       	movw	r22, r24
    3928:	cd 01       	movw	r24, r26
    392a:	0e 94 1f 2a 	call	0x543e	; 0x543e <__cmpsf2>
    392e:	88 23       	and	r24, r24
    3930:	0c f0       	brlt	.+2      	; 0x3934 <_ZN8PHSensor9isOutlierEdd+0x92>
    3932:	10 e0       	ldi	r17, 0x00	; 0
    3934:	1e 83       	std	Y+6, r17	; 0x06
    3936:	8d 81       	ldd	r24, Y+5	; 0x05
    3938:	88 23       	and	r24, r24
    393a:	19 f4       	brne	.+6      	; 0x3942 <_ZN8PHSensor9isOutlierEdd+0xa0>
    393c:	8e 81       	ldd	r24, Y+6	; 0x06
    393e:	88 23       	and	r24, r24
    3940:	11 f0       	breq	.+4      	; 0x3946 <_ZN8PHSensor9isOutlierEdd+0xa4>
    3942:	81 e0       	ldi	r24, 0x01	; 1
    3944:	01 c0       	rjmp	.+2      	; 0x3948 <_ZN8PHSensor9isOutlierEdd+0xa6>
    3946:	80 e0       	ldi	r24, 0x00	; 0
    3948:	8f 83       	std	Y+7, r24	; 0x07
    394a:	8f 81       	ldd	r24, Y+7	; 0x07
    394c:	61 96       	adiw	r28, 0x11	; 17
    394e:	e4 e0       	ldi	r30, 0x04	; 4
    3950:	0c 94 18 35 	jmp	0x6a30	; 0x6a30 <__epilogue_restores__+0x1c>

00003954 <_ZNSt6vectorIdSaIdEEC1ERKS0_>:
    3954:	a4 e0       	ldi	r26, 0x04	; 4
    3956:	b0 e0       	ldi	r27, 0x00	; 0
    3958:	e0 eb       	ldi	r30, 0xB0	; 176
    395a:	fc e1       	ldi	r31, 0x1C	; 28
    395c:	0c 94 fe 34 	jmp	0x69fc	; 0x69fc <__prologue_saves__+0x20>
    3960:	9a 83       	std	Y+2, r25	; 0x02
    3962:	89 83       	std	Y+1, r24	; 0x01
    3964:	7c 83       	std	Y+4, r23	; 0x04
    3966:	6b 83       	std	Y+3, r22	; 0x03
    3968:	89 81       	ldd	r24, Y+1	; 0x01
    396a:	9a 81       	ldd	r25, Y+2	; 0x02
    396c:	fc 01       	movw	r30, r24
    396e:	11 82       	std	Z+1, r1	; 0x01
    3970:	10 82       	st	Z, r1
    3972:	89 81       	ldd	r24, Y+1	; 0x01
    3974:	9a 81       	ldd	r25, Y+2	; 0x02
    3976:	28 e0       	ldi	r18, 0x08	; 8
    3978:	30 e0       	ldi	r19, 0x00	; 0
    397a:	fc 01       	movw	r30, r24
    397c:	33 83       	std	Z+3, r19	; 0x03
    397e:	22 83       	std	Z+2, r18	; 0x02
    3980:	89 81       	ldd	r24, Y+1	; 0x01
    3982:	9a 81       	ldd	r25, Y+2	; 0x02
    3984:	fc 01       	movw	r30, r24
    3986:	15 82       	std	Z+5, r1	; 0x05
    3988:	14 82       	std	Z+4, r1	; 0x04
    398a:	89 81       	ldd	r24, Y+1	; 0x01
    398c:	9a 81       	ldd	r25, Y+2	; 0x02
    398e:	fc 01       	movw	r30, r24
    3990:	22 81       	ldd	r18, Z+2	; 0x02
    3992:	33 81       	ldd	r19, Z+3	; 0x03
    3994:	89 81       	ldd	r24, Y+1	; 0x01
    3996:	9a 81       	ldd	r25, Y+2	; 0x02
    3998:	06 96       	adiw	r24, 0x06	; 6
    399a:	40 e0       	ldi	r20, 0x00	; 0
    399c:	50 e0       	ldi	r21, 0x00	; 0
    399e:	b9 01       	movw	r22, r18
    39a0:	0e 94 b3 13 	call	0x2766	; 0x2766 <_ZNSaIdE8allocateEjPKv>
    39a4:	9c 01       	movw	r18, r24
    39a6:	89 81       	ldd	r24, Y+1	; 0x01
    39a8:	9a 81       	ldd	r25, Y+2	; 0x02
    39aa:	fc 01       	movw	r30, r24
    39ac:	31 83       	std	Z+1, r19	; 0x01
    39ae:	20 83       	st	Z, r18
    39b0:	24 96       	adiw	r28, 0x04	; 4
    39b2:	e2 e0       	ldi	r30, 0x02	; 2
    39b4:	0c 94 1a 35 	jmp	0x6a34	; 0x6a34 <__epilogue_restores__+0x20>

000039b8 <_ZN6EEWrapIfEcvKfEv>:
    39b8:	a2 e0       	ldi	r26, 0x02	; 2
    39ba:	b0 e0       	ldi	r27, 0x00	; 0
    39bc:	e2 ee       	ldi	r30, 0xE2	; 226
    39be:	fc e1       	ldi	r31, 0x1C	; 28
    39c0:	0c 94 fe 34 	jmp	0x69fc	; 0x69fc <__prologue_saves__+0x20>
    39c4:	9a 83       	std	Y+2, r25	; 0x02
    39c6:	89 83       	std	Y+1, r24	; 0x01
    39c8:	89 81       	ldd	r24, Y+1	; 0x01
    39ca:	9a 81       	ldd	r25, Y+2	; 0x02
    39cc:	c3 d0       	rcall	.+390    	; 0x3b54 <_ZN2ee11EEMultiByteI6EEWrapIfEfE6EEReadEv>
    39ce:	dc 01       	movw	r26, r24
    39d0:	cb 01       	movw	r24, r22
    39d2:	bc 01       	movw	r22, r24
    39d4:	cd 01       	movw	r24, r26
    39d6:	22 96       	adiw	r28, 0x02	; 2
    39d8:	e2 e0       	ldi	r30, 0x02	; 2
    39da:	0c 94 1a 35 	jmp	0x6a34	; 0x6a34 <__epilogue_restores__+0x20>

000039de <_ZN6EEWrapIfEaSERKf>:
    39de:	a4 e0       	ldi	r26, 0x04	; 4
    39e0:	b0 e0       	ldi	r27, 0x00	; 0
    39e2:	e5 ef       	ldi	r30, 0xF5	; 245
    39e4:	fc e1       	ldi	r31, 0x1C	; 28
    39e6:	0c 94 fe 34 	jmp	0x69fc	; 0x69fc <__prologue_saves__+0x20>
    39ea:	9a 83       	std	Y+2, r25	; 0x02
    39ec:	89 83       	std	Y+1, r24	; 0x01
    39ee:	7c 83       	std	Y+4, r23	; 0x04
    39f0:	6b 83       	std	Y+3, r22	; 0x03
    39f2:	2b 81       	ldd	r18, Y+3	; 0x03
    39f4:	3c 81       	ldd	r19, Y+4	; 0x04
    39f6:	89 81       	ldd	r24, Y+1	; 0x01
    39f8:	9a 81       	ldd	r25, Y+2	; 0x02
    39fa:	b9 01       	movw	r22, r18
    39fc:	cb d0       	rcall	.+406    	; 0x3b94 <_ZN2ee11EEMultiByteI6EEWrapIfEfE7EEWriteERKf>
    39fe:	24 96       	adiw	r28, 0x04	; 4
    3a00:	e2 e0       	ldi	r30, 0x02	; 2
    3a02:	0c 94 1a 35 	jmp	0x6a34	; 0x6a34 <__epilogue_restores__+0x20>

00003a06 <_ZNSt6vectorIdSaIdEE9push_backERKd>:
    3a06:	a4 e0       	ldi	r26, 0x04	; 4
    3a08:	b0 e0       	ldi	r27, 0x00	; 0
    3a0a:	e9 e0       	ldi	r30, 0x09	; 9
    3a0c:	fd e1       	ldi	r31, 0x1D	; 29
    3a0e:	0c 94 fe 34 	jmp	0x69fc	; 0x69fc <__prologue_saves__+0x20>
    3a12:	9a 83       	std	Y+2, r25	; 0x02
    3a14:	89 83       	std	Y+1, r24	; 0x01
    3a16:	7c 83       	std	Y+4, r23	; 0x04
    3a18:	6b 83       	std	Y+3, r22	; 0x03
    3a1a:	89 81       	ldd	r24, Y+1	; 0x01
    3a1c:	9a 81       	ldd	r25, Y+2	; 0x02
    3a1e:	0e 94 47 13 	call	0x268e	; 0x268e <_ZNKSt6vectorIdSaIdEE4sizeEv>
    3a22:	9c 01       	movw	r18, r24
    3a24:	2f 5f       	subi	r18, 0xFF	; 255
    3a26:	3f 4f       	sbci	r19, 0xFF	; 255
    3a28:	4b 81       	ldd	r20, Y+3	; 0x03
    3a2a:	5c 81       	ldd	r21, Y+4	; 0x04
    3a2c:	89 81       	ldd	r24, Y+1	; 0x01
    3a2e:	9a 81       	ldd	r25, Y+2	; 0x02
    3a30:	b9 01       	movw	r22, r18
    3a32:	0e 94 cb 13 	call	0x2796	; 0x2796 <_ZNSt6vectorIdSaIdEE6resizeEjRKd>
    3a36:	24 96       	adiw	r28, 0x04	; 4
    3a38:	e2 e0       	ldi	r30, 0x02	; 2
    3a3a:	0c 94 1a 35 	jmp	0x6a34	; 0x6a34 <__epilogue_restores__+0x20>

00003a3e <_ZNSt6vectorIdSaIdEEC1ERKS1_>:
    3a3e:	a6 e0       	ldi	r26, 0x06	; 6
    3a40:	b0 e0       	ldi	r27, 0x00	; 0
    3a42:	e5 e2       	ldi	r30, 0x25	; 37
    3a44:	fd e1       	ldi	r31, 0x1D	; 29
    3a46:	0c 94 fe 34 	jmp	0x69fc	; 0x69fc <__prologue_saves__+0x20>
    3a4a:	9c 83       	std	Y+4, r25	; 0x04
    3a4c:	8b 83       	std	Y+3, r24	; 0x03
    3a4e:	7e 83       	std	Y+6, r23	; 0x06
    3a50:	6d 83       	std	Y+5, r22	; 0x05
    3a52:	8b 81       	ldd	r24, Y+3	; 0x03
    3a54:	9c 81       	ldd	r25, Y+4	; 0x04
    3a56:	06 96       	adiw	r24, 0x06	; 6
    3a58:	0e 94 58 13 	call	0x26b0	; 0x26b0 <_ZNSaIdEC1Ev>
    3a5c:	8d 81       	ldd	r24, Y+5	; 0x05
    3a5e:	9e 81       	ldd	r25, Y+6	; 0x06
    3a60:	fc 01       	movw	r30, r24
    3a62:	24 81       	ldd	r18, Z+4	; 0x04
    3a64:	35 81       	ldd	r19, Z+5	; 0x05
    3a66:	8b 81       	ldd	r24, Y+3	; 0x03
    3a68:	9c 81       	ldd	r25, Y+4	; 0x04
    3a6a:	fc 01       	movw	r30, r24
    3a6c:	35 83       	std	Z+5, r19	; 0x05
    3a6e:	24 83       	std	Z+4, r18	; 0x04
    3a70:	8b 81       	ldd	r24, Y+3	; 0x03
    3a72:	9c 81       	ldd	r25, Y+4	; 0x04
    3a74:	fc 01       	movw	r30, r24
    3a76:	84 81       	ldd	r24, Z+4	; 0x04
    3a78:	95 81       	ldd	r25, Z+5	; 0x05
    3a7a:	9c 01       	movw	r18, r24
    3a7c:	28 5f       	subi	r18, 0xF8	; 248
    3a7e:	3f 4f       	sbci	r19, 0xFF	; 255
    3a80:	8b 81       	ldd	r24, Y+3	; 0x03
    3a82:	9c 81       	ldd	r25, Y+4	; 0x04
    3a84:	fc 01       	movw	r30, r24
    3a86:	33 83       	std	Z+3, r19	; 0x03
    3a88:	22 83       	std	Z+2, r18	; 0x02
    3a8a:	8b 81       	ldd	r24, Y+3	; 0x03
    3a8c:	9c 81       	ldd	r25, Y+4	; 0x04
    3a8e:	fc 01       	movw	r30, r24
    3a90:	22 81       	ldd	r18, Z+2	; 0x02
    3a92:	33 81       	ldd	r19, Z+3	; 0x03
    3a94:	8b 81       	ldd	r24, Y+3	; 0x03
    3a96:	9c 81       	ldd	r25, Y+4	; 0x04
    3a98:	06 96       	adiw	r24, 0x06	; 6
    3a9a:	40 e0       	ldi	r20, 0x00	; 0
    3a9c:	50 e0       	ldi	r21, 0x00	; 0
    3a9e:	b9 01       	movw	r22, r18
    3aa0:	0e 94 b3 13 	call	0x2766	; 0x2766 <_ZNSaIdE8allocateEjPKv>
    3aa4:	9c 01       	movw	r18, r24
    3aa6:	8b 81       	ldd	r24, Y+3	; 0x03
    3aa8:	9c 81       	ldd	r25, Y+4	; 0x04
    3aaa:	fc 01       	movw	r30, r24
    3aac:	31 83       	std	Z+1, r19	; 0x01
    3aae:	20 83       	st	Z, r18
    3ab0:	1a 82       	std	Y+2, r1	; 0x02
    3ab2:	19 82       	std	Y+1, r1	; 0x01
    3ab4:	26 c0       	rjmp	.+76     	; 0x3b02 <_ZNSt6vectorIdSaIdEEC1ERKS1_+0xc4>
    3ab6:	8d 81       	ldd	r24, Y+5	; 0x05
    3ab8:	9e 81       	ldd	r25, Y+6	; 0x06
    3aba:	fc 01       	movw	r30, r24
    3abc:	20 81       	ld	r18, Z
    3abe:	31 81       	ldd	r19, Z+1	; 0x01
    3ac0:	89 81       	ldd	r24, Y+1	; 0x01
    3ac2:	9a 81       	ldd	r25, Y+2	; 0x02
    3ac4:	88 0f       	add	r24, r24
    3ac6:	99 1f       	adc	r25, r25
    3ac8:	88 0f       	add	r24, r24
    3aca:	99 1f       	adc	r25, r25
    3acc:	a9 01       	movw	r20, r18
    3ace:	48 0f       	add	r20, r24
    3ad0:	59 1f       	adc	r21, r25
    3ad2:	8b 81       	ldd	r24, Y+3	; 0x03
    3ad4:	9c 81       	ldd	r25, Y+4	; 0x04
    3ad6:	fc 01       	movw	r30, r24
    3ad8:	20 81       	ld	r18, Z
    3ada:	31 81       	ldd	r19, Z+1	; 0x01
    3adc:	89 81       	ldd	r24, Y+1	; 0x01
    3ade:	9a 81       	ldd	r25, Y+2	; 0x02
    3ae0:	88 0f       	add	r24, r24
    3ae2:	99 1f       	adc	r25, r25
    3ae4:	88 0f       	add	r24, r24
    3ae6:	99 1f       	adc	r25, r25
    3ae8:	28 0f       	add	r18, r24
    3aea:	39 1f       	adc	r19, r25
    3aec:	8b 81       	ldd	r24, Y+3	; 0x03
    3aee:	9c 81       	ldd	r25, Y+4	; 0x04
    3af0:	06 96       	adiw	r24, 0x06	; 6
    3af2:	b9 01       	movw	r22, r18
    3af4:	0e 94 d8 14 	call	0x29b0	; 0x29b0 <_ZNSaIdE9constructEPdRKd>
    3af8:	89 81       	ldd	r24, Y+1	; 0x01
    3afa:	9a 81       	ldd	r25, Y+2	; 0x02
    3afc:	01 96       	adiw	r24, 0x01	; 1
    3afe:	9a 83       	std	Y+2, r25	; 0x02
    3b00:	89 83       	std	Y+1, r24	; 0x01
    3b02:	8b 81       	ldd	r24, Y+3	; 0x03
    3b04:	9c 81       	ldd	r25, Y+4	; 0x04
    3b06:	fc 01       	movw	r30, r24
    3b08:	24 81       	ldd	r18, Z+4	; 0x04
    3b0a:	35 81       	ldd	r19, Z+5	; 0x05
    3b0c:	89 81       	ldd	r24, Y+1	; 0x01
    3b0e:	9a 81       	ldd	r25, Y+2	; 0x02
    3b10:	82 17       	cp	r24, r18
    3b12:	93 07       	cpc	r25, r19
    3b14:	80 f2       	brcs	.-96     	; 0x3ab6 <_ZNSt6vectorIdSaIdEEC1ERKS1_+0x78>
    3b16:	26 96       	adiw	r28, 0x06	; 6
    3b18:	e2 e0       	ldi	r30, 0x02	; 2
    3b1a:	0c 94 1a 35 	jmp	0x6a34	; 0x6a34 <__epilogue_restores__+0x20>

00003b1e <_ZNSt6vectorIdSaIdEEixEj>:
    3b1e:	a4 e0       	ldi	r26, 0x04	; 4
    3b20:	b0 e0       	ldi	r27, 0x00	; 0
    3b22:	e5 e9       	ldi	r30, 0x95	; 149
    3b24:	fd e1       	ldi	r31, 0x1D	; 29
    3b26:	0c 94 fe 34 	jmp	0x69fc	; 0x69fc <__prologue_saves__+0x20>
    3b2a:	9a 83       	std	Y+2, r25	; 0x02
    3b2c:	89 83       	std	Y+1, r24	; 0x01
    3b2e:	7c 83       	std	Y+4, r23	; 0x04
    3b30:	6b 83       	std	Y+3, r22	; 0x03
    3b32:	89 81       	ldd	r24, Y+1	; 0x01
    3b34:	9a 81       	ldd	r25, Y+2	; 0x02
    3b36:	fc 01       	movw	r30, r24
    3b38:	20 81       	ld	r18, Z
    3b3a:	31 81       	ldd	r19, Z+1	; 0x01
    3b3c:	8b 81       	ldd	r24, Y+3	; 0x03
    3b3e:	9c 81       	ldd	r25, Y+4	; 0x04
    3b40:	88 0f       	add	r24, r24
    3b42:	99 1f       	adc	r25, r25
    3b44:	88 0f       	add	r24, r24
    3b46:	99 1f       	adc	r25, r25
    3b48:	82 0f       	add	r24, r18
    3b4a:	93 1f       	adc	r25, r19
    3b4c:	24 96       	adiw	r28, 0x04	; 4
    3b4e:	e2 e0       	ldi	r30, 0x02	; 2
    3b50:	0c 94 1a 35 	jmp	0x6a34	; 0x6a34 <__epilogue_restores__+0x20>

00003b54 <_ZN2ee11EEMultiByteI6EEWrapIfEfE6EEReadEv>:
    3b54:	a6 e0       	ldi	r26, 0x06	; 6
    3b56:	b0 e0       	ldi	r27, 0x00	; 0
    3b58:	e0 eb       	ldi	r30, 0xB0	; 176
    3b5a:	fd e1       	ldi	r31, 0x1D	; 29
    3b5c:	0c 94 fe 34 	jmp	0x69fc	; 0x69fc <__prologue_saves__+0x20>
    3b60:	9e 83       	std	Y+6, r25	; 0x06
    3b62:	8d 83       	std	Y+5, r24	; 0x05
    3b64:	8d 81       	ldd	r24, Y+5	; 0x05
    3b66:	9e 81       	ldd	r25, Y+6	; 0x06
    3b68:	33 d0       	rcall	.+102    	; 0x3bd0 <_ZN2ee11EEMultiByteI6EEWrapIfEfE4selfEv>
    3b6a:	bc 01       	movw	r22, r24
    3b6c:	83 e0       	ldi	r24, 0x03	; 3
    3b6e:	90 e0       	ldi	r25, 0x00	; 0
    3b70:	9e 01       	movw	r18, r28
    3b72:	2f 5f       	subi	r18, 0xFF	; 255
    3b74:	3f 4f       	sbci	r19, 0xFF	; 255
    3b76:	82 0f       	add	r24, r18
    3b78:	93 1f       	adc	r25, r19
    3b7a:	44 e0       	ldi	r20, 0x04	; 4
    3b7c:	50 e0       	ldi	r21, 0x00	; 0
    3b7e:	28 d8       	rcall	.-4016   	; 0x2bd0 <_ZN2ee5tools18EEReadBlockElementEPcPhj>
    3b80:	89 81       	ldd	r24, Y+1	; 0x01
    3b82:	9a 81       	ldd	r25, Y+2	; 0x02
    3b84:	ab 81       	ldd	r26, Y+3	; 0x03
    3b86:	bc 81       	ldd	r27, Y+4	; 0x04
    3b88:	bc 01       	movw	r22, r24
    3b8a:	cd 01       	movw	r24, r26
    3b8c:	26 96       	adiw	r28, 0x06	; 6
    3b8e:	e2 e0       	ldi	r30, 0x02	; 2
    3b90:	0c 94 1a 35 	jmp	0x6a34	; 0x6a34 <__epilogue_restores__+0x20>

00003b94 <_ZN2ee11EEMultiByteI6EEWrapIfEfE7EEWriteERKf>:
    3b94:	a4 e0       	ldi	r26, 0x04	; 4
    3b96:	b0 e0       	ldi	r27, 0x00	; 0
    3b98:	e0 ed       	ldi	r30, 0xD0	; 208
    3b9a:	fd e1       	ldi	r31, 0x1D	; 29
    3b9c:	0c 94 fe 34 	jmp	0x69fc	; 0x69fc <__prologue_saves__+0x20>
    3ba0:	9a 83       	std	Y+2, r25	; 0x02
    3ba2:	89 83       	std	Y+1, r24	; 0x01
    3ba4:	7c 83       	std	Y+4, r23	; 0x04
    3ba6:	6b 83       	std	Y+3, r22	; 0x03
    3ba8:	89 81       	ldd	r24, Y+1	; 0x01
    3baa:	9a 81       	ldd	r25, Y+2	; 0x02
    3bac:	11 d0       	rcall	.+34     	; 0x3bd0 <_ZN2ee11EEMultiByteI6EEWrapIfEfE4selfEv>
    3bae:	bc 01       	movw	r22, r24
    3bb0:	83 e0       	ldi	r24, 0x03	; 3
    3bb2:	90 e0       	ldi	r25, 0x00	; 0
    3bb4:	2b 81       	ldd	r18, Y+3	; 0x03
    3bb6:	3c 81       	ldd	r19, Y+4	; 0x04
    3bb8:	82 0f       	add	r24, r18
    3bba:	93 1f       	adc	r25, r19
    3bbc:	44 e0       	ldi	r20, 0x04	; 4
    3bbe:	50 e0       	ldi	r21, 0x00	; 0
    3bc0:	3e d8       	rcall	.-3972   	; 0x2c3e <_ZN2ee5tools19EEWriteBlockElementEPKcPhj>
    3bc2:	89 81       	ldd	r24, Y+1	; 0x01
    3bc4:	9a 81       	ldd	r25, Y+2	; 0x02
    3bc6:	04 d0       	rcall	.+8      	; 0x3bd0 <_ZN2ee11EEMultiByteI6EEWrapIfEfE4selfEv>
    3bc8:	24 96       	adiw	r28, 0x04	; 4
    3bca:	e2 e0       	ldi	r30, 0x02	; 2
    3bcc:	0c 94 1a 35 	jmp	0x6a34	; 0x6a34 <__epilogue_restores__+0x20>

00003bd0 <_ZN2ee11EEMultiByteI6EEWrapIfEfE4selfEv>:

        D &EEWrite( const T& v ){
            tools::EEWriteBlockElement( (const char*) &v + sizeof(T) - 1, uptr(&self()), sizeof(T) );
            return self();
        }
        protected: STATIC_ACCESS
    3bd0:	a2 e0       	ldi	r26, 0x02	; 2
    3bd2:	b0 e0       	ldi	r27, 0x00	; 0
    3bd4:	ee ee       	ldi	r30, 0xEE	; 238
    3bd6:	fd e1       	ldi	r31, 0x1D	; 29
    3bd8:	0c 94 fe 34 	jmp	0x69fc	; 0x69fc <__prologue_saves__+0x20>
    3bdc:	9a 83       	std	Y+2, r25	; 0x02
    3bde:	89 83       	std	Y+1, r24	; 0x01
    3be0:	89 81       	ldd	r24, Y+1	; 0x01
    3be2:	9a 81       	ldd	r25, Y+2	; 0x02
    3be4:	22 96       	adiw	r28, 0x02	; 2
    3be6:	e2 e0       	ldi	r30, 0x02	; 2
    3be8:	0c 94 1a 35 	jmp	0x6a34	; 0x6a34 <__epilogue_restores__+0x20>

00003bec <_ZN9TDSSensorC1Eiib7LCDBasei>:


//TDSSensor::TDSSensor(int pin, int printPHEvery, LCDBase lcd) :
//TDSSensor(pin, printPHEvery, false, lcd) {}

TDSSensor::TDSSensor(int pin, int printTDSEvery, bool printToLCD, LCDBase lcd, int relayPin):
    3bec:	ab e0       	ldi	r26, 0x0B	; 11
    3bee:	b0 e0       	ldi	r27, 0x00	; 0
    3bf0:	ec ef       	ldi	r30, 0xFC	; 252
    3bf2:	fd e1       	ldi	r31, 0x1D	; 29
    3bf4:	0c 94 fa 34 	jmp	0x69f4	; 0x69f4 <__prologue_saves__+0x18>
    3bf8:	9a 83       	std	Y+2, r25	; 0x02
    3bfa:	89 83       	std	Y+1, r24	; 0x01
    3bfc:	7c 83       	std	Y+4, r23	; 0x04
    3bfe:	6b 83       	std	Y+3, r22	; 0x03
    3c00:	5e 83       	std	Y+6, r21	; 0x06
    3c02:	4d 83       	std	Y+5, r20	; 0x05
    3c04:	2f 83       	std	Y+7, r18	; 0x07
    3c06:	19 87       	std	Y+9, r17	; 0x09
    3c08:	08 87       	std	Y+8, r16	; 0x08
    3c0a:	fb 86       	std	Y+11, r15	; 0x0b
    3c0c:	ea 86       	std	Y+10, r14	; 0x0a
    _pin(pin), _printTDSEvery(printTDSEvery), _printToLCD(printToLCD), _lcd(lcd), _relayPin(relayPin) {
    3c0e:	89 81       	ldd	r24, Y+1	; 0x01
    3c10:	9a 81       	ldd	r25, Y+2	; 0x02
    3c12:	2b 81       	ldd	r18, Y+3	; 0x03
    3c14:	3c 81       	ldd	r19, Y+4	; 0x04
    3c16:	fc 01       	movw	r30, r24
    3c18:	31 83       	std	Z+1, r19	; 0x01
    3c1a:	20 83       	st	Z, r18
    3c1c:	89 81       	ldd	r24, Y+1	; 0x01
    3c1e:	9a 81       	ldd	r25, Y+2	; 0x02
    3c20:	fc 01       	movw	r30, r24
    3c22:	17 ae       	std	Z+63, r1	; 0x3f
    3c24:	16 ae       	std	Z+62, r1	; 0x3e
    3c26:	89 81       	ldd	r24, Y+1	; 0x01
    3c28:	9a 81       	ldd	r25, Y+2	; 0x02
    3c2a:	80 5c       	subi	r24, 0xC0	; 192
    3c2c:	9f 4f       	sbci	r25, 0xFF	; 255
    3c2e:	2d 81       	ldd	r18, Y+5	; 0x05
    3c30:	3e 81       	ldd	r19, Y+6	; 0x06
    3c32:	fc 01       	movw	r30, r24
    3c34:	31 83       	std	Z+1, r19	; 0x01
    3c36:	20 83       	st	Z, r18
    3c38:	89 81       	ldd	r24, Y+1	; 0x01
    3c3a:	9a 81       	ldd	r25, Y+2	; 0x02
    3c3c:	82 5b       	subi	r24, 0xB2	; 178
    3c3e:	9f 4f       	sbci	r25, 0xFF	; 255
    3c40:	2f 81       	ldd	r18, Y+7	; 0x07
    3c42:	fc 01       	movw	r30, r24
    3c44:	20 83       	st	Z, r18
    3c46:	89 81       	ldd	r24, Y+1	; 0x01
    3c48:	9a 81       	ldd	r25, Y+2	; 0x02
    3c4a:	81 5b       	subi	r24, 0xB1	; 177
    3c4c:	9f 4f       	sbci	r25, 0xFF	; 255
    3c4e:	2a 85       	ldd	r18, Y+10	; 0x0a
    3c50:	3b 85       	ldd	r19, Y+11	; 0x0b
    3c52:	fc 01       	movw	r30, r24
    3c54:	31 83       	std	Z+1, r19	; 0x01
    3c56:	20 83       	st	Z, r18
    3c58:	89 81       	ldd	r24, Y+1	; 0x01
    3c5a:	9a 81       	ldd	r25, Y+2	; 0x02
    3c5c:	8e 5a       	subi	r24, 0xAE	; 174
    3c5e:	9f 4f       	sbci	r25, 0xFF	; 255
    3c60:	fc 01       	movw	r30, r24
    3c62:	11 82       	std	Z+1, r1	; 0x01
    3c64:	10 82       	st	Z, r1
    3c66:	89 81       	ldd	r24, Y+1	; 0x01
    3c68:	9a 81       	ldd	r25, Y+2	; 0x02
    3c6a:	8c 5a       	subi	r24, 0xAC	; 172
    3c6c:	9f 4f       	sbci	r25, 0xFF	; 255
    3c6e:	28 85       	ldd	r18, Y+8	; 0x08
    3c70:	39 85       	ldd	r19, Y+9	; 0x09
    3c72:	b9 01       	movw	r22, r18
    3c74:	b3 d8       	rcall	.-3738   	; 0x2ddc <_ZN7LCDBaseC1ERKS_>
    3c76:	89 81       	ldd	r24, Y+1	; 0x01
    3c78:	9a 81       	ldd	r25, Y+2	; 0x02
    3c7a:	88 58       	subi	r24, 0x88	; 136
    3c7c:	9f 4f       	sbci	r25, 0xFF	; 255
    3c7e:	6a e2       	ldi	r22, 0x2A	; 42
    3c80:	71 e0       	ldi	r23, 0x01	; 1
    3c82:	0e 94 22 32 	call	0x6444	; 0x6444 <_ZN6StringC1EPKc>
    3c86:	89 81       	ldd	r24, Y+1	; 0x01
    3c88:	9a 81       	ldd	r25, Y+2	; 0x02
    3c8a:	82 58       	subi	r24, 0x82	; 130
    3c8c:	9f 4f       	sbci	r25, 0xFF	; 255
    3c8e:	6a e2       	ldi	r22, 0x2A	; 42
    3c90:	71 e0       	ldi	r23, 0x01	; 1
    3c92:	0e 94 22 32 	call	0x6444	; 0x6444 <_ZN6StringC1EPKc>
    3c96:	89 81       	ldd	r24, Y+1	; 0x01
    3c98:	9a 81       	ldd	r25, Y+2	; 0x02
    3c9a:	8c 57       	subi	r24, 0x7C	; 124
    3c9c:	9f 4f       	sbci	r25, 0xFF	; 255
    3c9e:	2a eb       	ldi	r18, 0xBA	; 186
    3ca0:	34 e0       	ldi	r19, 0x04	; 4
    3ca2:	fc 01       	movw	r30, r24
    3ca4:	31 83       	std	Z+1, r19	; 0x01
    3ca6:	20 83       	st	Z, r18
    init();
    3ca8:	89 81       	ldd	r24, Y+1	; 0x01
    3caa:	9a 81       	ldd	r25, Y+2	; 0x02
    3cac:	04 d0       	rcall	.+8      	; 0x3cb6 <_ZN9TDSSensor4initEv>
}
    3cae:	2b 96       	adiw	r28, 0x0b	; 11
    3cb0:	e6 e0       	ldi	r30, 0x06	; 6
    3cb2:	0c 94 16 35 	jmp	0x6a2c	; 0x6a2c <__epilogue_restores__+0x18>

00003cb6 <_ZN9TDSSensor4initEv>:

//PHSensor::PHSensor() :
//PHSensor(0, 0, false) {}

void TDSSensor::init() {
    3cb6:	a6 e0       	ldi	r26, 0x06	; 6
    3cb8:	b0 e0       	ldi	r27, 0x00	; 0
    3cba:	e1 e6       	ldi	r30, 0x61	; 97
    3cbc:	fe e1       	ldi	r31, 0x1E	; 30
    3cbe:	0c 94 fe 34 	jmp	0x69fc	; 0x69fc <__prologue_saves__+0x20>
    3cc2:	9e 83       	std	Y+6, r25	; 0x06
    3cc4:	8d 83       	std	Y+5, r24	; 0x05
    //led to show board working
    pinMode(13, OUTPUT);
    3cc6:	61 e0       	ldi	r22, 0x01	; 1
    3cc8:	8d e0       	ldi	r24, 0x0D	; 13
    3cca:	0e 94 28 31 	call	0x6250	; 0x6250 <pinMode>
    pinMode(_relayPin, OUTPUT);
    3cce:	8d 81       	ldd	r24, Y+5	; 0x05
    3cd0:	9e 81       	ldd	r25, Y+6	; 0x06
    3cd2:	81 5b       	subi	r24, 0xB1	; 177
    3cd4:	9f 4f       	sbci	r25, 0xFF	; 255
    3cd6:	fc 01       	movw	r30, r24
    3cd8:	80 81       	ld	r24, Z
    3cda:	91 81       	ldd	r25, Z+1	; 0x01
    3cdc:	61 e0       	ldi	r22, 0x01	; 1
    3cde:	0e 94 28 31 	call	0x6250	; 0x6250 <pinMode>
    //TdsOffset.load();
    //if(isnan(TdsOffset)) {
    //TdsOffset = 1210;
    //}

    double offset = TheSensorsMem.TdsOffset;
    3ce2:	80 91 a9 01 	lds	r24, 0x01A9	; 0x8001a9 <_ZN6Memory13TheSensorsMemE>
    3ce6:	90 91 aa 01 	lds	r25, 0x01AA	; 0x8001aa <_ZN6Memory13TheSensorsMemE+0x1>
    3cea:	04 96       	adiw	r24, 0x04	; 4
    3cec:	b3 d3       	rcall	.+1894   	; 0x4454 <_ZN6EEWrapIiEcvKiEv>
    3cee:	09 2e       	mov	r0, r25
    3cf0:	00 0c       	add	r0, r0
    3cf2:	aa 0b       	sbc	r26, r26
    3cf4:	bb 0b       	sbc	r27, r27
    3cf6:	bc 01       	movw	r22, r24
    3cf8:	cd 01       	movw	r24, r26
    3cfa:	0e 94 be 2a 	call	0x557c	; 0x557c <__floatsisf>
    3cfe:	dc 01       	movw	r26, r24
    3d00:	cb 01       	movw	r24, r22
    3d02:	89 83       	std	Y+1, r24	; 0x01
    3d04:	9a 83       	std	Y+2, r25	; 0x02
    3d06:	ab 83       	std	Y+3, r26	; 0x03
    3d08:	bc 83       	std	Y+4, r27	; 0x04
    if(!isnan(offset)) {
    3d0a:	29 81       	ldd	r18, Y+1	; 0x01
    3d0c:	3a 81       	ldd	r19, Y+2	; 0x02
    3d0e:	4b 81       	ldd	r20, Y+3	; 0x03
    3d10:	5c 81       	ldd	r21, Y+4	; 0x04
    3d12:	69 81       	ldd	r22, Y+1	; 0x01
    3d14:	7a 81       	ldd	r23, Y+2	; 0x02
    3d16:	8b 81       	ldd	r24, Y+3	; 0x03
    3d18:	9c 81       	ldd	r25, Y+4	; 0x04
    3d1a:	0e 94 d5 2b 	call	0x57aa	; 0x57aa <__unordsf2>
    3d1e:	88 23       	and	r24, r24
    3d20:	81 f4       	brne	.+32     	; 0x3d42 <_ZN9TDSSensor4initEv+0x8c>
        Offset = offset;
    3d22:	69 81       	ldd	r22, Y+1	; 0x01
    3d24:	7a 81       	ldd	r23, Y+2	; 0x02
    3d26:	8b 81       	ldd	r24, Y+3	; 0x03
    3d28:	9c 81       	ldd	r25, Y+4	; 0x04
    3d2a:	0e 94 8b 2a 	call	0x5516	; 0x5516 <__fixsfsi>
    3d2e:	dc 01       	movw	r26, r24
    3d30:	cb 01       	movw	r24, r22
    3d32:	9c 01       	movw	r18, r24
    3d34:	8d 81       	ldd	r24, Y+5	; 0x05
    3d36:	9e 81       	ldd	r25, Y+6	; 0x06
    3d38:	8c 57       	subi	r24, 0x7C	; 124
    3d3a:	9f 4f       	sbci	r25, 0xFF	; 255
    3d3c:	fc 01       	movw	r30, r24
    3d3e:	31 83       	std	Z+1, r19	; 0x01
    3d40:	20 83       	st	Z, r18
    }
}
    3d42:	26 96       	adiw	r28, 0x06	; 6
    3d44:	e2 e0       	ldi	r30, 0x02	; 2
    3d46:	0c 94 1a 35 	jmp	0x6a34	; 0x6a34 <__epilogue_restores__+0x20>

00003d4a <_ZN9TDSSensor6UpdateEi>:
void TDSSensor::Update(int offset) {
    3d4a:	a4 e0       	ldi	r26, 0x04	; 4
    3d4c:	b0 e0       	ldi	r27, 0x00	; 0
    3d4e:	eb ea       	ldi	r30, 0xAB	; 171
    3d50:	fe e1       	ldi	r31, 0x1E	; 30
    3d52:	0c 94 fe 34 	jmp	0x69fc	; 0x69fc <__prologue_saves__+0x20>
    3d56:	9a 83       	std	Y+2, r25	; 0x02
    3d58:	89 83       	std	Y+1, r24	; 0x01
    3d5a:	7c 83       	std	Y+4, r23	; 0x04
    3d5c:	6b 83       	std	Y+3, r22	; 0x03
    Offset = offset;
    3d5e:	89 81       	ldd	r24, Y+1	; 0x01
    3d60:	9a 81       	ldd	r25, Y+2	; 0x02
    3d62:	8c 57       	subi	r24, 0x7C	; 124
    3d64:	9f 4f       	sbci	r25, 0xFF	; 255
    3d66:	2b 81       	ldd	r18, Y+3	; 0x03
    3d68:	3c 81       	ldd	r19, Y+4	; 0x04
    3d6a:	fc 01       	movw	r30, r24
    3d6c:	31 83       	std	Z+1, r19	; 0x01
    3d6e:	20 83       	st	Z, r18
    TheSensorsMem.TdsOffset = Offset;
    3d70:	89 81       	ldd	r24, Y+1	; 0x01
    3d72:	9a 81       	ldd	r25, Y+2	; 0x02
    3d74:	9c 01       	movw	r18, r24
    3d76:	2c 57       	subi	r18, 0x7C	; 124
    3d78:	3f 4f       	sbci	r19, 0xFF	; 255
    3d7a:	80 91 a9 01 	lds	r24, 0x01A9	; 0x8001a9 <_ZN6Memory13TheSensorsMemE>
    3d7e:	90 91 aa 01 	lds	r25, 0x01AA	; 0x8001aa <_ZN6Memory13TheSensorsMemE+0x1>
    3d82:	04 96       	adiw	r24, 0x04	; 4
    3d84:	b9 01       	movw	r22, r18
    3d86:	75 d3       	rcall	.+1770   	; 0x4472 <_ZN6EEWrapIiEaSERKi>
}
    3d88:	24 96       	adiw	r28, 0x04	; 4
    3d8a:	e2 e0       	ldi	r30, 0x02	; 2
    3d8c:	0c 94 1a 35 	jmp	0x6a34	; 0x6a34 <__epilogue_restores__+0x20>

00003d90 <_ZN9TDSSensor6GetTDSEv>:

double TDSSensor::GetTDS() {
    3d90:	ae e0       	ldi	r26, 0x0E	; 14
    3d92:	b0 e0       	ldi	r27, 0x00	; 0
    3d94:	ee ec       	ldi	r30, 0xCE	; 206
    3d96:	fe e1       	ldi	r31, 0x1E	; 30
    3d98:	0c 94 fe 34 	jmp	0x69fc	; 0x69fc <__prologue_saves__+0x20>
    3d9c:	9e 87       	std	Y+14, r25	; 0x0e
    3d9e:	8d 87       	std	Y+13, r24	; 0x0d
    //// change the analog out value:
    //analogWrite(9, outputValue);
    //double sensorVal2 = analogRead(_pin);//analogRead(1);


    TdsString = String(_tdsValue, 0).c_str();
    3da0:	8d 85       	ldd	r24, Y+13	; 0x0d
    3da2:	9e 85       	ldd	r25, Y+14	; 0x0e
    3da4:	8e 5b       	subi	r24, 0xBE	; 190
    3da6:	9f 4f       	sbci	r25, 0xFF	; 255
    3da8:	fc 01       	movw	r30, r24
    3daa:	80 81       	ld	r24, Z
    3dac:	91 81       	ldd	r25, Z+1	; 0x01
    3dae:	a2 81       	ldd	r26, Z+2	; 0x02
    3db0:	b3 81       	ldd	r27, Z+3	; 0x03
    3db2:	fe 01       	movw	r30, r28
    3db4:	37 96       	adiw	r30, 0x07	; 7
    3db6:	20 e0       	ldi	r18, 0x00	; 0
    3db8:	ac 01       	movw	r20, r24
    3dba:	bd 01       	movw	r22, r26
    3dbc:	cf 01       	movw	r24, r30
    3dbe:	0e 94 bd 32 	call	0x657a	; 0x657a <_ZN6StringC1Efh>
    3dc2:	ce 01       	movw	r24, r28
    3dc4:	07 96       	adiw	r24, 0x07	; 7
    3dc6:	0e 94 43 15 	call	0x2a86	; 0x2a86 <_ZNK6String5c_strEv>
    3dca:	9c 01       	movw	r18, r24
    3dcc:	8d 85       	ldd	r24, Y+13	; 0x0d
    3dce:	9e 85       	ldd	r25, Y+14	; 0x0e
    3dd0:	88 58       	subi	r24, 0x88	; 136
    3dd2:	9f 4f       	sbci	r25, 0xFF	; 255
    3dd4:	b9 01       	movw	r22, r18
    3dd6:	0e 94 53 32 	call	0x64a6	; 0x64a6 <_ZN6StringaSEPKc>
    3dda:	ce 01       	movw	r24, r28
    3ddc:	07 96       	adiw	r24, 0x07	; 7
    3dde:	0e 94 bb 31 	call	0x6376	; 0x6376 <_ZN6StringD1Ev>
    TdsAvgString = String(_tdsValueAverage, 0).c_str();
    3de2:	8d 85       	ldd	r24, Y+13	; 0x0d
    3de4:	9e 85       	ldd	r25, Y+14	; 0x0e
    3de6:	8a 5b       	subi	r24, 0xBA	; 186
    3de8:	9f 4f       	sbci	r25, 0xFF	; 255
    3dea:	fc 01       	movw	r30, r24
    3dec:	80 81       	ld	r24, Z
    3dee:	91 81       	ldd	r25, Z+1	; 0x01
    3df0:	a2 81       	ldd	r26, Z+2	; 0x02
    3df2:	b3 81       	ldd	r27, Z+3	; 0x03
    3df4:	20 e0       	ldi	r18, 0x00	; 0
    3df6:	ac 01       	movw	r20, r24
    3df8:	bd 01       	movw	r22, r26
    3dfa:	ce 01       	movw	r24, r28
    3dfc:	01 96       	adiw	r24, 0x01	; 1
    3dfe:	0e 94 bd 32 	call	0x657a	; 0x657a <_ZN6StringC1Efh>
    3e02:	ce 01       	movw	r24, r28
    3e04:	01 96       	adiw	r24, 0x01	; 1
    3e06:	0e 94 43 15 	call	0x2a86	; 0x2a86 <_ZNK6String5c_strEv>
    3e0a:	9c 01       	movw	r18, r24
    3e0c:	8d 85       	ldd	r24, Y+13	; 0x0d
    3e0e:	9e 85       	ldd	r25, Y+14	; 0x0e
    3e10:	82 58       	subi	r24, 0x82	; 130
    3e12:	9f 4f       	sbci	r25, 0xFF	; 255
    3e14:	b9 01       	movw	r22, r18
    3e16:	0e 94 53 32 	call	0x64a6	; 0x64a6 <_ZN6StringaSEPKc>
    3e1a:	ce 01       	movw	r24, r28
    3e1c:	01 96       	adiw	r24, 0x01	; 1
    3e1e:	0e 94 bb 31 	call	0x6376	; 0x6376 <_ZN6StringD1Ev>
    return _tdsValue;
    3e22:	8d 85       	ldd	r24, Y+13	; 0x0d
    3e24:	9e 85       	ldd	r25, Y+14	; 0x0e
    3e26:	8e 5b       	subi	r24, 0xBE	; 190
    3e28:	9f 4f       	sbci	r25, 0xFF	; 255
    3e2a:	fc 01       	movw	r30, r24
    3e2c:	80 81       	ld	r24, Z
    3e2e:	91 81       	ldd	r25, Z+1	; 0x01
    3e30:	a2 81       	ldd	r26, Z+2	; 0x02
    3e32:	b3 81       	ldd	r27, Z+3	; 0x03

}
    3e34:	bc 01       	movw	r22, r24
    3e36:	cd 01       	movw	r24, r26
    3e38:	2e 96       	adiw	r28, 0x0e	; 14
    3e3a:	e2 e0       	ldi	r30, 0x02	; 2
    3e3c:	0c 94 1a 35 	jmp	0x6a34	; 0x6a34 <__epilogue_restores__+0x20>

00003e40 <_ZN9TDSSensor13PrintTDSToLCDEv>:
void TDSSensor::PrintTDSToLCD() {
    3e40:	aa e1       	ldi	r26, 0x1A	; 26
    3e42:	b0 e0       	ldi	r27, 0x00	; 0
    3e44:	e6 e2       	ldi	r30, 0x26	; 38
    3e46:	ff e1       	ldi	r31, 0x1F	; 31
    3e48:	0c 94 fa 34 	jmp	0x69f4	; 0x69f4 <__prologue_saves__+0x18>
    3e4c:	9a 8f       	std	Y+26, r25	; 0x1a
    3e4e:	89 8f       	std	Y+25, r24	; 0x19
    GetTDS();
    3e50:	89 8d       	ldd	r24, Y+25	; 0x19
    3e52:	9a 8d       	ldd	r25, Y+26	; 0x1a
    3e54:	9d df       	rcall	.-198    	; 0x3d90 <_ZN9TDSSensor6GetTDSEv>
    static unsigned long printTime = millis();
    3e56:	84 e1       	ldi	r24, 0x14	; 20
    3e58:	93 e0       	ldi	r25, 0x03	; 3
    3e5a:	fc 01       	movw	r30, r24
    3e5c:	80 81       	ld	r24, Z
    3e5e:	88 23       	and	r24, r24
    3e60:	89 f4       	brne	.+34     	; 0x3e84 <_ZN9TDSSensor13PrintTDSToLCDEv+0x44>
    3e62:	0e 94 32 30 	call	0x6064	; 0x6064 <millis>
    3e66:	dc 01       	movw	r26, r24
    3e68:	cb 01       	movw	r24, r22
    3e6a:	80 93 2c 03 	sts	0x032C, r24	; 0x80032c <_ZZN9TDSSensor13PrintTDSToLCDEvE9printTime>
    3e6e:	90 93 2d 03 	sts	0x032D, r25	; 0x80032d <_ZZN9TDSSensor13PrintTDSToLCDEvE9printTime+0x1>
    3e72:	a0 93 2e 03 	sts	0x032E, r26	; 0x80032e <_ZZN9TDSSensor13PrintTDSToLCDEvE9printTime+0x2>
    3e76:	b0 93 2f 03 	sts	0x032F, r27	; 0x80032f <_ZZN9TDSSensor13PrintTDSToLCDEvE9printTime+0x3>
    3e7a:	84 e1       	ldi	r24, 0x14	; 20
    3e7c:	93 e0       	ldi	r25, 0x03	; 3
    3e7e:	21 e0       	ldi	r18, 0x01	; 1
    3e80:	fc 01       	movw	r30, r24
    3e82:	20 83       	st	Z, r18
    if(millis() - printTime > _printTDSEvery + 400) { //Every 800 milliseconds, print a numerical, convert the state of the LED indicator
    3e84:	0e 94 32 30 	call	0x6064	; 0x6064 <millis>
    3e88:	9b 01       	movw	r18, r22
    3e8a:	ac 01       	movw	r20, r24
    3e8c:	80 91 2c 03 	lds	r24, 0x032C	; 0x80032c <_ZZN9TDSSensor13PrintTDSToLCDEvE9printTime>
    3e90:	90 91 2d 03 	lds	r25, 0x032D	; 0x80032d <_ZZN9TDSSensor13PrintTDSToLCDEvE9printTime+0x1>
    3e94:	a0 91 2e 03 	lds	r26, 0x032E	; 0x80032e <_ZZN9TDSSensor13PrintTDSToLCDEvE9printTime+0x2>
    3e98:	b0 91 2f 03 	lds	r27, 0x032F	; 0x80032f <_ZZN9TDSSensor13PrintTDSToLCDEvE9printTime+0x3>
    3e9c:	28 1b       	sub	r18, r24
    3e9e:	39 0b       	sbc	r19, r25
    3ea0:	4a 0b       	sbc	r20, r26
    3ea2:	5b 0b       	sbc	r21, r27
    3ea4:	89 8d       	ldd	r24, Y+25	; 0x19
    3ea6:	9a 8d       	ldd	r25, Y+26	; 0x1a
    3ea8:	80 5c       	subi	r24, 0xC0	; 192
    3eaa:	9f 4f       	sbci	r25, 0xFF	; 255
    3eac:	fc 01       	movw	r30, r24
    3eae:	80 81       	ld	r24, Z
    3eb0:	91 81       	ldd	r25, Z+1	; 0x01
    3eb2:	80 57       	subi	r24, 0x70	; 112
    3eb4:	9e 4f       	sbci	r25, 0xFE	; 254
    3eb6:	09 2e       	mov	r0, r25
    3eb8:	00 0c       	add	r0, r0
    3eba:	aa 0b       	sbc	r26, r26
    3ebc:	bb 0b       	sbc	r27, r27
    3ebe:	61 e0       	ldi	r22, 0x01	; 1
    3ec0:	82 17       	cp	r24, r18
    3ec2:	93 07       	cpc	r25, r19
    3ec4:	a4 07       	cpc	r26, r20
    3ec6:	b5 07       	cpc	r27, r21
    3ec8:	08 f0       	brcs	.+2      	; 0x3ecc <_ZN9TDSSensor13PrintTDSToLCDEv+0x8c>
    3eca:	60 e0       	ldi	r22, 0x00	; 0
    3ecc:	66 23       	and	r22, r22
    3ece:	09 f4       	brne	.+2      	; 0x3ed2 <_ZN9TDSSensor13PrintTDSToLCDEv+0x92>
    3ed0:	7f c0       	rjmp	.+254    	; 0x3fd0 <_ZN9TDSSensor13PrintTDSToLCDEv+0x190>
        if(_printToLCD) {
    3ed2:	89 8d       	ldd	r24, Y+25	; 0x19
    3ed4:	9a 8d       	ldd	r25, Y+26	; 0x1a
    3ed6:	82 5b       	subi	r24, 0xB2	; 178
    3ed8:	9f 4f       	sbci	r25, 0xFF	; 255
    3eda:	fc 01       	movw	r30, r24
    3edc:	80 81       	ld	r24, Z
    3ede:	88 23       	and	r24, r24
    3ee0:	09 f4       	brne	.+2      	; 0x3ee4 <_ZN9TDSSensor13PrintTDSToLCDEv+0xa4>
    3ee2:	60 c0       	rjmp	.+192    	; 0x3fa4 <_ZN9TDSSensor13PrintTDSToLCDEv+0x164>
            String enabled = "";
    3ee4:	ce 01       	movw	r24, r28
    3ee6:	0d 96       	adiw	r24, 0x0d	; 13
    3ee8:	6a e2       	ldi	r22, 0x2A	; 42
    3eea:	71 e0       	ldi	r23, 0x01	; 1
    3eec:	0e 94 22 32 	call	0x6444	; 0x6444 <_ZN6StringC1EPKc>
            if(_enabled) {
    3ef0:	89 8d       	ldd	r24, Y+25	; 0x19
    3ef2:	9a 8d       	ldd	r25, Y+26	; 0x1a
    3ef4:	8f 5a       	subi	r24, 0xAF	; 175
    3ef6:	9f 4f       	sbci	r25, 0xFF	; 255
    3ef8:	fc 01       	movw	r30, r24
    3efa:	80 81       	ld	r24, Z
    3efc:	88 23       	and	r24, r24
    3efe:	31 f0       	breq	.+12     	; 0x3f0c <_ZN9TDSSensor13PrintTDSToLCDEv+0xcc>
                enabled = "<";
    3f00:	ce 01       	movw	r24, r28
    3f02:	0d 96       	adiw	r24, 0x0d	; 13
    3f04:	6b e2       	ldi	r22, 0x2B	; 43
    3f06:	71 e0       	ldi	r23, 0x01	; 1
    3f08:	0e 94 53 32 	call	0x64a6	; 0x64a6 <_ZN6StringaSEPKc>
            }
            String text = "TDS: " + TdsAvgString + ", " + TdsString + enabled;
    3f0c:	89 8d       	ldd	r24, Y+25	; 0x19
    3f0e:	9a 8d       	ldd	r25, Y+26	; 0x1a
    3f10:	8c 01       	movw	r16, r24
    3f12:	08 58       	subi	r16, 0x88	; 136
    3f14:	1f 4f       	sbci	r17, 0xFF	; 255
    3f16:	89 8d       	ldd	r24, Y+25	; 0x19
    3f18:	9a 8d       	ldd	r25, Y+26	; 0x1a
    3f1a:	7c 01       	movw	r14, r24
    3f1c:	fe e7       	ldi	r31, 0x7E	; 126
    3f1e:	ef 0e       	add	r14, r31
    3f20:	f1 1c       	adc	r15, r1
    3f22:	ce 01       	movw	r24, r28
    3f24:	07 96       	adiw	r24, 0x07	; 7
    3f26:	6d e2       	ldi	r22, 0x2D	; 45
    3f28:	71 e0       	ldi	r23, 0x01	; 1
    3f2a:	0e 94 54 15 	call	0x2aa8	; 0x2aa8 <_ZN15StringSumHelperC1EPKc>
    3f2e:	ce 01       	movw	r24, r28
    3f30:	07 96       	adiw	r24, 0x07	; 7
    3f32:	b7 01       	movw	r22, r14
    3f34:	0e 94 65 33 	call	0x66ca	; 0x66ca <_ZplRK15StringSumHelperRK6String>
    3f38:	63 e3       	ldi	r22, 0x33	; 51
    3f3a:	71 e0       	ldi	r23, 0x01	; 1
    3f3c:	0e 94 76 33 	call	0x66ec	; 0x66ec <_ZplRK15StringSumHelperPKc>
    3f40:	b8 01       	movw	r22, r16
    3f42:	0e 94 65 33 	call	0x66ca	; 0x66ca <_ZplRK15StringSumHelperRK6String>
    3f46:	9c 01       	movw	r18, r24
    3f48:	ce 01       	movw	r24, r28
    3f4a:	0d 96       	adiw	r24, 0x0d	; 13
    3f4c:	bc 01       	movw	r22, r24
    3f4e:	c9 01       	movw	r24, r18
    3f50:	0e 94 65 33 	call	0x66ca	; 0x66ca <_ZplRK15StringSumHelperRK6String>
    3f54:	9c 01       	movw	r18, r24
    3f56:	ce 01       	movw	r24, r28
    3f58:	43 96       	adiw	r24, 0x13	; 19
    3f5a:	b9 01       	movw	r22, r18
    3f5c:	0e 94 4b 32 	call	0x6496	; 0x6496 <_ZN6StringC1ERKS_>
    3f60:	ce 01       	movw	r24, r28
    3f62:	07 96       	adiw	r24, 0x07	; 7
    3f64:	8e db       	rcall	.-2276   	; 0x3682 <_ZN15StringSumHelperD1Ev>
            _lcd.PrintLine(1, text);
    3f66:	ce 01       	movw	r24, r28
    3f68:	43 96       	adiw	r24, 0x13	; 19
    3f6a:	bc 01       	movw	r22, r24
    3f6c:	ce 01       	movw	r24, r28
    3f6e:	01 96       	adiw	r24, 0x01	; 1
    3f70:	0e 94 4b 32 	call	0x6496	; 0x6496 <_ZN6StringC1ERKS_>
    3f74:	89 8d       	ldd	r24, Y+25	; 0x19
    3f76:	9a 8d       	ldd	r25, Y+26	; 0x1a
    3f78:	8c 5a       	subi	r24, 0xAC	; 172
    3f7a:	9f 4f       	sbci	r25, 0xFF	; 255
    3f7c:	9e 01       	movw	r18, r28
    3f7e:	2f 5f       	subi	r18, 0xFF	; 255
    3f80:	3f 4f       	sbci	r19, 0xFF	; 255
    3f82:	a9 01       	movw	r20, r18
    3f84:	61 e0       	ldi	r22, 0x01	; 1
    3f86:	70 e0       	ldi	r23, 0x00	; 0
    3f88:	0e 94 80 10 	call	0x2100	; 0x2100 <_ZN7LCDBase9PrintLineEs6String>
    3f8c:	ce 01       	movw	r24, r28
    3f8e:	01 96       	adiw	r24, 0x01	; 1
    3f90:	0e 94 bb 31 	call	0x6376	; 0x6376 <_ZN6StringD1Ev>
        if(_printToLCD) {
            String enabled = "";
            if(_enabled) {
                enabled = "<";
            }
            String text = "TDS: " + TdsAvgString + ", " + TdsString + enabled;
    3f94:	ce 01       	movw	r24, r28
    3f96:	43 96       	adiw	r24, 0x13	; 19
    3f98:	0e 94 bb 31 	call	0x6376	; 0x6376 <_ZN6StringD1Ev>
            _lcd.PrintLine(1, text);
    3f9c:	ce 01       	movw	r24, r28
    3f9e:	0d 96       	adiw	r24, 0x0d	; 13
    3fa0:	0e 94 bb 31 	call	0x6376	; 0x6376 <_ZN6StringD1Ev>

        }
        digitalWrite(13, digitalRead(13) ^ 1);
    3fa4:	8d e0       	ldi	r24, 0x0D	; 13
    3fa6:	0e 94 93 31 	call	0x6326	; 0x6326 <digitalRead>
    3faa:	98 2f       	mov	r25, r24
    3fac:	81 e0       	ldi	r24, 0x01	; 1
    3fae:	89 27       	eor	r24, r25
    3fb0:	68 2f       	mov	r22, r24
    3fb2:	8d e0       	ldi	r24, 0x0D	; 13
    3fb4:	0e 94 64 31 	call	0x62c8	; 0x62c8 <digitalWrite>
        printTime = millis();
    3fb8:	0e 94 32 30 	call	0x6064	; 0x6064 <millis>
    3fbc:	dc 01       	movw	r26, r24
    3fbe:	cb 01       	movw	r24, r22
    3fc0:	80 93 2c 03 	sts	0x032C, r24	; 0x80032c <_ZZN9TDSSensor13PrintTDSToLCDEvE9printTime>
    3fc4:	90 93 2d 03 	sts	0x032D, r25	; 0x80032d <_ZZN9TDSSensor13PrintTDSToLCDEvE9printTime+0x1>
    3fc8:	a0 93 2e 03 	sts	0x032E, r26	; 0x80032e <_ZZN9TDSSensor13PrintTDSToLCDEvE9printTime+0x2>
    3fcc:	b0 93 2f 03 	sts	0x032F, r27	; 0x80032f <_ZZN9TDSSensor13PrintTDSToLCDEvE9printTime+0x3>
    }
}
    3fd0:	6a 96       	adiw	r28, 0x1a	; 26
    3fd2:	e6 e0       	ldi	r30, 0x06	; 6
    3fd4:	0c 94 16 35 	jmp	0x6a2c	; 0x6a2c <__epilogue_restores__+0x18>

00003fd8 <_ZN9TDSSensor12CalculateTDSEv>:
void TDSSensor::CalculateTDS() {
    3fd8:	a2 e0       	ldi	r26, 0x02	; 2
    3fda:	b0 e0       	ldi	r27, 0x00	; 0
    3fdc:	e2 ef       	ldi	r30, 0xF2	; 242
    3fde:	ff e1       	ldi	r31, 0x1F	; 31
    3fe0:	0c 94 f8 34 	jmp	0x69f0	; 0x69f0 <__prologue_saves__+0x14>
    3fe4:	9a 83       	std	Y+2, r25	; 0x02
    3fe6:	89 83       	std	Y+1, r24	; 0x01

    if(!_enabled) {
    3fe8:	89 81       	ldd	r24, Y+1	; 0x01
    3fea:	9a 81       	ldd	r25, Y+2	; 0x02
    3fec:	8f 5a       	subi	r24, 0xAF	; 175
    3fee:	9f 4f       	sbci	r25, 0xFF	; 255
    3ff0:	fc 01       	movw	r30, r24
    3ff2:	90 81       	ld	r25, Z
    3ff4:	81 e0       	ldi	r24, 0x01	; 1
    3ff6:	89 27       	eor	r24, r25
    3ff8:	88 23       	and	r24, r24
    3ffa:	09 f0       	breq	.+2      	; 0x3ffe <_ZN9TDSSensor12CalculateTDSEv+0x26>
        return;
    3ffc:	1b c1       	rjmp	.+566    	; 0x4234 <_ZN9TDSSensor12CalculateTDSEv+0x25c>
    }

    _tdsValue = getTDSValue();
    3ffe:	89 81       	ldd	r24, Y+1	; 0x01
    4000:	9a 81       	ldd	r25, Y+2	; 0x02
    4002:	1c d1       	rcall	.+568    	; 0x423c <_ZN9TDSSensor11getTDSValueEv>
    4004:	dc 01       	movw	r26, r24
    4006:	cb 01       	movw	r24, r22
    4008:	29 81       	ldd	r18, Y+1	; 0x01
    400a:	3a 81       	ldd	r19, Y+2	; 0x02
    400c:	2e 5b       	subi	r18, 0xBE	; 190
    400e:	3f 4f       	sbci	r19, 0xFF	; 255
    4010:	f9 01       	movw	r30, r18
    4012:	80 83       	st	Z, r24
    4014:	91 83       	std	Z+1, r25	; 0x01
    4016:	a2 83       	std	Z+2, r26	; 0x02
    4018:	b3 83       	std	Z+3, r27	; 0x03

    if(_numOfSamples <= 1) {
    401a:	89 81       	ldd	r24, Y+1	; 0x01
    401c:	9a 81       	ldd	r25, Y+2	; 0x02
    401e:	8e 5a       	subi	r24, 0xAE	; 174
    4020:	9f 4f       	sbci	r25, 0xFF	; 255
    4022:	fc 01       	movw	r30, r24
    4024:	80 81       	ld	r24, Z
    4026:	91 81       	ldd	r25, Z+1	; 0x01
    4028:	02 97       	sbiw	r24, 0x02	; 2
    402a:	dc f4       	brge	.+54     	; 0x4062 <_ZN9TDSSensor12CalculateTDSEv+0x8a>
        _numOfSamples = 1;
    402c:	89 81       	ldd	r24, Y+1	; 0x01
    402e:	9a 81       	ldd	r25, Y+2	; 0x02
    4030:	8e 5a       	subi	r24, 0xAE	; 174
    4032:	9f 4f       	sbci	r25, 0xFF	; 255
    4034:	21 e0       	ldi	r18, 0x01	; 1
    4036:	30 e0       	ldi	r19, 0x00	; 0
    4038:	fc 01       	movw	r30, r24
    403a:	31 83       	std	Z+1, r19	; 0x01
    403c:	20 83       	st	Z, r18
        _tdsTotal = _tdsValue;
    403e:	89 81       	ldd	r24, Y+1	; 0x01
    4040:	9a 81       	ldd	r25, Y+2	; 0x02
    4042:	8e 5b       	subi	r24, 0xBE	; 190
    4044:	9f 4f       	sbci	r25, 0xFF	; 255
    4046:	fc 01       	movw	r30, r24
    4048:	80 81       	ld	r24, Z
    404a:	91 81       	ldd	r25, Z+1	; 0x01
    404c:	a2 81       	ldd	r26, Z+2	; 0x02
    404e:	b3 81       	ldd	r27, Z+3	; 0x03
    4050:	29 81       	ldd	r18, Y+1	; 0x01
    4052:	3a 81       	ldd	r19, Y+2	; 0x02
    4054:	26 5b       	subi	r18, 0xB6	; 182
    4056:	3f 4f       	sbci	r19, 0xFF	; 255
    4058:	f9 01       	movw	r30, r18
    405a:	80 83       	st	Z, r24
    405c:	91 83       	std	Z+1, r25	; 0x01
    405e:	a2 83       	std	Z+2, r26	; 0x02
    4060:	b3 83       	std	Z+3, r27	; 0x03
    }

    //_tdsTotal = getTDSValue();

    static unsigned long samplingTime = millis();
    4062:	8c e1       	ldi	r24, 0x1C	; 28
    4064:	93 e0       	ldi	r25, 0x03	; 3
    4066:	fc 01       	movw	r30, r24
    4068:	80 81       	ld	r24, Z
    406a:	88 23       	and	r24, r24
    406c:	89 f4       	brne	.+34     	; 0x4090 <_ZN9TDSSensor12CalculateTDSEv+0xb8>
    406e:	0e 94 32 30 	call	0x6064	; 0x6064 <millis>
    4072:	dc 01       	movw	r26, r24
    4074:	cb 01       	movw	r24, r22
    4076:	80 93 30 03 	sts	0x0330, r24	; 0x800330 <_ZZN9TDSSensor12CalculateTDSEvE12samplingTime>
    407a:	90 93 31 03 	sts	0x0331, r25	; 0x800331 <_ZZN9TDSSensor12CalculateTDSEvE12samplingTime+0x1>
    407e:	a0 93 32 03 	sts	0x0332, r26	; 0x800332 <_ZZN9TDSSensor12CalculateTDSEvE12samplingTime+0x2>
    4082:	b0 93 33 03 	sts	0x0333, r27	; 0x800333 <_ZZN9TDSSensor12CalculateTDSEvE12samplingTime+0x3>
    4086:	8c e1       	ldi	r24, 0x1C	; 28
    4088:	93 e0       	ldi	r25, 0x03	; 3
    408a:	21 e0       	ldi	r18, 0x01	; 1
    408c:	fc 01       	movw	r30, r24
    408e:	20 83       	st	Z, r18
    if(millis() - samplingTime > 60000) { //wait 1 min inbetween readings
    4090:	0e 94 32 30 	call	0x6064	; 0x6064 <millis>
    4094:	9b 01       	movw	r18, r22
    4096:	ac 01       	movw	r20, r24
    4098:	80 91 30 03 	lds	r24, 0x0330	; 0x800330 <_ZZN9TDSSensor12CalculateTDSEvE12samplingTime>
    409c:	90 91 31 03 	lds	r25, 0x0331	; 0x800331 <_ZZN9TDSSensor12CalculateTDSEvE12samplingTime+0x1>
    40a0:	a0 91 32 03 	lds	r26, 0x0332	; 0x800332 <_ZZN9TDSSensor12CalculateTDSEvE12samplingTime+0x2>
    40a4:	b0 91 33 03 	lds	r27, 0x0333	; 0x800333 <_ZZN9TDSSensor12CalculateTDSEvE12samplingTime+0x3>
    40a8:	79 01       	movw	r14, r18
    40aa:	8a 01       	movw	r16, r20
    40ac:	e8 1a       	sub	r14, r24
    40ae:	f9 0a       	sbc	r15, r25
    40b0:	0a 0b       	sbc	r16, r26
    40b2:	1b 0b       	sbc	r17, r27
    40b4:	d8 01       	movw	r26, r16
    40b6:	c7 01       	movw	r24, r14
    40b8:	21 e0       	ldi	r18, 0x01	; 1
    40ba:	81 36       	cpi	r24, 0x61	; 97
    40bc:	9a 4e       	sbci	r25, 0xEA	; 234
    40be:	a1 05       	cpc	r26, r1
    40c0:	b1 05       	cpc	r27, r1
    40c2:	08 f4       	brcc	.+2      	; 0x40c6 <_ZN9TDSSensor12CalculateTDSEv+0xee>
    40c4:	20 e0       	ldi	r18, 0x00	; 0
    40c6:	22 23       	and	r18, r18
    40c8:	09 f4       	brne	.+2      	; 0x40cc <_ZN9TDSSensor12CalculateTDSEv+0xf4>
    40ca:	4c c0       	rjmp	.+152    	; 0x4164 <_ZN9TDSSensor12CalculateTDSEv+0x18c>

        _tdsValue = getTDSValue();
    40cc:	89 81       	ldd	r24, Y+1	; 0x01
    40ce:	9a 81       	ldd	r25, Y+2	; 0x02
    40d0:	b5 d0       	rcall	.+362    	; 0x423c <_ZN9TDSSensor11getTDSValueEv>
    40d2:	dc 01       	movw	r26, r24
    40d4:	cb 01       	movw	r24, r22
    40d6:	29 81       	ldd	r18, Y+1	; 0x01
    40d8:	3a 81       	ldd	r19, Y+2	; 0x02
    40da:	2e 5b       	subi	r18, 0xBE	; 190
    40dc:	3f 4f       	sbci	r19, 0xFF	; 255
    40de:	f9 01       	movw	r30, r18
    40e0:	80 83       	st	Z, r24
    40e2:	91 83       	std	Z+1, r25	; 0x01
    40e4:	a2 83       	std	Z+2, r26	; 0x02
    40e6:	b3 83       	std	Z+3, r27	; 0x03
        _tdsTotal += _tdsValue;
    40e8:	89 81       	ldd	r24, Y+1	; 0x01
    40ea:	9a 81       	ldd	r25, Y+2	; 0x02
    40ec:	86 5b       	subi	r24, 0xB6	; 182
    40ee:	9f 4f       	sbci	r25, 0xFF	; 255
    40f0:	fc 01       	movw	r30, r24
    40f2:	80 81       	ld	r24, Z
    40f4:	91 81       	ldd	r25, Z+1	; 0x01
    40f6:	a2 81       	ldd	r26, Z+2	; 0x02
    40f8:	b3 81       	ldd	r27, Z+3	; 0x03
    40fa:	29 81       	ldd	r18, Y+1	; 0x01
    40fc:	3a 81       	ldd	r19, Y+2	; 0x02
    40fe:	2e 5b       	subi	r18, 0xBE	; 190
    4100:	3f 4f       	sbci	r19, 0xFF	; 255
    4102:	f9 01       	movw	r30, r18
    4104:	20 81       	ld	r18, Z
    4106:	31 81       	ldd	r19, Z+1	; 0x01
    4108:	42 81       	ldd	r20, Z+2	; 0x02
    410a:	53 81       	ldd	r21, Z+3	; 0x03
    410c:	bc 01       	movw	r22, r24
    410e:	cd 01       	movw	r24, r26
    4110:	0e 94 bb 29 	call	0x5376	; 0x5376 <__addsf3>
    4114:	dc 01       	movw	r26, r24
    4116:	cb 01       	movw	r24, r22
    4118:	29 81       	ldd	r18, Y+1	; 0x01
    411a:	3a 81       	ldd	r19, Y+2	; 0x02
    411c:	26 5b       	subi	r18, 0xB6	; 182
    411e:	3f 4f       	sbci	r19, 0xFF	; 255
    4120:	f9 01       	movw	r30, r18
    4122:	80 83       	st	Z, r24
    4124:	91 83       	std	Z+1, r25	; 0x01
    4126:	a2 83       	std	Z+2, r26	; 0x02
    4128:	b3 83       	std	Z+3, r27	; 0x03
        _numOfSamples++;
    412a:	89 81       	ldd	r24, Y+1	; 0x01
    412c:	9a 81       	ldd	r25, Y+2	; 0x02
    412e:	8e 5a       	subi	r24, 0xAE	; 174
    4130:	9f 4f       	sbci	r25, 0xFF	; 255
    4132:	fc 01       	movw	r30, r24
    4134:	80 81       	ld	r24, Z
    4136:	91 81       	ldd	r25, Z+1	; 0x01
    4138:	9c 01       	movw	r18, r24
    413a:	2f 5f       	subi	r18, 0xFF	; 255
    413c:	3f 4f       	sbci	r19, 0xFF	; 255
    413e:	89 81       	ldd	r24, Y+1	; 0x01
    4140:	9a 81       	ldd	r25, Y+2	; 0x02
    4142:	8e 5a       	subi	r24, 0xAE	; 174
    4144:	9f 4f       	sbci	r25, 0xFF	; 255
    4146:	fc 01       	movw	r30, r24
    4148:	31 83       	std	Z+1, r19	; 0x01
    414a:	20 83       	st	Z, r18

        samplingTime = millis();
    414c:	0e 94 32 30 	call	0x6064	; 0x6064 <millis>
    4150:	dc 01       	movw	r26, r24
    4152:	cb 01       	movw	r24, r22
    4154:	80 93 30 03 	sts	0x0330, r24	; 0x800330 <_ZZN9TDSSensor12CalculateTDSEvE12samplingTime>
    4158:	90 93 31 03 	sts	0x0331, r25	; 0x800331 <_ZZN9TDSSensor12CalculateTDSEvE12samplingTime+0x1>
    415c:	a0 93 32 03 	sts	0x0332, r26	; 0x800332 <_ZZN9TDSSensor12CalculateTDSEvE12samplingTime+0x2>
    4160:	b0 93 33 03 	sts	0x0333, r27	; 0x800333 <_ZZN9TDSSensor12CalculateTDSEvE12samplingTime+0x3>
    }

    _tdsValueAverage = _tdsTotal / _numOfSamples;
    4164:	89 81       	ldd	r24, Y+1	; 0x01
    4166:	9a 81       	ldd	r25, Y+2	; 0x02
    4168:	86 5b       	subi	r24, 0xB6	; 182
    416a:	9f 4f       	sbci	r25, 0xFF	; 255
    416c:	fc 01       	movw	r30, r24
    416e:	c0 80       	ld	r12, Z
    4170:	d1 80       	ldd	r13, Z+1	; 0x01
    4172:	e2 80       	ldd	r14, Z+2	; 0x02
    4174:	f3 80       	ldd	r15, Z+3	; 0x03
    4176:	89 81       	ldd	r24, Y+1	; 0x01
    4178:	9a 81       	ldd	r25, Y+2	; 0x02
    417a:	8e 5a       	subi	r24, 0xAE	; 174
    417c:	9f 4f       	sbci	r25, 0xFF	; 255
    417e:	fc 01       	movw	r30, r24
    4180:	80 81       	ld	r24, Z
    4182:	91 81       	ldd	r25, Z+1	; 0x01
    4184:	09 2e       	mov	r0, r25
    4186:	00 0c       	add	r0, r0
    4188:	aa 0b       	sbc	r26, r26
    418a:	bb 0b       	sbc	r27, r27
    418c:	bc 01       	movw	r22, r24
    418e:	cd 01       	movw	r24, r26
    4190:	0e 94 be 2a 	call	0x557c	; 0x557c <__floatsisf>
    4194:	dc 01       	movw	r26, r24
    4196:	cb 01       	movw	r24, r22
    4198:	9c 01       	movw	r18, r24
    419a:	ad 01       	movw	r20, r26
    419c:	c7 01       	movw	r24, r14
    419e:	b6 01       	movw	r22, r12
    41a0:	0e 94 23 2a 	call	0x5446	; 0x5446 <__divsf3>
    41a4:	dc 01       	movw	r26, r24
    41a6:	cb 01       	movw	r24, r22
    41a8:	29 81       	ldd	r18, Y+1	; 0x01
    41aa:	3a 81       	ldd	r19, Y+2	; 0x02
    41ac:	2a 5b       	subi	r18, 0xBA	; 186
    41ae:	3f 4f       	sbci	r19, 0xFF	; 255
    41b0:	f9 01       	movw	r30, r18
    41b2:	80 83       	st	Z, r24
    41b4:	91 83       	std	Z+1, r25	; 0x01
    41b6:	a2 83       	std	Z+2, r26	; 0x02
    41b8:	b3 83       	std	Z+3, r27	; 0x03
    //Serial.println(_numOfSamples);
    //Serial.print(F("_tdsValueAverage: "));
    //Serial.println(_tdsValueAverage, 2);

    //soften
    _tdsValueAverage = (_tdsValueAverage + _tdsValue) / 2;
    41ba:	89 81       	ldd	r24, Y+1	; 0x01
    41bc:	9a 81       	ldd	r25, Y+2	; 0x02
    41be:	8a 5b       	subi	r24, 0xBA	; 186
    41c0:	9f 4f       	sbci	r25, 0xFF	; 255
    41c2:	fc 01       	movw	r30, r24
    41c4:	80 81       	ld	r24, Z
    41c6:	91 81       	ldd	r25, Z+1	; 0x01
    41c8:	a2 81       	ldd	r26, Z+2	; 0x02
    41ca:	b3 81       	ldd	r27, Z+3	; 0x03
    41cc:	29 81       	ldd	r18, Y+1	; 0x01
    41ce:	3a 81       	ldd	r19, Y+2	; 0x02
    41d0:	2e 5b       	subi	r18, 0xBE	; 190
    41d2:	3f 4f       	sbci	r19, 0xFF	; 255
    41d4:	f9 01       	movw	r30, r18
    41d6:	20 81       	ld	r18, Z
    41d8:	31 81       	ldd	r19, Z+1	; 0x01
    41da:	42 81       	ldd	r20, Z+2	; 0x02
    41dc:	53 81       	ldd	r21, Z+3	; 0x03
    41de:	bc 01       	movw	r22, r24
    41e0:	cd 01       	movw	r24, r26
    41e2:	0e 94 bb 29 	call	0x5376	; 0x5376 <__addsf3>
    41e6:	dc 01       	movw	r26, r24
    41e8:	cb 01       	movw	r24, r22
    41ea:	20 e0       	ldi	r18, 0x00	; 0
    41ec:	30 e0       	ldi	r19, 0x00	; 0
    41ee:	40 e0       	ldi	r20, 0x00	; 0
    41f0:	50 e4       	ldi	r21, 0x40	; 64
    41f2:	bc 01       	movw	r22, r24
    41f4:	cd 01       	movw	r24, r26
    41f6:	0e 94 23 2a 	call	0x5446	; 0x5446 <__divsf3>
    41fa:	dc 01       	movw	r26, r24
    41fc:	cb 01       	movw	r24, r22
    41fe:	29 81       	ldd	r18, Y+1	; 0x01
    4200:	3a 81       	ldd	r19, Y+2	; 0x02
    4202:	2a 5b       	subi	r18, 0xBA	; 186
    4204:	3f 4f       	sbci	r19, 0xFF	; 255
    4206:	f9 01       	movw	r30, r18
    4208:	80 83       	st	Z, r24
    420a:	91 83       	std	Z+1, r25	; 0x01
    420c:	a2 83       	std	Z+2, r26	; 0x02
    420e:	b3 83       	std	Z+3, r27	; 0x03
    //Serial.print(F("sft_tdsValueAverage: "));
    //Serial.println(_tdsValueAverage, 2);

    if(_numOfSamples > 10) {
    4210:	89 81       	ldd	r24, Y+1	; 0x01
    4212:	9a 81       	ldd	r25, Y+2	; 0x02
    4214:	8e 5a       	subi	r24, 0xAE	; 174
    4216:	9f 4f       	sbci	r25, 0xFF	; 255
    4218:	fc 01       	movw	r30, r24
    421a:	80 81       	ld	r24, Z
    421c:	91 81       	ldd	r25, Z+1	; 0x01
    421e:	0b 97       	sbiw	r24, 0x0b	; 11
    4220:	4c f0       	brlt	.+18     	; 0x4234 <_ZN9TDSSensor12CalculateTDSEv+0x25c>
        _numOfSamples = 1;
    4222:	89 81       	ldd	r24, Y+1	; 0x01
    4224:	9a 81       	ldd	r25, Y+2	; 0x02
    4226:	8e 5a       	subi	r24, 0xAE	; 174
    4228:	9f 4f       	sbci	r25, 0xFF	; 255
    422a:	21 e0       	ldi	r18, 0x01	; 1
    422c:	30 e0       	ldi	r19, 0x00	; 0
    422e:	fc 01       	movw	r30, r24
    4230:	31 83       	std	Z+1, r19	; 0x01
    4232:	20 83       	st	Z, r18
    }

}
    4234:	22 96       	adiw	r28, 0x02	; 2
    4236:	e8 e0       	ldi	r30, 0x08	; 8
    4238:	0c 94 14 35 	jmp	0x6a28	; 0x6a28 <__epilogue_restores__+0x14>

0000423c <_ZN9TDSSensor11getTDSValueEv>:

double TDSSensor::getTDSValue() {
    423c:	a0 e1       	ldi	r26, 0x10	; 16
    423e:	b0 e0       	ldi	r27, 0x00	; 0
    4240:	e4 e2       	ldi	r30, 0x24	; 36
    4242:	f1 e2       	ldi	r31, 0x21	; 33
    4244:	0c 94 fa 34 	jmp	0x69f4	; 0x69f4 <__prologue_saves__+0x18>
    4248:	98 8b       	std	Y+16, r25	; 0x10
    424a:	8f 87       	std	Y+15, r24	; 0x0f
    static unsigned long samplingTime = millis();
    424c:	84 e2       	ldi	r24, 0x24	; 36
    424e:	93 e0       	ldi	r25, 0x03	; 3
    4250:	fc 01       	movw	r30, r24
    4252:	80 81       	ld	r24, Z
    4254:	88 23       	and	r24, r24
    4256:	89 f4       	brne	.+34     	; 0x427a <_ZN9TDSSensor11getTDSValueEv+0x3e>
    4258:	0e 94 32 30 	call	0x6064	; 0x6064 <millis>
    425c:	dc 01       	movw	r26, r24
    425e:	cb 01       	movw	r24, r22
    4260:	80 93 34 03 	sts	0x0334, r24	; 0x800334 <_ZZN9TDSSensor11getTDSValueEvE12samplingTime>
    4264:	90 93 35 03 	sts	0x0335, r25	; 0x800335 <_ZZN9TDSSensor11getTDSValueEvE12samplingTime+0x1>
    4268:	a0 93 36 03 	sts	0x0336, r26	; 0x800336 <_ZZN9TDSSensor11getTDSValueEvE12samplingTime+0x2>
    426c:	b0 93 37 03 	sts	0x0337, r27	; 0x800337 <_ZZN9TDSSensor11getTDSValueEvE12samplingTime+0x3>
    4270:	84 e2       	ldi	r24, 0x24	; 36
    4272:	93 e0       	ldi	r25, 0x03	; 3
    4274:	21 e0       	ldi	r18, 0x01	; 1
    4276:	fc 01       	movw	r30, r24
    4278:	20 83       	st	Z, r18
    if(millis() - samplingTime > 1000) {//wait .5 sec between readings, according to spec
    427a:	0e 94 32 30 	call	0x6064	; 0x6064 <millis>
    427e:	9b 01       	movw	r18, r22
    4280:	ac 01       	movw	r20, r24
    4282:	80 91 34 03 	lds	r24, 0x0334	; 0x800334 <_ZZN9TDSSensor11getTDSValueEvE12samplingTime>
    4286:	90 91 35 03 	lds	r25, 0x0335	; 0x800335 <_ZZN9TDSSensor11getTDSValueEvE12samplingTime+0x1>
    428a:	a0 91 36 03 	lds	r26, 0x0336	; 0x800336 <_ZZN9TDSSensor11getTDSValueEvE12samplingTime+0x2>
    428e:	b0 91 37 03 	lds	r27, 0x0337	; 0x800337 <_ZZN9TDSSensor11getTDSValueEvE12samplingTime+0x3>
    4292:	79 01       	movw	r14, r18
    4294:	8a 01       	movw	r16, r20
    4296:	e8 1a       	sub	r14, r24
    4298:	f9 0a       	sbc	r15, r25
    429a:	0a 0b       	sbc	r16, r26
    429c:	1b 0b       	sbc	r17, r27
    429e:	d8 01       	movw	r26, r16
    42a0:	c7 01       	movw	r24, r14
    42a2:	21 e0       	ldi	r18, 0x01	; 1
    42a4:	89 3e       	cpi	r24, 0xE9	; 233
    42a6:	93 40       	sbci	r25, 0x03	; 3
    42a8:	a1 05       	cpc	r26, r1
    42aa:	b1 05       	cpc	r27, r1
    42ac:	08 f4       	brcc	.+2      	; 0x42b0 <_ZN9TDSSensor11getTDSValueEv+0x74>
    42ae:	20 e0       	ldi	r18, 0x00	; 0
    42b0:	22 23       	and	r18, r18
    42b2:	09 f4       	brne	.+2      	; 0x42b6 <_ZN9TDSSensor11getTDSValueEv+0x7a>
    42b4:	81 c0       	rjmp	.+258    	; 0x43b8 <_ZN9TDSSensor11getTDSValueEv+0x17c>
        int numOfSamples = 30;
    42b6:	8e e1       	ldi	r24, 0x1E	; 30
    42b8:	90 e0       	ldi	r25, 0x00	; 0
    42ba:	9a 83       	std	Y+2, r25	; 0x02
    42bc:	89 83       	std	Y+1, r24	; 0x01
        _tdsAverage[_tdsArrayIndex++] = analogRead(_pin);
    42be:	8f 85       	ldd	r24, Y+15	; 0x0f
    42c0:	98 89       	ldd	r25, Y+16	; 0x10
    42c2:	fc 01       	movw	r30, r24
    42c4:	06 ad       	ldd	r16, Z+62	; 0x3e
    42c6:	17 ad       	ldd	r17, Z+63	; 0x3f
    42c8:	98 01       	movw	r18, r16
    42ca:	2f 5f       	subi	r18, 0xFF	; 255
    42cc:	3f 4f       	sbci	r19, 0xFF	; 255
    42ce:	8f 85       	ldd	r24, Y+15	; 0x0f
    42d0:	98 89       	ldd	r25, Y+16	; 0x10
    42d2:	fc 01       	movw	r30, r24
    42d4:	37 af       	std	Z+63, r19	; 0x3f
    42d6:	26 af       	std	Z+62, r18	; 0x3e
    42d8:	8f 85       	ldd	r24, Y+15	; 0x0f
    42da:	98 89       	ldd	r25, Y+16	; 0x10
    42dc:	fc 01       	movw	r30, r24
    42de:	80 81       	ld	r24, Z
    42e0:	91 81       	ldd	r25, Z+1	; 0x01
    42e2:	0e 94 e2 30 	call	0x61c4	; 0x61c4 <analogRead>
    42e6:	ac 01       	movw	r20, r24
    42e8:	2f 85       	ldd	r18, Y+15	; 0x0f
    42ea:	38 89       	ldd	r19, Y+16	; 0x10
    42ec:	c8 01       	movw	r24, r16
    42ee:	01 96       	adiw	r24, 0x01	; 1
    42f0:	88 0f       	add	r24, r24
    42f2:	99 1f       	adc	r25, r25
    42f4:	82 0f       	add	r24, r18
    42f6:	93 1f       	adc	r25, r19
    42f8:	fc 01       	movw	r30, r24
    42fa:	51 83       	std	Z+1, r21	; 0x01
    42fc:	40 83       	st	Z, r20
        if(_tdsArrayIndex == numOfSamples) {
    42fe:	8f 85       	ldd	r24, Y+15	; 0x0f
    4300:	98 89       	ldd	r25, Y+16	; 0x10
    4302:	fc 01       	movw	r30, r24
    4304:	26 ad       	ldd	r18, Z+62	; 0x3e
    4306:	37 ad       	ldd	r19, Z+63	; 0x3f
    4308:	89 81       	ldd	r24, Y+1	; 0x01
    430a:	9a 81       	ldd	r25, Y+2	; 0x02
    430c:	28 17       	cp	r18, r24
    430e:	39 07       	cpc	r19, r25
    4310:	29 f4       	brne	.+10     	; 0x431c <_ZN9TDSSensor11getTDSValueEv+0xe0>
            _tdsArrayIndex = 0;
    4312:	8f 85       	ldd	r24, Y+15	; 0x0f
    4314:	98 89       	ldd	r25, Y+16	; 0x10
    4316:	fc 01       	movw	r30, r24
    4318:	17 ae       	std	Z+63, r1	; 0x3f
    431a:	16 ae       	std	Z+62, r1	; 0x3e
        }
        double tdsAvg = MathExt::CalculateAverage(_tdsAverage, numOfSamples);
    431c:	8f 85       	ldd	r24, Y+15	; 0x0f
    431e:	98 89       	ldd	r25, Y+16	; 0x10
    4320:	02 96       	adiw	r24, 0x02	; 2
    4322:	29 81       	ldd	r18, Y+1	; 0x01
    4324:	3a 81       	ldd	r19, Y+2	; 0x02
    4326:	b9 01       	movw	r22, r18
    4328:	0e 94 80 11 	call	0x2300	; 0x2300 <_ZN7MathExt16CalculateAverageEPii>
    432c:	dc 01       	movw	r26, r24
    432e:	cb 01       	movw	r24, r22
    4330:	8b 83       	std	Y+3, r24	; 0x03
    4332:	9c 83       	std	Y+4, r25	; 0x04
    4334:	ad 83       	std	Y+5, r26	; 0x05
    4336:	be 83       	std	Y+6, r27	; 0x06
        double voltage = tdsAvg * (5.0 / 1024);
    4338:	20 e0       	ldi	r18, 0x00	; 0
    433a:	30 e0       	ldi	r19, 0x00	; 0
    433c:	40 ea       	ldi	r20, 0xA0	; 160
    433e:	5b e3       	ldi	r21, 0x3B	; 59
    4340:	6b 81       	ldd	r22, Y+3	; 0x03
    4342:	7c 81       	ldd	r23, Y+4	; 0x04
    4344:	8d 81       	ldd	r24, Y+5	; 0x05
    4346:	9e 81       	ldd	r25, Y+6	; 0x06
    4348:	0e 94 72 2b 	call	0x56e4	; 0x56e4 <__mulsf3>
    434c:	dc 01       	movw	r26, r24
    434e:	cb 01       	movw	r24, r22
    4350:	8f 83       	std	Y+7, r24	; 0x07
    4352:	98 87       	std	Y+8, r25	; 0x08
    4354:	a9 87       	std	Y+9, r26	; 0x09
    4356:	ba 87       	std	Y+10, r27	; 0x0a
        double tankTDS = voltage * Offset;
    4358:	8f 85       	ldd	r24, Y+15	; 0x0f
    435a:	98 89       	ldd	r25, Y+16	; 0x10
    435c:	8c 57       	subi	r24, 0x7C	; 124
    435e:	9f 4f       	sbci	r25, 0xFF	; 255
    4360:	fc 01       	movw	r30, r24
    4362:	80 81       	ld	r24, Z
    4364:	91 81       	ldd	r25, Z+1	; 0x01
    4366:	09 2e       	mov	r0, r25
    4368:	00 0c       	add	r0, r0
    436a:	aa 0b       	sbc	r26, r26
    436c:	bb 0b       	sbc	r27, r27
    436e:	bc 01       	movw	r22, r24
    4370:	cd 01       	movw	r24, r26
    4372:	0e 94 be 2a 	call	0x557c	; 0x557c <__floatsisf>
    4376:	dc 01       	movw	r26, r24
    4378:	cb 01       	movw	r24, r22
    437a:	2f 81       	ldd	r18, Y+7	; 0x07
    437c:	38 85       	ldd	r19, Y+8	; 0x08
    437e:	49 85       	ldd	r20, Y+9	; 0x09
    4380:	5a 85       	ldd	r21, Y+10	; 0x0a
    4382:	bc 01       	movw	r22, r24
    4384:	cd 01       	movw	r24, r26
    4386:	0e 94 72 2b 	call	0x56e4	; 0x56e4 <__mulsf3>
    438a:	dc 01       	movw	r26, r24
    438c:	cb 01       	movw	r24, r22
    438e:	8b 87       	std	Y+11, r24	; 0x0b
    4390:	9c 87       	std	Y+12, r25	; 0x0c
    4392:	ad 87       	std	Y+13, r26	; 0x0d
    4394:	be 87       	std	Y+14, r27	; 0x0e


        samplingTime = millis();
    4396:	0e 94 32 30 	call	0x6064	; 0x6064 <millis>
    439a:	dc 01       	movw	r26, r24
    439c:	cb 01       	movw	r24, r22
    439e:	80 93 34 03 	sts	0x0334, r24	; 0x800334 <_ZZN9TDSSensor11getTDSValueEvE12samplingTime>
    43a2:	90 93 35 03 	sts	0x0335, r25	; 0x800335 <_ZZN9TDSSensor11getTDSValueEvE12samplingTime+0x1>
    43a6:	a0 93 36 03 	sts	0x0336, r26	; 0x800336 <_ZZN9TDSSensor11getTDSValueEvE12samplingTime+0x2>
    43aa:	b0 93 37 03 	sts	0x0337, r27	; 0x800337 <_ZZN9TDSSensor11getTDSValueEvE12samplingTime+0x3>
        return tankTDS;
    43ae:	8b 85       	ldd	r24, Y+11	; 0x0b
    43b0:	9c 85       	ldd	r25, Y+12	; 0x0c
    43b2:	ad 85       	ldd	r26, Y+13	; 0x0d
    43b4:	be 85       	ldd	r27, Y+14	; 0x0e
    43b6:	09 c0       	rjmp	.+18     	; 0x43ca <_ZN9TDSSensor11getTDSValueEv+0x18e>
    }
    return _tdsValue;
    43b8:	8f 85       	ldd	r24, Y+15	; 0x0f
    43ba:	98 89       	ldd	r25, Y+16	; 0x10
    43bc:	8e 5b       	subi	r24, 0xBE	; 190
    43be:	9f 4f       	sbci	r25, 0xFF	; 255
    43c0:	fc 01       	movw	r30, r24
    43c2:	80 81       	ld	r24, Z
    43c4:	91 81       	ldd	r25, Z+1	; 0x01
    43c6:	a2 81       	ldd	r26, Z+2	; 0x02
    43c8:	b3 81       	ldd	r27, Z+3	; 0x03

}
    43ca:	bc 01       	movw	r22, r24
    43cc:	cd 01       	movw	r24, r26
    43ce:	60 96       	adiw	r28, 0x10	; 16
    43d0:	e6 e0       	ldi	r30, 0x06	; 6
    43d2:	0c 94 16 35 	jmp	0x6a2c	; 0x6a2c <__epilogue_restores__+0x18>

000043d6 <_ZN9TDSSensor6TurnOnEv>:


void TDSSensor::TurnOn() {
    43d6:	a2 e0       	ldi	r26, 0x02	; 2
    43d8:	b0 e0       	ldi	r27, 0x00	; 0
    43da:	e1 ef       	ldi	r30, 0xF1	; 241
    43dc:	f1 e2       	ldi	r31, 0x21	; 33
    43de:	0c 94 fe 34 	jmp	0x69fc	; 0x69fc <__prologue_saves__+0x20>
    43e2:	9a 83       	std	Y+2, r25	; 0x02
    43e4:	89 83       	std	Y+1, r24	; 0x01
    _enabled = true;
    43e6:	89 81       	ldd	r24, Y+1	; 0x01
    43e8:	9a 81       	ldd	r25, Y+2	; 0x02
    43ea:	8f 5a       	subi	r24, 0xAF	; 175
    43ec:	9f 4f       	sbci	r25, 0xFF	; 255
    43ee:	21 e0       	ldi	r18, 0x01	; 1
    43f0:	fc 01       	movw	r30, r24
    43f2:	20 83       	st	Z, r18
    digitalWrite(_relayPin, HIGH);
    43f4:	89 81       	ldd	r24, Y+1	; 0x01
    43f6:	9a 81       	ldd	r25, Y+2	; 0x02
    43f8:	81 5b       	subi	r24, 0xB1	; 177
    43fa:	9f 4f       	sbci	r25, 0xFF	; 255
    43fc:	fc 01       	movw	r30, r24
    43fe:	80 81       	ld	r24, Z
    4400:	91 81       	ldd	r25, Z+1	; 0x01
    4402:	61 e0       	ldi	r22, 0x01	; 1
    4404:	0e 94 64 31 	call	0x62c8	; 0x62c8 <digitalWrite>
}
    4408:	22 96       	adiw	r28, 0x02	; 2
    440a:	e2 e0       	ldi	r30, 0x02	; 2
    440c:	0c 94 1a 35 	jmp	0x6a34	; 0x6a34 <__epilogue_restores__+0x20>

00004410 <_ZN9TDSSensor7TurnOffEv>:

void TDSSensor::TurnOff() {
    4410:	a2 e0       	ldi	r26, 0x02	; 2
    4412:	b0 e0       	ldi	r27, 0x00	; 0
    4414:	ee e0       	ldi	r30, 0x0E	; 14
    4416:	f2 e2       	ldi	r31, 0x22	; 34
    4418:	0c 94 fe 34 	jmp	0x69fc	; 0x69fc <__prologue_saves__+0x20>
    441c:	9a 83       	std	Y+2, r25	; 0x02
    441e:	89 83       	std	Y+1, r24	; 0x01
    _enabled = false;
    4420:	89 81       	ldd	r24, Y+1	; 0x01
    4422:	9a 81       	ldd	r25, Y+2	; 0x02
    4424:	8f 5a       	subi	r24, 0xAF	; 175
    4426:	9f 4f       	sbci	r25, 0xFF	; 255
    4428:	fc 01       	movw	r30, r24
    442a:	10 82       	st	Z, r1
    digitalWrite(_relayPin, LOW);
    442c:	89 81       	ldd	r24, Y+1	; 0x01
    442e:	9a 81       	ldd	r25, Y+2	; 0x02
    4430:	81 5b       	subi	r24, 0xB1	; 177
    4432:	9f 4f       	sbci	r25, 0xFF	; 255
    4434:	fc 01       	movw	r30, r24
    4436:	80 81       	ld	r24, Z
    4438:	91 81       	ldd	r25, Z+1	; 0x01
    443a:	60 e0       	ldi	r22, 0x00	; 0
    443c:	0e 94 64 31 	call	0x62c8	; 0x62c8 <digitalWrite>
    delay(1000);
    4440:	68 ee       	ldi	r22, 0xE8	; 232
    4442:	73 e0       	ldi	r23, 0x03	; 3
    4444:	80 e0       	ldi	r24, 0x00	; 0
    4446:	90 e0       	ldi	r25, 0x00	; 0
    4448:	0e 94 63 30 	call	0x60c6	; 0x60c6 <delay>

}
    444c:	22 96       	adiw	r28, 0x02	; 2
    444e:	e2 e0       	ldi	r30, 0x02	; 2
    4450:	0c 94 1a 35 	jmp	0x6a34	; 0x6a34 <__epilogue_restores__+0x20>

00004454 <_ZN6EEWrapIiEcvKiEv>:
            ee::EEMode<T>::Extension{

        using ee::EEMode<T>::Interface::EERead;
        using ee::EEMode<T>::Interface::EEWrite;

        operator const T() { return EERead(); }
    4454:	a2 e0       	ldi	r26, 0x02	; 2
    4456:	b0 e0       	ldi	r27, 0x00	; 0
    4458:	e0 e3       	ldi	r30, 0x30	; 48
    445a:	f2 e2       	ldi	r31, 0x22	; 34
    445c:	0c 94 fe 34 	jmp	0x69fc	; 0x69fc <__prologue_saves__+0x20>
    4460:	9a 83       	std	Y+2, r25	; 0x02
    4462:	89 83       	std	Y+1, r24	; 0x01
    4464:	89 81       	ldd	r24, Y+1	; 0x01
    4466:	9a 81       	ldd	r25, Y+2	; 0x02
    4468:	18 d0       	rcall	.+48     	; 0x449a <_ZN2ee11EEMultiByteI6EEWrapIiEiE6EEReadEv>
    446a:	22 96       	adiw	r28, 0x02	; 2
    446c:	e2 e0       	ldi	r30, 0x02	; 2
    446e:	0c 94 1a 35 	jmp	0x6a34	; 0x6a34 <__epilogue_restores__+0x20>

00004472 <_ZN6EEWrapIiEaSERKi>:
        EEWrap &operator =( const T &in ){  return EEWrite( in ); }
    4472:	a4 e0       	ldi	r26, 0x04	; 4
    4474:	b0 e0       	ldi	r27, 0x00	; 0
    4476:	ef e3       	ldi	r30, 0x3F	; 63
    4478:	f2 e2       	ldi	r31, 0x22	; 34
    447a:	0c 94 fe 34 	jmp	0x69fc	; 0x69fc <__prologue_saves__+0x20>
    447e:	9a 83       	std	Y+2, r25	; 0x02
    4480:	89 83       	std	Y+1, r24	; 0x01
    4482:	7c 83       	std	Y+4, r23	; 0x04
    4484:	6b 83       	std	Y+3, r22	; 0x03
    4486:	2b 81       	ldd	r18, Y+3	; 0x03
    4488:	3c 81       	ldd	r19, Y+4	; 0x04
    448a:	89 81       	ldd	r24, Y+1	; 0x01
    448c:	9a 81       	ldd	r25, Y+2	; 0x02
    448e:	b9 01       	movw	r22, r18
    4490:	21 d0       	rcall	.+66     	; 0x44d4 <_ZN2ee11EEMultiByteI6EEWrapIiEiE7EEWriteERKi>
    4492:	24 96       	adiw	r28, 0x04	; 4
    4494:	e2 e0       	ldi	r30, 0x02	; 2
    4496:	0c 94 1a 35 	jmp	0x6a34	; 0x6a34 <__epilogue_restores__+0x20>

0000449a <_ZN2ee11EEMultiByteI6EEWrapIiEiE6EEReadEv>:

    template< typename D, typename T >
    class EEMultiByte{
        public:

        T EERead( void ){
    449a:	a4 e0       	ldi	r26, 0x04	; 4
    449c:	b0 e0       	ldi	r27, 0x00	; 0
    449e:	e3 e5       	ldi	r30, 0x53	; 83
    44a0:	f2 e2       	ldi	r31, 0x22	; 34
    44a2:	0c 94 fe 34 	jmp	0x69fc	; 0x69fc <__prologue_saves__+0x20>
    44a6:	9c 83       	std	Y+4, r25	; 0x04
    44a8:	8b 83       	std	Y+3, r24	; 0x03
            T ret;
            tools::EEReadBlockElement( (char*)&ret + sizeof(T) - 1, uptr(&self()), sizeof(T) );
    44aa:	8b 81       	ldd	r24, Y+3	; 0x03
    44ac:	9c 81       	ldd	r25, Y+4	; 0x04
    44ae:	31 d0       	rcall	.+98     	; 0x4512 <_ZN2ee11EEMultiByteI6EEWrapIiEiE4selfEv>
    44b0:	bc 01       	movw	r22, r24
    44b2:	81 e0       	ldi	r24, 0x01	; 1
    44b4:	90 e0       	ldi	r25, 0x00	; 0
    44b6:	9e 01       	movw	r18, r28
    44b8:	2f 5f       	subi	r18, 0xFF	; 255
    44ba:	3f 4f       	sbci	r19, 0xFF	; 255
    44bc:	82 0f       	add	r24, r18
    44be:	93 1f       	adc	r25, r19
    44c0:	42 e0       	ldi	r20, 0x02	; 2
    44c2:	50 e0       	ldi	r21, 0x00	; 0
    44c4:	0e 94 e8 15 	call	0x2bd0	; 0x2bd0 <_ZN2ee5tools18EEReadBlockElementEPcPhj>
            return(ret);
    44c8:	89 81       	ldd	r24, Y+1	; 0x01
    44ca:	9a 81       	ldd	r25, Y+2	; 0x02
        }
    44cc:	24 96       	adiw	r28, 0x04	; 4
    44ce:	e2 e0       	ldi	r30, 0x02	; 2
    44d0:	0c 94 1a 35 	jmp	0x6a34	; 0x6a34 <__epilogue_restores__+0x20>

000044d4 <_ZN2ee11EEMultiByteI6EEWrapIiEiE7EEWriteERKi>:

        D &EEWrite( const T& v ){
    44d4:	a4 e0       	ldi	r26, 0x04	; 4
    44d6:	b0 e0       	ldi	r27, 0x00	; 0
    44d8:	e0 e7       	ldi	r30, 0x70	; 112
    44da:	f2 e2       	ldi	r31, 0x22	; 34
    44dc:	0c 94 fe 34 	jmp	0x69fc	; 0x69fc <__prologue_saves__+0x20>
    44e0:	9a 83       	std	Y+2, r25	; 0x02
    44e2:	89 83       	std	Y+1, r24	; 0x01
    44e4:	7c 83       	std	Y+4, r23	; 0x04
    44e6:	6b 83       	std	Y+3, r22	; 0x03
            tools::EEWriteBlockElement( (const char*) &v + sizeof(T) - 1, uptr(&self()), sizeof(T) );
    44e8:	89 81       	ldd	r24, Y+1	; 0x01
    44ea:	9a 81       	ldd	r25, Y+2	; 0x02
    44ec:	12 d0       	rcall	.+36     	; 0x4512 <_ZN2ee11EEMultiByteI6EEWrapIiEiE4selfEv>
    44ee:	bc 01       	movw	r22, r24
    44f0:	81 e0       	ldi	r24, 0x01	; 1
    44f2:	90 e0       	ldi	r25, 0x00	; 0
    44f4:	2b 81       	ldd	r18, Y+3	; 0x03
    44f6:	3c 81       	ldd	r19, Y+4	; 0x04
    44f8:	82 0f       	add	r24, r18
    44fa:	93 1f       	adc	r25, r19
    44fc:	42 e0       	ldi	r20, 0x02	; 2
    44fe:	50 e0       	ldi	r21, 0x00	; 0
    4500:	0e 94 1f 16 	call	0x2c3e	; 0x2c3e <_ZN2ee5tools19EEWriteBlockElementEPKcPhj>
            return self();
    4504:	89 81       	ldd	r24, Y+1	; 0x01
    4506:	9a 81       	ldd	r25, Y+2	; 0x02
    4508:	04 d0       	rcall	.+8      	; 0x4512 <_ZN2ee11EEMultiByteI6EEWrapIiEiE4selfEv>
        }
    450a:	24 96       	adiw	r28, 0x04	; 4
    450c:	e2 e0       	ldi	r30, 0x02	; 2
    450e:	0c 94 1a 35 	jmp	0x6a34	; 0x6a34 <__epilogue_restores__+0x20>

00004512 <_ZN2ee11EEMultiByteI6EEWrapIiEiE4selfEv>:
        protected: STATIC_ACCESS
    4512:	a2 e0       	ldi	r26, 0x02	; 2
    4514:	b0 e0       	ldi	r27, 0x00	; 0
    4516:	ef e8       	ldi	r30, 0x8F	; 143
    4518:	f2 e2       	ldi	r31, 0x22	; 34
    451a:	0c 94 fe 34 	jmp	0x69fc	; 0x69fc <__prologue_saves__+0x20>
    451e:	9a 83       	std	Y+2, r25	; 0x02
    4520:	89 83       	std	Y+1, r24	; 0x01
    4522:	89 81       	ldd	r24, Y+1	; 0x01
    4524:	9a 81       	ldd	r25, Y+2	; 0x02
    4526:	22 96       	adiw	r28, 0x02	; 2
    4528:	e2 e0       	ldi	r30, 0x02	; 2
    452a:	0c 94 1a 35 	jmp	0x6a34	; 0x6a34 <__epilogue_restores__+0x20>

0000452e <_ZNK6String6lengthEv>:
    pinMode(SDA, INPUT_PULLUP); // and make SDA high i.e. send I2C STOP control.
    delayMicroseconds(10); // x. wait >5uS
    pinMode(SDA, INPUT); // and reset pins as tri-state inputs which is the default state on reset
    pinMode(SCL, INPUT);
    return 0; // all ok
    452e:	a2 e0       	ldi	r26, 0x02	; 2
    4530:	b0 e0       	ldi	r27, 0x00	; 0
    4532:	ed e9       	ldi	r30, 0x9D	; 157
    4534:	f2 e2       	ldi	r31, 0x22	; 34
    4536:	0c 94 fe 34 	jmp	0x69fc	; 0x69fc <__prologue_saves__+0x20>
    453a:	9a 83       	std	Y+2, r25	; 0x02
    453c:	89 83       	std	Y+1, r24	; 0x01
    453e:	89 81       	ldd	r24, Y+1	; 0x01
    4540:	9a 81       	ldd	r25, Y+2	; 0x02
    4542:	fc 01       	movw	r30, r24
    4544:	84 81       	ldd	r24, Z+4	; 0x04
    4546:	95 81       	ldd	r25, Z+5	; 0x05
    4548:	22 96       	adiw	r28, 0x02	; 2
    454a:	e2 e0       	ldi	r30, 0x02	; 2
    454c:	0c 94 1a 35 	jmp	0x6a34	; 0x6a34 <__epilogue_restores__+0x20>

00004550 <_ZN6StringpLEPKc>:
    4550:	a4 e0       	ldi	r26, 0x04	; 4
    4552:	b0 e0       	ldi	r27, 0x00	; 0
    4554:	ee ea       	ldi	r30, 0xAE	; 174
    4556:	f2 e2       	ldi	r31, 0x22	; 34
    4558:	0c 94 fe 34 	jmp	0x69fc	; 0x69fc <__prologue_saves__+0x20>
    455c:	9a 83       	std	Y+2, r25	; 0x02
    455e:	89 83       	std	Y+1, r24	; 0x01
    4560:	7c 83       	std	Y+4, r23	; 0x04
    4562:	6b 83       	std	Y+3, r22	; 0x03
    4564:	2b 81       	ldd	r18, Y+3	; 0x03
    4566:	3c 81       	ldd	r19, Y+4	; 0x04
    4568:	89 81       	ldd	r24, Y+1	; 0x01
    456a:	9a 81       	ldd	r25, Y+2	; 0x02
    456c:	b9 01       	movw	r22, r18
    456e:	0e 94 45 33 	call	0x668a	; 0x668a <_ZN6String6concatEPKc>
    4572:	89 81       	ldd	r24, Y+1	; 0x01
    4574:	9a 81       	ldd	r25, Y+2	; 0x02
    4576:	24 96       	adiw	r28, 0x04	; 4
    4578:	e2 e0       	ldi	r30, 0x02	; 2
    457a:	0c 94 1a 35 	jmp	0x6a34	; 0x6a34 <__epilogue_restores__+0x20>

0000457e <_ZNK6StringeqEPKc>:
    457e:	a4 e0       	ldi	r26, 0x04	; 4
    4580:	b0 e0       	ldi	r27, 0x00	; 0
    4582:	e5 ec       	ldi	r30, 0xC5	; 197
    4584:	f2 e2       	ldi	r31, 0x22	; 34
    4586:	0c 94 fe 34 	jmp	0x69fc	; 0x69fc <__prologue_saves__+0x20>
    458a:	9a 83       	std	Y+2, r25	; 0x02
    458c:	89 83       	std	Y+1, r24	; 0x01
    458e:	7c 83       	std	Y+4, r23	; 0x04
    4590:	6b 83       	std	Y+3, r22	; 0x03
    4592:	2b 81       	ldd	r18, Y+3	; 0x03
    4594:	3c 81       	ldd	r19, Y+4	; 0x04
    4596:	89 81       	ldd	r24, Y+1	; 0x01
    4598:	9a 81       	ldd	r25, Y+2	; 0x02
    459a:	b9 01       	movw	r22, r18
    459c:	0e 94 8d 33 	call	0x671a	; 0x671a <_ZNK6String6equalsEPKc>
    45a0:	24 96       	adiw	r28, 0x04	; 4
    45a2:	e2 e0       	ldi	r30, 0x02	; 2
    45a4:	0c 94 1a 35 	jmp	0x6a34	; 0x6a34 <__epilogue_restores__+0x20>

000045a8 <_ZN15StringSumHelperC1ERK6String>:
    45a8:	a4 e0       	ldi	r26, 0x04	; 4
    45aa:	b0 e0       	ldi	r27, 0x00	; 0
    45ac:	ea ed       	ldi	r30, 0xDA	; 218
    45ae:	f2 e2       	ldi	r31, 0x22	; 34
    45b0:	0c 94 fe 34 	jmp	0x69fc	; 0x69fc <__prologue_saves__+0x20>
    45b4:	9a 83       	std	Y+2, r25	; 0x02
    45b6:	89 83       	std	Y+1, r24	; 0x01
    45b8:	7c 83       	std	Y+4, r23	; 0x04
    45ba:	6b 83       	std	Y+3, r22	; 0x03
    45bc:	89 81       	ldd	r24, Y+1	; 0x01
    45be:	9a 81       	ldd	r25, Y+2	; 0x02
    45c0:	2b 81       	ldd	r18, Y+3	; 0x03
    45c2:	3c 81       	ldd	r19, Y+4	; 0x04
    45c4:	b9 01       	movw	r22, r18
    45c6:	0e 94 4b 32 	call	0x6496	; 0x6496 <_ZN6StringC1ERKS_>
    45ca:	24 96       	adiw	r28, 0x04	; 4
    45cc:	e2 e0       	ldi	r30, 0x02	; 2
    45ce:	0c 94 1a 35 	jmp	0x6a34	; 0x6a34 <__epilogue_restores__+0x20>

000045d2 <_ZN15WaterSensorWire5SetupEv>:
    45d2:	a0 e0       	ldi	r26, 0x00	; 0
    45d4:	b0 e0       	ldi	r27, 0x00	; 0
    45d6:	ef ee       	ldi	r30, 0xEF	; 239
    45d8:	f2 e2       	ldi	r31, 0x22	; 34
    45da:	0c 94 fe 34 	jmp	0x69fc	; 0x69fc <__prologue_saves__+0x20>
    45de:	8a ef       	ldi	r24, 0xFA	; 250
    45e0:	93 e0       	ldi	r25, 0x03	; 3
    45e2:	bc 01       	movw	r22, r24
    45e4:	86 e8       	ldi	r24, 0x86	; 134
    45e6:	95 e0       	ldi	r25, 0x05	; 5
    45e8:	0e 94 dc 2d 	call	0x5bb8	; 0x5bb8 <_ZN5Print5printEPK19__FlashStringHelper>
    45ec:	4a e0       	ldi	r20, 0x0A	; 10
    45ee:	50 e0       	ldi	r21, 0x00	; 0
    45f0:	68 e0       	ldi	r22, 0x08	; 8
    45f2:	86 e8       	ldi	r24, 0x86	; 134
    45f4:	95 e0       	ldi	r25, 0x05	; 5
    45f6:	0e 94 f2 2e 	call	0x5de4	; 0x5de4 <_ZN5Print7printlnEhi>
    45fa:	68 e0       	ldi	r22, 0x08	; 8
    45fc:	81 e9       	ldi	r24, 0x91	; 145
    45fe:	92 e0       	ldi	r25, 0x02	; 2
    4600:	0e 94 32 05 	call	0xa64	; 0xa64 <_ZN7TwoWire5beginEh>
    4604:	60 e1       	ldi	r22, 0x10	; 16
    4606:	75 e2       	ldi	r23, 0x25	; 37
    4608:	81 e9       	ldi	r24, 0x91	; 145
    460a:	92 e0       	ldi	r25, 0x02	; 2
    460c:	0e 94 a5 06 	call	0xd4a	; 0xd4a <_ZN7TwoWire9onRequestEPFvvE>
    4610:	66 e1       	ldi	r22, 0x16	; 22
    4612:	74 e2       	ldi	r23, 0x24	; 36
    4614:	81 e9       	ldi	r24, 0x91	; 145
    4616:	92 e0       	ldi	r25, 0x02	; 2
    4618:	0e 94 91 06 	call	0xd22	; 0xd22 <_ZN7TwoWire9onReceiveEPFviE>
    461c:	e2 e0       	ldi	r30, 0x02	; 2
    461e:	0c 94 1a 35 	jmp	0x6a34	; 0x6a34 <__epilogue_restores__+0x20>

00004622 <_ZN15WaterSensorWire4LoopEv>:
    4622:	a4 e3       	ldi	r26, 0x34	; 52
    4624:	b0 e0       	ldi	r27, 0x00	; 0
    4626:	e7 e1       	ldi	r30, 0x17	; 23
    4628:	f3 e2       	ldi	r31, 0x23	; 35
    462a:	0c 94 fe 34 	jmp	0x69fc	; 0x69fc <__prologue_saves__+0x20>
    462e:	80 91 ad 01 	lds	r24, 0x01AD	; 0x8001ad <_ZN7Globals11ThePHSensorE>
    4632:	90 91 ae 01 	lds	r25, 0x01AE	; 0x8001ae <_ZN7Globals11ThePHSensorE+0x1>
    4636:	8f 57       	subi	r24, 0x7F	; 127
    4638:	9f 4f       	sbci	r25, 0xFF	; 255
    463a:	0e 94 43 15 	call	0x2a86	; 0x2a86 <_ZNK6String5c_strEv>
    463e:	bc 01       	movw	r22, r24
    4640:	86 e5       	ldi	r24, 0x56	; 86
    4642:	93 e0       	ldi	r25, 0x03	; 3
    4644:	0e 94 53 32 	call	0x64a6	; 0x64a6 <_ZN6StringaSEPKc>
    4648:	80 91 ad 01 	lds	r24, 0x01AD	; 0x8001ad <_ZN7Globals11ThePHSensorE>
    464c:	90 91 ae 01 	lds	r25, 0x01AE	; 0x8001ae <_ZN7Globals11ThePHSensorE+0x1>
    4650:	89 57       	subi	r24, 0x79	; 121
    4652:	9f 4f       	sbci	r25, 0xFF	; 255
    4654:	0e 94 43 15 	call	0x2a86	; 0x2a86 <_ZNK6String5c_strEv>
    4658:	bc 01       	movw	r22, r24
    465a:	8c e5       	ldi	r24, 0x5C	; 92
    465c:	93 e0       	ldi	r25, 0x03	; 3
    465e:	0e 94 53 32 	call	0x64a6	; 0x64a6 <_ZN6StringaSEPKc>
    4662:	80 91 af 01 	lds	r24, 0x01AF	; 0x8001af <_ZN7Globals12TheTDSSensorE>
    4666:	90 91 b0 01 	lds	r25, 0x01B0	; 0x8001b0 <_ZN7Globals12TheTDSSensorE+0x1>
    466a:	88 58       	subi	r24, 0x88	; 136
    466c:	9f 4f       	sbci	r25, 0xFF	; 255
    466e:	0e 94 43 15 	call	0x2a86	; 0x2a86 <_ZNK6String5c_strEv>
    4672:	bc 01       	movw	r22, r24
    4674:	82 e6       	ldi	r24, 0x62	; 98
    4676:	93 e0       	ldi	r25, 0x03	; 3
    4678:	0e 94 53 32 	call	0x64a6	; 0x64a6 <_ZN6StringaSEPKc>
    467c:	80 91 af 01 	lds	r24, 0x01AF	; 0x8001af <_ZN7Globals12TheTDSSensorE>
    4680:	90 91 b0 01 	lds	r25, 0x01B0	; 0x8001b0 <_ZN7Globals12TheTDSSensorE+0x1>
    4684:	82 58       	subi	r24, 0x82	; 130
    4686:	9f 4f       	sbci	r25, 0xFF	; 255
    4688:	0e 94 43 15 	call	0x2a86	; 0x2a86 <_ZNK6String5c_strEv>
    468c:	bc 01       	movw	r22, r24
    468e:	88 e6       	ldi	r24, 0x68	; 104
    4690:	93 e0       	ldi	r25, 0x03	; 3
    4692:	0e 94 53 32 	call	0x64a6	; 0x64a6 <_ZN6StringaSEPKc>
    4696:	80 91 ad 01 	lds	r24, 0x01AD	; 0x8001ad <_ZN7Globals11ThePHSensorE>
    469a:	90 91 ae 01 	lds	r25, 0x01AE	; 0x8001ae <_ZN7Globals11ThePHSensorE+0x1>
    469e:	83 57       	subi	r24, 0x73	; 115
    46a0:	9f 4f       	sbci	r25, 0xFF	; 255
    46a2:	fc 01       	movw	r30, r24
    46a4:	80 81       	ld	r24, Z
    46a6:	91 81       	ldd	r25, Z+1	; 0x01
    46a8:	a2 81       	ldd	r26, Z+2	; 0x02
    46aa:	b3 81       	ldd	r27, Z+3	; 0x03
    46ac:	fe 01       	movw	r30, r28
    46ae:	b7 96       	adiw	r30, 0x27	; 39
    46b0:	22 e0       	ldi	r18, 0x02	; 2
    46b2:	ac 01       	movw	r20, r24
    46b4:	bd 01       	movw	r22, r26
    46b6:	cf 01       	movw	r24, r30
    46b8:	0e 94 eb 32 	call	0x65d6	; 0x65d6 <_ZN6StringC1Edh>
    46bc:	ce 01       	movw	r24, r28
    46be:	87 96       	adiw	r24, 0x27	; 39
    46c0:	0e 94 43 15 	call	0x2a86	; 0x2a86 <_ZNK6String5c_strEv>
    46c4:	bc 01       	movw	r22, r24
    46c6:	80 e8       	ldi	r24, 0x80	; 128
    46c8:	93 e0       	ldi	r25, 0x03	; 3
    46ca:	0e 94 53 32 	call	0x64a6	; 0x64a6 <_ZN6StringaSEPKc>
    46ce:	ce 01       	movw	r24, r28
    46d0:	87 96       	adiw	r24, 0x27	; 39
    46d2:	0e 94 bb 31 	call	0x6376	; 0x6376 <_ZN6StringD1Ev>
    46d6:	80 91 af 01 	lds	r24, 0x01AF	; 0x8001af <_ZN7Globals12TheTDSSensorE>
    46da:	90 91 b0 01 	lds	r25, 0x01B0	; 0x8001b0 <_ZN7Globals12TheTDSSensorE+0x1>
    46de:	8c 57       	subi	r24, 0x7C	; 124
    46e0:	9f 4f       	sbci	r25, 0xFF	; 255
    46e2:	fc 01       	movw	r30, r24
    46e4:	20 81       	ld	r18, Z
    46e6:	31 81       	ldd	r19, Z+1	; 0x01
    46e8:	ce 01       	movw	r24, r28
    46ea:	81 96       	adiw	r24, 0x21	; 33
    46ec:	4a e0       	ldi	r20, 0x0A	; 10
    46ee:	b9 01       	movw	r22, r18
    46f0:	0e 94 68 32 	call	0x64d0	; 0x64d0 <_ZN6StringC1Eih>
    46f4:	ce 01       	movw	r24, r28
    46f6:	81 96       	adiw	r24, 0x21	; 33
    46f8:	0e 94 43 15 	call	0x2a86	; 0x2a86 <_ZNK6String5c_strEv>
    46fc:	bc 01       	movw	r22, r24
    46fe:	86 e8       	ldi	r24, 0x86	; 134
    4700:	93 e0       	ldi	r25, 0x03	; 3
    4702:	0e 94 53 32 	call	0x64a6	; 0x64a6 <_ZN6StringaSEPKc>
    4706:	ce 01       	movw	r24, r28
    4708:	81 96       	adiw	r24, 0x21	; 33
    470a:	0e 94 bb 31 	call	0x6376	; 0x6376 <_ZN6StringD1Ev>
    470e:	90 91 8c 03 	lds	r25, 0x038C	; 0x80038c <_ZN7Globals10ReadingTDSE>
    4712:	81 e0       	ldi	r24, 0x01	; 1
    4714:	89 27       	eor	r24, r25
    4716:	88 23       	and	r24, r24
    4718:	39 f0       	breq	.+14     	; 0x4728 <_ZN15WaterSensorWire4LoopEv+0x106>
    471a:	66 e3       	ldi	r22, 0x36	; 54
    471c:	71 e0       	ldi	r23, 0x01	; 1
    471e:	8a e7       	ldi	r24, 0x7A	; 122
    4720:	93 e0       	ldi	r25, 0x03	; 3
    4722:	0e 94 53 32 	call	0x64a6	; 0x64a6 <_ZN6StringaSEPKc>
    4726:	06 c0       	rjmp	.+12     	; 0x4734 <_ZN15WaterSensorWire4LoopEv+0x112>
    4728:	69 e3       	ldi	r22, 0x39	; 57
    472a:	71 e0       	ldi	r23, 0x01	; 1
    472c:	8a e7       	ldi	r24, 0x7A	; 122
    472e:	93 e0       	ldi	r25, 0x03	; 3
    4730:	0e 94 53 32 	call	0x64a6	; 0x64a6 <_ZN6StringaSEPKc>
    4734:	80 91 8d 03 	lds	r24, 0x038D	; 0x80038d <_ZN7Globals18SensorReadDurationE>
    4738:	90 91 8e 03 	lds	r25, 0x038E	; 0x80038e <_ZN7Globals18SensorReadDurationE+0x1>
    473c:	a0 91 8f 03 	lds	r26, 0x038F	; 0x80038f <_ZN7Globals18SensorReadDurationE+0x2>
    4740:	b0 91 90 03 	lds	r27, 0x0390	; 0x800390 <_ZN7Globals18SensorReadDurationE+0x3>
    4744:	28 ee       	ldi	r18, 0xE8	; 232
    4746:	33 e0       	ldi	r19, 0x03	; 3
    4748:	40 e0       	ldi	r20, 0x00	; 0
    474a:	50 e0       	ldi	r21, 0x00	; 0
    474c:	bc 01       	movw	r22, r24
    474e:	cd 01       	movw	r24, r26
    4750:	0e 94 c2 34 	call	0x6984	; 0x6984 <__divmodsi4>
    4754:	da 01       	movw	r26, r20
    4756:	c9 01       	movw	r24, r18
    4758:	89 83       	std	Y+1, r24	; 0x01
    475a:	9a 83       	std	Y+2, r25	; 0x02
    475c:	ab 83       	std	Y+3, r26	; 0x03
    475e:	bc 83       	std	Y+4, r27	; 0x04
    4760:	89 81       	ldd	r24, Y+1	; 0x01
    4762:	9a 81       	ldd	r25, Y+2	; 0x02
    4764:	ab 81       	ldd	r26, Y+3	; 0x03
    4766:	bc 81       	ldd	r27, Y+4	; 0x04
    4768:	fe 01       	movw	r30, r28
    476a:	75 96       	adiw	r30, 0x15	; 21
    476c:	2a e0       	ldi	r18, 0x0A	; 10
    476e:	ac 01       	movw	r20, r24
    4770:	bd 01       	movw	r22, r26
    4772:	cf 01       	movw	r24, r30
    4774:	0e 94 92 32 	call	0x6524	; 0x6524 <_ZN6StringC1Elh>
    4778:	9e 01       	movw	r18, r28
    477a:	2b 5e       	subi	r18, 0xEB	; 235
    477c:	3f 4f       	sbci	r19, 0xFF	; 255
    477e:	ce 01       	movw	r24, r28
    4780:	4b 96       	adiw	r24, 0x1b	; 27
    4782:	b9 01       	movw	r22, r18
    4784:	11 df       	rcall	.-478    	; 0x45a8 <_ZN15StringSumHelperC1ERK6String>
    4786:	ce 01       	movw	r24, r28
    4788:	4b 96       	adiw	r24, 0x1b	; 27
    478a:	6d e3       	ldi	r22, 0x3D	; 61
    478c:	71 e0       	ldi	r23, 0x01	; 1
    478e:	0e 94 76 33 	call	0x66ec	; 0x66ec <_ZplRK15StringSumHelperPKc>
    4792:	bc 01       	movw	r22, r24
    4794:	84 e7       	ldi	r24, 0x74	; 116
    4796:	93 e0       	ldi	r25, 0x03	; 3
    4798:	0e 94 36 32 	call	0x646c	; 0x646c <_ZN6StringaSERKS_>
    479c:	ce 01       	movw	r24, r28
    479e:	4b 96       	adiw	r24, 0x1b	; 27
    47a0:	0e 94 41 1b 	call	0x3682	; 0x3682 <_ZN15StringSumHelperD1Ev>
    47a4:	ce 01       	movw	r24, r28
    47a6:	45 96       	adiw	r24, 0x15	; 21
    47a8:	0e 94 bb 31 	call	0x6376	; 0x6376 <_ZN6StringD1Ev>
    47ac:	80 91 10 01 	lds	r24, 0x0110	; 0x800110 <_ZN7Globals18SensorReadIntervalE>
    47b0:	90 91 11 01 	lds	r25, 0x0111	; 0x800111 <_ZN7Globals18SensorReadIntervalE+0x1>
    47b4:	a0 91 12 01 	lds	r26, 0x0112	; 0x800112 <_ZN7Globals18SensorReadIntervalE+0x2>
    47b8:	b0 91 13 01 	lds	r27, 0x0113	; 0x800113 <_ZN7Globals18SensorReadIntervalE+0x3>
    47bc:	28 ee       	ldi	r18, 0xE8	; 232
    47be:	33 e0       	ldi	r19, 0x03	; 3
    47c0:	40 e0       	ldi	r20, 0x00	; 0
    47c2:	50 e0       	ldi	r21, 0x00	; 0
    47c4:	bc 01       	movw	r22, r24
    47c6:	cd 01       	movw	r24, r26
    47c8:	0e 94 c2 34 	call	0x6984	; 0x6984 <__divmodsi4>
    47cc:	da 01       	movw	r26, r20
    47ce:	c9 01       	movw	r24, r18
    47d0:	8d 83       	std	Y+5, r24	; 0x05
    47d2:	9e 83       	std	Y+6, r25	; 0x06
    47d4:	af 83       	std	Y+7, r26	; 0x07
    47d6:	b8 87       	std	Y+8, r27	; 0x08
    47d8:	8d 81       	ldd	r24, Y+5	; 0x05
    47da:	9e 81       	ldd	r25, Y+6	; 0x06
    47dc:	af 81       	ldd	r26, Y+7	; 0x07
    47de:	b8 85       	ldd	r27, Y+8	; 0x08
    47e0:	fe 01       	movw	r30, r28
    47e2:	39 96       	adiw	r30, 0x09	; 9
    47e4:	2a e0       	ldi	r18, 0x0A	; 10
    47e6:	ac 01       	movw	r20, r24
    47e8:	bd 01       	movw	r22, r26
    47ea:	cf 01       	movw	r24, r30
    47ec:	0e 94 92 32 	call	0x6524	; 0x6524 <_ZN6StringC1Elh>
    47f0:	9e 01       	movw	r18, r28
    47f2:	27 5f       	subi	r18, 0xF7	; 247
    47f4:	3f 4f       	sbci	r19, 0xFF	; 255
    47f6:	ce 01       	movw	r24, r28
    47f8:	0f 96       	adiw	r24, 0x0f	; 15
    47fa:	b9 01       	movw	r22, r18
    47fc:	d5 de       	rcall	.-598    	; 0x45a8 <_ZN15StringSumHelperC1ERK6String>
    47fe:	ce 01       	movw	r24, r28
    4800:	0f 96       	adiw	r24, 0x0f	; 15
    4802:	6d e3       	ldi	r22, 0x3D	; 61
    4804:	71 e0       	ldi	r23, 0x01	; 1
    4806:	0e 94 76 33 	call	0x66ec	; 0x66ec <_ZplRK15StringSumHelperPKc>
    480a:	bc 01       	movw	r22, r24
    480c:	8e e6       	ldi	r24, 0x6E	; 110
    480e:	93 e0       	ldi	r25, 0x03	; 3
    4810:	0e 94 36 32 	call	0x646c	; 0x646c <_ZN6StringaSERKS_>
    4814:	ce 01       	movw	r24, r28
    4816:	0f 96       	adiw	r24, 0x0f	; 15
    4818:	0e 94 41 1b 	call	0x3682	; 0x3682 <_ZN15StringSumHelperD1Ev>
    481c:	ce 01       	movw	r24, r28
    481e:	09 96       	adiw	r24, 0x09	; 9
    4820:	0e 94 bb 31 	call	0x6376	; 0x6376 <_ZN6StringD1Ev>
    4824:	e4 96       	adiw	r28, 0x34	; 52
    4826:	e2 e0       	ldi	r30, 0x02	; 2
    4828:	0c 94 1a 35 	jmp	0x6a34	; 0x6a34 <__epilogue_restores__+0x20>

0000482c <_ZN15WaterSensorWire7ReceiveEi>:
    482c:	a7 e2       	ldi	r26, 0x27	; 39
    482e:	b0 e0       	ldi	r27, 0x00	; 0
    4830:	ec e1       	ldi	r30, 0x1C	; 28
    4832:	f4 e2       	ldi	r31, 0x24	; 36
    4834:	0c 94 fd 34 	jmp	0x69fa	; 0x69fa <__prologue_saves__+0x1e>
    4838:	9f a3       	std	Y+39, r25	; 0x27
    483a:	8e a3       	std	Y+38, r24	; 0x26
    483c:	6f e3       	ldi	r22, 0x3F	; 63
    483e:	71 e0       	ldi	r23, 0x01	; 1
    4840:	88 e3       	ldi	r24, 0x38	; 56
    4842:	93 e0       	ldi	r25, 0x03	; 3
    4844:	0e 94 53 32 	call	0x64a6	; 0x64a6 <_ZN6StringaSEPKc>
    4848:	6f e3       	ldi	r22, 0x3F	; 63
    484a:	71 e0       	ldi	r23, 0x01	; 1
    484c:	84 e4       	ldi	r24, 0x44	; 68
    484e:	93 e0       	ldi	r25, 0x03	; 3
    4850:	0e 94 53 32 	call	0x64a6	; 0x64a6 <_ZN6StringaSEPKc>
    4854:	6f e3       	ldi	r22, 0x3F	; 63
    4856:	71 e0       	ldi	r23, 0x01	; 1
    4858:	8a e4       	ldi	r24, 0x4A	; 74
    485a:	93 e0       	ldi	r25, 0x03	; 3
    485c:	0e 94 53 32 	call	0x64a6	; 0x64a6 <_ZN6StringaSEPKc>
    4860:	8e a1       	ldd	r24, Y+38	; 0x26
    4862:	9f a1       	ldd	r25, Y+39	; 0x27
    4864:	44 97       	sbiw	r24, 0x14	; 20
    4866:	09 f0       	breq	.+2      	; 0x486a <_ZN15WaterSensorWire7ReceiveEi+0x3e>
    4868:	c7 c0       	rjmp	.+398    	; 0x49f8 <_ZN15WaterSensorWire7ReceiveEi+0x1cc>
    486a:	0a c0       	rjmp	.+20     	; 0x4880 <_ZN15WaterSensorWire7ReceiveEi+0x54>
    486c:	81 e9       	ldi	r24, 0x91	; 145
    486e:	92 e0       	ldi	r25, 0x02	; 2
    4870:	0e 94 d8 05 	call	0xbb0	; 0xbb0 <_ZN7TwoWire4readEv>
    4874:	89 83       	std	Y+1, r24	; 0x01
    4876:	69 81       	ldd	r22, Y+1	; 0x01
    4878:	88 e3       	ldi	r24, 0x38	; 56
    487a:	93 e0       	ldi	r25, 0x03	; 3
    487c:	0e 94 53 33 	call	0x66a6	; 0x66a6 <_ZN6String6concatEc>
    4880:	81 e9       	ldi	r24, 0x91	; 145
    4882:	92 e0       	ldi	r25, 0x02	; 2
    4884:	0e 94 c0 05 	call	0xb80	; 0xb80 <_ZN7TwoWire9availableEv>
    4888:	21 e0       	ldi	r18, 0x01	; 1
    488a:	18 16       	cp	r1, r24
    488c:	19 06       	cpc	r1, r25
    488e:	0c f0       	brlt	.+2      	; 0x4892 <_ZN15WaterSensorWire7ReceiveEi+0x66>
    4890:	20 e0       	ldi	r18, 0x00	; 0
    4892:	22 23       	and	r18, r18
    4894:	59 f7       	brne	.-42     	; 0x486c <_ZN15WaterSensorWire7ReceiveEi+0x40>
    4896:	88 e3       	ldi	r24, 0x38	; 56
    4898:	93 e0       	ldi	r25, 0x03	; 3
    489a:	0e 94 34 34 	call	0x6868	; 0x6868 <_ZN6String4trimEv>
    489e:	ce 01       	movw	r24, r28
    48a0:	44 96       	adiw	r24, 0x14	; 20
    48a2:	60 e4       	ldi	r22, 0x40	; 64
    48a4:	71 e0       	ldi	r23, 0x01	; 1
    48a6:	0e 94 22 32 	call	0x6444	; 0x6444 <_ZN6StringC1EPKc>
    48aa:	ce 01       	movw	r24, r28
    48ac:	44 96       	adiw	r24, 0x14	; 20
    48ae:	bc 01       	movw	r22, r24
    48b0:	88 e3       	ldi	r24, 0x38	; 56
    48b2:	93 e0       	ldi	r25, 0x03	; 3
    48b4:	0e 94 d0 33 	call	0x67a0	; 0x67a0 <_ZNK6String10startsWithERKS_>
    48b8:	11 e0       	ldi	r17, 0x01	; 1
    48ba:	88 23       	and	r24, r24
    48bc:	09 f4       	brne	.+2      	; 0x48c0 <_ZN15WaterSensorWire7ReceiveEi+0x94>
    48be:	10 e0       	ldi	r17, 0x00	; 0
    48c0:	ce 01       	movw	r24, r28
    48c2:	44 96       	adiw	r24, 0x14	; 20
    48c4:	0e 94 bb 31 	call	0x6376	; 0x6376 <_ZN6StringD1Ev>
    48c8:	11 23       	and	r17, r17
    48ca:	a1 f0       	breq	.+40     	; 0x48f4 <_ZN15WaterSensorWire7ReceiveEi+0xc8>
    48cc:	68 e3       	ldi	r22, 0x38	; 56
    48ce:	73 e0       	ldi	r23, 0x03	; 3
    48d0:	84 e4       	ldi	r24, 0x44	; 68
    48d2:	93 e0       	ldi	r25, 0x03	; 3
    48d4:	0e 94 36 32 	call	0x646c	; 0x646c <_ZN6StringaSERKS_>
    48d8:	83 e0       	ldi	r24, 0x03	; 3
    48da:	94 e0       	ldi	r25, 0x04	; 4
    48dc:	bc 01       	movw	r22, r24
    48de:	86 e8       	ldi	r24, 0x86	; 134
    48e0:	95 e0       	ldi	r25, 0x05	; 5
    48e2:	0e 94 dc 2d 	call	0x5bb8	; 0x5bb8 <_ZN5Print5printEPK19__FlashStringHelper>
    48e6:	64 e4       	ldi	r22, 0x44	; 68
    48e8:	73 e0       	ldi	r23, 0x03	; 3
    48ea:	86 e8       	ldi	r24, 0x86	; 134
    48ec:	95 e0       	ldi	r25, 0x05	; 5
    48ee:	0e 94 28 2e 	call	0x5c50	; 0x5c50 <_ZN5Print7printlnERK6String>
    48f2:	92 c0       	rjmp	.+292    	; 0x4a18 <_ZN15WaterSensorWire7ReceiveEi+0x1ec>
    48f4:	68 e3       	ldi	r22, 0x38	; 56
    48f6:	73 e0       	ldi	r23, 0x03	; 3
    48f8:	8a e4       	ldi	r24, 0x4A	; 74
    48fa:	93 e0       	ldi	r25, 0x03	; 3
    48fc:	0e 94 36 32 	call	0x646c	; 0x646c <_ZN6StringaSERKS_>
    4900:	89 e0       	ldi	r24, 0x09	; 9
    4902:	94 e0       	ldi	r25, 0x04	; 4
    4904:	bc 01       	movw	r22, r24
    4906:	86 e8       	ldi	r24, 0x86	; 134
    4908:	95 e0       	ldi	r25, 0x05	; 5
    490a:	0e 94 dc 2d 	call	0x5bb8	; 0x5bb8 <_ZN5Print5printEPK19__FlashStringHelper>
    490e:	6a e4       	ldi	r22, 0x4A	; 74
    4910:	73 e0       	ldi	r23, 0x03	; 3
    4912:	86 e8       	ldi	r24, 0x86	; 134
    4914:	95 e0       	ldi	r25, 0x05	; 5
    4916:	0e 94 28 2e 	call	0x5c50	; 0x5c50 <_ZN5Print7printlnERK6String>
    491a:	ce 01       	movw	r24, r28
    491c:	0e 96       	adiw	r24, 0x0e	; 14
    491e:	6a e4       	ldi	r22, 0x4A	; 74
    4920:	73 e0       	ldi	r23, 0x03	; 3
    4922:	0e 94 4b 32 	call	0x6496	; 0x6496 <_ZN6StringC1ERKS_>
    4926:	ce 01       	movw	r24, r28
    4928:	4a 96       	adiw	r24, 0x1a	; 26
    492a:	be 01       	movw	r22, r28
    492c:	62 5f       	subi	r22, 0xF2	; 242
    492e:	7f 4f       	sbci	r23, 0xFF	; 255
    4930:	20 e0       	ldi	r18, 0x00	; 0
    4932:	30 e0       	ldi	r19, 0x00	; 0
    4934:	4d e3       	ldi	r20, 0x3D	; 61
    4936:	af d1       	rcall	.+862    	; 0x4c96 <_ZN15WaterSensorWire11SplitStringE6Stringci>
    4938:	ce 01       	movw	r24, r28
    493a:	0e 96       	adiw	r24, 0x0e	; 14
    493c:	0e 94 bb 31 	call	0x6376	; 0x6376 <_ZN6StringD1Ev>
    4940:	ce 01       	movw	r24, r28
    4942:	08 96       	adiw	r24, 0x08	; 8
    4944:	6a e4       	ldi	r22, 0x4A	; 74
    4946:	73 e0       	ldi	r23, 0x03	; 3
    4948:	0e 94 4b 32 	call	0x6496	; 0x6496 <_ZN6StringC1ERKS_>
    494c:	ce 01       	movw	r24, r28
    494e:	80 96       	adiw	r24, 0x20	; 32
    4950:	be 01       	movw	r22, r28
    4952:	68 5f       	subi	r22, 0xF8	; 248
    4954:	7f 4f       	sbci	r23, 0xFF	; 255
    4956:	21 e0       	ldi	r18, 0x01	; 1
    4958:	30 e0       	ldi	r19, 0x00	; 0
    495a:	4d e3       	ldi	r20, 0x3D	; 61
    495c:	9c d1       	rcall	.+824    	; 0x4c96 <_ZN15WaterSensorWire11SplitStringE6Stringci>
    495e:	ce 01       	movw	r24, r28
    4960:	08 96       	adiw	r24, 0x08	; 8
    4962:	0e 94 bb 31 	call	0x6376	; 0x6376 <_ZN6StringD1Ev>
    4966:	ce 01       	movw	r24, r28
    4968:	4a 96       	adiw	r24, 0x1a	; 26
    496a:	62 e4       	ldi	r22, 0x42	; 66
    496c:	71 e0       	ldi	r23, 0x01	; 1
    496e:	07 de       	rcall	.-1010   	; 0x457e <_ZNK6StringeqEPKc>
    4970:	98 2f       	mov	r25, r24
    4972:	81 e0       	ldi	r24, 0x01	; 1
    4974:	99 23       	and	r25, r25
    4976:	09 f4       	brne	.+2      	; 0x497a <_ZN15WaterSensorWire7ReceiveEi+0x14e>
    4978:	80 e0       	ldi	r24, 0x00	; 0
    497a:	88 23       	and	r24, r24
    497c:	89 f0       	breq	.+34     	; 0x49a0 <_ZN15WaterSensorWire7ReceiveEi+0x174>
    497e:	ce 01       	movw	r24, r28
    4980:	80 96       	adiw	r24, 0x20	; 32
    4982:	0e 94 8b 34 	call	0x6916	; 0x6916 <_ZNK6String5toIntEv>
    4986:	dc 01       	movw	r26, r24
    4988:	cb 01       	movw	r24, r22
    498a:	9b 83       	std	Y+3, r25	; 0x03
    498c:	8a 83       	std	Y+2, r24	; 0x02
    498e:	80 91 af 01 	lds	r24, 0x01AF	; 0x8001af <_ZN7Globals12TheTDSSensorE>
    4992:	90 91 b0 01 	lds	r25, 0x01B0	; 0x8001b0 <_ZN7Globals12TheTDSSensorE+0x1>
    4996:	2a 81       	ldd	r18, Y+2	; 0x02
    4998:	3b 81       	ldd	r19, Y+3	; 0x03
    499a:	b9 01       	movw	r22, r18
    499c:	d6 d9       	rcall	.-3156   	; 0x3d4a <_ZN9TDSSensor6UpdateEi>
    499e:	23 c0       	rjmp	.+70     	; 0x49e6 <_ZN15WaterSensorWire7ReceiveEi+0x1ba>
    49a0:	ce 01       	movw	r24, r28
    49a2:	4a 96       	adiw	r24, 0x1a	; 26
    49a4:	6c e4       	ldi	r22, 0x4C	; 76
    49a6:	71 e0       	ldi	r23, 0x01	; 1
    49a8:	ea dd       	rcall	.-1068   	; 0x457e <_ZNK6StringeqEPKc>
    49aa:	98 2f       	mov	r25, r24
    49ac:	81 e0       	ldi	r24, 0x01	; 1
    49ae:	99 23       	and	r25, r25
    49b0:	09 f4       	brne	.+2      	; 0x49b4 <_ZN15WaterSensorWire7ReceiveEi+0x188>
    49b2:	80 e0       	ldi	r24, 0x00	; 0
    49b4:	88 23       	and	r24, r24
    49b6:	b9 f0       	breq	.+46     	; 0x49e6 <_ZN15WaterSensorWire7ReceiveEi+0x1ba>
    49b8:	ce 01       	movw	r24, r28
    49ba:	80 96       	adiw	r24, 0x20	; 32
    49bc:	0e 94 95 34 	call	0x692a	; 0x692a <_ZNK6String7toFloatEv>
    49c0:	dc 01       	movw	r26, r24
    49c2:	cb 01       	movw	r24, r22
    49c4:	8c 83       	std	Y+4, r24	; 0x04
    49c6:	9d 83       	std	Y+5, r25	; 0x05
    49c8:	ae 83       	std	Y+6, r26	; 0x06
    49ca:	bf 83       	std	Y+7, r27	; 0x07
    49cc:	20 91 ad 01 	lds	r18, 0x01AD	; 0x8001ad <_ZN7Globals11ThePHSensorE>
    49d0:	30 91 ae 01 	lds	r19, 0x01AE	; 0x8001ae <_ZN7Globals11ThePHSensorE+0x1>
    49d4:	8c 81       	ldd	r24, Y+4	; 0x04
    49d6:	9d 81       	ldd	r25, Y+5	; 0x05
    49d8:	ae 81       	ldd	r26, Y+6	; 0x06
    49da:	bf 81       	ldd	r27, Y+7	; 0x07
    49dc:	ac 01       	movw	r20, r24
    49de:	bd 01       	movw	r22, r26
    49e0:	c9 01       	movw	r24, r18
    49e2:	0e 94 df 17 	call	0x2fbe	; 0x2fbe <_ZN8PHSensor6UpdateEd>
    49e6:	ce 01       	movw	r24, r28
    49e8:	80 96       	adiw	r24, 0x20	; 32
    49ea:	0e 94 bb 31 	call	0x6376	; 0x6376 <_ZN6StringD1Ev>
    49ee:	ce 01       	movw	r24, r28
    49f0:	4a 96       	adiw	r24, 0x1a	; 26
    49f2:	0e 94 bb 31 	call	0x6376	; 0x6376 <_ZN6StringD1Ev>
    49f6:	10 c0       	rjmp	.+32     	; 0x4a18 <_ZN15WaterSensorWire7ReceiveEi+0x1ec>
    49f8:	83 e1       	ldi	r24, 0x13	; 19
    49fa:	94 e0       	ldi	r25, 0x04	; 4
    49fc:	bc 01       	movw	r22, r24
    49fe:	86 e8       	ldi	r24, 0x86	; 134
    4a00:	95 e0       	ldi	r25, 0x05	; 5
    4a02:	0e 94 dc 2d 	call	0x5bb8	; 0x5bb8 <_ZN5Print5printEPK19__FlashStringHelper>
    4a06:	8e a1       	ldd	r24, Y+38	; 0x26
    4a08:	9f a1       	ldd	r25, Y+39	; 0x27
    4a0a:	4a e0       	ldi	r20, 0x0A	; 10
    4a0c:	50 e0       	ldi	r21, 0x00	; 0
    4a0e:	bc 01       	movw	r22, r24
    4a10:	86 e8       	ldi	r24, 0x86	; 134
    4a12:	95 e0       	ldi	r25, 0x05	; 5
    4a14:	0e 94 d1 2e 	call	0x5da2	; 0x5da2 <_ZN5Print7printlnEii>
    4a18:	a7 96       	adiw	r28, 0x27	; 39
    4a1a:	e3 e0       	ldi	r30, 0x03	; 3
    4a1c:	0c 94 19 35 	jmp	0x6a32	; 0x6a32 <__epilogue_restores__+0x1e>

00004a20 <_ZN15WaterSensorWire7RequestEv>:
    4a20:	a2 e1       	ldi	r26, 0x12	; 18
    4a22:	b0 e0       	ldi	r27, 0x00	; 0
    4a24:	e6 e1       	ldi	r30, 0x16	; 22
    4a26:	f5 e2       	ldi	r31, 0x25	; 37
    4a28:	0c 94 fc 34 	jmp	0x69f8	; 0x69f8 <__prologue_saves__+0x1c>
    4a2c:	ce 01       	movw	r24, r28
    4a2e:	0d 96       	adiw	r24, 0x0d	; 13
    4a30:	6f e3       	ldi	r22, 0x3F	; 63
    4a32:	71 e0       	ldi	r23, 0x01	; 1
    4a34:	0e 94 22 32 	call	0x6444	; 0x6444 <_ZN6StringC1EPKc>
    4a38:	60 e4       	ldi	r22, 0x40	; 64
    4a3a:	71 e0       	ldi	r23, 0x01	; 1
    4a3c:	84 e4       	ldi	r24, 0x44	; 68
    4a3e:	93 e0       	ldi	r25, 0x03	; 3
    4a40:	9e dd       	rcall	.-1220   	; 0x457e <_ZNK6StringeqEPKc>
    4a42:	98 2f       	mov	r25, r24
    4a44:	81 e0       	ldi	r24, 0x01	; 1
    4a46:	99 23       	and	r25, r25
    4a48:	09 f4       	brne	.+2      	; 0x4a4c <_ZN15WaterSensorWire7RequestEv+0x2c>
    4a4a:	80 e0       	ldi	r24, 0x00	; 0
    4a4c:	88 23       	and	r24, r24
    4a4e:	c1 f0       	breq	.+48     	; 0x4a80 <_ZN15WaterSensorWire7RequestEv+0x60>
    4a50:	ce 01       	movw	r24, r28
    4a52:	0d 96       	adiw	r24, 0x0d	; 13
    4a54:	65 e5       	ldi	r22, 0x55	; 85
    4a56:	71 e0       	ldi	r23, 0x01	; 1
    4a58:	0e 94 53 32 	call	0x64a6	; 0x64a6 <_ZN6StringaSEPKc>
    4a5c:	9e 01       	movw	r18, r28
    4a5e:	23 5f       	subi	r18, 0xF3	; 243
    4a60:	3f 4f       	sbci	r19, 0xFF	; 255
    4a62:	ce 01       	movw	r24, r28
    4a64:	07 96       	adiw	r24, 0x07	; 7
    4a66:	b9 01       	movw	r22, r18
    4a68:	0e 94 4b 32 	call	0x6496	; 0x6496 <_ZN6StringC1ERKS_>
    4a6c:	ce 01       	movw	r24, r28
    4a6e:	07 96       	adiw	r24, 0x07	; 7
    4a70:	c2 d0       	rcall	.+388    	; 0x4bf6 <_ZN15WaterSensorWire8TransmitE6String>
    4a72:	ce 01       	movw	r24, r28
    4a74:	07 96       	adiw	r24, 0x07	; 7
    4a76:	0e 94 bb 31 	call	0x6376	; 0x6376 <_ZN6StringD1Ev>
    4a7a:	00 e0       	ldi	r16, 0x00	; 0
    4a7c:	10 e0       	ldi	r17, 0x00	; 0
    4a7e:	af c0       	rjmp	.+350    	; 0x4bde <_ZN15WaterSensorWire7RequestEv+0x1be>
    4a80:	80 91 06 01 	lds	r24, 0x0106	; 0x800106 <_ZL14_responseIndex>
    4a84:	90 91 07 01 	lds	r25, 0x0107	; 0x800107 <_ZL14_responseIndex+0x1>
    4a88:	01 96       	adiw	r24, 0x01	; 1
    4a8a:	90 93 07 01 	sts	0x0107, r25	; 0x800107 <_ZL14_responseIndex+0x1>
    4a8e:	80 93 06 01 	sts	0x0106, r24	; 0x800106 <_ZL14_responseIndex>
    4a92:	80 91 06 01 	lds	r24, 0x0106	; 0x800106 <_ZL14_responseIndex>
    4a96:	90 91 07 01 	lds	r25, 0x0107	; 0x800107 <_ZL14_responseIndex+0x1>
    4a9a:	89 2b       	or	r24, r25
    4a9c:	39 f4       	brne	.+14     	; 0x4aac <_ZN15WaterSensorWire7RequestEv+0x8c>
    4a9e:	ce 01       	movw	r24, r28
    4aa0:	0d 96       	adiw	r24, 0x0d	; 13
    4aa2:	66 e5       	ldi	r22, 0x56	; 86
    4aa4:	73 e0       	ldi	r23, 0x03	; 3
    4aa6:	0e 94 36 32 	call	0x646c	; 0x646c <_ZN6StringaSERKS_>
    4aaa:	89 c0       	rjmp	.+274    	; 0x4bbe <_ZN15WaterSensorWire7RequestEv+0x19e>
    4aac:	80 91 06 01 	lds	r24, 0x0106	; 0x800106 <_ZL14_responseIndex>
    4ab0:	90 91 07 01 	lds	r25, 0x0107	; 0x800107 <_ZL14_responseIndex+0x1>
    4ab4:	01 97       	sbiw	r24, 0x01	; 1
    4ab6:	39 f4       	brne	.+14     	; 0x4ac6 <_ZN15WaterSensorWire7RequestEv+0xa6>
    4ab8:	ce 01       	movw	r24, r28
    4aba:	0d 96       	adiw	r24, 0x0d	; 13
    4abc:	6c e5       	ldi	r22, 0x5C	; 92
    4abe:	73 e0       	ldi	r23, 0x03	; 3
    4ac0:	0e 94 36 32 	call	0x646c	; 0x646c <_ZN6StringaSERKS_>
    4ac4:	7c c0       	rjmp	.+248    	; 0x4bbe <_ZN15WaterSensorWire7RequestEv+0x19e>
    4ac6:	80 91 06 01 	lds	r24, 0x0106	; 0x800106 <_ZL14_responseIndex>
    4aca:	90 91 07 01 	lds	r25, 0x0107	; 0x800107 <_ZL14_responseIndex+0x1>
    4ace:	02 97       	sbiw	r24, 0x02	; 2
    4ad0:	39 f4       	brne	.+14     	; 0x4ae0 <_ZN15WaterSensorWire7RequestEv+0xc0>
    4ad2:	ce 01       	movw	r24, r28
    4ad4:	0d 96       	adiw	r24, 0x0d	; 13
    4ad6:	62 e6       	ldi	r22, 0x62	; 98
    4ad8:	73 e0       	ldi	r23, 0x03	; 3
    4ada:	0e 94 36 32 	call	0x646c	; 0x646c <_ZN6StringaSERKS_>
    4ade:	6f c0       	rjmp	.+222    	; 0x4bbe <_ZN15WaterSensorWire7RequestEv+0x19e>
    4ae0:	80 91 06 01 	lds	r24, 0x0106	; 0x800106 <_ZL14_responseIndex>
    4ae4:	90 91 07 01 	lds	r25, 0x0107	; 0x800107 <_ZL14_responseIndex+0x1>
    4ae8:	03 97       	sbiw	r24, 0x03	; 3
    4aea:	39 f4       	brne	.+14     	; 0x4afa <_ZN15WaterSensorWire7RequestEv+0xda>
    4aec:	ce 01       	movw	r24, r28
    4aee:	0d 96       	adiw	r24, 0x0d	; 13
    4af0:	68 e6       	ldi	r22, 0x68	; 104
    4af2:	73 e0       	ldi	r23, 0x03	; 3
    4af4:	0e 94 36 32 	call	0x646c	; 0x646c <_ZN6StringaSERKS_>
    4af8:	62 c0       	rjmp	.+196    	; 0x4bbe <_ZN15WaterSensorWire7RequestEv+0x19e>
    4afa:	80 91 06 01 	lds	r24, 0x0106	; 0x800106 <_ZL14_responseIndex>
    4afe:	90 91 07 01 	lds	r25, 0x0107	; 0x800107 <_ZL14_responseIndex+0x1>
    4b02:	04 97       	sbiw	r24, 0x04	; 4
    4b04:	39 f4       	brne	.+14     	; 0x4b14 <_ZN15WaterSensorWire7RequestEv+0xf4>
    4b06:	ce 01       	movw	r24, r28
    4b08:	0d 96       	adiw	r24, 0x0d	; 13
    4b0a:	60 e8       	ldi	r22, 0x80	; 128
    4b0c:	73 e0       	ldi	r23, 0x03	; 3
    4b0e:	0e 94 36 32 	call	0x646c	; 0x646c <_ZN6StringaSERKS_>
    4b12:	55 c0       	rjmp	.+170    	; 0x4bbe <_ZN15WaterSensorWire7RequestEv+0x19e>
    4b14:	80 91 06 01 	lds	r24, 0x0106	; 0x800106 <_ZL14_responseIndex>
    4b18:	90 91 07 01 	lds	r25, 0x0107	; 0x800107 <_ZL14_responseIndex+0x1>
    4b1c:	05 97       	sbiw	r24, 0x05	; 5
    4b1e:	39 f4       	brne	.+14     	; 0x4b2e <_ZN15WaterSensorWire7RequestEv+0x10e>
    4b20:	ce 01       	movw	r24, r28
    4b22:	0d 96       	adiw	r24, 0x0d	; 13
    4b24:	66 e8       	ldi	r22, 0x86	; 134
    4b26:	73 e0       	ldi	r23, 0x03	; 3
    4b28:	0e 94 36 32 	call	0x646c	; 0x646c <_ZN6StringaSERKS_>
    4b2c:	48 c0       	rjmp	.+144    	; 0x4bbe <_ZN15WaterSensorWire7RequestEv+0x19e>
    4b2e:	80 91 06 01 	lds	r24, 0x0106	; 0x800106 <_ZL14_responseIndex>
    4b32:	90 91 07 01 	lds	r25, 0x0107	; 0x800107 <_ZL14_responseIndex+0x1>
    4b36:	06 97       	sbiw	r24, 0x06	; 6
    4b38:	39 f4       	brne	.+14     	; 0x4b48 <_ZN15WaterSensorWire7RequestEv+0x128>
    4b3a:	ce 01       	movw	r24, r28
    4b3c:	0d 96       	adiw	r24, 0x0d	; 13
    4b3e:	6a e7       	ldi	r22, 0x7A	; 122
    4b40:	73 e0       	ldi	r23, 0x03	; 3
    4b42:	0e 94 36 32 	call	0x646c	; 0x646c <_ZN6StringaSERKS_>
    4b46:	3b c0       	rjmp	.+118    	; 0x4bbe <_ZN15WaterSensorWire7RequestEv+0x19e>
    4b48:	80 91 06 01 	lds	r24, 0x0106	; 0x800106 <_ZL14_responseIndex>
    4b4c:	90 91 07 01 	lds	r25, 0x0107	; 0x800107 <_ZL14_responseIndex+0x1>
    4b50:	07 97       	sbiw	r24, 0x07	; 7
    4b52:	39 f4       	brne	.+14     	; 0x4b62 <_ZN15WaterSensorWire7RequestEv+0x142>
    4b54:	ce 01       	movw	r24, r28
    4b56:	0d 96       	adiw	r24, 0x0d	; 13
    4b58:	64 e7       	ldi	r22, 0x74	; 116
    4b5a:	73 e0       	ldi	r23, 0x03	; 3
    4b5c:	0e 94 36 32 	call	0x646c	; 0x646c <_ZN6StringaSERKS_>
    4b60:	2e c0       	rjmp	.+92     	; 0x4bbe <_ZN15WaterSensorWire7RequestEv+0x19e>
    4b62:	80 91 06 01 	lds	r24, 0x0106	; 0x800106 <_ZL14_responseIndex>
    4b66:	90 91 07 01 	lds	r25, 0x0107	; 0x800107 <_ZL14_responseIndex+0x1>
    4b6a:	08 97       	sbiw	r24, 0x08	; 8
    4b6c:	69 f4       	brne	.+26     	; 0x4b88 <_ZN15WaterSensorWire7RequestEv+0x168>
    4b6e:	ce 01       	movw	r24, r28
    4b70:	0d 96       	adiw	r24, 0x0d	; 13
    4b72:	6e e6       	ldi	r22, 0x6E	; 110
    4b74:	73 e0       	ldi	r23, 0x03	; 3
    4b76:	0e 94 36 32 	call	0x646c	; 0x646c <_ZN6StringaSERKS_>
    4b7a:	8f ef       	ldi	r24, 0xFF	; 255
    4b7c:	9f ef       	ldi	r25, 0xFF	; 255
    4b7e:	90 93 07 01 	sts	0x0107, r25	; 0x800107 <_ZL14_responseIndex+0x1>
    4b82:	80 93 06 01 	sts	0x0106, r24	; 0x800106 <_ZL14_responseIndex>
    4b86:	1b c0       	rjmp	.+54     	; 0x4bbe <_ZN15WaterSensorWire7RequestEv+0x19e>
    4b88:	89 e3       	ldi	r24, 0x39	; 57
    4b8a:	94 e0       	ldi	r25, 0x04	; 4
    4b8c:	bc 01       	movw	r22, r24
    4b8e:	86 e8       	ldi	r24, 0x86	; 134
    4b90:	95 e0       	ldi	r25, 0x05	; 5
    4b92:	0e 94 dc 2d 	call	0x5bb8	; 0x5bb8 <_ZN5Print5printEPK19__FlashStringHelper>
    4b96:	80 91 06 01 	lds	r24, 0x0106	; 0x800106 <_ZL14_responseIndex>
    4b9a:	90 91 07 01 	lds	r25, 0x0107	; 0x800107 <_ZL14_responseIndex+0x1>
    4b9e:	4a e0       	ldi	r20, 0x0A	; 10
    4ba0:	50 e0       	ldi	r21, 0x00	; 0
    4ba2:	bc 01       	movw	r22, r24
    4ba4:	86 e8       	ldi	r24, 0x86	; 134
    4ba6:	95 e0       	ldi	r25, 0x05	; 5
    4ba8:	0e 94 d1 2e 	call	0x5da2	; 0x5da2 <_ZN5Print7printlnEii>
    4bac:	8f ef       	ldi	r24, 0xFF	; 255
    4bae:	9f ef       	ldi	r25, 0xFF	; 255
    4bb0:	90 93 07 01 	sts	0x0107, r25	; 0x800107 <_ZL14_responseIndex+0x1>
    4bb4:	80 93 06 01 	sts	0x0106, r24	; 0x800106 <_ZL14_responseIndex>
    4bb8:	00 e0       	ldi	r16, 0x00	; 0
    4bba:	10 e0       	ldi	r17, 0x00	; 0
    4bbc:	10 c0       	rjmp	.+32     	; 0x4bde <_ZN15WaterSensorWire7RequestEv+0x1be>
    4bbe:	ce 01       	movw	r24, r28
    4bc0:	0d 96       	adiw	r24, 0x0d	; 13
    4bc2:	bc 01       	movw	r22, r24
    4bc4:	ce 01       	movw	r24, r28
    4bc6:	01 96       	adiw	r24, 0x01	; 1
    4bc8:	0e 94 4b 32 	call	0x6496	; 0x6496 <_ZN6StringC1ERKS_>
    4bcc:	ce 01       	movw	r24, r28
    4bce:	01 96       	adiw	r24, 0x01	; 1
    4bd0:	12 d0       	rcall	.+36     	; 0x4bf6 <_ZN15WaterSensorWire8TransmitE6String>
    4bd2:	ce 01       	movw	r24, r28
    4bd4:	01 96       	adiw	r24, 0x01	; 1
    4bd6:	0e 94 bb 31 	call	0x6376	; 0x6376 <_ZN6StringD1Ev>
    4bda:	01 e0       	ldi	r16, 0x01	; 1
    4bdc:	10 e0       	ldi	r17, 0x00	; 0
    4bde:	ce 01       	movw	r24, r28
    4be0:	0d 96       	adiw	r24, 0x0d	; 13
    4be2:	0e 94 bb 31 	call	0x6376	; 0x6376 <_ZN6StringD1Ev>
    4be6:	01 30       	cpi	r16, 0x01	; 1
    4be8:	11 05       	cpc	r17, r1
    4bea:	09 f4       	brne	.+2      	; 0x4bee <_ZN15WaterSensorWire7RequestEv+0x1ce>
    4bec:	00 00       	nop
    4bee:	62 96       	adiw	r28, 0x12	; 18
    4bf0:	e4 e0       	ldi	r30, 0x04	; 4
    4bf2:	0c 94 18 35 	jmp	0x6a30	; 0x6a30 <__epilogue_restores__+0x1c>

00004bf6 <_ZN15WaterSensorWire8TransmitE6String>:
    4bf6:	a2 e1       	ldi	r26, 0x12	; 18
    4bf8:	b0 e0       	ldi	r27, 0x00	; 0
    4bfa:	e1 e0       	ldi	r30, 0x01	; 1
    4bfc:	f6 e2       	ldi	r31, 0x26	; 38
    4bfe:	0c 94 fe 34 	jmp	0x69fc	; 0x69fc <__prologue_saves__+0x20>
    4c02:	9a 8b       	std	Y+18, r25	; 0x12
    4c04:	89 8b       	std	Y+17, r24	; 0x11
    4c06:	89 89       	ldd	r24, Y+17	; 0x11
    4c08:	9a 89       	ldd	r25, Y+18	; 0x12
    4c0a:	91 dc       	rcall	.-1758   	; 0x452e <_ZNK6String6lengthEv>
    4c0c:	9c 01       	movw	r18, r24
    4c0e:	8a e0       	ldi	r24, 0x0A	; 10
    4c10:	90 e0       	ldi	r25, 0x00	; 0
    4c12:	82 1b       	sub	r24, r18
    4c14:	93 0b       	sbc	r25, r19
    4c16:	9e 83       	std	Y+6, r25	; 0x06
    4c18:	8d 83       	std	Y+5, r24	; 0x05
    4c1a:	1a 82       	std	Y+2, r1	; 0x02
    4c1c:	19 82       	std	Y+1, r1	; 0x01
    4c1e:	0a c0       	rjmp	.+20     	; 0x4c34 <_ZN15WaterSensorWire8TransmitE6String+0x3e>
    4c20:	89 89       	ldd	r24, Y+17	; 0x11
    4c22:	9a 89       	ldd	r25, Y+18	; 0x12
    4c24:	6b e5       	ldi	r22, 0x5B	; 91
    4c26:	71 e0       	ldi	r23, 0x01	; 1
    4c28:	93 dc       	rcall	.-1754   	; 0x4550 <_ZN6StringpLEPKc>
    4c2a:	89 81       	ldd	r24, Y+1	; 0x01
    4c2c:	9a 81       	ldd	r25, Y+2	; 0x02
    4c2e:	01 96       	adiw	r24, 0x01	; 1
    4c30:	9a 83       	std	Y+2, r25	; 0x02
    4c32:	89 83       	std	Y+1, r24	; 0x01
    4c34:	29 81       	ldd	r18, Y+1	; 0x01
    4c36:	3a 81       	ldd	r19, Y+2	; 0x02
    4c38:	8d 81       	ldd	r24, Y+5	; 0x05
    4c3a:	9e 81       	ldd	r25, Y+6	; 0x06
    4c3c:	28 17       	cp	r18, r24
    4c3e:	39 07       	cpc	r19, r25
    4c40:	7c f3       	brlt	.-34     	; 0x4c20 <_ZN15WaterSensorWire8TransmitE6String+0x2a>
    4c42:	1c 82       	std	Y+4, r1	; 0x04
    4c44:	1b 82       	std	Y+3, r1	; 0x03
    4c46:	16 c0       	rjmp	.+44     	; 0x4c74 <_ZN15WaterSensorWire8TransmitE6String+0x7e>
    4c48:	2b 81       	ldd	r18, Y+3	; 0x03
    4c4a:	3c 81       	ldd	r19, Y+4	; 0x04
    4c4c:	89 89       	ldd	r24, Y+17	; 0x11
    4c4e:	9a 89       	ldd	r25, Y+18	; 0x12
    4c50:	b9 01       	movw	r22, r18
    4c52:	0e 94 ef 33 	call	0x67de	; 0x67de <_ZNK6String6charAtEj>
    4c56:	48 2f       	mov	r20, r24
    4c58:	9e 01       	movw	r18, r28
    4c5a:	29 5f       	subi	r18, 0xF9	; 249
    4c5c:	3f 4f       	sbci	r19, 0xFF	; 255
    4c5e:	8b 81       	ldd	r24, Y+3	; 0x03
    4c60:	9c 81       	ldd	r25, Y+4	; 0x04
    4c62:	82 0f       	add	r24, r18
    4c64:	93 1f       	adc	r25, r19
    4c66:	fc 01       	movw	r30, r24
    4c68:	40 83       	st	Z, r20
    4c6a:	8b 81       	ldd	r24, Y+3	; 0x03
    4c6c:	9c 81       	ldd	r25, Y+4	; 0x04
    4c6e:	01 96       	adiw	r24, 0x01	; 1
    4c70:	9c 83       	std	Y+4, r25	; 0x04
    4c72:	8b 83       	std	Y+3, r24	; 0x03
    4c74:	8b 81       	ldd	r24, Y+3	; 0x03
    4c76:	9c 81       	ldd	r25, Y+4	; 0x04
    4c78:	0a 97       	sbiw	r24, 0x0a	; 10
    4c7a:	34 f3       	brlt	.-52     	; 0x4c48 <_ZN15WaterSensorWire8TransmitE6String+0x52>
    4c7c:	ce 01       	movw	r24, r28
    4c7e:	07 96       	adiw	r24, 0x07	; 7
    4c80:	4a e0       	ldi	r20, 0x0A	; 10
    4c82:	50 e0       	ldi	r21, 0x00	; 0
    4c84:	bc 01       	movw	r22, r24
    4c86:	81 e9       	ldi	r24, 0x91	; 145
    4c88:	92 e0       	ldi	r25, 0x02	; 2
    4c8a:	0e 94 80 05 	call	0xb00	; 0xb00 <_ZN7TwoWire5writeEPKhj>
    4c8e:	62 96       	adiw	r28, 0x12	; 18
    4c90:	e2 e0       	ldi	r30, 0x02	; 2
    4c92:	0c 94 1a 35 	jmp	0x6a34	; 0x6a34 <__epilogue_restores__+0x20>

00004c96 <_ZN15WaterSensorWire11SplitStringE6Stringci>:
    4c96:	a1 e1       	ldi	r26, 0x11	; 17
    4c98:	b0 e0       	ldi	r27, 0x00	; 0
    4c9a:	e1 e5       	ldi	r30, 0x51	; 81
    4c9c:	f6 e2       	ldi	r31, 0x26	; 38
    4c9e:	0c 94 fe 34 	jmp	0x69fc	; 0x69fc <__prologue_saves__+0x20>
    4ca2:	9c 87       	std	Y+12, r25	; 0x0c
    4ca4:	8b 87       	std	Y+11, r24	; 0x0b
    4ca6:	7e 87       	std	Y+14, r23	; 0x0e
    4ca8:	6d 87       	std	Y+13, r22	; 0x0d
    4caa:	4f 87       	std	Y+15, r20	; 0x0f
    4cac:	39 8b       	std	Y+17, r19	; 0x11
    4cae:	28 8b       	std	Y+16, r18	; 0x10
    4cb0:	1a 82       	std	Y+2, r1	; 0x02
    4cb2:	19 82       	std	Y+1, r1	; 0x01
    4cb4:	18 86       	std	Y+8, r1	; 0x08
    4cb6:	1f 82       	std	Y+7, r1	; 0x07
    4cb8:	8f ef       	ldi	r24, 0xFF	; 255
    4cba:	9f ef       	ldi	r25, 0xFF	; 255
    4cbc:	9a 87       	std	Y+10, r25	; 0x0a
    4cbe:	89 87       	std	Y+9, r24	; 0x09
    4cc0:	8d 85       	ldd	r24, Y+13	; 0x0d
    4cc2:	9e 85       	ldd	r25, Y+14	; 0x0e
    4cc4:	34 dc       	rcall	.-1944   	; 0x452e <_ZNK6String6lengthEv>
    4cc6:	01 97       	sbiw	r24, 0x01	; 1
    4cc8:	9e 83       	std	Y+6, r25	; 0x06
    4cca:	8d 83       	std	Y+5, r24	; 0x05
    4ccc:	1c 82       	std	Y+4, r1	; 0x04
    4cce:	1b 82       	std	Y+3, r1	; 0x03
    4cd0:	35 c0       	rjmp	.+106    	; 0x4d3c <_ZN15WaterSensorWire11SplitStringE6Stringci+0xa6>
    4cd2:	2b 81       	ldd	r18, Y+3	; 0x03
    4cd4:	3c 81       	ldd	r19, Y+4	; 0x04
    4cd6:	8d 85       	ldd	r24, Y+13	; 0x0d
    4cd8:	9e 85       	ldd	r25, Y+14	; 0x0e
    4cda:	b9 01       	movw	r22, r18
    4cdc:	0e 94 ef 33 	call	0x67de	; 0x67de <_ZNK6String6charAtEj>
    4ce0:	98 2f       	mov	r25, r24
    4ce2:	8f 85       	ldd	r24, Y+15	; 0x0f
    4ce4:	98 17       	cp	r25, r24
    4ce6:	39 f0       	breq	.+14     	; 0x4cf6 <_ZN15WaterSensorWire11SplitStringE6Stringci+0x60>
    4ce8:	2b 81       	ldd	r18, Y+3	; 0x03
    4cea:	3c 81       	ldd	r19, Y+4	; 0x04
    4cec:	8d 81       	ldd	r24, Y+5	; 0x05
    4cee:	9e 81       	ldd	r25, Y+6	; 0x06
    4cf0:	28 17       	cp	r18, r24
    4cf2:	39 07       	cpc	r19, r25
    4cf4:	11 f4       	brne	.+4      	; 0x4cfa <_ZN15WaterSensorWire11SplitStringE6Stringci+0x64>
    4cf6:	81 e0       	ldi	r24, 0x01	; 1
    4cf8:	01 c0       	rjmp	.+2      	; 0x4cfc <_ZN15WaterSensorWire11SplitStringE6Stringci+0x66>
    4cfa:	80 e0       	ldi	r24, 0x00	; 0
    4cfc:	88 23       	and	r24, r24
    4cfe:	c9 f0       	breq	.+50     	; 0x4d32 <_ZN15WaterSensorWire11SplitStringE6Stringci+0x9c>
    4d00:	89 81       	ldd	r24, Y+1	; 0x01
    4d02:	9a 81       	ldd	r25, Y+2	; 0x02
    4d04:	01 96       	adiw	r24, 0x01	; 1
    4d06:	9a 83       	std	Y+2, r25	; 0x02
    4d08:	89 83       	std	Y+1, r24	; 0x01
    4d0a:	89 85       	ldd	r24, Y+9	; 0x09
    4d0c:	9a 85       	ldd	r25, Y+10	; 0x0a
    4d0e:	01 96       	adiw	r24, 0x01	; 1
    4d10:	98 87       	std	Y+8, r25	; 0x08
    4d12:	8f 83       	std	Y+7, r24	; 0x07
    4d14:	2b 81       	ldd	r18, Y+3	; 0x03
    4d16:	3c 81       	ldd	r19, Y+4	; 0x04
    4d18:	8d 81       	ldd	r24, Y+5	; 0x05
    4d1a:	9e 81       	ldd	r25, Y+6	; 0x06
    4d1c:	28 17       	cp	r18, r24
    4d1e:	39 07       	cpc	r19, r25
    4d20:	21 f4       	brne	.+8      	; 0x4d2a <_ZN15WaterSensorWire11SplitStringE6Stringci+0x94>
    4d22:	8b 81       	ldd	r24, Y+3	; 0x03
    4d24:	9c 81       	ldd	r25, Y+4	; 0x04
    4d26:	01 96       	adiw	r24, 0x01	; 1
    4d28:	02 c0       	rjmp	.+4      	; 0x4d2e <_ZN15WaterSensorWire11SplitStringE6Stringci+0x98>
    4d2a:	8b 81       	ldd	r24, Y+3	; 0x03
    4d2c:	9c 81       	ldd	r25, Y+4	; 0x04
    4d2e:	9a 87       	std	Y+10, r25	; 0x0a
    4d30:	89 87       	std	Y+9, r24	; 0x09
    4d32:	8b 81       	ldd	r24, Y+3	; 0x03
    4d34:	9c 81       	ldd	r25, Y+4	; 0x04
    4d36:	01 96       	adiw	r24, 0x01	; 1
    4d38:	9c 83       	std	Y+4, r25	; 0x04
    4d3a:	8b 83       	std	Y+3, r24	; 0x03
    4d3c:	2b 81       	ldd	r18, Y+3	; 0x03
    4d3e:	3c 81       	ldd	r19, Y+4	; 0x04
    4d40:	8d 81       	ldd	r24, Y+5	; 0x05
    4d42:	9e 81       	ldd	r25, Y+6	; 0x06
    4d44:	82 17       	cp	r24, r18
    4d46:	93 07       	cpc	r25, r19
    4d48:	44 f0       	brlt	.+16     	; 0x4d5a <_ZN15WaterSensorWire11SplitStringE6Stringci+0xc4>
    4d4a:	29 81       	ldd	r18, Y+1	; 0x01
    4d4c:	3a 81       	ldd	r19, Y+2	; 0x02
    4d4e:	88 89       	ldd	r24, Y+16	; 0x10
    4d50:	99 89       	ldd	r25, Y+17	; 0x11
    4d52:	82 17       	cp	r24, r18
    4d54:	93 07       	cpc	r25, r19
    4d56:	0c f0       	brlt	.+2      	; 0x4d5a <_ZN15WaterSensorWire11SplitStringE6Stringci+0xc4>
    4d58:	bc cf       	rjmp	.-136    	; 0x4cd2 <_ZN15WaterSensorWire11SplitStringE6Stringci+0x3c>
    4d5a:	29 81       	ldd	r18, Y+1	; 0x01
    4d5c:	3a 81       	ldd	r19, Y+2	; 0x02
    4d5e:	88 89       	ldd	r24, Y+16	; 0x10
    4d60:	99 89       	ldd	r25, Y+17	; 0x11
    4d62:	82 17       	cp	r24, r18
    4d64:	93 07       	cpc	r25, r19
    4d66:	6c f4       	brge	.+26     	; 0x4d82 <_ZN15WaterSensorWire11SplitStringE6Stringci+0xec>
    4d68:	89 85       	ldd	r24, Y+9	; 0x09
    4d6a:	9a 85       	ldd	r25, Y+10	; 0x0a
    4d6c:	9c 01       	movw	r18, r24
    4d6e:	8f 81       	ldd	r24, Y+7	; 0x07
    4d70:	98 85       	ldd	r25, Y+8	; 0x08
    4d72:	ac 01       	movw	r20, r24
    4d74:	8b 85       	ldd	r24, Y+11	; 0x0b
    4d76:	9c 85       	ldd	r25, Y+12	; 0x0c
    4d78:	6d 85       	ldd	r22, Y+13	; 0x0d
    4d7a:	7e 85       	ldd	r23, Y+14	; 0x0e
    4d7c:	0e 94 f0 33 	call	0x67e0	; 0x67e0 <_ZNK6String9substringEjj>
    4d80:	06 c0       	rjmp	.+12     	; 0x4d8e <_ZN15WaterSensorWire11SplitStringE6Stringci+0xf8>
    4d82:	8b 85       	ldd	r24, Y+11	; 0x0b
    4d84:	9c 85       	ldd	r25, Y+12	; 0x0c
    4d86:	6f e3       	ldi	r22, 0x3F	; 63
    4d88:	71 e0       	ldi	r23, 0x01	; 1
    4d8a:	0e 94 22 32 	call	0x6444	; 0x6444 <_ZN6StringC1EPKc>
    4d8e:	00 00       	nop
    4d90:	8b 85       	ldd	r24, Y+11	; 0x0b
    4d92:	9c 85       	ldd	r25, Y+12	; 0x0c
    4d94:	61 96       	adiw	r28, 0x11	; 17
    4d96:	e2 e0       	ldi	r30, 0x02	; 2
    4d98:	0c 94 1a 35 	jmp	0x6a34	; 0x6a34 <__epilogue_restores__+0x20>

00004d9c <_Z41__static_initialization_and_destruction_0ii>:
    4d9c:	a4 e0       	ldi	r26, 0x04	; 4
    4d9e:	b0 e0       	ldi	r27, 0x00	; 0
    4da0:	e4 ed       	ldi	r30, 0xD4	; 212
    4da2:	f6 e2       	ldi	r31, 0x26	; 38
    4da4:	0c 94 fe 34 	jmp	0x69fc	; 0x69fc <__prologue_saves__+0x20>
    4da8:	9a 83       	std	Y+2, r25	; 0x02
    4daa:	89 83       	std	Y+1, r24	; 0x01
    4dac:	7c 83       	std	Y+4, r23	; 0x04
    4dae:	6b 83       	std	Y+3, r22	; 0x03
    4db0:	89 81       	ldd	r24, Y+1	; 0x01
    4db2:	9a 81       	ldd	r25, Y+2	; 0x02
    4db4:	01 97       	sbiw	r24, 0x01	; 1
    4db6:	09 f0       	breq	.+2      	; 0x4dba <_Z41__static_initialization_and_destruction_0ii+0x1e>
    4db8:	59 c0       	rjmp	.+178    	; 0x4e6c <_Z41__static_initialization_and_destruction_0ii+0xd0>
    4dba:	8b 81       	ldd	r24, Y+3	; 0x03
    4dbc:	9c 81       	ldd	r25, Y+4	; 0x04
    4dbe:	01 96       	adiw	r24, 0x01	; 1
    4dc0:	09 f0       	breq	.+2      	; 0x4dc4 <_Z41__static_initialization_and_destruction_0ii+0x28>
    4dc2:	54 c0       	rjmp	.+168    	; 0x4e6c <_Z41__static_initialization_and_destruction_0ii+0xd0>
#include "WaterSensorWire.h"

const byte _slave = 8; //has to be greater than 8
static const uint8_t _wireReqLength = 20;
static const uint8_t _wireRespLength = 10;
static String _wireRequest = "";
    4dc4:	6f e3       	ldi	r22, 0x3F	; 63
    4dc6:	71 e0       	ldi	r23, 0x01	; 1
    4dc8:	88 e3       	ldi	r24, 0x38	; 56
    4dca:	93 e0       	ldi	r25, 0x03	; 3
    4dcc:	0e 94 22 32 	call	0x6444	; 0x6444 <_ZN6StringC1EPKc>
static String _wireResponse = "";
    4dd0:	6f e3       	ldi	r22, 0x3F	; 63
    4dd2:	71 e0       	ldi	r23, 0x01	; 1
    4dd4:	8e e3       	ldi	r24, 0x3E	; 62
    4dd6:	93 e0       	ldi	r25, 0x03	; 3
    4dd8:	0e 94 22 32 	call	0x6444	; 0x6444 <_ZN6StringC1EPKc>
static int _responseIndex = -1;
static String _cmd = "";
    4ddc:	6f e3       	ldi	r22, 0x3F	; 63
    4dde:	71 e0       	ldi	r23, 0x01	; 1
    4de0:	84 e4       	ldi	r24, 0x44	; 68
    4de2:	93 e0       	ldi	r25, 0x03	; 3
    4de4:	0e 94 22 32 	call	0x6444	; 0x6444 <_ZN6StringC1EPKc>
static String _cmdData = "";
    4de8:	6f e3       	ldi	r22, 0x3F	; 63
    4dea:	71 e0       	ldi	r23, 0x01	; 1
    4dec:	8a e4       	ldi	r24, 0x4A	; 74
    4dee:	93 e0       	ldi	r25, 0x03	; 3
    4df0:	0e 94 22 32 	call	0x6444	; 0x6444 <_ZN6StringC1EPKc>
static String _response = "";
    4df4:	6f e3       	ldi	r22, 0x3F	; 63
    4df6:	71 e0       	ldi	r23, 0x01	; 1
    4df8:	80 e5       	ldi	r24, 0x50	; 80
    4dfa:	93 e0       	ldi	r25, 0x03	; 3
    4dfc:	0e 94 22 32 	call	0x6444	; 0x6444 <_ZN6StringC1EPKc>
//static long _lastReqReceived = 0;
//static const char* _sensorReadInter = "";
//static const char* _sensorReadDur = "";
//static const char* _reading = "";
static String _ph = "";
    4e00:	6f e3       	ldi	r22, 0x3F	; 63
    4e02:	71 e0       	ldi	r23, 0x01	; 1
    4e04:	86 e5       	ldi	r24, 0x56	; 86
    4e06:	93 e0       	ldi	r25, 0x03	; 3
    4e08:	0e 94 22 32 	call	0x6444	; 0x6444 <_ZN6StringC1EPKc>
static String _phAvg = "";
    4e0c:	6f e3       	ldi	r22, 0x3F	; 63
    4e0e:	71 e0       	ldi	r23, 0x01	; 1
    4e10:	8c e5       	ldi	r24, 0x5C	; 92
    4e12:	93 e0       	ldi	r25, 0x03	; 3
    4e14:	0e 94 22 32 	call	0x6444	; 0x6444 <_ZN6StringC1EPKc>
static String _tds = "";
    4e18:	6f e3       	ldi	r22, 0x3F	; 63
    4e1a:	71 e0       	ldi	r23, 0x01	; 1
    4e1c:	82 e6       	ldi	r24, 0x62	; 98
    4e1e:	93 e0       	ldi	r25, 0x03	; 3
    4e20:	0e 94 22 32 	call	0x6444	; 0x6444 <_ZN6StringC1EPKc>
static String _tdsAvg = "";
    4e24:	6f e3       	ldi	r22, 0x3F	; 63
    4e26:	71 e0       	ldi	r23, 0x01	; 1
    4e28:	88 e6       	ldi	r24, 0x68	; 104
    4e2a:	93 e0       	ldi	r25, 0x03	; 3
    4e2c:	0e 94 22 32 	call	0x6444	; 0x6444 <_ZN6StringC1EPKc>
static String _sensorReadInter = "";
    4e30:	6f e3       	ldi	r22, 0x3F	; 63
    4e32:	71 e0       	ldi	r23, 0x01	; 1
    4e34:	8e e6       	ldi	r24, 0x6E	; 110
    4e36:	93 e0       	ldi	r25, 0x03	; 3
    4e38:	0e 94 22 32 	call	0x6444	; 0x6444 <_ZN6StringC1EPKc>
static String _sensorReadDur = "";
    4e3c:	6f e3       	ldi	r22, 0x3F	; 63
    4e3e:	71 e0       	ldi	r23, 0x01	; 1
    4e40:	84 e7       	ldi	r24, 0x74	; 116
    4e42:	93 e0       	ldi	r25, 0x03	; 3
    4e44:	0e 94 22 32 	call	0x6444	; 0x6444 <_ZN6StringC1EPKc>
static String _reading = "";
    4e48:	6f e3       	ldi	r22, 0x3F	; 63
    4e4a:	71 e0       	ldi	r23, 0x01	; 1
    4e4c:	8a e7       	ldi	r24, 0x7A	; 122
    4e4e:	93 e0       	ldi	r25, 0x03	; 3
    4e50:	0e 94 22 32 	call	0x6444	; 0x6444 <_ZN6StringC1EPKc>
static String _phOffset = "";
    4e54:	6f e3       	ldi	r22, 0x3F	; 63
    4e56:	71 e0       	ldi	r23, 0x01	; 1
    4e58:	80 e8       	ldi	r24, 0x80	; 128
    4e5a:	93 e0       	ldi	r25, 0x03	; 3
    4e5c:	0e 94 22 32 	call	0x6444	; 0x6444 <_ZN6StringC1EPKc>
static String _tdsOffset = "";
    4e60:	6f e3       	ldi	r22, 0x3F	; 63
    4e62:	71 e0       	ldi	r23, 0x01	; 1
    4e64:	86 e8       	ldi	r24, 0x86	; 134
    4e66:	93 e0       	ldi	r25, 0x03	; 3
    4e68:	0e 94 22 32 	call	0x6444	; 0x6444 <_ZN6StringC1EPKc>
    4e6c:	89 81       	ldd	r24, Y+1	; 0x01
    4e6e:	9a 81       	ldd	r25, Y+2	; 0x02
    4e70:	89 2b       	or	r24, r25
    4e72:	e1 f5       	brne	.+120    	; 0x4eec <_Z41__static_initialization_and_destruction_0ii+0x150>
    4e74:	8b 81       	ldd	r24, Y+3	; 0x03
    4e76:	9c 81       	ldd	r25, Y+4	; 0x04
    4e78:	01 96       	adiw	r24, 0x01	; 1
    4e7a:	c1 f5       	brne	.+112    	; 0x4eec <_Z41__static_initialization_and_destruction_0ii+0x150>
    4e7c:	86 e8       	ldi	r24, 0x86	; 134
    4e7e:	93 e0       	ldi	r25, 0x03	; 3
    4e80:	0e 94 bb 31 	call	0x6376	; 0x6376 <_ZN6StringD1Ev>
static String _tds = "";
static String _tdsAvg = "";
static String _sensorReadInter = "";
static String _sensorReadDur = "";
static String _reading = "";
static String _phOffset = "";
    4e84:	80 e8       	ldi	r24, 0x80	; 128
    4e86:	93 e0       	ldi	r25, 0x03	; 3
    4e88:	0e 94 bb 31 	call	0x6376	; 0x6376 <_ZN6StringD1Ev>
static String _phAvg = "";
static String _tds = "";
static String _tdsAvg = "";
static String _sensorReadInter = "";
static String _sensorReadDur = "";
static String _reading = "";
    4e8c:	8a e7       	ldi	r24, 0x7A	; 122
    4e8e:	93 e0       	ldi	r25, 0x03	; 3
    4e90:	0e 94 bb 31 	call	0x6376	; 0x6376 <_ZN6StringD1Ev>
static String _ph = "";
static String _phAvg = "";
static String _tds = "";
static String _tdsAvg = "";
static String _sensorReadInter = "";
static String _sensorReadDur = "";
    4e94:	84 e7       	ldi	r24, 0x74	; 116
    4e96:	93 e0       	ldi	r25, 0x03	; 3
    4e98:	0e 94 bb 31 	call	0x6376	; 0x6376 <_ZN6StringD1Ev>
//static const char* _reading = "";
static String _ph = "";
static String _phAvg = "";
static String _tds = "";
static String _tdsAvg = "";
static String _sensorReadInter = "";
    4e9c:	8e e6       	ldi	r24, 0x6E	; 110
    4e9e:	93 e0       	ldi	r25, 0x03	; 3
    4ea0:	0e 94 bb 31 	call	0x6376	; 0x6376 <_ZN6StringD1Ev>
//static const char* _sensorReadDur = "";
//static const char* _reading = "";
static String _ph = "";
static String _phAvg = "";
static String _tds = "";
static String _tdsAvg = "";
    4ea4:	88 e6       	ldi	r24, 0x68	; 104
    4ea6:	93 e0       	ldi	r25, 0x03	; 3
    4ea8:	0e 94 bb 31 	call	0x6376	; 0x6376 <_ZN6StringD1Ev>
//static const char* _sensorReadInter = "";
//static const char* _sensorReadDur = "";
//static const char* _reading = "";
static String _ph = "";
static String _phAvg = "";
static String _tds = "";
    4eac:	82 e6       	ldi	r24, 0x62	; 98
    4eae:	93 e0       	ldi	r25, 0x03	; 3
    4eb0:	0e 94 bb 31 	call	0x6376	; 0x6376 <_ZN6StringD1Ev>
//static long _lastReqReceived = 0;
//static const char* _sensorReadInter = "";
//static const char* _sensorReadDur = "";
//static const char* _reading = "";
static String _ph = "";
static String _phAvg = "";
    4eb4:	8c e5       	ldi	r24, 0x5C	; 92
    4eb6:	93 e0       	ldi	r25, 0x03	; 3
    4eb8:	0e 94 bb 31 	call	0x6376	; 0x6376 <_ZN6StringD1Ev>
static String _response = "";
//static long _lastReqReceived = 0;
//static const char* _sensorReadInter = "";
//static const char* _sensorReadDur = "";
//static const char* _reading = "";
static String _ph = "";
    4ebc:	86 e5       	ldi	r24, 0x56	; 86
    4ebe:	93 e0       	ldi	r25, 0x03	; 3
    4ec0:	0e 94 bb 31 	call	0x6376	; 0x6376 <_ZN6StringD1Ev>
static String _wireRequest = "";
static String _wireResponse = "";
static int _responseIndex = -1;
static String _cmd = "";
static String _cmdData = "";
static String _response = "";
    4ec4:	80 e5       	ldi	r24, 0x50	; 80
    4ec6:	93 e0       	ldi	r25, 0x03	; 3
    4ec8:	0e 94 bb 31 	call	0x6376	; 0x6376 <_ZN6StringD1Ev>
static const uint8_t _wireRespLength = 10;
static String _wireRequest = "";
static String _wireResponse = "";
static int _responseIndex = -1;
static String _cmd = "";
static String _cmdData = "";
    4ecc:	8a e4       	ldi	r24, 0x4A	; 74
    4ece:	93 e0       	ldi	r25, 0x03	; 3
    4ed0:	0e 94 bb 31 	call	0x6376	; 0x6376 <_ZN6StringD1Ev>
static const uint8_t _wireReqLength = 20;
static const uint8_t _wireRespLength = 10;
static String _wireRequest = "";
static String _wireResponse = "";
static int _responseIndex = -1;
static String _cmd = "";
    4ed4:	84 e4       	ldi	r24, 0x44	; 68
    4ed6:	93 e0       	ldi	r25, 0x03	; 3
    4ed8:	0e 94 bb 31 	call	0x6376	; 0x6376 <_ZN6StringD1Ev>

const byte _slave = 8; //has to be greater than 8
static const uint8_t _wireReqLength = 20;
static const uint8_t _wireRespLength = 10;
static String _wireRequest = "";
static String _wireResponse = "";
    4edc:	8e e3       	ldi	r24, 0x3E	; 62
    4ede:	93 e0       	ldi	r25, 0x03	; 3
    4ee0:	0e 94 bb 31 	call	0x6376	; 0x6376 <_ZN6StringD1Ev>
#include "WaterSensorWire.h"

const byte _slave = 8; //has to be greater than 8
static const uint8_t _wireReqLength = 20;
static const uint8_t _wireRespLength = 10;
static String _wireRequest = "";
    4ee4:	88 e3       	ldi	r24, 0x38	; 56
    4ee6:	93 e0       	ldi	r25, 0x03	; 3
    4ee8:	0e 94 bb 31 	call	0x6376	; 0x6376 <_ZN6StringD1Ev>
    pinMode(SDA, INPUT_PULLUP); // and make SDA high i.e. send I2C STOP control.
    delayMicroseconds(10); // x. wait >5uS
    pinMode(SDA, INPUT); // and reset pins as tri-state inputs which is the default state on reset
    pinMode(SCL, INPUT);
    return 0; // all ok
    4eec:	24 96       	adiw	r28, 0x04	; 4
    4eee:	e2 e0       	ldi	r30, 0x02	; 2
    4ef0:	0c 94 1a 35 	jmp	0x6a34	; 0x6a34 <__epilogue_restores__+0x20>

00004ef4 <_GLOBAL__sub_I__ZN15WaterSensorWire5SetupEv>:
    4ef4:	a0 e0       	ldi	r26, 0x00	; 0
    4ef6:	b0 e0       	ldi	r27, 0x00	; 0
    4ef8:	e0 e8       	ldi	r30, 0x80	; 128
    4efa:	f7 e2       	ldi	r31, 0x27	; 39
    4efc:	0c 94 fe 34 	jmp	0x69fc	; 0x69fc <__prologue_saves__+0x20>
    4f00:	6f ef       	ldi	r22, 0xFF	; 255
    4f02:	7f ef       	ldi	r23, 0xFF	; 255
    4f04:	81 e0       	ldi	r24, 0x01	; 1
    4f06:	90 e0       	ldi	r25, 0x00	; 0
    4f08:	49 df       	rcall	.-366    	; 0x4d9c <_Z41__static_initialization_and_destruction_0ii>
    4f0a:	e2 e0       	ldi	r30, 0x02	; 2
    4f0c:	0c 94 1a 35 	jmp	0x6a34	; 0x6a34 <__epilogue_restores__+0x20>

00004f10 <_GLOBAL__sub_D__ZN15WaterSensorWire5SetupEv>:
    4f10:	a0 e0       	ldi	r26, 0x00	; 0
    4f12:	b0 e0       	ldi	r27, 0x00	; 0
    4f14:	ee e8       	ldi	r30, 0x8E	; 142
    4f16:	f7 e2       	ldi	r31, 0x27	; 39
    4f18:	0c 94 fe 34 	jmp	0x69fc	; 0x69fc <__prologue_saves__+0x20>
    4f1c:	6f ef       	ldi	r22, 0xFF	; 255
    4f1e:	7f ef       	ldi	r23, 0xFF	; 255
    4f20:	80 e0       	ldi	r24, 0x00	; 0
    4f22:	90 e0       	ldi	r25, 0x00	; 0
    4f24:	3b df       	rcall	.-394    	; 0x4d9c <_Z41__static_initialization_and_destruction_0ii>
    4f26:	e2 e0       	ldi	r30, 0x02	; 2
    4f28:	0c 94 1a 35 	jmp	0x6a34	; 0x6a34 <__epilogue_restores__+0x20>

00004f2c <_ZN8PHSensorD1Ev>:
using namespace Memory;
#include "MathExt.h"

#include "LCDBase.h"

class PHSensor {
    4f2c:	a2 e0       	ldi	r26, 0x02	; 2
    4f2e:	b0 e0       	ldi	r27, 0x00	; 0
    4f30:	ec e9       	ldi	r30, 0x9C	; 156
    4f32:	f7 e2       	ldi	r31, 0x27	; 39
    4f34:	0c 94 fe 34 	jmp	0x69fc	; 0x69fc <__prologue_saves__+0x20>
    4f38:	9a 83       	std	Y+2, r25	; 0x02
    4f3a:	89 83       	std	Y+1, r24	; 0x01
    4f3c:	89 81       	ldd	r24, Y+1	; 0x01
    4f3e:	9a 81       	ldd	r25, Y+2	; 0x02
    4f40:	89 57       	subi	r24, 0x79	; 121
    4f42:	9f 4f       	sbci	r25, 0xFF	; 255
    4f44:	0e 94 bb 31 	call	0x6376	; 0x6376 <_ZN6StringD1Ev>
    4f48:	89 81       	ldd	r24, Y+1	; 0x01
    4f4a:	9a 81       	ldd	r25, Y+2	; 0x02
    4f4c:	8f 57       	subi	r24, 0x7F	; 127
    4f4e:	9f 4f       	sbci	r25, 0xFF	; 255
    4f50:	0e 94 bb 31 	call	0x6376	; 0x6376 <_ZN6StringD1Ev>
    4f54:	89 81       	ldd	r24, Y+1	; 0x01
    4f56:	9a 81       	ldd	r25, Y+2	; 0x02
    4f58:	8e 5b       	subi	r24, 0xBE	; 190
    4f5a:	9f 4f       	sbci	r25, 0xFF	; 255
    4f5c:	0e 94 70 13 	call	0x26e0	; 0x26e0 <_ZNSt6vectorIdSaIdEED1Ev>
    4f60:	22 96       	adiw	r28, 0x02	; 2
    4f62:	e2 e0       	ldi	r30, 0x02	; 2
    4f64:	0c 94 1a 35 	jmp	0x6a34	; 0x6a34 <__epilogue_restores__+0x20>

00004f68 <_ZN9TDSSensorD1Ev>:
#include "SensorsMem.h"
using namespace Memory;
#include "MathExt.h"
#include "LCDBase.h"

class TDSSensor {
    4f68:	a2 e0       	ldi	r26, 0x02	; 2
    4f6a:	b0 e0       	ldi	r27, 0x00	; 0
    4f6c:	ea eb       	ldi	r30, 0xBA	; 186
    4f6e:	f7 e2       	ldi	r31, 0x27	; 39
    4f70:	0c 94 fe 34 	jmp	0x69fc	; 0x69fc <__prologue_saves__+0x20>
    4f74:	9a 83       	std	Y+2, r25	; 0x02
    4f76:	89 83       	std	Y+1, r24	; 0x01
    4f78:	89 81       	ldd	r24, Y+1	; 0x01
    4f7a:	9a 81       	ldd	r25, Y+2	; 0x02
    4f7c:	82 58       	subi	r24, 0x82	; 130
    4f7e:	9f 4f       	sbci	r25, 0xFF	; 255
    4f80:	0e 94 bb 31 	call	0x6376	; 0x6376 <_ZN6StringD1Ev>
    4f84:	89 81       	ldd	r24, Y+1	; 0x01
    4f86:	9a 81       	ldd	r25, Y+2	; 0x02
    4f88:	88 58       	subi	r24, 0x88	; 136
    4f8a:	9f 4f       	sbci	r25, 0xFF	; 255
    4f8c:	0e 94 bb 31 	call	0x6376	; 0x6376 <_ZN6StringD1Ev>
    4f90:	22 96       	adiw	r28, 0x02	; 2
    4f92:	e2 e0       	ldi	r30, 0x02	; 2
    4f94:	0c 94 1a 35 	jmp	0x6a34	; 0x6a34 <__epilogue_restores__+0x20>

00004f98 <_ZN7Globals13SwitchSensorsEv>:

    PHSensor& ThePHSensor = _thePHSensor;//PHSensor(_phSensorPin, 2000, true, TheLCD);

    TDSSensor& TheTDSSensor = _theTDSSensor;//TDSSensor(_tdsSensorPin, 1000, true, TheLCD);

    void SwitchSensors() {
    4f98:	a0 e0       	ldi	r26, 0x00	; 0
    4f9a:	b0 e0       	ldi	r27, 0x00	; 0
    4f9c:	e2 ed       	ldi	r30, 0xD2	; 210
    4f9e:	f7 e2       	ldi	r31, 0x27	; 39
    4fa0:	0c 94 fe 34 	jmp	0x69fc	; 0x69fc <__prologue_saves__+0x20>
        ReadingTDS = !ReadingTDS;
    4fa4:	90 91 8c 03 	lds	r25, 0x038C	; 0x80038c <_ZN7Globals10ReadingTDSE>
    4fa8:	81 e0       	ldi	r24, 0x01	; 1
    4faa:	89 27       	eor	r24, r25
    4fac:	80 93 8c 03 	sts	0x038C, r24	; 0x80038c <_ZN7Globals10ReadingTDSE>
        if(ReadingTDS) {
    4fb0:	80 91 8c 03 	lds	r24, 0x038C	; 0x80038c <_ZN7Globals10ReadingTDSE>
    4fb4:	88 23       	and	r24, r24
    4fb6:	41 f0       	breq	.+16     	; 0x4fc8 <_ZN7Globals13SwitchSensorsEv+0x30>
            ThePHSensor.TurnOff();
    4fb8:	85 eb       	ldi	r24, 0xB5	; 181
    4fba:	93 e0       	ldi	r25, 0x03	; 3
    4fbc:	0e 94 2f 1c 	call	0x385e	; 0x385e <_ZN8PHSensor7TurnOffEv>
            TheTDSSensor.TurnOn(); //signal mofset
    4fc0:	86 e4       	ldi	r24, 0x46	; 70
    4fc2:	94 e0       	ldi	r25, 0x04	; 4
    4fc4:	08 da       	rcall	.-3056   	; 0x43d6 <_ZN9TDSSensor6TurnOnEv>
    4fc6:	07 c0       	rjmp	.+14     	; 0x4fd6 <_ZN7Globals13SwitchSensorsEv+0x3e>
        }
        else {
            TheTDSSensor.TurnOff();//signal mofset
    4fc8:	86 e4       	ldi	r24, 0x46	; 70
    4fca:	94 e0       	ldi	r25, 0x04	; 4
    4fcc:	21 da       	rcall	.-3006   	; 0x4410 <_ZN9TDSSensor7TurnOffEv>
            ThePHSensor.TurnOn();
    4fce:	85 eb       	ldi	r24, 0xB5	; 181
    4fd0:	93 e0       	ldi	r25, 0x03	; 3
    4fd2:	0e 94 12 1c 	call	0x3824	; 0x3824 <_ZN8PHSensor6TurnOnEv>
        }
    }
    4fd6:	e2 e0       	ldi	r30, 0x02	; 2
    4fd8:	0c 94 1a 35 	jmp	0x6a34	; 0x6a34 <__epilogue_restores__+0x20>

00004fdc <_Z41__static_initialization_and_destruction_0ii>:

}
    4fdc:	ac e4       	ldi	r26, 0x4C	; 76
    4fde:	b0 e0       	ldi	r27, 0x00	; 0
    4fe0:	e4 ef       	ldi	r30, 0xF4	; 244
    4fe2:	f7 e2       	ldi	r31, 0x27	; 39
    4fe4:	0c 94 fa 34 	jmp	0x69f4	; 0x69f4 <__prologue_saves__+0x18>
    4fe8:	9e 01       	movw	r18, r28
    4fea:	27 5b       	subi	r18, 0xB7	; 183
    4fec:	3f 4f       	sbci	r19, 0xFF	; 255
    4fee:	f9 01       	movw	r30, r18
    4ff0:	91 83       	std	Z+1, r25	; 0x01
    4ff2:	80 83       	st	Z, r24
    4ff4:	ce 01       	movw	r24, r28
    4ff6:	85 5b       	subi	r24, 0xB5	; 181
    4ff8:	9f 4f       	sbci	r25, 0xFF	; 255
    4ffa:	fc 01       	movw	r30, r24
    4ffc:	71 83       	std	Z+1, r23	; 0x01
    4ffe:	60 83       	st	Z, r22
    5000:	ce 01       	movw	r24, r28
    5002:	87 5b       	subi	r24, 0xB7	; 183
    5004:	9f 4f       	sbci	r25, 0xFF	; 255
    5006:	fc 01       	movw	r30, r24
    5008:	80 81       	ld	r24, Z
    500a:	91 81       	ldd	r25, Z+1	; 0x01
    500c:	01 97       	sbiw	r24, 0x01	; 1
    500e:	09 f0       	breq	.+2      	; 0x5012 <_Z41__static_initialization_and_destruction_0ii+0x36>
    5010:	44 c0       	rjmp	.+136    	; 0x509a <_Z41__static_initialization_and_destruction_0ii+0xbe>
    5012:	ce 01       	movw	r24, r28
    5014:	85 5b       	subi	r24, 0xB5	; 181
    5016:	9f 4f       	sbci	r25, 0xFF	; 255
    5018:	fc 01       	movw	r30, r24
    501a:	80 81       	ld	r24, Z
    501c:	91 81       	ldd	r25, Z+1	; 0x01
    501e:	01 96       	adiw	r24, 0x01	; 1
    5020:	e1 f5       	brne	.+120    	; 0x509a <_Z41__static_initialization_and_destruction_0ii+0xbe>
    int _tdsRelayPin = 2;
    bool ReadingTDS = false;
    long SensorReadInterval = 300000;//300000;//5000; // every 5 min switch ph and tds sensor
    long SensorReadDuration = 0;

    static LCDBase _theLCD = LCDBase();
    5022:	81 e9       	ldi	r24, 0x91	; 145
    5024:	93 e0       	ldi	r25, 0x03	; 3
    5026:	0e 94 0e 10 	call	0x201c	; 0x201c <_ZN7LCDBaseC1Ev>
    static PHSensor _thePHSensor = PHSensor(_phSensorPin, 2000, true, TheLCD, _phRelayPin);
    502a:	00 91 0c 01 	lds	r16, 0x010C	; 0x80010c <_ZN7Globals11_phRelayPinE>
    502e:	10 91 0d 01 	lds	r17, 0x010D	; 0x80010d <_ZN7Globals11_phRelayPinE+0x1>
    5032:	21 e9       	ldi	r18, 0x91	; 145
    5034:	33 e0       	ldi	r19, 0x03	; 3
    5036:	ce 01       	movw	r24, r28
    5038:	85 96       	adiw	r24, 0x25	; 37
    503a:	b9 01       	movw	r22, r18
    503c:	0e 94 ee 16 	call	0x2ddc	; 0x2ddc <_ZN7LCDBaseC1ERKS_>
    5040:	80 91 08 01 	lds	r24, 0x0108	; 0x800108 <_ZN7Globals12_phSensorPinE>
    5044:	90 91 09 01 	lds	r25, 0x0109	; 0x800109 <_ZN7Globals12_phSensorPinE+0x1>
    5048:	9e 01       	movw	r18, r28
    504a:	2b 5d       	subi	r18, 0xDB	; 219
    504c:	3f 4f       	sbci	r19, 0xFF	; 255
    504e:	78 01       	movw	r14, r16
    5050:	89 01       	movw	r16, r18
    5052:	21 e0       	ldi	r18, 0x01	; 1
    5054:	40 ed       	ldi	r20, 0xD0	; 208
    5056:	57 e0       	ldi	r21, 0x07	; 7
    5058:	bc 01       	movw	r22, r24
    505a:	85 eb       	ldi	r24, 0xB5	; 181
    505c:	93 e0       	ldi	r25, 0x03	; 3
    505e:	0e 94 20 17 	call	0x2e40	; 0x2e40 <_ZN8PHSensorC1Eiib7LCDBasei>
    static TDSSensor _theTDSSensor = TDSSensor(_tdsSensorPin, 1000, true, TheLCD, _tdsRelayPin);
    5062:	00 91 0e 01 	lds	r16, 0x010E	; 0x80010e <_ZN7Globals12_tdsRelayPinE>
    5066:	10 91 0f 01 	lds	r17, 0x010F	; 0x80010f <_ZN7Globals12_tdsRelayPinE+0x1>
    506a:	81 e9       	ldi	r24, 0x91	; 145
    506c:	93 e0       	ldi	r25, 0x03	; 3
    506e:	bc 01       	movw	r22, r24
    5070:	ce 01       	movw	r24, r28
    5072:	01 96       	adiw	r24, 0x01	; 1
    5074:	0e 94 ee 16 	call	0x2ddc	; 0x2ddc <_ZN7LCDBaseC1ERKS_>
    5078:	80 91 0a 01 	lds	r24, 0x010A	; 0x80010a <_ZN7Globals13_tdsSensorPinE>
    507c:	90 91 0b 01 	lds	r25, 0x010B	; 0x80010b <_ZN7Globals13_tdsSensorPinE+0x1>
    5080:	78 01       	movw	r14, r16
    5082:	9e 01       	movw	r18, r28
    5084:	2f 5f       	subi	r18, 0xFF	; 255
    5086:	3f 4f       	sbci	r19, 0xFF	; 255
    5088:	89 01       	movw	r16, r18
    508a:	21 e0       	ldi	r18, 0x01	; 1
    508c:	48 ee       	ldi	r20, 0xE8	; 232
    508e:	53 e0       	ldi	r21, 0x03	; 3
    5090:	bc 01       	movw	r22, r24
    5092:	86 e4       	ldi	r24, 0x46	; 70
    5094:	94 e0       	ldi	r25, 0x04	; 4
    5096:	0e 94 f6 1d 	call	0x3bec	; 0x3bec <_ZN9TDSSensorC1Eiib7LCDBasei>
    509a:	ce 01       	movw	r24, r28
    509c:	87 5b       	subi	r24, 0xB7	; 183
    509e:	9f 4f       	sbci	r25, 0xFF	; 255
    50a0:	fc 01       	movw	r30, r24
    50a2:	80 81       	ld	r24, Z
    50a4:	91 81       	ldd	r25, Z+1	; 0x01
    50a6:	89 2b       	or	r24, r25
    50a8:	71 f4       	brne	.+28     	; 0x50c6 <_Z41__static_initialization_and_destruction_0ii+0xea>
    50aa:	ce 01       	movw	r24, r28
    50ac:	85 5b       	subi	r24, 0xB5	; 181
    50ae:	9f 4f       	sbci	r25, 0xFF	; 255
    50b0:	fc 01       	movw	r30, r24
    50b2:	80 81       	ld	r24, Z
    50b4:	91 81       	ldd	r25, Z+1	; 0x01
    50b6:	01 96       	adiw	r24, 0x01	; 1
    50b8:	31 f4       	brne	.+12     	; 0x50c6 <_Z41__static_initialization_and_destruction_0ii+0xea>
    50ba:	86 e4       	ldi	r24, 0x46	; 70
    50bc:	94 e0       	ldi	r25, 0x04	; 4
    50be:	54 df       	rcall	.-344    	; 0x4f68 <_ZN9TDSSensorD1Ev>
    bool ReadingTDS = false;
    long SensorReadInterval = 300000;//300000;//5000; // every 5 min switch ph and tds sensor
    long SensorReadDuration = 0;

    static LCDBase _theLCD = LCDBase();
    static PHSensor _thePHSensor = PHSensor(_phSensorPin, 2000, true, TheLCD, _phRelayPin);
    50c0:	85 eb       	ldi	r24, 0xB5	; 181
    50c2:	93 e0       	ldi	r25, 0x03	; 3
    50c4:	33 df       	rcall	.-410    	; 0x4f2c <_ZN8PHSensorD1Ev>
            TheTDSSensor.TurnOff();//signal mofset
            ThePHSensor.TurnOn();
        }
    }

}
    50c6:	c4 5b       	subi	r28, 0xB4	; 180
    50c8:	df 4f       	sbci	r29, 0xFF	; 255
    50ca:	e6 e0       	ldi	r30, 0x06	; 6
    50cc:	0c 94 16 35 	jmp	0x6a2c	; 0x6a2c <__epilogue_restores__+0x18>

000050d0 <_GLOBAL__sub_I__ZN7Globals12_phSensorPinE>:
    50d0:	a0 e0       	ldi	r26, 0x00	; 0
    50d2:	b0 e0       	ldi	r27, 0x00	; 0
    50d4:	ee e6       	ldi	r30, 0x6E	; 110
    50d6:	f8 e2       	ldi	r31, 0x28	; 40
    50d8:	0c 94 fe 34 	jmp	0x69fc	; 0x69fc <__prologue_saves__+0x20>
    50dc:	6f ef       	ldi	r22, 0xFF	; 255
    50de:	7f ef       	ldi	r23, 0xFF	; 255
    50e0:	81 e0       	ldi	r24, 0x01	; 1
    50e2:	90 e0       	ldi	r25, 0x00	; 0
    50e4:	7b df       	rcall	.-266    	; 0x4fdc <_Z41__static_initialization_and_destruction_0ii>
    50e6:	e2 e0       	ldi	r30, 0x02	; 2
    50e8:	0c 94 1a 35 	jmp	0x6a34	; 0x6a34 <__epilogue_restores__+0x20>

000050ec <_GLOBAL__sub_D__ZN7Globals12_phSensorPinE>:
    50ec:	a0 e0       	ldi	r26, 0x00	; 0
    50ee:	b0 e0       	ldi	r27, 0x00	; 0
    50f0:	ec e7       	ldi	r30, 0x7C	; 124
    50f2:	f8 e2       	ldi	r31, 0x28	; 40
    50f4:	0c 94 fe 34 	jmp	0x69fc	; 0x69fc <__prologue_saves__+0x20>
    50f8:	6f ef       	ldi	r22, 0xFF	; 255
    50fa:	7f ef       	ldi	r23, 0xFF	; 255
    50fc:	80 e0       	ldi	r24, 0x00	; 0
    50fe:	90 e0       	ldi	r25, 0x00	; 0
    5100:	6d df       	rcall	.-294    	; 0x4fdc <_Z41__static_initialization_and_destruction_0ii>
    5102:	e2 e0       	ldi	r30, 0x02	; 2
    5104:	0c 94 1a 35 	jmp	0x6a34	; 0x6a34 <__epilogue_restores__+0x20>

00005108 <_ZN14HardwareSerial5beginEm>:
  public:
    inline HardwareSerial(
      volatile uint8_t *ubrrh, volatile uint8_t *ubrrl,
      volatile uint8_t *ucsra, volatile uint8_t *ucsrb,
      volatile uint8_t *ucsrc, volatile uint8_t *udr);
    void begin(unsigned long baud) { begin(baud, SERIAL_8N1); }
    5108:	a6 e0       	ldi	r26, 0x06	; 6
    510a:	b0 e0       	ldi	r27, 0x00	; 0
    510c:	ea e8       	ldi	r30, 0x8A	; 138
    510e:	f8 e2       	ldi	r31, 0x28	; 40
    5110:	0c 94 fe 34 	jmp	0x69fc	; 0x69fc <__prologue_saves__+0x20>
    5114:	9a 83       	std	Y+2, r25	; 0x02
    5116:	89 83       	std	Y+1, r24	; 0x01
    5118:	4b 83       	std	Y+3, r20	; 0x03
    511a:	5c 83       	std	Y+4, r21	; 0x04
    511c:	6d 83       	std	Y+5, r22	; 0x05
    511e:	7e 83       	std	Y+6, r23	; 0x06
    5120:	8b 81       	ldd	r24, Y+3	; 0x03
    5122:	9c 81       	ldd	r25, Y+4	; 0x04
    5124:	ad 81       	ldd	r26, Y+5	; 0x05
    5126:	be 81       	ldd	r27, Y+6	; 0x06
    5128:	e9 81       	ldd	r30, Y+1	; 0x01
    512a:	fa 81       	ldd	r31, Y+2	; 0x02
    512c:	26 e0       	ldi	r18, 0x06	; 6
    512e:	ac 01       	movw	r20, r24
    5130:	bd 01       	movw	r22, r26
    5132:	cf 01       	movw	r24, r30
    5134:	03 d4       	rcall	.+2054   	; 0x593c <_ZN14HardwareSerial5beginEmh>
    5136:	26 96       	adiw	r28, 0x06	; 6
    5138:	e2 e0       	ldi	r30, 0x02	; 2
    513a:	0c 94 1a 35 	jmp	0x6a34	; 0x6a34 <__epilogue_restores__+0x20>

0000513e <_ZN14HardwareSerialcvbEv>:
    inline size_t write(unsigned long n) { return write((uint8_t)n); }
    inline size_t write(long n) { return write((uint8_t)n); }
    inline size_t write(unsigned int n) { return write((uint8_t)n); }
    inline size_t write(int n) { return write((uint8_t)n); }
    using Print::write; // pull in write(str) and write(buf, size) from Print
    operator bool() { return true; }
    513e:	a2 e0       	ldi	r26, 0x02	; 2
    5140:	b0 e0       	ldi	r27, 0x00	; 0
    5142:	e5 ea       	ldi	r30, 0xA5	; 165
    5144:	f8 e2       	ldi	r31, 0x28	; 40
    5146:	0c 94 fe 34 	jmp	0x69fc	; 0x69fc <__prologue_saves__+0x20>
    514a:	9a 83       	std	Y+2, r25	; 0x02
    514c:	89 83       	std	Y+1, r24	; 0x01
    514e:	81 e0       	ldi	r24, 0x01	; 1
    5150:	22 96       	adiw	r28, 0x02	; 2
    5152:	e2 e0       	ldi	r30, 0x02	; 2
    5154:	0c 94 1a 35 	jmp	0x6a34	; 0x6a34 <__epilogue_restores__+0x20>

00005158 <setup>:
SimpleTimer _asyncTimer;


void AsyncDoWork();

void setup(void) {
    5158:	a0 e0       	ldi	r26, 0x00	; 0
    515a:	b0 e0       	ldi	r27, 0x00	; 0
    515c:	e2 eb       	ldi	r30, 0xB2	; 178
    515e:	f8 e2       	ldi	r31, 0x28	; 40
    5160:	0c 94 fe 34 	jmp	0x69fc	; 0x69fc <__prologue_saves__+0x20>
    // Listen on serial connection for messages from the pc
    Serial.begin(57600);
    5164:	40 e0       	ldi	r20, 0x00	; 0
    5166:	51 ee       	ldi	r21, 0xE1	; 225
    5168:	60 e0       	ldi	r22, 0x00	; 0
    516a:	70 e0       	ldi	r23, 0x00	; 0
    516c:	86 e8       	ldi	r24, 0x86	; 134
    516e:	95 e0       	ldi	r25, 0x05	; 5
    5170:	cb df       	rcall	.-106    	; 0x5108 <_ZN14HardwareSerial5beginEm>
    while(!Serial);
    5172:	00 00       	nop
    5174:	86 e8       	ldi	r24, 0x86	; 134
    5176:	95 e0       	ldi	r25, 0x05	; 5
    5178:	e2 df       	rcall	.-60     	; 0x513e <_ZN14HardwareSerialcvbEv>
    517a:	98 2f       	mov	r25, r24
    517c:	81 e0       	ldi	r24, 0x01	; 1
    517e:	89 27       	eor	r24, r25
    5180:	88 23       	and	r24, r24
    5182:	c1 f7       	brne	.-16     	; 0x5174 <setup+0x1c>
				"out __SREG__,__tmp_reg__" "\n\t"
				"sts %0, %2" "\n \t"
				: /* no outputs */
				: "n" (_SFR_MEM_ADDR(_WD_CONTROL_REG)),
				"r" ((uint8_t)(_BV(_WD_CHANGE_BIT) | _BV(WDE))),
				"r" ((uint8_t) ((value & 0x08 ? _WD_PS3_MASK : 0x00) |
    5184:	89 e0       	ldi	r24, 0x09	; 9
    5186:	90 e0       	ldi	r25, 0x00	; 0
    5188:	88 70       	andi	r24, 0x08	; 8
    518a:	99 27       	eor	r25, r25
						_BV(WDE) | (value & 0x07)) )
				: "r0"
		);
    518c:	89 2b       	or	r24, r25
    518e:	11 f0       	breq	.+4      	; 0x5194 <setup+0x3c>
    5190:	88 e2       	ldi	r24, 0x28	; 40
    5192:	01 c0       	rjmp	.+2      	; 0x5196 <setup+0x3e>
    5194:	88 e0       	ldi	r24, 0x08	; 8
    5196:	99 e0       	ldi	r25, 0x09	; 9
    5198:	97 70       	andi	r25, 0x07	; 7
    519a:	89 2b       	or	r24, r25
    519c:	98 2f       	mov	r25, r24
    519e:	88 e1       	ldi	r24, 0x18	; 24
    51a0:	0f b6       	in	r0, 0x3f	; 63
    51a2:	f8 94       	cli
    51a4:	a8 95       	wdr
    51a6:	80 93 60 00 	sts	0x0060, r24	; 0x800060 <__TEXT_REGION_LENGTH__+0x7e0060>
    51aa:	0f be       	out	0x3f, r0	; 63
    51ac:	90 93 60 00 	sts	0x0060, r25	; 0x800060 <__TEXT_REGION_LENGTH__+0x7e0060>

    wdt_enable(WDTO_8S);

    WaterSensorWire::Setup();
    51b0:	10 da       	rcall	.-3040   	; 0x45d2 <_ZN15WaterSensorWire5SetupEv>
    ThePHSensor.TurnOn();
    51b2:	80 91 ad 01 	lds	r24, 0x01AD	; 0x8001ad <_ZN7Globals11ThePHSensorE>
    51b6:	90 91 ae 01 	lds	r25, 0x01AE	; 0x8001ae <_ZN7Globals11ThePHSensorE+0x1>
    51ba:	0e 94 12 1c 	call	0x3824	; 0x3824 <_ZN8PHSensor6TurnOnEv>

    _asyncTimer.setInterval(1000, AsyncDoWork); //todo: set to 1000;
    51be:	25 e0       	ldi	r18, 0x05	; 5
    51c0:	39 e2       	ldi	r19, 0x29	; 41
    51c2:	48 ee       	ldi	r20, 0xE8	; 232
    51c4:	53 e0       	ldi	r21, 0x03	; 3
    51c6:	60 e0       	ldi	r22, 0x00	; 0
    51c8:	70 e0       	ldi	r23, 0x00	; 0
    51ca:	8c ec       	ldi	r24, 0xCC	; 204
    51cc:	94 e0       	ldi	r25, 0x04	; 4
    51ce:	0e 94 c0 0e 	call	0x1d80	; 0x1d80 <_ZN11SimpleTimer11setIntervalElPFvvE>

    //CmdMessengerExt::Init();
}
    51d2:	e2 e0       	ldi	r30, 0x02	; 2
    51d4:	0c 94 1a 35 	jmp	0x6a34	; 0x6a34 <__epilogue_restores__+0x20>

000051d8 <loop>:

//String _request;
//String _response;
void loop(void) {
    51d8:	a0 e0       	ldi	r26, 0x00	; 0
    51da:	b0 e0       	ldi	r27, 0x00	; 0
    51dc:	e2 ef       	ldi	r30, 0xF2	; 242
    51de:	f8 e2       	ldi	r31, 0x28	; 40
    51e0:	0c 94 fe 34 	jmp	0x69fc	; 0x69fc <__prologue_saves__+0x20>

    _asyncTimer.run();
    51e4:	8c ec       	ldi	r24, 0xCC	; 204
    51e6:	94 e0       	ldi	r25, 0x04	; 4
    51e8:	0e 94 70 0c 	call	0x18e0	; 0x18e0 <_ZN11SimpleTimer3runEv>

    ThePHSensor.PrintPHToLCD();
    51ec:	80 91 ad 01 	lds	r24, 0x01AD	; 0x8001ad <_ZN7Globals11ThePHSensorE>
    51f0:	90 91 ae 01 	lds	r25, 0x01AE	; 0x8001ae <_ZN7Globals11ThePHSensorE+0x1>
    51f4:	0e 94 51 1b 	call	0x36a2	; 0x36a2 <_ZN8PHSensor12PrintPHToLCDEv>
    TheTDSSensor.PrintTDSToLCD(); //todo: uncomment this
    51f8:	80 91 af 01 	lds	r24, 0x01AF	; 0x8001af <_ZN7Globals12TheTDSSensorE>
    51fc:	90 91 b0 01 	lds	r25, 0x01B0	; 0x8001b0 <_ZN7Globals12TheTDSSensorE+0x1>
    5200:	0e 94 20 1f 	call	0x3e40	; 0x3e40 <_ZN9TDSSensor13PrintTDSToLCDEv>

    //CmdMessengerExt::Loop();
}
    5204:	e2 e0       	ldi	r30, 0x02	; 2
    5206:	0c 94 1a 35 	jmp	0x6a34	; 0x6a34 <__epilogue_restores__+0x20>

0000520a <_Z11AsyncDoWorkv>:

void AsyncDoWork() {
    520a:	a0 e0       	ldi	r26, 0x00	; 0
    520c:	b0 e0       	ldi	r27, 0x00	; 0
    520e:	eb e0       	ldi	r30, 0x0B	; 11
    5210:	f9 e2       	ldi	r31, 0x29	; 41
    5212:	0c 94 fa 34 	jmp	0x69f4	; 0x69f4 <__prologue_saves__+0x18>

    wdt_reset();
    5216:	a8 95       	wdr

    static unsigned long lastSensorReadTime = millis();
    5218:	8a e7       	ldi	r24, 0x7A	; 122
    521a:	95 e0       	ldi	r25, 0x05	; 5
    521c:	fc 01       	movw	r30, r24
    521e:	80 81       	ld	r24, Z
    5220:	88 23       	and	r24, r24
    5222:	81 f4       	brne	.+32     	; 0x5244 <_Z11AsyncDoWorkv+0x3a>
    5224:	1f d7       	rcall	.+3646   	; 0x6064 <millis>
    5226:	dc 01       	movw	r26, r24
    5228:	cb 01       	movw	r24, r22
    522a:	80 93 82 05 	sts	0x0582, r24	; 0x800582 <_ZZ11AsyncDoWorkvE18lastSensorReadTime>
    522e:	90 93 83 05 	sts	0x0583, r25	; 0x800583 <_ZZ11AsyncDoWorkvE18lastSensorReadTime+0x1>
    5232:	a0 93 84 05 	sts	0x0584, r26	; 0x800584 <_ZZ11AsyncDoWorkvE18lastSensorReadTime+0x2>
    5236:	b0 93 85 05 	sts	0x0585, r27	; 0x800585 <_ZZ11AsyncDoWorkvE18lastSensorReadTime+0x3>
    523a:	8a e7       	ldi	r24, 0x7A	; 122
    523c:	95 e0       	ldi	r25, 0x05	; 5
    523e:	21 e0       	ldi	r18, 0x01	; 1
    5240:	fc 01       	movw	r30, r24
    5242:	20 83       	st	Z, r18

    if(TheLCD.DetectKeyPress() == LcdKeyPress::Select) {
    5244:	80 91 ab 01 	lds	r24, 0x01AB	; 0x8001ab <_ZN7Globals6TheLCDE>
    5248:	90 91 ac 01 	lds	r25, 0x01AC	; 0x8001ac <_ZN7Globals6TheLCDE+0x1>
    524c:	0e 94 a3 10 	call	0x2146	; 0x2146 <_ZN7LCDBase14DetectKeyPressEv>
    5250:	98 2f       	mov	r25, r24
    5252:	81 e0       	ldi	r24, 0x01	; 1
    5254:	94 30       	cpi	r25, 0x04	; 4
    5256:	09 f0       	breq	.+2      	; 0x525a <_Z11AsyncDoWorkv+0x50>
    5258:	80 e0       	ldi	r24, 0x00	; 0
    525a:	88 23       	and	r24, r24
    525c:	91 f0       	breq	.+36     	; 0x5282 <_Z11AsyncDoWorkv+0x78>
        Serial.println(F("[Selelct] Pressed"));
    525e:	84 e5       	ldi	r24, 0x54	; 84
    5260:	94 e0       	ldi	r25, 0x04	; 4
    5262:	bc 01       	movw	r22, r24
    5264:	86 e8       	ldi	r24, 0x86	; 134
    5266:	95 e0       	ldi	r25, 0x05	; 5
    5268:	e3 d4       	rcall	.+2502   	; 0x5c30 <_ZN5Print7printlnEPK19__FlashStringHelper>
        SwitchSensors();
    526a:	96 de       	rcall	.-724    	; 0x4f98 <_ZN7Globals13SwitchSensorsEv>
        lastSensorReadTime = millis();
    526c:	fb d6       	rcall	.+3574   	; 0x6064 <millis>
    526e:	dc 01       	movw	r26, r24
    5270:	cb 01       	movw	r24, r22
    5272:	80 93 82 05 	sts	0x0582, r24	; 0x800582 <_ZZ11AsyncDoWorkvE18lastSensorReadTime>
    5276:	90 93 83 05 	sts	0x0583, r25	; 0x800583 <_ZZ11AsyncDoWorkvE18lastSensorReadTime+0x1>
    527a:	a0 93 84 05 	sts	0x0584, r26	; 0x800584 <_ZZ11AsyncDoWorkvE18lastSensorReadTime+0x2>
    527e:	b0 93 85 05 	sts	0x0585, r27	; 0x800585 <_ZZ11AsyncDoWorkvE18lastSensorReadTime+0x3>
    }
    SensorReadDuration = millis() - lastSensorReadTime;
    5282:	f0 d6       	rcall	.+3552   	; 0x6064 <millis>
    5284:	9b 01       	movw	r18, r22
    5286:	ac 01       	movw	r20, r24
    5288:	80 91 82 05 	lds	r24, 0x0582	; 0x800582 <_ZZ11AsyncDoWorkvE18lastSensorReadTime>
    528c:	90 91 83 05 	lds	r25, 0x0583	; 0x800583 <_ZZ11AsyncDoWorkvE18lastSensorReadTime+0x1>
    5290:	a0 91 84 05 	lds	r26, 0x0584	; 0x800584 <_ZZ11AsyncDoWorkvE18lastSensorReadTime+0x2>
    5294:	b0 91 85 05 	lds	r27, 0x0585	; 0x800585 <_ZZ11AsyncDoWorkvE18lastSensorReadTime+0x3>
    5298:	79 01       	movw	r14, r18
    529a:	8a 01       	movw	r16, r20
    529c:	e8 1a       	sub	r14, r24
    529e:	f9 0a       	sbc	r15, r25
    52a0:	0a 0b       	sbc	r16, r26
    52a2:	1b 0b       	sbc	r17, r27
    52a4:	d8 01       	movw	r26, r16
    52a6:	c7 01       	movw	r24, r14
    52a8:	80 93 8d 03 	sts	0x038D, r24	; 0x80038d <_ZN7Globals18SensorReadDurationE>
    52ac:	90 93 8e 03 	sts	0x038E, r25	; 0x80038e <_ZN7Globals18SensorReadDurationE+0x1>
    52b0:	a0 93 8f 03 	sts	0x038F, r26	; 0x80038f <_ZN7Globals18SensorReadDurationE+0x2>
    52b4:	b0 93 90 03 	sts	0x0390, r27	; 0x800390 <_ZN7Globals18SensorReadDurationE+0x3>
    WaterSensorWire::Loop();
    52b8:	b4 d9       	rcall	.-3224   	; 0x4622 <_ZN15WaterSensorWire4LoopEv>
    if(SensorReadDuration > SensorReadInterval) {
    52ba:	20 91 8d 03 	lds	r18, 0x038D	; 0x80038d <_ZN7Globals18SensorReadDurationE>
    52be:	30 91 8e 03 	lds	r19, 0x038E	; 0x80038e <_ZN7Globals18SensorReadDurationE+0x1>
    52c2:	40 91 8f 03 	lds	r20, 0x038F	; 0x80038f <_ZN7Globals18SensorReadDurationE+0x2>
    52c6:	50 91 90 03 	lds	r21, 0x0390	; 0x800390 <_ZN7Globals18SensorReadDurationE+0x3>
    52ca:	80 91 10 01 	lds	r24, 0x0110	; 0x800110 <_ZN7Globals18SensorReadIntervalE>
    52ce:	90 91 11 01 	lds	r25, 0x0111	; 0x800111 <_ZN7Globals18SensorReadIntervalE+0x1>
    52d2:	a0 91 12 01 	lds	r26, 0x0112	; 0x800112 <_ZN7Globals18SensorReadIntervalE+0x2>
    52d6:	b0 91 13 01 	lds	r27, 0x0113	; 0x800113 <_ZN7Globals18SensorReadIntervalE+0x3>
    52da:	82 17       	cp	r24, r18
    52dc:	93 07       	cpc	r25, r19
    52de:	a4 07       	cpc	r26, r20
    52e0:	b5 07       	cpc	r27, r21
    52e2:	64 f4       	brge	.+24     	; 0x52fc <_Z11AsyncDoWorkv+0xf2>

        SwitchSensors();
    52e4:	59 de       	rcall	.-846    	; 0x4f98 <_ZN7Globals13SwitchSensorsEv>
        lastSensorReadTime = millis();
    52e6:	be d6       	rcall	.+3452   	; 0x6064 <millis>
    52e8:	dc 01       	movw	r26, r24
    52ea:	cb 01       	movw	r24, r22
    52ec:	80 93 82 05 	sts	0x0582, r24	; 0x800582 <_ZZ11AsyncDoWorkvE18lastSensorReadTime>
    52f0:	90 93 83 05 	sts	0x0583, r25	; 0x800583 <_ZZ11AsyncDoWorkvE18lastSensorReadTime+0x1>
    52f4:	a0 93 84 05 	sts	0x0584, r26	; 0x800584 <_ZZ11AsyncDoWorkvE18lastSensorReadTime+0x2>
    52f8:	b0 93 85 05 	sts	0x0585, r27	; 0x800585 <_ZZ11AsyncDoWorkvE18lastSensorReadTime+0x3>
    }
    if(ReadingTDS) {
    52fc:	80 91 8c 03 	lds	r24, 0x038C	; 0x80038c <_ZN7Globals10ReadingTDSE>
    5300:	88 23       	and	r24, r24
    5302:	39 f0       	breq	.+14     	; 0x5312 <_Z11AsyncDoWorkv+0x108>
        TheTDSSensor.CalculateTDS();
    5304:	80 91 af 01 	lds	r24, 0x01AF	; 0x8001af <_ZN7Globals12TheTDSSensorE>
    5308:	90 91 b0 01 	lds	r25, 0x01B0	; 0x8001b0 <_ZN7Globals12TheTDSSensorE+0x1>
    530c:	0e 94 ec 1f 	call	0x3fd8	; 0x3fd8 <_ZN9TDSSensor12CalculateTDSEv>
    5310:	06 c0       	rjmp	.+12     	; 0x531e <_Z11AsyncDoWorkv+0x114>
    }
    else {
        ThePHSensor.CalculatePH();
    5312:	80 91 ad 01 	lds	r24, 0x01AD	; 0x8001ad <_ZN7Globals11ThePHSensorE>
    5316:	90 91 ae 01 	lds	r25, 0x01AE	; 0x8001ae <_ZN7Globals11ThePHSensorE+0x1>
    531a:	0e 94 6a 18 	call	0x30d4	; 0x30d4 <_ZN8PHSensor11CalculatePHEv>
    }

    //WaterSensorWire::Scan();
    //WaterSensorWire::I2C_ClearBus();
}
    531e:	e6 e0       	ldi	r30, 0x06	; 6
    5320:	0c 94 16 35 	jmp	0x6a2c	; 0x6a2c <__epilogue_restores__+0x18>

00005324 <_Z41__static_initialization_and_destruction_0ii>:
    5324:	a4 e0       	ldi	r26, 0x04	; 4
    5326:	b0 e0       	ldi	r27, 0x00	; 0
    5328:	e8 e9       	ldi	r30, 0x98	; 152
    532a:	f9 e2       	ldi	r31, 0x29	; 41
    532c:	0c 94 fe 34 	jmp	0x69fc	; 0x69fc <__prologue_saves__+0x20>
    5330:	9a 83       	std	Y+2, r25	; 0x02
    5332:	89 83       	std	Y+1, r24	; 0x01
    5334:	7c 83       	std	Y+4, r23	; 0x04
    5336:	6b 83       	std	Y+3, r22	; 0x03
    5338:	89 81       	ldd	r24, Y+1	; 0x01
    533a:	9a 81       	ldd	r25, Y+2	; 0x02
    533c:	01 97       	sbiw	r24, 0x01	; 1
    533e:	41 f4       	brne	.+16     	; 0x5350 <_Z41__static_initialization_and_destruction_0ii+0x2c>
    5340:	8b 81       	ldd	r24, Y+3	; 0x03
    5342:	9c 81       	ldd	r25, Y+4	; 0x04
    5344:	01 96       	adiw	r24, 0x01	; 1
    5346:	21 f4       	brne	.+8      	; 0x5350 <_Z41__static_initialization_and_destruction_0ii+0x2c>

#include "WaterSensorWire.h"
//#include "CmdMessengerExt.h"
using namespace Globals;

SimpleTimer _asyncTimer;
    5348:	8c ec       	ldi	r24, 0xCC	; 204
    534a:	94 e0       	ldi	r25, 0x04	; 4
    534c:	0e 94 0a 0c 	call	0x1814	; 0x1814 <_ZN11SimpleTimerC1Ev>
        ThePHSensor.CalculatePH();
    }

    //WaterSensorWire::Scan();
    //WaterSensorWire::I2C_ClearBus();
}
    5350:	24 96       	adiw	r28, 0x04	; 4
    5352:	e2 e0       	ldi	r30, 0x02	; 2
    5354:	0c 94 1a 35 	jmp	0x6a34	; 0x6a34 <__epilogue_restores__+0x20>

00005358 <_GLOBAL__sub_I__asyncTimer>:
    5358:	a0 e0       	ldi	r26, 0x00	; 0
    535a:	b0 e0       	ldi	r27, 0x00	; 0
    535c:	e2 eb       	ldi	r30, 0xB2	; 178
    535e:	f9 e2       	ldi	r31, 0x29	; 41
    5360:	0c 94 fe 34 	jmp	0x69fc	; 0x69fc <__prologue_saves__+0x20>
    5364:	6f ef       	ldi	r22, 0xFF	; 255
    5366:	7f ef       	ldi	r23, 0xFF	; 255
    5368:	81 e0       	ldi	r24, 0x01	; 1
    536a:	90 e0       	ldi	r25, 0x00	; 0
    536c:	db df       	rcall	.-74     	; 0x5324 <_Z41__static_initialization_and_destruction_0ii>
    536e:	e2 e0       	ldi	r30, 0x02	; 2
    5370:	0c 94 1a 35 	jmp	0x6a34	; 0x6a34 <__epilogue_restores__+0x20>

00005374 <__subsf3>:
    5374:	50 58       	subi	r21, 0x80	; 128

00005376 <__addsf3>:
    5376:	bb 27       	eor	r27, r27
    5378:	aa 27       	eor	r26, r26
    537a:	0e d0       	rcall	.+28     	; 0x5398 <__addsf3x>
    537c:	75 c1       	rjmp	.+746    	; 0x5668 <__fp_round>
    537e:	66 d1       	rcall	.+716    	; 0x564c <__fp_pscA>
    5380:	30 f0       	brcs	.+12     	; 0x538e <__addsf3+0x18>
    5382:	6b d1       	rcall	.+726    	; 0x565a <__fp_pscB>
    5384:	20 f0       	brcs	.+8      	; 0x538e <__addsf3+0x18>
    5386:	31 f4       	brne	.+12     	; 0x5394 <__addsf3+0x1e>
    5388:	9f 3f       	cpi	r25, 0xFF	; 255
    538a:	11 f4       	brne	.+4      	; 0x5390 <__addsf3+0x1a>
    538c:	1e f4       	brtc	.+6      	; 0x5394 <__addsf3+0x1e>
    538e:	5b c1       	rjmp	.+694    	; 0x5646 <__fp_nan>
    5390:	0e f4       	brtc	.+2      	; 0x5394 <__addsf3+0x1e>
    5392:	e0 95       	com	r30
    5394:	e7 fb       	bst	r30, 7
    5396:	51 c1       	rjmp	.+674    	; 0x563a <__fp_inf>

00005398 <__addsf3x>:
    5398:	e9 2f       	mov	r30, r25
    539a:	77 d1       	rcall	.+750    	; 0x568a <__fp_split3>
    539c:	80 f3       	brcs	.-32     	; 0x537e <__addsf3+0x8>
    539e:	ba 17       	cp	r27, r26
    53a0:	62 07       	cpc	r22, r18
    53a2:	73 07       	cpc	r23, r19
    53a4:	84 07       	cpc	r24, r20
    53a6:	95 07       	cpc	r25, r21
    53a8:	18 f0       	brcs	.+6      	; 0x53b0 <__addsf3x+0x18>
    53aa:	71 f4       	brne	.+28     	; 0x53c8 <__addsf3x+0x30>
    53ac:	9e f5       	brtc	.+102    	; 0x5414 <__addsf3x+0x7c>
    53ae:	8f c1       	rjmp	.+798    	; 0x56ce <__fp_zero>
    53b0:	0e f4       	brtc	.+2      	; 0x53b4 <__addsf3x+0x1c>
    53b2:	e0 95       	com	r30
    53b4:	0b 2e       	mov	r0, r27
    53b6:	ba 2f       	mov	r27, r26
    53b8:	a0 2d       	mov	r26, r0
    53ba:	0b 01       	movw	r0, r22
    53bc:	b9 01       	movw	r22, r18
    53be:	90 01       	movw	r18, r0
    53c0:	0c 01       	movw	r0, r24
    53c2:	ca 01       	movw	r24, r20
    53c4:	a0 01       	movw	r20, r0
    53c6:	11 24       	eor	r1, r1
    53c8:	ff 27       	eor	r31, r31
    53ca:	59 1b       	sub	r21, r25
    53cc:	99 f0       	breq	.+38     	; 0x53f4 <__addsf3x+0x5c>
    53ce:	59 3f       	cpi	r21, 0xF9	; 249
    53d0:	50 f4       	brcc	.+20     	; 0x53e6 <__addsf3x+0x4e>
    53d2:	50 3e       	cpi	r21, 0xE0	; 224
    53d4:	68 f1       	brcs	.+90     	; 0x5430 <__addsf3x+0x98>
    53d6:	1a 16       	cp	r1, r26
    53d8:	f0 40       	sbci	r31, 0x00	; 0
    53da:	a2 2f       	mov	r26, r18
    53dc:	23 2f       	mov	r18, r19
    53de:	34 2f       	mov	r19, r20
    53e0:	44 27       	eor	r20, r20
    53e2:	58 5f       	subi	r21, 0xF8	; 248
    53e4:	f3 cf       	rjmp	.-26     	; 0x53cc <__addsf3x+0x34>
    53e6:	46 95       	lsr	r20
    53e8:	37 95       	ror	r19
    53ea:	27 95       	ror	r18
    53ec:	a7 95       	ror	r26
    53ee:	f0 40       	sbci	r31, 0x00	; 0
    53f0:	53 95       	inc	r21
    53f2:	c9 f7       	brne	.-14     	; 0x53e6 <__addsf3x+0x4e>
    53f4:	7e f4       	brtc	.+30     	; 0x5414 <__addsf3x+0x7c>
    53f6:	1f 16       	cp	r1, r31
    53f8:	ba 0b       	sbc	r27, r26
    53fa:	62 0b       	sbc	r22, r18
    53fc:	73 0b       	sbc	r23, r19
    53fe:	84 0b       	sbc	r24, r20
    5400:	ba f0       	brmi	.+46     	; 0x5430 <__addsf3x+0x98>
    5402:	91 50       	subi	r25, 0x01	; 1
    5404:	a1 f0       	breq	.+40     	; 0x542e <__addsf3x+0x96>
    5406:	ff 0f       	add	r31, r31
    5408:	bb 1f       	adc	r27, r27
    540a:	66 1f       	adc	r22, r22
    540c:	77 1f       	adc	r23, r23
    540e:	88 1f       	adc	r24, r24
    5410:	c2 f7       	brpl	.-16     	; 0x5402 <__addsf3x+0x6a>
    5412:	0e c0       	rjmp	.+28     	; 0x5430 <__addsf3x+0x98>
    5414:	ba 0f       	add	r27, r26
    5416:	62 1f       	adc	r22, r18
    5418:	73 1f       	adc	r23, r19
    541a:	84 1f       	adc	r24, r20
    541c:	48 f4       	brcc	.+18     	; 0x5430 <__addsf3x+0x98>
    541e:	87 95       	ror	r24
    5420:	77 95       	ror	r23
    5422:	67 95       	ror	r22
    5424:	b7 95       	ror	r27
    5426:	f7 95       	ror	r31
    5428:	9e 3f       	cpi	r25, 0xFE	; 254
    542a:	08 f0       	brcs	.+2      	; 0x542e <__addsf3x+0x96>
    542c:	b3 cf       	rjmp	.-154    	; 0x5394 <__addsf3+0x1e>
    542e:	93 95       	inc	r25
    5430:	88 0f       	add	r24, r24
    5432:	08 f0       	brcs	.+2      	; 0x5436 <__addsf3x+0x9e>
    5434:	99 27       	eor	r25, r25
    5436:	ee 0f       	add	r30, r30
    5438:	97 95       	ror	r25
    543a:	87 95       	ror	r24
    543c:	08 95       	ret

0000543e <__cmpsf2>:
    543e:	d9 d0       	rcall	.+434    	; 0x55f2 <__fp_cmp>
    5440:	08 f4       	brcc	.+2      	; 0x5444 <__cmpsf2+0x6>
    5442:	81 e0       	ldi	r24, 0x01	; 1
    5444:	08 95       	ret

00005446 <__divsf3>:
    5446:	0c d0       	rcall	.+24     	; 0x5460 <__divsf3x>
    5448:	0f c1       	rjmp	.+542    	; 0x5668 <__fp_round>
    544a:	07 d1       	rcall	.+526    	; 0x565a <__fp_pscB>
    544c:	40 f0       	brcs	.+16     	; 0x545e <__divsf3+0x18>
    544e:	fe d0       	rcall	.+508    	; 0x564c <__fp_pscA>
    5450:	30 f0       	brcs	.+12     	; 0x545e <__divsf3+0x18>
    5452:	21 f4       	brne	.+8      	; 0x545c <__divsf3+0x16>
    5454:	5f 3f       	cpi	r21, 0xFF	; 255
    5456:	19 f0       	breq	.+6      	; 0x545e <__divsf3+0x18>
    5458:	f0 c0       	rjmp	.+480    	; 0x563a <__fp_inf>
    545a:	51 11       	cpse	r21, r1
    545c:	39 c1       	rjmp	.+626    	; 0x56d0 <__fp_szero>
    545e:	f3 c0       	rjmp	.+486    	; 0x5646 <__fp_nan>

00005460 <__divsf3x>:
    5460:	14 d1       	rcall	.+552    	; 0x568a <__fp_split3>
    5462:	98 f3       	brcs	.-26     	; 0x544a <__divsf3+0x4>

00005464 <__divsf3_pse>:
    5464:	99 23       	and	r25, r25
    5466:	c9 f3       	breq	.-14     	; 0x545a <__divsf3+0x14>
    5468:	55 23       	and	r21, r21
    546a:	b1 f3       	breq	.-20     	; 0x5458 <__divsf3+0x12>
    546c:	95 1b       	sub	r25, r21
    546e:	55 0b       	sbc	r21, r21
    5470:	bb 27       	eor	r27, r27
    5472:	aa 27       	eor	r26, r26
    5474:	62 17       	cp	r22, r18
    5476:	73 07       	cpc	r23, r19
    5478:	84 07       	cpc	r24, r20
    547a:	38 f0       	brcs	.+14     	; 0x548a <__divsf3_pse+0x26>
    547c:	9f 5f       	subi	r25, 0xFF	; 255
    547e:	5f 4f       	sbci	r21, 0xFF	; 255
    5480:	22 0f       	add	r18, r18
    5482:	33 1f       	adc	r19, r19
    5484:	44 1f       	adc	r20, r20
    5486:	aa 1f       	adc	r26, r26
    5488:	a9 f3       	breq	.-22     	; 0x5474 <__divsf3_pse+0x10>
    548a:	33 d0       	rcall	.+102    	; 0x54f2 <__divsf3_pse+0x8e>
    548c:	0e 2e       	mov	r0, r30
    548e:	3a f0       	brmi	.+14     	; 0x549e <__divsf3_pse+0x3a>
    5490:	e0 e8       	ldi	r30, 0x80	; 128
    5492:	30 d0       	rcall	.+96     	; 0x54f4 <__divsf3_pse+0x90>
    5494:	91 50       	subi	r25, 0x01	; 1
    5496:	50 40       	sbci	r21, 0x00	; 0
    5498:	e6 95       	lsr	r30
    549a:	00 1c       	adc	r0, r0
    549c:	ca f7       	brpl	.-14     	; 0x5490 <__divsf3_pse+0x2c>
    549e:	29 d0       	rcall	.+82     	; 0x54f2 <__divsf3_pse+0x8e>
    54a0:	fe 2f       	mov	r31, r30
    54a2:	27 d0       	rcall	.+78     	; 0x54f2 <__divsf3_pse+0x8e>
    54a4:	66 0f       	add	r22, r22
    54a6:	77 1f       	adc	r23, r23
    54a8:	88 1f       	adc	r24, r24
    54aa:	bb 1f       	adc	r27, r27
    54ac:	26 17       	cp	r18, r22
    54ae:	37 07       	cpc	r19, r23
    54b0:	48 07       	cpc	r20, r24
    54b2:	ab 07       	cpc	r26, r27
    54b4:	b0 e8       	ldi	r27, 0x80	; 128
    54b6:	09 f0       	breq	.+2      	; 0x54ba <__divsf3_pse+0x56>
    54b8:	bb 0b       	sbc	r27, r27
    54ba:	80 2d       	mov	r24, r0
    54bc:	bf 01       	movw	r22, r30
    54be:	ff 27       	eor	r31, r31
    54c0:	93 58       	subi	r25, 0x83	; 131
    54c2:	5f 4f       	sbci	r21, 0xFF	; 255
    54c4:	2a f0       	brmi	.+10     	; 0x54d0 <__divsf3_pse+0x6c>
    54c6:	9e 3f       	cpi	r25, 0xFE	; 254
    54c8:	51 05       	cpc	r21, r1
    54ca:	68 f0       	brcs	.+26     	; 0x54e6 <__divsf3_pse+0x82>
    54cc:	b6 c0       	rjmp	.+364    	; 0x563a <__fp_inf>
    54ce:	00 c1       	rjmp	.+512    	; 0x56d0 <__fp_szero>
    54d0:	5f 3f       	cpi	r21, 0xFF	; 255
    54d2:	ec f3       	brlt	.-6      	; 0x54ce <__divsf3_pse+0x6a>
    54d4:	98 3e       	cpi	r25, 0xE8	; 232
    54d6:	dc f3       	brlt	.-10     	; 0x54ce <__divsf3_pse+0x6a>
    54d8:	86 95       	lsr	r24
    54da:	77 95       	ror	r23
    54dc:	67 95       	ror	r22
    54de:	b7 95       	ror	r27
    54e0:	f7 95       	ror	r31
    54e2:	9f 5f       	subi	r25, 0xFF	; 255
    54e4:	c9 f7       	brne	.-14     	; 0x54d8 <__divsf3_pse+0x74>
    54e6:	88 0f       	add	r24, r24
    54e8:	91 1d       	adc	r25, r1
    54ea:	96 95       	lsr	r25
    54ec:	87 95       	ror	r24
    54ee:	97 f9       	bld	r25, 7
    54f0:	08 95       	ret
    54f2:	e1 e0       	ldi	r30, 0x01	; 1
    54f4:	66 0f       	add	r22, r22
    54f6:	77 1f       	adc	r23, r23
    54f8:	88 1f       	adc	r24, r24
    54fa:	bb 1f       	adc	r27, r27
    54fc:	62 17       	cp	r22, r18
    54fe:	73 07       	cpc	r23, r19
    5500:	84 07       	cpc	r24, r20
    5502:	ba 07       	cpc	r27, r26
    5504:	20 f0       	brcs	.+8      	; 0x550e <__divsf3_pse+0xaa>
    5506:	62 1b       	sub	r22, r18
    5508:	73 0b       	sbc	r23, r19
    550a:	84 0b       	sbc	r24, r20
    550c:	ba 0b       	sbc	r27, r26
    550e:	ee 1f       	adc	r30, r30
    5510:	88 f7       	brcc	.-30     	; 0x54f4 <__divsf3_pse+0x90>
    5512:	e0 95       	com	r30
    5514:	08 95       	ret

00005516 <__fixsfsi>:
    5516:	04 d0       	rcall	.+8      	; 0x5520 <__fixunssfsi>
    5518:	68 94       	set
    551a:	b1 11       	cpse	r27, r1
    551c:	d9 c0       	rjmp	.+434    	; 0x56d0 <__fp_szero>
    551e:	08 95       	ret

00005520 <__fixunssfsi>:
    5520:	bc d0       	rcall	.+376    	; 0x569a <__fp_splitA>
    5522:	88 f0       	brcs	.+34     	; 0x5546 <__fixunssfsi+0x26>
    5524:	9f 57       	subi	r25, 0x7F	; 127
    5526:	90 f0       	brcs	.+36     	; 0x554c <__fixunssfsi+0x2c>
    5528:	b9 2f       	mov	r27, r25
    552a:	99 27       	eor	r25, r25
    552c:	b7 51       	subi	r27, 0x17	; 23
    552e:	a0 f0       	brcs	.+40     	; 0x5558 <__fixunssfsi+0x38>
    5530:	d1 f0       	breq	.+52     	; 0x5566 <__fixunssfsi+0x46>
    5532:	66 0f       	add	r22, r22
    5534:	77 1f       	adc	r23, r23
    5536:	88 1f       	adc	r24, r24
    5538:	99 1f       	adc	r25, r25
    553a:	1a f0       	brmi	.+6      	; 0x5542 <__fixunssfsi+0x22>
    553c:	ba 95       	dec	r27
    553e:	c9 f7       	brne	.-14     	; 0x5532 <__fixunssfsi+0x12>
    5540:	12 c0       	rjmp	.+36     	; 0x5566 <__fixunssfsi+0x46>
    5542:	b1 30       	cpi	r27, 0x01	; 1
    5544:	81 f0       	breq	.+32     	; 0x5566 <__fixunssfsi+0x46>
    5546:	c3 d0       	rcall	.+390    	; 0x56ce <__fp_zero>
    5548:	b1 e0       	ldi	r27, 0x01	; 1
    554a:	08 95       	ret
    554c:	c0 c0       	rjmp	.+384    	; 0x56ce <__fp_zero>
    554e:	67 2f       	mov	r22, r23
    5550:	78 2f       	mov	r23, r24
    5552:	88 27       	eor	r24, r24
    5554:	b8 5f       	subi	r27, 0xF8	; 248
    5556:	39 f0       	breq	.+14     	; 0x5566 <__fixunssfsi+0x46>
    5558:	b9 3f       	cpi	r27, 0xF9	; 249
    555a:	cc f3       	brlt	.-14     	; 0x554e <__fixunssfsi+0x2e>
    555c:	86 95       	lsr	r24
    555e:	77 95       	ror	r23
    5560:	67 95       	ror	r22
    5562:	b3 95       	inc	r27
    5564:	d9 f7       	brne	.-10     	; 0x555c <__fixunssfsi+0x3c>
    5566:	3e f4       	brtc	.+14     	; 0x5576 <__fixunssfsi+0x56>
    5568:	90 95       	com	r25
    556a:	80 95       	com	r24
    556c:	70 95       	com	r23
    556e:	61 95       	neg	r22
    5570:	7f 4f       	sbci	r23, 0xFF	; 255
    5572:	8f 4f       	sbci	r24, 0xFF	; 255
    5574:	9f 4f       	sbci	r25, 0xFF	; 255
    5576:	08 95       	ret

00005578 <__floatunsisf>:
    5578:	e8 94       	clt
    557a:	09 c0       	rjmp	.+18     	; 0x558e <__floatsisf+0x12>

0000557c <__floatsisf>:
    557c:	97 fb       	bst	r25, 7
    557e:	3e f4       	brtc	.+14     	; 0x558e <__floatsisf+0x12>
    5580:	90 95       	com	r25
    5582:	80 95       	com	r24
    5584:	70 95       	com	r23
    5586:	61 95       	neg	r22
    5588:	7f 4f       	sbci	r23, 0xFF	; 255
    558a:	8f 4f       	sbci	r24, 0xFF	; 255
    558c:	9f 4f       	sbci	r25, 0xFF	; 255
    558e:	99 23       	and	r25, r25
    5590:	a9 f0       	breq	.+42     	; 0x55bc <__floatsisf+0x40>
    5592:	f9 2f       	mov	r31, r25
    5594:	96 e9       	ldi	r25, 0x96	; 150
    5596:	bb 27       	eor	r27, r27
    5598:	93 95       	inc	r25
    559a:	f6 95       	lsr	r31
    559c:	87 95       	ror	r24
    559e:	77 95       	ror	r23
    55a0:	67 95       	ror	r22
    55a2:	b7 95       	ror	r27
    55a4:	f1 11       	cpse	r31, r1
    55a6:	f8 cf       	rjmp	.-16     	; 0x5598 <__floatsisf+0x1c>
    55a8:	fa f4       	brpl	.+62     	; 0x55e8 <__floatsisf+0x6c>
    55aa:	bb 0f       	add	r27, r27
    55ac:	11 f4       	brne	.+4      	; 0x55b2 <__floatsisf+0x36>
    55ae:	60 ff       	sbrs	r22, 0
    55b0:	1b c0       	rjmp	.+54     	; 0x55e8 <__floatsisf+0x6c>
    55b2:	6f 5f       	subi	r22, 0xFF	; 255
    55b4:	7f 4f       	sbci	r23, 0xFF	; 255
    55b6:	8f 4f       	sbci	r24, 0xFF	; 255
    55b8:	9f 4f       	sbci	r25, 0xFF	; 255
    55ba:	16 c0       	rjmp	.+44     	; 0x55e8 <__floatsisf+0x6c>
    55bc:	88 23       	and	r24, r24
    55be:	11 f0       	breq	.+4      	; 0x55c4 <__floatsisf+0x48>
    55c0:	96 e9       	ldi	r25, 0x96	; 150
    55c2:	11 c0       	rjmp	.+34     	; 0x55e6 <__floatsisf+0x6a>
    55c4:	77 23       	and	r23, r23
    55c6:	21 f0       	breq	.+8      	; 0x55d0 <__floatsisf+0x54>
    55c8:	9e e8       	ldi	r25, 0x8E	; 142
    55ca:	87 2f       	mov	r24, r23
    55cc:	76 2f       	mov	r23, r22
    55ce:	05 c0       	rjmp	.+10     	; 0x55da <__floatsisf+0x5e>
    55d0:	66 23       	and	r22, r22
    55d2:	71 f0       	breq	.+28     	; 0x55f0 <__floatsisf+0x74>
    55d4:	96 e8       	ldi	r25, 0x86	; 134
    55d6:	86 2f       	mov	r24, r22
    55d8:	70 e0       	ldi	r23, 0x00	; 0
    55da:	60 e0       	ldi	r22, 0x00	; 0
    55dc:	2a f0       	brmi	.+10     	; 0x55e8 <__floatsisf+0x6c>
    55de:	9a 95       	dec	r25
    55e0:	66 0f       	add	r22, r22
    55e2:	77 1f       	adc	r23, r23
    55e4:	88 1f       	adc	r24, r24
    55e6:	da f7       	brpl	.-10     	; 0x55de <__floatsisf+0x62>
    55e8:	88 0f       	add	r24, r24
    55ea:	96 95       	lsr	r25
    55ec:	87 95       	ror	r24
    55ee:	97 f9       	bld	r25, 7
    55f0:	08 95       	ret

000055f2 <__fp_cmp>:
    55f2:	99 0f       	add	r25, r25
    55f4:	00 08       	sbc	r0, r0
    55f6:	55 0f       	add	r21, r21
    55f8:	aa 0b       	sbc	r26, r26
    55fa:	e0 e8       	ldi	r30, 0x80	; 128
    55fc:	fe ef       	ldi	r31, 0xFE	; 254
    55fe:	16 16       	cp	r1, r22
    5600:	17 06       	cpc	r1, r23
    5602:	e8 07       	cpc	r30, r24
    5604:	f9 07       	cpc	r31, r25
    5606:	c0 f0       	brcs	.+48     	; 0x5638 <__fp_cmp+0x46>
    5608:	12 16       	cp	r1, r18
    560a:	13 06       	cpc	r1, r19
    560c:	e4 07       	cpc	r30, r20
    560e:	f5 07       	cpc	r31, r21
    5610:	98 f0       	brcs	.+38     	; 0x5638 <__fp_cmp+0x46>
    5612:	62 1b       	sub	r22, r18
    5614:	73 0b       	sbc	r23, r19
    5616:	84 0b       	sbc	r24, r20
    5618:	95 0b       	sbc	r25, r21
    561a:	39 f4       	brne	.+14     	; 0x562a <__fp_cmp+0x38>
    561c:	0a 26       	eor	r0, r26
    561e:	61 f0       	breq	.+24     	; 0x5638 <__fp_cmp+0x46>
    5620:	23 2b       	or	r18, r19
    5622:	24 2b       	or	r18, r20
    5624:	25 2b       	or	r18, r21
    5626:	21 f4       	brne	.+8      	; 0x5630 <__fp_cmp+0x3e>
    5628:	08 95       	ret
    562a:	0a 26       	eor	r0, r26
    562c:	09 f4       	brne	.+2      	; 0x5630 <__fp_cmp+0x3e>
    562e:	a1 40       	sbci	r26, 0x01	; 1
    5630:	a6 95       	lsr	r26
    5632:	8f ef       	ldi	r24, 0xFF	; 255
    5634:	81 1d       	adc	r24, r1
    5636:	81 1d       	adc	r24, r1
    5638:	08 95       	ret

0000563a <__fp_inf>:
    563a:	97 f9       	bld	r25, 7
    563c:	9f 67       	ori	r25, 0x7F	; 127
    563e:	80 e8       	ldi	r24, 0x80	; 128
    5640:	70 e0       	ldi	r23, 0x00	; 0
    5642:	60 e0       	ldi	r22, 0x00	; 0
    5644:	08 95       	ret

00005646 <__fp_nan>:
    5646:	9f ef       	ldi	r25, 0xFF	; 255
    5648:	80 ec       	ldi	r24, 0xC0	; 192
    564a:	08 95       	ret

0000564c <__fp_pscA>:
    564c:	00 24       	eor	r0, r0
    564e:	0a 94       	dec	r0
    5650:	16 16       	cp	r1, r22
    5652:	17 06       	cpc	r1, r23
    5654:	18 06       	cpc	r1, r24
    5656:	09 06       	cpc	r0, r25
    5658:	08 95       	ret

0000565a <__fp_pscB>:
    565a:	00 24       	eor	r0, r0
    565c:	0a 94       	dec	r0
    565e:	12 16       	cp	r1, r18
    5660:	13 06       	cpc	r1, r19
    5662:	14 06       	cpc	r1, r20
    5664:	05 06       	cpc	r0, r21
    5666:	08 95       	ret

00005668 <__fp_round>:
    5668:	09 2e       	mov	r0, r25
    566a:	03 94       	inc	r0
    566c:	00 0c       	add	r0, r0
    566e:	11 f4       	brne	.+4      	; 0x5674 <__fp_round+0xc>
    5670:	88 23       	and	r24, r24
    5672:	52 f0       	brmi	.+20     	; 0x5688 <__fp_round+0x20>
    5674:	bb 0f       	add	r27, r27
    5676:	40 f4       	brcc	.+16     	; 0x5688 <__fp_round+0x20>
    5678:	bf 2b       	or	r27, r31
    567a:	11 f4       	brne	.+4      	; 0x5680 <__fp_round+0x18>
    567c:	60 ff       	sbrs	r22, 0
    567e:	04 c0       	rjmp	.+8      	; 0x5688 <__fp_round+0x20>
    5680:	6f 5f       	subi	r22, 0xFF	; 255
    5682:	7f 4f       	sbci	r23, 0xFF	; 255
    5684:	8f 4f       	sbci	r24, 0xFF	; 255
    5686:	9f 4f       	sbci	r25, 0xFF	; 255
    5688:	08 95       	ret

0000568a <__fp_split3>:
    568a:	57 fd       	sbrc	r21, 7
    568c:	90 58       	subi	r25, 0x80	; 128
    568e:	44 0f       	add	r20, r20
    5690:	55 1f       	adc	r21, r21
    5692:	59 f0       	breq	.+22     	; 0x56aa <__fp_splitA+0x10>
    5694:	5f 3f       	cpi	r21, 0xFF	; 255
    5696:	71 f0       	breq	.+28     	; 0x56b4 <__fp_splitA+0x1a>
    5698:	47 95       	ror	r20

0000569a <__fp_splitA>:
    569a:	88 0f       	add	r24, r24
    569c:	97 fb       	bst	r25, 7
    569e:	99 1f       	adc	r25, r25
    56a0:	61 f0       	breq	.+24     	; 0x56ba <__fp_splitA+0x20>
    56a2:	9f 3f       	cpi	r25, 0xFF	; 255
    56a4:	79 f0       	breq	.+30     	; 0x56c4 <__fp_splitA+0x2a>
    56a6:	87 95       	ror	r24
    56a8:	08 95       	ret
    56aa:	12 16       	cp	r1, r18
    56ac:	13 06       	cpc	r1, r19
    56ae:	14 06       	cpc	r1, r20
    56b0:	55 1f       	adc	r21, r21
    56b2:	f2 cf       	rjmp	.-28     	; 0x5698 <__fp_split3+0xe>
    56b4:	46 95       	lsr	r20
    56b6:	f1 df       	rcall	.-30     	; 0x569a <__fp_splitA>
    56b8:	08 c0       	rjmp	.+16     	; 0x56ca <__fp_splitA+0x30>
    56ba:	16 16       	cp	r1, r22
    56bc:	17 06       	cpc	r1, r23
    56be:	18 06       	cpc	r1, r24
    56c0:	99 1f       	adc	r25, r25
    56c2:	f1 cf       	rjmp	.-30     	; 0x56a6 <__fp_splitA+0xc>
    56c4:	86 95       	lsr	r24
    56c6:	71 05       	cpc	r23, r1
    56c8:	61 05       	cpc	r22, r1
    56ca:	08 94       	sec
    56cc:	08 95       	ret

000056ce <__fp_zero>:
    56ce:	e8 94       	clt

000056d0 <__fp_szero>:
    56d0:	bb 27       	eor	r27, r27
    56d2:	66 27       	eor	r22, r22
    56d4:	77 27       	eor	r23, r23
    56d6:	cb 01       	movw	r24, r22
    56d8:	97 f9       	bld	r25, 7
    56da:	08 95       	ret

000056dc <__gesf2>:
    56dc:	8a df       	rcall	.-236    	; 0x55f2 <__fp_cmp>
    56de:	08 f4       	brcc	.+2      	; 0x56e2 <__gesf2+0x6>
    56e0:	8f ef       	ldi	r24, 0xFF	; 255
    56e2:	08 95       	ret

000056e4 <__mulsf3>:
    56e4:	0b d0       	rcall	.+22     	; 0x56fc <__mulsf3x>
    56e6:	c0 cf       	rjmp	.-128    	; 0x5668 <__fp_round>
    56e8:	b1 df       	rcall	.-158    	; 0x564c <__fp_pscA>
    56ea:	28 f0       	brcs	.+10     	; 0x56f6 <__mulsf3+0x12>
    56ec:	b6 df       	rcall	.-148    	; 0x565a <__fp_pscB>
    56ee:	18 f0       	brcs	.+6      	; 0x56f6 <__mulsf3+0x12>
    56f0:	95 23       	and	r25, r21
    56f2:	09 f0       	breq	.+2      	; 0x56f6 <__mulsf3+0x12>
    56f4:	a2 cf       	rjmp	.-188    	; 0x563a <__fp_inf>
    56f6:	a7 cf       	rjmp	.-178    	; 0x5646 <__fp_nan>
    56f8:	11 24       	eor	r1, r1
    56fa:	ea cf       	rjmp	.-44     	; 0x56d0 <__fp_szero>

000056fc <__mulsf3x>:
    56fc:	c6 df       	rcall	.-116    	; 0x568a <__fp_split3>
    56fe:	a0 f3       	brcs	.-24     	; 0x56e8 <__mulsf3+0x4>

00005700 <__mulsf3_pse>:
    5700:	95 9f       	mul	r25, r21
    5702:	d1 f3       	breq	.-12     	; 0x56f8 <__mulsf3+0x14>
    5704:	95 0f       	add	r25, r21
    5706:	50 e0       	ldi	r21, 0x00	; 0
    5708:	55 1f       	adc	r21, r21
    570a:	62 9f       	mul	r22, r18
    570c:	f0 01       	movw	r30, r0
    570e:	72 9f       	mul	r23, r18
    5710:	bb 27       	eor	r27, r27
    5712:	f0 0d       	add	r31, r0
    5714:	b1 1d       	adc	r27, r1
    5716:	63 9f       	mul	r22, r19
    5718:	aa 27       	eor	r26, r26
    571a:	f0 0d       	add	r31, r0
    571c:	b1 1d       	adc	r27, r1
    571e:	aa 1f       	adc	r26, r26
    5720:	64 9f       	mul	r22, r20
    5722:	66 27       	eor	r22, r22
    5724:	b0 0d       	add	r27, r0
    5726:	a1 1d       	adc	r26, r1
    5728:	66 1f       	adc	r22, r22
    572a:	82 9f       	mul	r24, r18
    572c:	22 27       	eor	r18, r18
    572e:	b0 0d       	add	r27, r0
    5730:	a1 1d       	adc	r26, r1
    5732:	62 1f       	adc	r22, r18
    5734:	73 9f       	mul	r23, r19
    5736:	b0 0d       	add	r27, r0
    5738:	a1 1d       	adc	r26, r1
    573a:	62 1f       	adc	r22, r18
    573c:	83 9f       	mul	r24, r19
    573e:	a0 0d       	add	r26, r0
    5740:	61 1d       	adc	r22, r1
    5742:	22 1f       	adc	r18, r18
    5744:	74 9f       	mul	r23, r20
    5746:	33 27       	eor	r19, r19
    5748:	a0 0d       	add	r26, r0
    574a:	61 1d       	adc	r22, r1
    574c:	23 1f       	adc	r18, r19
    574e:	84 9f       	mul	r24, r20
    5750:	60 0d       	add	r22, r0
    5752:	21 1d       	adc	r18, r1
    5754:	82 2f       	mov	r24, r18
    5756:	76 2f       	mov	r23, r22
    5758:	6a 2f       	mov	r22, r26
    575a:	11 24       	eor	r1, r1
    575c:	9f 57       	subi	r25, 0x7F	; 127
    575e:	50 40       	sbci	r21, 0x00	; 0
    5760:	8a f0       	brmi	.+34     	; 0x5784 <__mulsf3_pse+0x84>
    5762:	e1 f0       	breq	.+56     	; 0x579c <__mulsf3_pse+0x9c>
    5764:	88 23       	and	r24, r24
    5766:	4a f0       	brmi	.+18     	; 0x577a <__mulsf3_pse+0x7a>
    5768:	ee 0f       	add	r30, r30
    576a:	ff 1f       	adc	r31, r31
    576c:	bb 1f       	adc	r27, r27
    576e:	66 1f       	adc	r22, r22
    5770:	77 1f       	adc	r23, r23
    5772:	88 1f       	adc	r24, r24
    5774:	91 50       	subi	r25, 0x01	; 1
    5776:	50 40       	sbci	r21, 0x00	; 0
    5778:	a9 f7       	brne	.-22     	; 0x5764 <__mulsf3_pse+0x64>
    577a:	9e 3f       	cpi	r25, 0xFE	; 254
    577c:	51 05       	cpc	r21, r1
    577e:	70 f0       	brcs	.+28     	; 0x579c <__mulsf3_pse+0x9c>
    5780:	5c cf       	rjmp	.-328    	; 0x563a <__fp_inf>
    5782:	a6 cf       	rjmp	.-180    	; 0x56d0 <__fp_szero>
    5784:	5f 3f       	cpi	r21, 0xFF	; 255
    5786:	ec f3       	brlt	.-6      	; 0x5782 <__mulsf3_pse+0x82>
    5788:	98 3e       	cpi	r25, 0xE8	; 232
    578a:	dc f3       	brlt	.-10     	; 0x5782 <__mulsf3_pse+0x82>
    578c:	86 95       	lsr	r24
    578e:	77 95       	ror	r23
    5790:	67 95       	ror	r22
    5792:	b7 95       	ror	r27
    5794:	f7 95       	ror	r31
    5796:	e7 95       	ror	r30
    5798:	9f 5f       	subi	r25, 0xFF	; 255
    579a:	c1 f7       	brne	.-16     	; 0x578c <__mulsf3_pse+0x8c>
    579c:	fe 2b       	or	r31, r30
    579e:	88 0f       	add	r24, r24
    57a0:	91 1d       	adc	r25, r1
    57a2:	96 95       	lsr	r25
    57a4:	87 95       	ror	r24
    57a6:	97 f9       	bld	r25, 7
    57a8:	08 95       	ret

000057aa <__unordsf2>:
    57aa:	23 df       	rcall	.-442    	; 0x55f2 <__fp_cmp>
    57ac:	88 0b       	sbc	r24, r24
    57ae:	99 0b       	sbc	r25, r25
    57b0:	08 95       	ret

000057b2 <__cxa_pure_virtual>:
extern "C" void __cxa_deleted_virtual(void) __attribute__ ((__noreturn__));

void __cxa_pure_virtual(void) {
  // We might want to write some diagnostics to uart in this case
  //std::terminate();
  abort();
    57b2:	0e 94 99 38 	call	0x7132	; 0x7132 <abort>

000057b6 <_ZN14HardwareSerial9availableEv>:
  // clear any received data
  _rx_buffer_head = _rx_buffer_tail;
}

int HardwareSerial::available(void)
{
    57b6:	fc 01       	movw	r30, r24
  return ((unsigned int)(SERIAL_RX_BUFFER_SIZE + _rx_buffer_head - _rx_buffer_tail)) % SERIAL_RX_BUFFER_SIZE;
    57b8:	91 8d       	ldd	r25, Z+25	; 0x19
    57ba:	22 8d       	ldd	r18, Z+26	; 0x1a
    57bc:	89 2f       	mov	r24, r25
    57be:	90 e0       	ldi	r25, 0x00	; 0
    57c0:	80 5c       	subi	r24, 0xC0	; 192
    57c2:	9f 4f       	sbci	r25, 0xFF	; 255
    57c4:	82 1b       	sub	r24, r18
    57c6:	91 09       	sbc	r25, r1
}
    57c8:	8f 73       	andi	r24, 0x3F	; 63
    57ca:	99 27       	eor	r25, r25
    57cc:	08 95       	ret

000057ce <_ZN14HardwareSerial4peekEv>:

int HardwareSerial::peek(void)
{
    57ce:	fc 01       	movw	r30, r24
  if (_rx_buffer_head == _rx_buffer_tail) {
    57d0:	91 8d       	ldd	r25, Z+25	; 0x19
    57d2:	82 8d       	ldd	r24, Z+26	; 0x1a
    57d4:	98 17       	cp	r25, r24
    57d6:	31 f0       	breq	.+12     	; 0x57e4 <_ZN14HardwareSerial4peekEv+0x16>
    return -1;
  } else {
    return _rx_buffer[_rx_buffer_tail];
    57d8:	82 8d       	ldd	r24, Z+26	; 0x1a
    57da:	e8 0f       	add	r30, r24
    57dc:	f1 1d       	adc	r31, r1
    57de:	85 8d       	ldd	r24, Z+29	; 0x1d
    57e0:	90 e0       	ldi	r25, 0x00	; 0
    57e2:	08 95       	ret
}

int HardwareSerial::peek(void)
{
  if (_rx_buffer_head == _rx_buffer_tail) {
    return -1;
    57e4:	8f ef       	ldi	r24, 0xFF	; 255
    57e6:	9f ef       	ldi	r25, 0xFF	; 255
  } else {
    return _rx_buffer[_rx_buffer_tail];
  }
}
    57e8:	08 95       	ret

000057ea <_ZN14HardwareSerial4readEv>:

int HardwareSerial::read(void)
{
    57ea:	fc 01       	movw	r30, r24
  // if the head isn't ahead of the tail, we don't have any characters
  if (_rx_buffer_head == _rx_buffer_tail) {
    57ec:	91 8d       	ldd	r25, Z+25	; 0x19
    57ee:	82 8d       	ldd	r24, Z+26	; 0x1a
    57f0:	98 17       	cp	r25, r24
    57f2:	61 f0       	breq	.+24     	; 0x580c <_ZN14HardwareSerial4readEv+0x22>
    return -1;
  } else {
    unsigned char c = _rx_buffer[_rx_buffer_tail];
    57f4:	82 8d       	ldd	r24, Z+26	; 0x1a
    57f6:	df 01       	movw	r26, r30
    57f8:	a8 0f       	add	r26, r24
    57fa:	b1 1d       	adc	r27, r1
    57fc:	5d 96       	adiw	r26, 0x1d	; 29
    57fe:	8c 91       	ld	r24, X
    _rx_buffer_tail = (rx_buffer_index_t)(_rx_buffer_tail + 1) % SERIAL_RX_BUFFER_SIZE;
    5800:	92 8d       	ldd	r25, Z+26	; 0x1a
    5802:	9f 5f       	subi	r25, 0xFF	; 255
    5804:	9f 73       	andi	r25, 0x3F	; 63
    5806:	92 8f       	std	Z+26, r25	; 0x1a
    return c;
    5808:	90 e0       	ldi	r25, 0x00	; 0
    580a:	08 95       	ret

int HardwareSerial::read(void)
{
  // if the head isn't ahead of the tail, we don't have any characters
  if (_rx_buffer_head == _rx_buffer_tail) {
    return -1;
    580c:	8f ef       	ldi	r24, 0xFF	; 255
    580e:	9f ef       	ldi	r25, 0xFF	; 255
  } else {
    unsigned char c = _rx_buffer[_rx_buffer_tail];
    _rx_buffer_tail = (rx_buffer_index_t)(_rx_buffer_tail + 1) % SERIAL_RX_BUFFER_SIZE;
    return c;
  }
}
    5810:	08 95       	ret

00005812 <_Z14serialEventRunv>:
#endif

void serialEventRun(void)
{
#if defined(HAVE_HWSERIAL0)
  if (Serial0_available && serialEvent && Serial0_available()) serialEvent();
    5812:	88 e5       	ldi	r24, 0x58	; 88
    5814:	9d e2       	ldi	r25, 0x2D	; 45
    5816:	89 2b       	or	r24, r25
    5818:	41 f0       	breq	.+16     	; 0x582a <_Z14serialEventRunv+0x18>
    581a:	80 e0       	ldi	r24, 0x00	; 0
    581c:	90 e0       	ldi	r25, 0x00	; 0
    581e:	89 2b       	or	r24, r25
    5820:	21 f0       	breq	.+8      	; 0x582a <_Z14serialEventRunv+0x18>
    5822:	46 d1       	rcall	.+652    	; 0x5ab0 <_Z17Serial0_availablev>
    5824:	81 11       	cpse	r24, r1
    5826:	0c 94 00 00 	jmp	0	; 0x0 <__vectors>
    582a:	08 95       	ret

0000582c <_ZN14HardwareSerial17_tx_udr_empty_irqEv>:
}

// Actual interrupt handlers //////////////////////////////////////////////////////////////

void HardwareSerial::_tx_udr_empty_irq(void)
{
    582c:	fc 01       	movw	r30, r24
  // If interrupts are enabled, there must be more data in the output
  // buffer. Send the next byte
  unsigned char c = _tx_buffer[_tx_buffer_tail];
    582e:	84 8d       	ldd	r24, Z+28	; 0x1c
    5830:	df 01       	movw	r26, r30
    5832:	a8 0f       	add	r26, r24
    5834:	b1 1d       	adc	r27, r1
    5836:	a3 5a       	subi	r26, 0xA3	; 163
    5838:	bf 4f       	sbci	r27, 0xFF	; 255
    583a:	2c 91       	ld	r18, X
  _tx_buffer_tail = (_tx_buffer_tail + 1) % SERIAL_TX_BUFFER_SIZE;
    583c:	84 8d       	ldd	r24, Z+28	; 0x1c
    583e:	90 e0       	ldi	r25, 0x00	; 0
    5840:	01 96       	adiw	r24, 0x01	; 1
    5842:	8f 73       	andi	r24, 0x3F	; 63
    5844:	99 27       	eor	r25, r25
    5846:	84 8f       	std	Z+28, r24	; 0x1c

  *_udr = c;
    5848:	a6 89       	ldd	r26, Z+22	; 0x16
    584a:	b7 89       	ldd	r27, Z+23	; 0x17
    584c:	2c 93       	st	X, r18

  // clear the TXC bit -- "can be cleared by writing a one to its bit
  // location". This makes sure flush() won't return until the bytes
  // actually got written
  sbi(*_ucsra, TXC0);
    584e:	a0 89       	ldd	r26, Z+16	; 0x10
    5850:	b1 89       	ldd	r27, Z+17	; 0x11
    5852:	8c 91       	ld	r24, X
    5854:	80 64       	ori	r24, 0x40	; 64
    5856:	8c 93       	st	X, r24

  if (_tx_buffer_head == _tx_buffer_tail) {
    5858:	93 8d       	ldd	r25, Z+27	; 0x1b
    585a:	84 8d       	ldd	r24, Z+28	; 0x1c
    585c:	98 13       	cpse	r25, r24
    585e:	06 c0       	rjmp	.+12     	; 0x586c <_ZN14HardwareSerial17_tx_udr_empty_irqEv+0x40>
    // Buffer empty, so disable interrupts
    cbi(*_ucsrb, UDRIE0);
    5860:	02 88       	ldd	r0, Z+18	; 0x12
    5862:	f3 89       	ldd	r31, Z+19	; 0x13
    5864:	e0 2d       	mov	r30, r0
    5866:	80 81       	ld	r24, Z
    5868:	8f 7d       	andi	r24, 0xDF	; 223
    586a:	80 83       	st	Z, r24
    586c:	08 95       	ret

0000586e <_ZN14HardwareSerial5flushEv>:
  if (head >= tail) return SERIAL_TX_BUFFER_SIZE - 1 - head + tail;
  return tail - head - 1;
}

void HardwareSerial::flush()
{
    586e:	cf 93       	push	r28
    5870:	df 93       	push	r29
    5872:	ec 01       	movw	r28, r24
  // If we have never written a byte, no need to flush. This special
  // case is needed since there is no way to force the TXC (transmit
  // complete) bit to 1 during initialization
  if (!_written)
    5874:	88 8d       	ldd	r24, Y+24	; 0x18
    5876:	88 23       	and	r24, r24
    5878:	c1 f0       	breq	.+48     	; 0x58aa <_ZN14HardwareSerial5flushEv+0x3c>
    return;

  while (bit_is_set(*_ucsrb, UDRIE0) || bit_is_clear(*_ucsra, TXC0)) {
    587a:	ea 89       	ldd	r30, Y+18	; 0x12
    587c:	fb 89       	ldd	r31, Y+19	; 0x13
    587e:	80 81       	ld	r24, Z
    5880:	85 fd       	sbrc	r24, 5
    5882:	05 c0       	rjmp	.+10     	; 0x588e <_ZN14HardwareSerial5flushEv+0x20>
    5884:	a8 89       	ldd	r26, Y+16	; 0x10
    5886:	b9 89       	ldd	r27, Y+17	; 0x11
    5888:	8c 91       	ld	r24, X
    588a:	86 fd       	sbrc	r24, 6
    588c:	0e c0       	rjmp	.+28     	; 0x58aa <_ZN14HardwareSerial5flushEv+0x3c>
    if (bit_is_clear(SREG, SREG_I) && bit_is_set(*_ucsrb, UDRIE0))
    588e:	0f b6       	in	r0, 0x3f	; 63
    5890:	07 fc       	sbrc	r0, 7
    5892:	f5 cf       	rjmp	.-22     	; 0x587e <_ZN14HardwareSerial5flushEv+0x10>
    5894:	80 81       	ld	r24, Z
    5896:	85 ff       	sbrs	r24, 5
    5898:	f2 cf       	rjmp	.-28     	; 0x587e <_ZN14HardwareSerial5flushEv+0x10>
	// Interrupts are globally disabled, but the DR empty
	// interrupt should be enabled, so poll the DR empty flag to
	// prevent deadlock
	if (bit_is_set(*_ucsra, UDRE0))
    589a:	a8 89       	ldd	r26, Y+16	; 0x10
    589c:	b9 89       	ldd	r27, Y+17	; 0x11
    589e:	8c 91       	ld	r24, X
    58a0:	85 ff       	sbrs	r24, 5
    58a2:	ed cf       	rjmp	.-38     	; 0x587e <_ZN14HardwareSerial5flushEv+0x10>
	  _tx_udr_empty_irq();
    58a4:	ce 01       	movw	r24, r28
    58a6:	c2 df       	rcall	.-124    	; 0x582c <_ZN14HardwareSerial17_tx_udr_empty_irqEv>
    58a8:	e8 cf       	rjmp	.-48     	; 0x587a <_ZN14HardwareSerial5flushEv+0xc>
  }
  // If we get here, nothing is queued anymore (DRIE is disabled) and
  // the hardware finished tranmission (TXC is set).
}
    58aa:	df 91       	pop	r29
    58ac:	cf 91       	pop	r28
    58ae:	08 95       	ret

000058b0 <_ZN14HardwareSerial5writeEh>:

size_t HardwareSerial::write(uint8_t c)
{
    58b0:	ef 92       	push	r14
    58b2:	ff 92       	push	r15
    58b4:	0f 93       	push	r16
    58b6:	1f 93       	push	r17
    58b8:	cf 93       	push	r28
    58ba:	df 93       	push	r29
    58bc:	ec 01       	movw	r28, r24
  _written = true;
    58be:	81 e0       	ldi	r24, 0x01	; 1
    58c0:	88 8f       	std	Y+24, r24	; 0x18
  // If the buffer and the data register is empty, just write the byte
  // to the data register and be done. This shortcut helps
  // significantly improve the effective datarate at high (>
  // 500kbit/s) bitrates, where interrupt overhead becomes a slowdown.
  if (_tx_buffer_head == _tx_buffer_tail && bit_is_set(*_ucsra, UDRE0)) {
    58c2:	9b 8d       	ldd	r25, Y+27	; 0x1b
    58c4:	8c 8d       	ldd	r24, Y+28	; 0x1c
    58c6:	98 13       	cpse	r25, r24
    58c8:	05 c0       	rjmp	.+10     	; 0x58d4 <_ZN14HardwareSerial5writeEh+0x24>
    58ca:	e8 89       	ldd	r30, Y+16	; 0x10
    58cc:	f9 89       	ldd	r31, Y+17	; 0x11
    58ce:	80 81       	ld	r24, Z
    58d0:	85 fd       	sbrc	r24, 5
    58d2:	23 c0       	rjmp	.+70     	; 0x591a <_ZN14HardwareSerial5writeEh+0x6a>
    58d4:	f6 2e       	mov	r15, r22
    *_udr = c;
    sbi(*_ucsra, TXC0);
    return 1;
  }
  tx_buffer_index_t i = (_tx_buffer_head + 1) % SERIAL_TX_BUFFER_SIZE;
    58d6:	0b 8d       	ldd	r16, Y+27	; 0x1b
    58d8:	10 e0       	ldi	r17, 0x00	; 0
    58da:	0f 5f       	subi	r16, 0xFF	; 255
    58dc:	1f 4f       	sbci	r17, 0xFF	; 255
    58de:	0f 73       	andi	r16, 0x3F	; 63
    58e0:	11 27       	eor	r17, r17
    58e2:	e0 2e       	mov	r14, r16
	
  // If the output buffer is full, there's nothing for it other than to 
  // wait for the interrupt handler to empty it a bit
  while (i == _tx_buffer_tail) {
    58e4:	8c 8d       	ldd	r24, Y+28	; 0x1c
    58e6:	e8 12       	cpse	r14, r24
    58e8:	0b c0       	rjmp	.+22     	; 0x5900 <_ZN14HardwareSerial5writeEh+0x50>
    if (bit_is_clear(SREG, SREG_I)) {
    58ea:	0f b6       	in	r0, 0x3f	; 63
    58ec:	07 fc       	sbrc	r0, 7
    58ee:	fa cf       	rjmp	.-12     	; 0x58e4 <_ZN14HardwareSerial5writeEh+0x34>
      // Interrupts are disabled, so we'll have to poll the data
      // register empty flag ourselves. If it is set, pretend an
      // interrupt has happened and call the handler to free up
      // space for us.
      if(bit_is_set(*_ucsra, UDRE0))
    58f0:	e8 89       	ldd	r30, Y+16	; 0x10
    58f2:	f9 89       	ldd	r31, Y+17	; 0x11
    58f4:	80 81       	ld	r24, Z
    58f6:	85 ff       	sbrs	r24, 5
    58f8:	f5 cf       	rjmp	.-22     	; 0x58e4 <_ZN14HardwareSerial5writeEh+0x34>
	_tx_udr_empty_irq();
    58fa:	ce 01       	movw	r24, r28
    58fc:	97 df       	rcall	.-210    	; 0x582c <_ZN14HardwareSerial17_tx_udr_empty_irqEv>
    58fe:	f2 cf       	rjmp	.-28     	; 0x58e4 <_ZN14HardwareSerial5writeEh+0x34>
    } else {
      // nop, the interrupt handler will free up space for us
    }
  }

  _tx_buffer[_tx_buffer_head] = c;
    5900:	8b 8d       	ldd	r24, Y+27	; 0x1b
    5902:	fe 01       	movw	r30, r28
    5904:	e8 0f       	add	r30, r24
    5906:	f1 1d       	adc	r31, r1
    5908:	e3 5a       	subi	r30, 0xA3	; 163
    590a:	ff 4f       	sbci	r31, 0xFF	; 255
    590c:	f0 82       	st	Z, r15
  _tx_buffer_head = i;
    590e:	0b 8f       	std	Y+27, r16	; 0x1b
	
  sbi(*_ucsrb, UDRIE0);
    5910:	ea 89       	ldd	r30, Y+18	; 0x12
    5912:	fb 89       	ldd	r31, Y+19	; 0x13
    5914:	80 81       	ld	r24, Z
    5916:	80 62       	ori	r24, 0x20	; 32
    5918:	07 c0       	rjmp	.+14     	; 0x5928 <_ZN14HardwareSerial5writeEh+0x78>
  // If the buffer and the data register is empty, just write the byte
  // to the data register and be done. This shortcut helps
  // significantly improve the effective datarate at high (>
  // 500kbit/s) bitrates, where interrupt overhead becomes a slowdown.
  if (_tx_buffer_head == _tx_buffer_tail && bit_is_set(*_ucsra, UDRE0)) {
    *_udr = c;
    591a:	ee 89       	ldd	r30, Y+22	; 0x16
    591c:	ff 89       	ldd	r31, Y+23	; 0x17
    591e:	60 83       	st	Z, r22
    sbi(*_ucsra, TXC0);
    5920:	e8 89       	ldd	r30, Y+16	; 0x10
    5922:	f9 89       	ldd	r31, Y+17	; 0x11
    5924:	80 81       	ld	r24, Z
    5926:	80 64       	ori	r24, 0x40	; 64
    5928:	80 83       	st	Z, r24
  _tx_buffer_head = i;
	
  sbi(*_ucsrb, UDRIE0);
  
  return 1;
}
    592a:	81 e0       	ldi	r24, 0x01	; 1
    592c:	90 e0       	ldi	r25, 0x00	; 0
    592e:	df 91       	pop	r29
    5930:	cf 91       	pop	r28
    5932:	1f 91       	pop	r17
    5934:	0f 91       	pop	r16
    5936:	ff 90       	pop	r15
    5938:	ef 90       	pop	r14
    593a:	08 95       	ret

0000593c <_ZN14HardwareSerial5beginEmh>:
}

// Public Methods //////////////////////////////////////////////////////////////

void HardwareSerial::begin(unsigned long baud, byte config)
{
    593c:	cf 92       	push	r12
    593e:	df 92       	push	r13
    5940:	ef 92       	push	r14
    5942:	ff 92       	push	r15
    5944:	1f 93       	push	r17
    5946:	cf 93       	push	r28
    5948:	df 93       	push	r29
    594a:	ec 01       	movw	r28, r24
    594c:	6a 01       	movw	r12, r20
    594e:	7b 01       	movw	r14, r22
    5950:	12 2f       	mov	r17, r18
  // Try u2x mode first
  uint16_t baud_setting = (F_CPU / 4 / baud - 1) / 2;
  *_ucsra = 1 << U2X0;
    5952:	e8 89       	ldd	r30, Y+16	; 0x10
    5954:	f9 89       	ldd	r31, Y+17	; 0x11
    5956:	82 e0       	ldi	r24, 0x02	; 2
    5958:	80 83       	st	Z, r24
  // hardcoded exception for 57600 for compatibility with the bootloader
  // shipped with the Duemilanove and previous boards and the firmware
  // on the 8U2 on the Uno and Mega 2560. Also, The baud_setting cannot
  // be > 4095, so switch back to non-u2x mode if the baud rate is too
  // low.
  if (((F_CPU == 16000000UL) && (baud == 57600)) || (baud_setting >4095))
    595a:	41 15       	cp	r20, r1
    595c:	51 4e       	sbci	r21, 0xE1	; 225
    595e:	61 05       	cpc	r22, r1
    5960:	71 05       	cpc	r23, r1
    5962:	a9 f0       	breq	.+42     	; 0x598e <_ZN14HardwareSerial5beginEmh+0x52>
// Public Methods //////////////////////////////////////////////////////////////

void HardwareSerial::begin(unsigned long baud, byte config)
{
  // Try u2x mode first
  uint16_t baud_setting = (F_CPU / 4 / baud - 1) / 2;
    5964:	60 e0       	ldi	r22, 0x00	; 0
    5966:	79 e0       	ldi	r23, 0x09	; 9
    5968:	8d e3       	ldi	r24, 0x3D	; 61
    596a:	90 e0       	ldi	r25, 0x00	; 0
    596c:	a7 01       	movw	r20, r14
    596e:	96 01       	movw	r18, r12
    5970:	e7 d7       	rcall	.+4046   	; 0x6940 <__udivmodsi4>
    5972:	da 01       	movw	r26, r20
    5974:	c9 01       	movw	r24, r18
    5976:	01 97       	sbiw	r24, 0x01	; 1
    5978:	a1 09       	sbc	r26, r1
    597a:	b1 09       	sbc	r27, r1
    597c:	b6 95       	lsr	r27
    597e:	a7 95       	ror	r26
    5980:	97 95       	ror	r25
    5982:	87 95       	ror	r24
    5984:	ac 01       	movw	r20, r24
  // hardcoded exception for 57600 for compatibility with the bootloader
  // shipped with the Duemilanove and previous boards and the firmware
  // on the 8U2 on the Uno and Mega 2560. Also, The baud_setting cannot
  // be > 4095, so switch back to non-u2x mode if the baud rate is too
  // low.
  if (((F_CPU == 16000000UL) && (baud == 57600)) || (baud_setting >4095))
    5986:	41 15       	cp	r20, r1
    5988:	80 e1       	ldi	r24, 0x10	; 16
    598a:	58 07       	cpc	r21, r24
    598c:	a0 f0       	brcs	.+40     	; 0x59b6 <_ZN14HardwareSerial5beginEmh+0x7a>
  {
    *_ucsra = 0;
    598e:	e8 89       	ldd	r30, Y+16	; 0x10
    5990:	f9 89       	ldd	r31, Y+17	; 0x11
    5992:	10 82       	st	Z, r1
    baud_setting = (F_CPU / 8 / baud - 1) / 2;
    5994:	60 e8       	ldi	r22, 0x80	; 128
    5996:	74 e8       	ldi	r23, 0x84	; 132
    5998:	8e e1       	ldi	r24, 0x1E	; 30
    599a:	90 e0       	ldi	r25, 0x00	; 0
    599c:	a7 01       	movw	r20, r14
    599e:	96 01       	movw	r18, r12
    59a0:	cf d7       	rcall	.+3998   	; 0x6940 <__udivmodsi4>
    59a2:	ba 01       	movw	r22, r20
    59a4:	a9 01       	movw	r20, r18
    59a6:	41 50       	subi	r20, 0x01	; 1
    59a8:	51 09       	sbc	r21, r1
    59aa:	61 09       	sbc	r22, r1
    59ac:	71 09       	sbc	r23, r1
    59ae:	76 95       	lsr	r23
    59b0:	67 95       	ror	r22
    59b2:	57 95       	ror	r21
    59b4:	47 95       	ror	r20
  }

  // assign the baud_setting, a.k.a. ubrr (USART Baud Rate Register)
  *_ubrrh = baud_setting >> 8;
    59b6:	ec 85       	ldd	r30, Y+12	; 0x0c
    59b8:	fd 85       	ldd	r31, Y+13	; 0x0d
    59ba:	50 83       	st	Z, r21
  *_ubrrl = baud_setting;
    59bc:	ee 85       	ldd	r30, Y+14	; 0x0e
    59be:	ff 85       	ldd	r31, Y+15	; 0x0f
    59c0:	40 83       	st	Z, r20

  _written = false;
    59c2:	18 8e       	std	Y+24, r1	; 0x18

  //set the data bits, parity, and stop bits
#if defined(__AVR_ATmega8__)
  config |= 0x80; // select UCSRC register (shared with UBRRH)
#endif
  *_ucsrc = config;
    59c4:	ec 89       	ldd	r30, Y+20	; 0x14
    59c6:	fd 89       	ldd	r31, Y+21	; 0x15
    59c8:	10 83       	st	Z, r17
  
  sbi(*_ucsrb, RXEN0);
    59ca:	ea 89       	ldd	r30, Y+18	; 0x12
    59cc:	fb 89       	ldd	r31, Y+19	; 0x13
    59ce:	80 81       	ld	r24, Z
    59d0:	80 61       	ori	r24, 0x10	; 16
    59d2:	80 83       	st	Z, r24
  sbi(*_ucsrb, TXEN0);
    59d4:	ea 89       	ldd	r30, Y+18	; 0x12
    59d6:	fb 89       	ldd	r31, Y+19	; 0x13
    59d8:	80 81       	ld	r24, Z
    59da:	88 60       	ori	r24, 0x08	; 8
    59dc:	80 83       	st	Z, r24
  sbi(*_ucsrb, RXCIE0);
    59de:	ea 89       	ldd	r30, Y+18	; 0x12
    59e0:	fb 89       	ldd	r31, Y+19	; 0x13
    59e2:	80 81       	ld	r24, Z
    59e4:	80 68       	ori	r24, 0x80	; 128
    59e6:	80 83       	st	Z, r24
  cbi(*_ucsrb, UDRIE0);
    59e8:	ea 89       	ldd	r30, Y+18	; 0x12
    59ea:	fb 89       	ldd	r31, Y+19	; 0x13
    59ec:	80 81       	ld	r24, Z
    59ee:	8f 7d       	andi	r24, 0xDF	; 223
    59f0:	80 83       	st	Z, r24
}
    59f2:	df 91       	pop	r29
    59f4:	cf 91       	pop	r28
    59f6:	1f 91       	pop	r17
    59f8:	ff 90       	pop	r15
    59fa:	ef 90       	pop	r14
    59fc:	df 90       	pop	r13
    59fe:	cf 90       	pop	r12
    5a00:	08 95       	ret

00005a02 <__vector_18>:
#elif defined(USART_RXC_vect)
  ISR(USART_RXC_vect) // ATmega8
#else
  #error "Don't know what the Data Received vector is called for Serial"
#endif
  {
    5a02:	1f 92       	push	r1
    5a04:	0f 92       	push	r0
    5a06:	0f b6       	in	r0, 0x3f	; 63
    5a08:	0f 92       	push	r0
    5a0a:	11 24       	eor	r1, r1
    5a0c:	2f 93       	push	r18
    5a0e:	8f 93       	push	r24
    5a10:	9f 93       	push	r25
    5a12:	ef 93       	push	r30
    5a14:	ff 93       	push	r31

// Actual interrupt handlers //////////////////////////////////////////////////////////////

void HardwareSerial::_rx_complete_irq(void)
{
  if (bit_is_clear(*_ucsra, UPE0)) {
    5a16:	e0 91 96 05 	lds	r30, 0x0596	; 0x800596 <Serial+0x10>
    5a1a:	f0 91 97 05 	lds	r31, 0x0597	; 0x800597 <Serial+0x11>
    5a1e:	80 81       	ld	r24, Z
    5a20:	e0 91 9c 05 	lds	r30, 0x059C	; 0x80059c <Serial+0x16>
    5a24:	f0 91 9d 05 	lds	r31, 0x059D	; 0x80059d <Serial+0x17>
    5a28:	82 fd       	sbrc	r24, 2
    5a2a:	12 c0       	rjmp	.+36     	; 0x5a50 <__vector_18+0x4e>
    // No Parity error, read byte and store it in the buffer if there is
    // room
    unsigned char c = *_udr;
    5a2c:	90 81       	ld	r25, Z
    rx_buffer_index_t i = (unsigned int)(_rx_buffer_head + 1) % SERIAL_RX_BUFFER_SIZE;
    5a2e:	80 91 9f 05 	lds	r24, 0x059F	; 0x80059f <Serial+0x19>
    5a32:	8f 5f       	subi	r24, 0xFF	; 255
    5a34:	8f 73       	andi	r24, 0x3F	; 63

    // if we should be storing the received character into the location
    // just before the tail (meaning that the head would advance to the
    // current location of the tail), we're about to overflow the buffer
    // and so we don't write the character or advance the head.
    if (i != _rx_buffer_tail) {
    5a36:	20 91 a0 05 	lds	r18, 0x05A0	; 0x8005a0 <Serial+0x1a>
    5a3a:	82 17       	cp	r24, r18
    5a3c:	51 f0       	breq	.+20     	; 0x5a52 <__vector_18+0x50>
      _rx_buffer[_rx_buffer_head] = c;
    5a3e:	e0 91 9f 05 	lds	r30, 0x059F	; 0x80059f <Serial+0x19>
    5a42:	f0 e0       	ldi	r31, 0x00	; 0
    5a44:	ea 57       	subi	r30, 0x7A	; 122
    5a46:	fa 4f       	sbci	r31, 0xFA	; 250
    5a48:	95 8f       	std	Z+29, r25	; 0x1d
      _rx_buffer_head = i;
    5a4a:	80 93 9f 05 	sts	0x059F, r24	; 0x80059f <Serial+0x19>
    5a4e:	01 c0       	rjmp	.+2      	; 0x5a52 <__vector_18+0x50>
    }
  } else {
    // Parity error, read byte but discard it
    *_udr;
    5a50:	80 81       	ld	r24, Z
    Serial._rx_complete_irq();
  }
    5a52:	ff 91       	pop	r31
    5a54:	ef 91       	pop	r30
    5a56:	9f 91       	pop	r25
    5a58:	8f 91       	pop	r24
    5a5a:	2f 91       	pop	r18
    5a5c:	0f 90       	pop	r0
    5a5e:	0f be       	out	0x3f, r0	; 63
    5a60:	0f 90       	pop	r0
    5a62:	1f 90       	pop	r1
    5a64:	18 95       	reti

00005a66 <__vector_19>:
#elif defined(USART_UDRE_vect)
ISR(USART_UDRE_vect)
#else
  #error "Don't know what the Data Register Empty vector is called for Serial"
#endif
{
    5a66:	1f 92       	push	r1
    5a68:	0f 92       	push	r0
    5a6a:	0f b6       	in	r0, 0x3f	; 63
    5a6c:	0f 92       	push	r0
    5a6e:	11 24       	eor	r1, r1
    5a70:	2f 93       	push	r18
    5a72:	3f 93       	push	r19
    5a74:	4f 93       	push	r20
    5a76:	5f 93       	push	r21
    5a78:	6f 93       	push	r22
    5a7a:	7f 93       	push	r23
    5a7c:	8f 93       	push	r24
    5a7e:	9f 93       	push	r25
    5a80:	af 93       	push	r26
    5a82:	bf 93       	push	r27
    5a84:	ef 93       	push	r30
    5a86:	ff 93       	push	r31
  Serial._tx_udr_empty_irq();
    5a88:	86 e8       	ldi	r24, 0x86	; 134
    5a8a:	95 e0       	ldi	r25, 0x05	; 5
    5a8c:	cf de       	rcall	.-610    	; 0x582c <_ZN14HardwareSerial17_tx_udr_empty_irqEv>
}
    5a8e:	ff 91       	pop	r31
    5a90:	ef 91       	pop	r30
    5a92:	bf 91       	pop	r27
    5a94:	af 91       	pop	r26
    5a96:	9f 91       	pop	r25
    5a98:	8f 91       	pop	r24
    5a9a:	7f 91       	pop	r23
    5a9c:	6f 91       	pop	r22
    5a9e:	5f 91       	pop	r21
    5aa0:	4f 91       	pop	r20
    5aa2:	3f 91       	pop	r19
    5aa4:	2f 91       	pop	r18
    5aa6:	0f 90       	pop	r0
    5aa8:	0f be       	out	0x3f, r0	; 63
    5aaa:	0f 90       	pop	r0
    5aac:	1f 90       	pop	r1
    5aae:	18 95       	reti

00005ab0 <_Z17Serial0_availablev>:
#endif

// Function that can be weakly referenced by serialEventRun to prevent
// pulling in this file if it's not otherwise used.
bool Serial0_available() {
  return Serial.available();
    5ab0:	86 e8       	ldi	r24, 0x86	; 134
    5ab2:	95 e0       	ldi	r25, 0x05	; 5
    5ab4:	80 de       	rcall	.-768    	; 0x57b6 <_ZN14HardwareSerial9availableEv>
    5ab6:	21 e0       	ldi	r18, 0x01	; 1
    5ab8:	89 2b       	or	r24, r25
    5aba:	09 f4       	brne	.+2      	; 0x5abe <_Z17Serial0_availablev+0xe>
    5abc:	20 e0       	ldi	r18, 0x00	; 0
}
    5abe:	82 2f       	mov	r24, r18
    5ac0:	08 95       	ret

00005ac2 <_GLOBAL__sub_I___vector_18>:
    size_t printNumber(unsigned long, uint8_t);
    size_t printFloat(double, uint8_t);
  protected:
    void setWriteError(int err = 1) { write_error = err; }
  public:
    Print() : write_error(0) {}
    5ac2:	e6 e8       	ldi	r30, 0x86	; 134
    5ac4:	f5 e0       	ldi	r31, 0x05	; 5
    5ac6:	13 82       	std	Z+3, r1	; 0x03
    5ac8:	12 82       	std	Z+2, r1	; 0x02
    virtual int available() = 0;
    virtual int read() = 0;
    virtual int peek() = 0;
    virtual void flush() = 0;

    Stream() {_timeout=1000;}
    5aca:	88 ee       	ldi	r24, 0xE8	; 232
    5acc:	93 e0       	ldi	r25, 0x03	; 3
    5ace:	a0 e0       	ldi	r26, 0x00	; 0
    5ad0:	b0 e0       	ldi	r27, 0x00	; 0
    5ad2:	84 83       	std	Z+4, r24	; 0x04
    5ad4:	95 83       	std	Z+5, r25	; 0x05
    5ad6:	a6 83       	std	Z+6, r26	; 0x06
    5ad8:	b7 83       	std	Z+7, r27	; 0x07
  volatile uint8_t *ucsrc, volatile uint8_t *udr) :
    _ubrrh(ubrrh), _ubrrl(ubrrl),
    _ucsra(ucsra), _ucsrb(ucsrb), _ucsrc(ucsrc),
    _udr(udr),
    _rx_buffer_head(0), _rx_buffer_tail(0),
    _tx_buffer_head(0), _tx_buffer_tail(0)
    5ada:	85 eb       	ldi	r24, 0xB5	; 181
    5adc:	91 e0       	ldi	r25, 0x01	; 1
    5ade:	91 83       	std	Z+1, r25	; 0x01
    5ae0:	80 83       	st	Z, r24
    5ae2:	85 ec       	ldi	r24, 0xC5	; 197
    5ae4:	90 e0       	ldi	r25, 0x00	; 0
    5ae6:	95 87       	std	Z+13, r25	; 0x0d
    5ae8:	84 87       	std	Z+12, r24	; 0x0c
    5aea:	84 ec       	ldi	r24, 0xC4	; 196
    5aec:	90 e0       	ldi	r25, 0x00	; 0
    5aee:	97 87       	std	Z+15, r25	; 0x0f
    5af0:	86 87       	std	Z+14, r24	; 0x0e
    5af2:	80 ec       	ldi	r24, 0xC0	; 192
    5af4:	90 e0       	ldi	r25, 0x00	; 0
    5af6:	91 8b       	std	Z+17, r25	; 0x11
    5af8:	80 8b       	std	Z+16, r24	; 0x10
    5afa:	81 ec       	ldi	r24, 0xC1	; 193
    5afc:	90 e0       	ldi	r25, 0x00	; 0
    5afe:	93 8b       	std	Z+19, r25	; 0x13
    5b00:	82 8b       	std	Z+18, r24	; 0x12
    5b02:	82 ec       	ldi	r24, 0xC2	; 194
    5b04:	90 e0       	ldi	r25, 0x00	; 0
    5b06:	95 8b       	std	Z+21, r25	; 0x15
    5b08:	84 8b       	std	Z+20, r24	; 0x14
    5b0a:	86 ec       	ldi	r24, 0xC6	; 198
    5b0c:	90 e0       	ldi	r25, 0x00	; 0
    5b0e:	97 8b       	std	Z+23, r25	; 0x17
    5b10:	86 8b       	std	Z+22, r24	; 0x16
    5b12:	11 8e       	std	Z+25, r1	; 0x19
    5b14:	12 8e       	std	Z+26, r1	; 0x1a
    5b16:	13 8e       	std	Z+27, r1	; 0x1b
    5b18:	14 8e       	std	Z+28, r1	; 0x1c
    5b1a:	08 95       	ret

00005b1c <initVariant>:
// May be redefined by variant files.
void initVariant() __attribute__((weak));
void initVariant() { }

void setupUSB() __attribute__((weak));
void setupUSB() { }
    5b1c:	08 95       	ret

00005b1e <main>:

int main(void)
{
	init();
    5b1e:	17 d3       	rcall	.+1582   	; 0x614e <init>

	initVariant();
    5b20:	fd df       	rcall	.-6      	; 0x5b1c <initVariant>

#if defined(USBCON)
	USBDevice.attach();
#endif
	
	setup();
    5b22:	1a db       	rcall	.-2508   	; 0x5158 <setup>
    
	for (;;) {
		loop();
		if (serialEventRun) serialEventRun();
    5b24:	c9 e0       	ldi	r28, 0x09	; 9
    5b26:	dc e2       	ldi	r29, 0x2C	; 44
#endif
	
	setup();
    
	for (;;) {
		loop();
    5b28:	57 db       	rcall	.-2386   	; 0x51d8 <loop>
		if (serialEventRun) serialEventRun();
    5b2a:	20 97       	sbiw	r28, 0x00	; 0
    5b2c:	e9 f3       	breq	.-6      	; 0x5b28 <main+0xa>
    5b2e:	71 de       	rcall	.-798    	; 0x5812 <_Z14serialEventRunv>
    5b30:	fb cf       	rjmp	.-10     	; 0x5b28 <main+0xa>

00005b32 <_Znwj>:
void *operator new(size_t size) {
  return malloc(size);
}

void *operator new[](size_t size) {
  return malloc(size);
    5b32:	b9 c7       	rjmp	.+3954   	; 0x6aa6 <malloc>

00005b34 <_ZdlPv>:
}

void operator delete(void * ptr) {
  free(ptr);
    5b34:	0c 94 e8 35 	jmp	0x6bd0	; 0x6bd0 <free>

00005b38 <_ZN5Print5writeEPKhj>:
  else return printNumber(n, base);
}

size_t Print::print(double n, int digits)
{
  return printFloat(n, digits);
    5b38:	cf 92       	push	r12
    5b3a:	df 92       	push	r13
    5b3c:	ef 92       	push	r14
    5b3e:	ff 92       	push	r15
    5b40:	0f 93       	push	r16
    5b42:	1f 93       	push	r17
    5b44:	cf 93       	push	r28
    5b46:	df 93       	push	r29
    5b48:	6c 01       	movw	r12, r24
    5b4a:	7a 01       	movw	r14, r20
    5b4c:	8b 01       	movw	r16, r22
    5b4e:	c0 e0       	ldi	r28, 0x00	; 0
    5b50:	d0 e0       	ldi	r29, 0x00	; 0
    5b52:	ce 15       	cp	r28, r14
    5b54:	df 05       	cpc	r29, r15
    5b56:	89 f0       	breq	.+34     	; 0x5b7a <_ZN5Print5writeEPKhj+0x42>
    5b58:	d8 01       	movw	r26, r16
    5b5a:	6d 91       	ld	r22, X+
    5b5c:	8d 01       	movw	r16, r26
    5b5e:	d6 01       	movw	r26, r12
    5b60:	ed 91       	ld	r30, X+
    5b62:	fc 91       	ld	r31, X
    5b64:	01 90       	ld	r0, Z+
    5b66:	f0 81       	ld	r31, Z
    5b68:	e0 2d       	mov	r30, r0
    5b6a:	c6 01       	movw	r24, r12
    5b6c:	09 95       	icall
    5b6e:	89 2b       	or	r24, r25
    5b70:	11 f4       	brne	.+4      	; 0x5b76 <_ZN5Print5writeEPKhj+0x3e>
    5b72:	7e 01       	movw	r14, r28
    5b74:	02 c0       	rjmp	.+4      	; 0x5b7a <_ZN5Print5writeEPKhj+0x42>
    5b76:	21 96       	adiw	r28, 0x01	; 1
    5b78:	ec cf       	rjmp	.-40     	; 0x5b52 <_ZN5Print5writeEPKhj+0x1a>
    5b7a:	c7 01       	movw	r24, r14
    5b7c:	df 91       	pop	r29
    5b7e:	cf 91       	pop	r28
    5b80:	1f 91       	pop	r17
    5b82:	0f 91       	pop	r16
    5b84:	ff 90       	pop	r15
    5b86:	ef 90       	pop	r14
    5b88:	df 90       	pop	r13
    5b8a:	cf 90       	pop	r12
    5b8c:	08 95       	ret

00005b8e <_ZN5Print5writeEPKc>:
    5b8e:	61 15       	cp	r22, r1
    5b90:	71 05       	cpc	r23, r1
    5b92:	79 f0       	breq	.+30     	; 0x5bb2 <_ZN5Print5writeEPKc+0x24>
    5b94:	fb 01       	movw	r30, r22
    5b96:	01 90       	ld	r0, Z+
    5b98:	00 20       	and	r0, r0
    5b9a:	e9 f7       	brne	.-6      	; 0x5b96 <_ZN5Print5writeEPKc+0x8>
    5b9c:	31 97       	sbiw	r30, 0x01	; 1
    5b9e:	af 01       	movw	r20, r30
    5ba0:	46 1b       	sub	r20, r22
    5ba2:	57 0b       	sbc	r21, r23
    5ba4:	dc 01       	movw	r26, r24
    5ba6:	ed 91       	ld	r30, X+
    5ba8:	fc 91       	ld	r31, X
    5baa:	02 80       	ldd	r0, Z+2	; 0x02
    5bac:	f3 81       	ldd	r31, Z+3	; 0x03
    5bae:	e0 2d       	mov	r30, r0
    5bb0:	09 94       	ijmp
    5bb2:	80 e0       	ldi	r24, 0x00	; 0
    5bb4:	90 e0       	ldi	r25, 0x00	; 0
    5bb6:	08 95       	ret

00005bb8 <_ZN5Print5printEPK19__FlashStringHelper>:
    5bb8:	ef 92       	push	r14
    5bba:	ff 92       	push	r15
    5bbc:	0f 93       	push	r16
    5bbe:	1f 93       	push	r17
    5bc0:	cf 93       	push	r28
    5bc2:	df 93       	push	r29
    5bc4:	8c 01       	movw	r16, r24
    5bc6:	7b 01       	movw	r14, r22
    5bc8:	c0 e0       	ldi	r28, 0x00	; 0
    5bca:	d0 e0       	ldi	r29, 0x00	; 0
    5bcc:	f7 01       	movw	r30, r14
    5bce:	ec 0f       	add	r30, r28
    5bd0:	fd 1f       	adc	r31, r29
    5bd2:	64 91       	lpm	r22, Z
    5bd4:	66 23       	and	r22, r22
    5bd6:	61 f0       	breq	.+24     	; 0x5bf0 <_ZN5Print5printEPK19__FlashStringHelper+0x38>
    5bd8:	d8 01       	movw	r26, r16
    5bda:	ed 91       	ld	r30, X+
    5bdc:	fc 91       	ld	r31, X
    5bde:	01 90       	ld	r0, Z+
    5be0:	f0 81       	ld	r31, Z
    5be2:	e0 2d       	mov	r30, r0
    5be4:	c8 01       	movw	r24, r16
    5be6:	09 95       	icall
    5be8:	89 2b       	or	r24, r25
    5bea:	11 f0       	breq	.+4      	; 0x5bf0 <_ZN5Print5printEPK19__FlashStringHelper+0x38>
    5bec:	21 96       	adiw	r28, 0x01	; 1
    5bee:	ee cf       	rjmp	.-36     	; 0x5bcc <_ZN5Print5printEPK19__FlashStringHelper+0x14>
    5bf0:	ce 01       	movw	r24, r28
    5bf2:	df 91       	pop	r29
    5bf4:	cf 91       	pop	r28
    5bf6:	1f 91       	pop	r17
    5bf8:	0f 91       	pop	r16
    5bfa:	ff 90       	pop	r15
    5bfc:	ef 90       	pop	r14
    5bfe:	08 95       	ret

00005c00 <_ZN5Print5printERK6String>:
    5c00:	dc 01       	movw	r26, r24
    5c02:	ed 91       	ld	r30, X+
    5c04:	fc 91       	ld	r31, X
    5c06:	db 01       	movw	r26, r22
    5c08:	14 96       	adiw	r26, 0x04	; 4
    5c0a:	4d 91       	ld	r20, X+
    5c0c:	5c 91       	ld	r21, X
    5c0e:	15 97       	sbiw	r26, 0x05	; 5
    5c10:	6d 91       	ld	r22, X+
    5c12:	7c 91       	ld	r23, X
    5c14:	02 80       	ldd	r0, Z+2	; 0x02
    5c16:	f3 81       	ldd	r31, Z+3	; 0x03
    5c18:	e0 2d       	mov	r30, r0
    5c1a:	09 94       	ijmp

00005c1c <_ZN5Print5printEc>:
    5c1c:	dc 01       	movw	r26, r24
    5c1e:	ed 91       	ld	r30, X+
    5c20:	fc 91       	ld	r31, X
    5c22:	01 90       	ld	r0, Z+
    5c24:	f0 81       	ld	r31, Z
    5c26:	e0 2d       	mov	r30, r0
    5c28:	09 94       	ijmp

00005c2a <_ZN5Print7printlnEv>:
    5c2a:	61 ec       	ldi	r22, 0xC1	; 193
    5c2c:	71 e0       	ldi	r23, 0x01	; 1
    5c2e:	af cf       	rjmp	.-162    	; 0x5b8e <_ZN5Print5writeEPKc>

00005c30 <_ZN5Print7printlnEPK19__FlashStringHelper>:
    5c30:	0f 93       	push	r16
    5c32:	1f 93       	push	r17
    5c34:	cf 93       	push	r28
    5c36:	df 93       	push	r29
    5c38:	ec 01       	movw	r28, r24
    5c3a:	be df       	rcall	.-132    	; 0x5bb8 <_ZN5Print5printEPK19__FlashStringHelper>
    5c3c:	8c 01       	movw	r16, r24
    5c3e:	ce 01       	movw	r24, r28
    5c40:	f4 df       	rcall	.-24     	; 0x5c2a <_ZN5Print7printlnEv>
    5c42:	80 0f       	add	r24, r16
    5c44:	91 1f       	adc	r25, r17
    5c46:	df 91       	pop	r29
    5c48:	cf 91       	pop	r28
    5c4a:	1f 91       	pop	r17
    5c4c:	0f 91       	pop	r16
    5c4e:	08 95       	ret

00005c50 <_ZN5Print7printlnERK6String>:
    5c50:	0f 93       	push	r16
    5c52:	1f 93       	push	r17
    5c54:	cf 93       	push	r28
    5c56:	df 93       	push	r29
    5c58:	ec 01       	movw	r28, r24
    5c5a:	d2 df       	rcall	.-92     	; 0x5c00 <_ZN5Print5printERK6String>
    5c5c:	8c 01       	movw	r16, r24
    5c5e:	ce 01       	movw	r24, r28
    5c60:	e4 df       	rcall	.-56     	; 0x5c2a <_ZN5Print7printlnEv>
    5c62:	80 0f       	add	r24, r16
    5c64:	91 1f       	adc	r25, r17
    5c66:	df 91       	pop	r29
    5c68:	cf 91       	pop	r28
    5c6a:	1f 91       	pop	r17
    5c6c:	0f 91       	pop	r16
    5c6e:	08 95       	ret

00005c70 <_ZN5Print11printNumberEmh>:
    5c70:	8f 92       	push	r8
    5c72:	9f 92       	push	r9
    5c74:	af 92       	push	r10
    5c76:	bf 92       	push	r11
    5c78:	cf 92       	push	r12
    5c7a:	df 92       	push	r13
    5c7c:	ef 92       	push	r14
    5c7e:	ff 92       	push	r15
    5c80:	0f 93       	push	r16
    5c82:	1f 93       	push	r17
    5c84:	cf 93       	push	r28
    5c86:	df 93       	push	r29
    5c88:	cd b7       	in	r28, 0x3d	; 61
    5c8a:	de b7       	in	r29, 0x3e	; 62
    5c8c:	a1 97       	sbiw	r28, 0x21	; 33
    5c8e:	0f b6       	in	r0, 0x3f	; 63
    5c90:	f8 94       	cli
    5c92:	de bf       	out	0x3e, r29	; 62
    5c94:	0f be       	out	0x3f, r0	; 63
    5c96:	cd bf       	out	0x3d, r28	; 61
    5c98:	7c 01       	movw	r14, r24
    5c9a:	d4 2e       	mov	r13, r20
    5c9c:	c5 2e       	mov	r12, r21
    5c9e:	db 01       	movw	r26, r22
    5ca0:	19 a2       	std	Y+33, r1	; 0x21
    5ca2:	22 30       	cpi	r18, 0x02	; 2
    5ca4:	08 f4       	brcc	.+2      	; 0x5ca8 <_ZN5Print11printNumberEmh+0x38>
    5ca6:	2a e0       	ldi	r18, 0x0A	; 10
    5ca8:	8e 01       	movw	r16, r28
    5caa:	0f 5d       	subi	r16, 0xDF	; 223
    5cac:	1f 4f       	sbci	r17, 0xFF	; 255
    5cae:	82 2e       	mov	r8, r18
    5cb0:	91 2c       	mov	r9, r1
    5cb2:	a1 2c       	mov	r10, r1
    5cb4:	b1 2c       	mov	r11, r1
    5cb6:	6d 2d       	mov	r22, r13
    5cb8:	7c 2d       	mov	r23, r12
    5cba:	cd 01       	movw	r24, r26
    5cbc:	a5 01       	movw	r20, r10
    5cbe:	94 01       	movw	r18, r8
    5cc0:	3f d6       	rcall	.+3198   	; 0x6940 <__udivmodsi4>
    5cc2:	d2 2e       	mov	r13, r18
    5cc4:	c3 2e       	mov	r12, r19
    5cc6:	da 01       	movw	r26, r20
    5cc8:	01 50       	subi	r16, 0x01	; 1
    5cca:	11 09       	sbc	r17, r1
    5ccc:	6a 30       	cpi	r22, 0x0A	; 10
    5cce:	71 05       	cpc	r23, r1
    5cd0:	81 05       	cpc	r24, r1
    5cd2:	91 05       	cpc	r25, r1
    5cd4:	10 f4       	brcc	.+4      	; 0x5cda <_ZN5Print11printNumberEmh+0x6a>
    5cd6:	60 5d       	subi	r22, 0xD0	; 208
    5cd8:	01 c0       	rjmp	.+2      	; 0x5cdc <_ZN5Print11printNumberEmh+0x6c>
    5cda:	69 5c       	subi	r22, 0xC9	; 201
    5cdc:	f8 01       	movw	r30, r16
    5cde:	60 83       	st	Z, r22
    5ce0:	23 2b       	or	r18, r19
    5ce2:	24 2b       	or	r18, r20
    5ce4:	25 2b       	or	r18, r21
    5ce6:	39 f7       	brne	.-50     	; 0x5cb6 <_ZN5Print11printNumberEmh+0x46>
    5ce8:	b8 01       	movw	r22, r16
    5cea:	c7 01       	movw	r24, r14
    5cec:	50 df       	rcall	.-352    	; 0x5b8e <_ZN5Print5writeEPKc>
    5cee:	a1 96       	adiw	r28, 0x21	; 33
    5cf0:	0f b6       	in	r0, 0x3f	; 63
    5cf2:	f8 94       	cli
    5cf4:	de bf       	out	0x3e, r29	; 62
    5cf6:	0f be       	out	0x3f, r0	; 63
    5cf8:	cd bf       	out	0x3d, r28	; 61
    5cfa:	df 91       	pop	r29
    5cfc:	cf 91       	pop	r28
    5cfe:	1f 91       	pop	r17
    5d00:	0f 91       	pop	r16
    5d02:	ff 90       	pop	r15
    5d04:	ef 90       	pop	r14
    5d06:	df 90       	pop	r13
    5d08:	cf 90       	pop	r12
    5d0a:	bf 90       	pop	r11
    5d0c:	af 90       	pop	r10
    5d0e:	9f 90       	pop	r9
    5d10:	8f 90       	pop	r8
    5d12:	08 95       	ret

00005d14 <_ZN5Print5printEli>:
    5d14:	cf 92       	push	r12
    5d16:	df 92       	push	r13
    5d18:	ef 92       	push	r14
    5d1a:	ff 92       	push	r15
    5d1c:	0f 93       	push	r16
    5d1e:	1f 93       	push	r17
    5d20:	cf 93       	push	r28
    5d22:	df 93       	push	r29
    5d24:	ec 01       	movw	r28, r24
    5d26:	6a 01       	movw	r12, r20
    5d28:	7b 01       	movw	r14, r22
    5d2a:	21 15       	cp	r18, r1
    5d2c:	31 05       	cpc	r19, r1
    5d2e:	79 f4       	brne	.+30     	; 0x5d4e <_ZN5Print5printEli+0x3a>
    5d30:	e8 81       	ld	r30, Y
    5d32:	f9 81       	ldd	r31, Y+1	; 0x01
    5d34:	01 90       	ld	r0, Z+
    5d36:	f0 81       	ld	r31, Z
    5d38:	e0 2d       	mov	r30, r0
    5d3a:	64 2f       	mov	r22, r20
    5d3c:	df 91       	pop	r29
    5d3e:	cf 91       	pop	r28
    5d40:	1f 91       	pop	r17
    5d42:	0f 91       	pop	r16
    5d44:	ff 90       	pop	r15
    5d46:	ef 90       	pop	r14
    5d48:	df 90       	pop	r13
    5d4a:	cf 90       	pop	r12
    5d4c:	09 94       	ijmp
    5d4e:	2a 30       	cpi	r18, 0x0A	; 10
    5d50:	31 05       	cpc	r19, r1
    5d52:	d9 f4       	brne	.+54     	; 0x5d8a <_ZN5Print5printEli+0x76>
    5d54:	77 ff       	sbrs	r23, 7
    5d56:	18 c0       	rjmp	.+48     	; 0x5d88 <_ZN5Print5printEli+0x74>
    5d58:	6d e2       	ldi	r22, 0x2D	; 45
    5d5a:	60 df       	rcall	.-320    	; 0x5c1c <_ZN5Print5printEc>
    5d5c:	8c 01       	movw	r16, r24
    5d5e:	44 27       	eor	r20, r20
    5d60:	55 27       	eor	r21, r21
    5d62:	ba 01       	movw	r22, r20
    5d64:	4c 19       	sub	r20, r12
    5d66:	5d 09       	sbc	r21, r13
    5d68:	6e 09       	sbc	r22, r14
    5d6a:	7f 09       	sbc	r23, r15
    5d6c:	2a e0       	ldi	r18, 0x0A	; 10
    5d6e:	ce 01       	movw	r24, r28
    5d70:	7f df       	rcall	.-258    	; 0x5c70 <_ZN5Print11printNumberEmh>
    5d72:	80 0f       	add	r24, r16
    5d74:	91 1f       	adc	r25, r17
    5d76:	df 91       	pop	r29
    5d78:	cf 91       	pop	r28
    5d7a:	1f 91       	pop	r17
    5d7c:	0f 91       	pop	r16
    5d7e:	ff 90       	pop	r15
    5d80:	ef 90       	pop	r14
    5d82:	df 90       	pop	r13
    5d84:	cf 90       	pop	r12
    5d86:	08 95       	ret
    5d88:	2a e0       	ldi	r18, 0x0A	; 10
    5d8a:	b7 01       	movw	r22, r14
    5d8c:	a6 01       	movw	r20, r12
    5d8e:	ce 01       	movw	r24, r28
    5d90:	df 91       	pop	r29
    5d92:	cf 91       	pop	r28
    5d94:	1f 91       	pop	r17
    5d96:	0f 91       	pop	r16
    5d98:	ff 90       	pop	r15
    5d9a:	ef 90       	pop	r14
    5d9c:	df 90       	pop	r13
    5d9e:	cf 90       	pop	r12
    5da0:	67 cf       	rjmp	.-306    	; 0x5c70 <_ZN5Print11printNumberEmh>

00005da2 <_ZN5Print7printlnEii>:
    5da2:	0f 93       	push	r16
    5da4:	1f 93       	push	r17
    5da6:	cf 93       	push	r28
    5da8:	df 93       	push	r29
    5daa:	ec 01       	movw	r28, r24
    5dac:	9a 01       	movw	r18, r20
    5dae:	ab 01       	movw	r20, r22
    5db0:	77 0f       	add	r23, r23
    5db2:	66 0b       	sbc	r22, r22
    5db4:	77 0b       	sbc	r23, r23
    5db6:	ae df       	rcall	.-164    	; 0x5d14 <_ZN5Print5printEli>
    5db8:	8c 01       	movw	r16, r24
    5dba:	ce 01       	movw	r24, r28
    5dbc:	36 df       	rcall	.-404    	; 0x5c2a <_ZN5Print7printlnEv>
    5dbe:	80 0f       	add	r24, r16
    5dc0:	91 1f       	adc	r25, r17
    5dc2:	df 91       	pop	r29
    5dc4:	cf 91       	pop	r28
    5dc6:	1f 91       	pop	r17
    5dc8:	0f 91       	pop	r16
    5dca:	08 95       	ret

00005dcc <_ZN5Print5printEmi>:
    5dcc:	21 15       	cp	r18, r1
    5dce:	31 05       	cpc	r19, r1
    5dd0:	41 f4       	brne	.+16     	; 0x5de2 <_ZN5Print5printEmi+0x16>
    5dd2:	dc 01       	movw	r26, r24
    5dd4:	ed 91       	ld	r30, X+
    5dd6:	fc 91       	ld	r31, X
    5dd8:	01 90       	ld	r0, Z+
    5dda:	f0 81       	ld	r31, Z
    5ddc:	e0 2d       	mov	r30, r0
    5dde:	64 2f       	mov	r22, r20
    5de0:	09 94       	ijmp
    5de2:	46 cf       	rjmp	.-372    	; 0x5c70 <_ZN5Print11printNumberEmh>

00005de4 <_ZN5Print7printlnEhi>:
    5de4:	0f 93       	push	r16
    5de6:	1f 93       	push	r17
    5de8:	cf 93       	push	r28
    5dea:	df 93       	push	r29
    5dec:	ec 01       	movw	r28, r24
    5dee:	9a 01       	movw	r18, r20
    5df0:	46 2f       	mov	r20, r22
    5df2:	50 e0       	ldi	r21, 0x00	; 0
    5df4:	60 e0       	ldi	r22, 0x00	; 0
    5df6:	70 e0       	ldi	r23, 0x00	; 0
    5df8:	e9 df       	rcall	.-46     	; 0x5dcc <_ZN5Print5printEmi>
    5dfa:	8c 01       	movw	r16, r24
    5dfc:	ce 01       	movw	r24, r28
    5dfe:	15 df       	rcall	.-470    	; 0x5c2a <_ZN5Print7printlnEv>
    5e00:	80 0f       	add	r24, r16
    5e02:	91 1f       	adc	r25, r17
    5e04:	df 91       	pop	r29
    5e06:	cf 91       	pop	r28
    5e08:	1f 91       	pop	r17
    5e0a:	0f 91       	pop	r16
    5e0c:	08 95       	ret

00005e0e <_ZN5Print10printFloatEdh>:
    5e0e:	4f 92       	push	r4
    5e10:	5f 92       	push	r5
    5e12:	6f 92       	push	r6
    5e14:	7f 92       	push	r7
    5e16:	8f 92       	push	r8
    5e18:	9f 92       	push	r9
    5e1a:	af 92       	push	r10
    5e1c:	bf 92       	push	r11
    5e1e:	cf 92       	push	r12
    5e20:	df 92       	push	r13
    5e22:	ef 92       	push	r14
    5e24:	ff 92       	push	r15
    5e26:	cf 93       	push	r28
    5e28:	df 93       	push	r29
    5e2a:	ec 01       	movw	r28, r24
    5e2c:	6a 01       	movw	r12, r20
    5e2e:	7b 01       	movw	r14, r22
    5e30:	b2 2e       	mov	r11, r18
    5e32:	9a 01       	movw	r18, r20
    5e34:	ab 01       	movw	r20, r22
    5e36:	c7 01       	movw	r24, r14
    5e38:	b6 01       	movw	r22, r12
    5e3a:	b7 dc       	rcall	.-1682   	; 0x57aa <__unordsf2>
    5e3c:	88 23       	and	r24, r24
    5e3e:	19 f0       	breq	.+6      	; 0x5e46 <_ZN5Print10printFloatEdh+0x38>
    5e40:	64 ec       	ldi	r22, 0xC4	; 196
    5e42:	71 e0       	ldi	r23, 0x01	; 1
    5e44:	24 c0       	rjmp	.+72     	; 0x5e8e <_ZN5Print10printFloatEdh+0x80>
    5e46:	26 01       	movw	r4, r12
    5e48:	37 01       	movw	r6, r14
    5e4a:	e8 94       	clt
    5e4c:	77 f8       	bld	r7, 7
    5e4e:	2f ef       	ldi	r18, 0xFF	; 255
    5e50:	3f ef       	ldi	r19, 0xFF	; 255
    5e52:	4f e7       	ldi	r20, 0x7F	; 127
    5e54:	5f e7       	ldi	r21, 0x7F	; 127
    5e56:	c3 01       	movw	r24, r6
    5e58:	b2 01       	movw	r22, r4
    5e5a:	a7 dc       	rcall	.-1714   	; 0x57aa <__unordsf2>
    5e5c:	81 11       	cpse	r24, r1
    5e5e:	0c c0       	rjmp	.+24     	; 0x5e78 <_ZN5Print10printFloatEdh+0x6a>
    5e60:	2f ef       	ldi	r18, 0xFF	; 255
    5e62:	3f ef       	ldi	r19, 0xFF	; 255
    5e64:	4f e7       	ldi	r20, 0x7F	; 127
    5e66:	5f e7       	ldi	r21, 0x7F	; 127
    5e68:	c3 01       	movw	r24, r6
    5e6a:	b2 01       	movw	r22, r4
    5e6c:	e8 da       	rcall	.-2608   	; 0x543e <__cmpsf2>
    5e6e:	18 16       	cp	r1, r24
    5e70:	1c f4       	brge	.+6      	; 0x5e78 <_ZN5Print10printFloatEdh+0x6a>
    5e72:	68 ec       	ldi	r22, 0xC8	; 200
    5e74:	71 e0       	ldi	r23, 0x01	; 1
    5e76:	0b c0       	rjmp	.+22     	; 0x5e8e <_ZN5Print10printFloatEdh+0x80>
    5e78:	2f ef       	ldi	r18, 0xFF	; 255
    5e7a:	3f ef       	ldi	r19, 0xFF	; 255
    5e7c:	4f e7       	ldi	r20, 0x7F	; 127
    5e7e:	5f e4       	ldi	r21, 0x4F	; 79
    5e80:	c7 01       	movw	r24, r14
    5e82:	b6 01       	movw	r22, r12
    5e84:	2b dc       	rcall	.-1962   	; 0x56dc <__gesf2>
    5e86:	18 16       	cp	r1, r24
    5e88:	94 f4       	brge	.+36     	; 0x5eae <_ZN5Print10printFloatEdh+0xa0>
    5e8a:	6c ec       	ldi	r22, 0xCC	; 204
    5e8c:	71 e0       	ldi	r23, 0x01	; 1
    5e8e:	ce 01       	movw	r24, r28
    5e90:	df 91       	pop	r29
    5e92:	cf 91       	pop	r28
    5e94:	ff 90       	pop	r15
    5e96:	ef 90       	pop	r14
    5e98:	df 90       	pop	r13
    5e9a:	cf 90       	pop	r12
    5e9c:	bf 90       	pop	r11
    5e9e:	af 90       	pop	r10
    5ea0:	9f 90       	pop	r9
    5ea2:	8f 90       	pop	r8
    5ea4:	7f 90       	pop	r7
    5ea6:	6f 90       	pop	r6
    5ea8:	5f 90       	pop	r5
    5eaa:	4f 90       	pop	r4
    5eac:	70 ce       	rjmp	.-800    	; 0x5b8e <_ZN5Print5writeEPKc>
    5eae:	2f ef       	ldi	r18, 0xFF	; 255
    5eb0:	3f ef       	ldi	r19, 0xFF	; 255
    5eb2:	4f e7       	ldi	r20, 0x7F	; 127
    5eb4:	5f ec       	ldi	r21, 0xCF	; 207
    5eb6:	c7 01       	movw	r24, r14
    5eb8:	b6 01       	movw	r22, r12
    5eba:	c1 da       	rcall	.-2686   	; 0x543e <__cmpsf2>
    5ebc:	87 fd       	sbrc	r24, 7
    5ebe:	e5 cf       	rjmp	.-54     	; 0x5e8a <_ZN5Print10printFloatEdh+0x7c>
    5ec0:	20 e0       	ldi	r18, 0x00	; 0
    5ec2:	30 e0       	ldi	r19, 0x00	; 0
    5ec4:	a9 01       	movw	r20, r18
    5ec6:	c7 01       	movw	r24, r14
    5ec8:	b6 01       	movw	r22, r12
    5eca:	b9 da       	rcall	.-2702   	; 0x543e <__cmpsf2>
    5ecc:	87 ff       	sbrs	r24, 7
    5ece:	09 c0       	rjmp	.+18     	; 0x5ee2 <_ZN5Print10printFloatEdh+0xd4>
    5ed0:	6d e2       	ldi	r22, 0x2D	; 45
    5ed2:	ce 01       	movw	r24, r28
    5ed4:	a3 de       	rcall	.-698    	; 0x5c1c <_ZN5Print5printEc>
    5ed6:	4c 01       	movw	r8, r24
    5ed8:	f7 fa       	bst	r15, 7
    5eda:	f0 94       	com	r15
    5edc:	f7 f8       	bld	r15, 7
    5ede:	f0 94       	com	r15
    5ee0:	02 c0       	rjmp	.+4      	; 0x5ee6 <_ZN5Print10printFloatEdh+0xd8>
    5ee2:	81 2c       	mov	r8, r1
    5ee4:	91 2c       	mov	r9, r1
    5ee6:	a1 2c       	mov	r10, r1
    5ee8:	60 e0       	ldi	r22, 0x00	; 0
    5eea:	70 e0       	ldi	r23, 0x00	; 0
    5eec:	80 e0       	ldi	r24, 0x00	; 0
    5eee:	9f e3       	ldi	r25, 0x3F	; 63
    5ef0:	ab 14       	cp	r10, r11
    5ef2:	39 f0       	breq	.+14     	; 0x5f02 <_ZN5Print10printFloatEdh+0xf4>
    5ef4:	20 e0       	ldi	r18, 0x00	; 0
    5ef6:	30 e0       	ldi	r19, 0x00	; 0
    5ef8:	40 e2       	ldi	r20, 0x20	; 32
    5efa:	51 e4       	ldi	r21, 0x41	; 65
    5efc:	a4 da       	rcall	.-2744   	; 0x5446 <__divsf3>
    5efe:	a3 94       	inc	r10
    5f00:	f7 cf       	rjmp	.-18     	; 0x5ef0 <_ZN5Print10printFloatEdh+0xe2>
    5f02:	9b 01       	movw	r18, r22
    5f04:	ac 01       	movw	r20, r24
    5f06:	c7 01       	movw	r24, r14
    5f08:	b6 01       	movw	r22, r12
    5f0a:	35 da       	rcall	.-2966   	; 0x5376 <__addsf3>
    5f0c:	2b 01       	movw	r4, r22
    5f0e:	3c 01       	movw	r6, r24
    5f10:	07 db       	rcall	.-2546   	; 0x5520 <__fixunssfsi>
    5f12:	6b 01       	movw	r12, r22
    5f14:	7c 01       	movw	r14, r24
    5f16:	30 db       	rcall	.-2464   	; 0x5578 <__floatunsisf>
    5f18:	9b 01       	movw	r18, r22
    5f1a:	ac 01       	movw	r20, r24
    5f1c:	c3 01       	movw	r24, r6
    5f1e:	b2 01       	movw	r22, r4
    5f20:	29 da       	rcall	.-2990   	; 0x5374 <__subsf3>
    5f22:	2b 01       	movw	r4, r22
    5f24:	3c 01       	movw	r6, r24
    5f26:	2a e0       	ldi	r18, 0x0A	; 10
    5f28:	b7 01       	movw	r22, r14
    5f2a:	a6 01       	movw	r20, r12
    5f2c:	ce 01       	movw	r24, r28
    5f2e:	a0 de       	rcall	.-704    	; 0x5c70 <_ZN5Print11printNumberEmh>
    5f30:	7c 01       	movw	r14, r24
    5f32:	e8 0c       	add	r14, r8
    5f34:	f9 1c       	adc	r15, r9
    5f36:	bb 20       	and	r11, r11
    5f38:	31 f0       	breq	.+12     	; 0x5f46 <_ZN5Print10printFloatEdh+0x138>
    5f3a:	60 ed       	ldi	r22, 0xD0	; 208
    5f3c:	71 e0       	ldi	r23, 0x01	; 1
    5f3e:	ce 01       	movw	r24, r28
    5f40:	26 de       	rcall	.-948    	; 0x5b8e <_ZN5Print5writeEPKc>
    5f42:	e8 0e       	add	r14, r24
    5f44:	f9 1e       	adc	r15, r25
    5f46:	db 2c       	mov	r13, r11
    5f48:	dd 20       	and	r13, r13
    5f4a:	11 f1       	breq	.+68     	; 0x5f90 <_ZN5Print10printFloatEdh+0x182>
    5f4c:	20 e0       	ldi	r18, 0x00	; 0
    5f4e:	30 e0       	ldi	r19, 0x00	; 0
    5f50:	40 e2       	ldi	r20, 0x20	; 32
    5f52:	51 e4       	ldi	r21, 0x41	; 65
    5f54:	c3 01       	movw	r24, r6
    5f56:	b2 01       	movw	r22, r4
    5f58:	c5 db       	rcall	.-2166   	; 0x56e4 <__mulsf3>
    5f5a:	2b 01       	movw	r4, r22
    5f5c:	3c 01       	movw	r6, r24
    5f5e:	db da       	rcall	.-2634   	; 0x5516 <__fixsfsi>
    5f60:	4b 01       	movw	r8, r22
    5f62:	77 0f       	add	r23, r23
    5f64:	aa 08       	sbc	r10, r10
    5f66:	bb 08       	sbc	r11, r11
    5f68:	2a e0       	ldi	r18, 0x0A	; 10
    5f6a:	30 e0       	ldi	r19, 0x00	; 0
    5f6c:	b5 01       	movw	r22, r10
    5f6e:	a4 01       	movw	r20, r8
    5f70:	ce 01       	movw	r24, r28
    5f72:	d0 de       	rcall	.-608    	; 0x5d14 <_ZN5Print5printEli>
    5f74:	e8 0e       	add	r14, r24
    5f76:	f9 1e       	adc	r15, r25
    5f78:	c5 01       	movw	r24, r10
    5f7a:	b4 01       	movw	r22, r8
    5f7c:	ff da       	rcall	.-2562   	; 0x557c <__floatsisf>
    5f7e:	9b 01       	movw	r18, r22
    5f80:	ac 01       	movw	r20, r24
    5f82:	c3 01       	movw	r24, r6
    5f84:	b2 01       	movw	r22, r4
    5f86:	f6 d9       	rcall	.-3092   	; 0x5374 <__subsf3>
    5f88:	2b 01       	movw	r4, r22
    5f8a:	3c 01       	movw	r6, r24
    5f8c:	da 94       	dec	r13
    5f8e:	dc cf       	rjmp	.-72     	; 0x5f48 <_ZN5Print10printFloatEdh+0x13a>
    5f90:	c7 01       	movw	r24, r14
    5f92:	df 91       	pop	r29
    5f94:	cf 91       	pop	r28
    5f96:	ff 90       	pop	r15
    5f98:	ef 90       	pop	r14
    5f9a:	df 90       	pop	r13
    5f9c:	cf 90       	pop	r12
    5f9e:	bf 90       	pop	r11
    5fa0:	af 90       	pop	r10
    5fa2:	9f 90       	pop	r9
    5fa4:	8f 90       	pop	r8
    5fa6:	7f 90       	pop	r7
    5fa8:	6f 90       	pop	r6
    5faa:	5f 90       	pop	r5
    5fac:	4f 90       	pop	r4
    5fae:	08 95       	ret

00005fb0 <_ZN5Print7printlnEdi>:
  n += println();
  return n;
}

size_t Print::println(double num, int digits)
{
    5fb0:	0f 93       	push	r16
    5fb2:	1f 93       	push	r17
    5fb4:	cf 93       	push	r28
    5fb6:	df 93       	push	r29
    5fb8:	ec 01       	movw	r28, r24
  else return printNumber(n, base);
}

size_t Print::print(double n, int digits)
{
  return printFloat(n, digits);
    5fba:	29 df       	rcall	.-430    	; 0x5e0e <_ZN5Print10printFloatEdh>
    5fbc:	8c 01       	movw	r16, r24
}

size_t Print::println(double num, int digits)
{
  size_t n = print(num, digits);
  n += println();
    5fbe:	ce 01       	movw	r24, r28
    5fc0:	34 de       	rcall	.-920    	; 0x5c2a <_ZN5Print7printlnEv>
  return n;
}
    5fc2:	80 0f       	add	r24, r16
    5fc4:	91 1f       	adc	r25, r17
    5fc6:	df 91       	pop	r29
    5fc8:	cf 91       	pop	r28
    5fca:	1f 91       	pop	r17
    5fcc:	0f 91       	pop	r16
    5fce:	08 95       	ret

00005fd0 <__vector_16>:
#if defined(__AVR_ATtiny24__) || defined(__AVR_ATtiny44__) || defined(__AVR_ATtiny84__)
ISR(TIM0_OVF_vect)
#else
ISR(TIMER0_OVF_vect)
#endif
{
    5fd0:	1f 92       	push	r1
    5fd2:	0f 92       	push	r0
    5fd4:	0f b6       	in	r0, 0x3f	; 63
    5fd6:	0f 92       	push	r0
    5fd8:	11 24       	eor	r1, r1
    5fda:	2f 93       	push	r18
    5fdc:	3f 93       	push	r19
    5fde:	8f 93       	push	r24
    5fe0:	9f 93       	push	r25
    5fe2:	af 93       	push	r26
    5fe4:	bf 93       	push	r27
	// copy these to local variables so they can be stored in registers
	// (volatile variables must be read from memory on every access)
	unsigned long m = timer0_millis;
    5fe6:	80 91 24 06 	lds	r24, 0x0624	; 0x800624 <timer0_millis>
    5fea:	90 91 25 06 	lds	r25, 0x0625	; 0x800625 <timer0_millis+0x1>
    5fee:	a0 91 26 06 	lds	r26, 0x0626	; 0x800626 <timer0_millis+0x2>
    5ff2:	b0 91 27 06 	lds	r27, 0x0627	; 0x800627 <timer0_millis+0x3>
	unsigned char f = timer0_fract;
    5ff6:	30 91 23 06 	lds	r19, 0x0623	; 0x800623 <timer0_fract>

	m += MILLIS_INC;
	f += FRACT_INC;
    5ffa:	23 e0       	ldi	r18, 0x03	; 3
    5ffc:	23 0f       	add	r18, r19
	if (f >= FRACT_MAX) {
    5ffe:	2d 37       	cpi	r18, 0x7D	; 125
    6000:	20 f4       	brcc	.+8      	; 0x600a <__vector_16+0x3a>
	// copy these to local variables so they can be stored in registers
	// (volatile variables must be read from memory on every access)
	unsigned long m = timer0_millis;
	unsigned char f = timer0_fract;

	m += MILLIS_INC;
    6002:	01 96       	adiw	r24, 0x01	; 1
    6004:	a1 1d       	adc	r26, r1
    6006:	b1 1d       	adc	r27, r1
    6008:	05 c0       	rjmp	.+10     	; 0x6014 <__vector_16+0x44>
	f += FRACT_INC;
	if (f >= FRACT_MAX) {
		f -= FRACT_MAX;
    600a:	26 e8       	ldi	r18, 0x86	; 134
    600c:	23 0f       	add	r18, r19
		m += 1;
    600e:	02 96       	adiw	r24, 0x02	; 2
    6010:	a1 1d       	adc	r26, r1
    6012:	b1 1d       	adc	r27, r1
	}

	timer0_fract = f;
    6014:	20 93 23 06 	sts	0x0623, r18	; 0x800623 <timer0_fract>
	timer0_millis = m;
    6018:	80 93 24 06 	sts	0x0624, r24	; 0x800624 <timer0_millis>
    601c:	90 93 25 06 	sts	0x0625, r25	; 0x800625 <timer0_millis+0x1>
    6020:	a0 93 26 06 	sts	0x0626, r26	; 0x800626 <timer0_millis+0x2>
    6024:	b0 93 27 06 	sts	0x0627, r27	; 0x800627 <timer0_millis+0x3>
	timer0_overflow_count++;
    6028:	80 91 28 06 	lds	r24, 0x0628	; 0x800628 <timer0_overflow_count>
    602c:	90 91 29 06 	lds	r25, 0x0629	; 0x800629 <timer0_overflow_count+0x1>
    6030:	a0 91 2a 06 	lds	r26, 0x062A	; 0x80062a <timer0_overflow_count+0x2>
    6034:	b0 91 2b 06 	lds	r27, 0x062B	; 0x80062b <timer0_overflow_count+0x3>
    6038:	01 96       	adiw	r24, 0x01	; 1
    603a:	a1 1d       	adc	r26, r1
    603c:	b1 1d       	adc	r27, r1
    603e:	80 93 28 06 	sts	0x0628, r24	; 0x800628 <timer0_overflow_count>
    6042:	90 93 29 06 	sts	0x0629, r25	; 0x800629 <timer0_overflow_count+0x1>
    6046:	a0 93 2a 06 	sts	0x062A, r26	; 0x80062a <timer0_overflow_count+0x2>
    604a:	b0 93 2b 06 	sts	0x062B, r27	; 0x80062b <timer0_overflow_count+0x3>
}
    604e:	bf 91       	pop	r27
    6050:	af 91       	pop	r26
    6052:	9f 91       	pop	r25
    6054:	8f 91       	pop	r24
    6056:	3f 91       	pop	r19
    6058:	2f 91       	pop	r18
    605a:	0f 90       	pop	r0
    605c:	0f be       	out	0x3f, r0	; 63
    605e:	0f 90       	pop	r0
    6060:	1f 90       	pop	r1
    6062:	18 95       	reti

00006064 <millis>:

unsigned long millis()
{
	unsigned long m;
	uint8_t oldSREG = SREG;
    6064:	2f b7       	in	r18, 0x3f	; 63

	// disable interrupts while we read timer0_millis or we might get an
	// inconsistent value (e.g. in the middle of a write to timer0_millis)
	cli();
    6066:	f8 94       	cli
	m = timer0_millis;
    6068:	60 91 24 06 	lds	r22, 0x0624	; 0x800624 <timer0_millis>
    606c:	70 91 25 06 	lds	r23, 0x0625	; 0x800625 <timer0_millis+0x1>
    6070:	80 91 26 06 	lds	r24, 0x0626	; 0x800626 <timer0_millis+0x2>
    6074:	90 91 27 06 	lds	r25, 0x0627	; 0x800627 <timer0_millis+0x3>
	SREG = oldSREG;
    6078:	2f bf       	out	0x3f, r18	; 63

	return m;
}
    607a:	08 95       	ret

0000607c <micros>:

unsigned long micros() {
	unsigned long m;
	uint8_t oldSREG = SREG, t;
    607c:	3f b7       	in	r19, 0x3f	; 63
	
	cli();
    607e:	f8 94       	cli
	m = timer0_overflow_count;
    6080:	80 91 28 06 	lds	r24, 0x0628	; 0x800628 <timer0_overflow_count>
    6084:	90 91 29 06 	lds	r25, 0x0629	; 0x800629 <timer0_overflow_count+0x1>
    6088:	a0 91 2a 06 	lds	r26, 0x062A	; 0x80062a <timer0_overflow_count+0x2>
    608c:	b0 91 2b 06 	lds	r27, 0x062B	; 0x80062b <timer0_overflow_count+0x3>
#if defined(TCNT0)
	t = TCNT0;
    6090:	26 b5       	in	r18, 0x26	; 38
#else
	#error TIMER 0 not defined
#endif

#ifdef TIFR0
	if ((TIFR0 & _BV(TOV0)) && (t < 255))
    6092:	a8 9b       	sbis	0x15, 0	; 21
    6094:	05 c0       	rjmp	.+10     	; 0x60a0 <micros+0x24>
    6096:	2f 3f       	cpi	r18, 0xFF	; 255
    6098:	19 f0       	breq	.+6      	; 0x60a0 <micros+0x24>
		m++;
    609a:	01 96       	adiw	r24, 0x01	; 1
    609c:	a1 1d       	adc	r26, r1
    609e:	b1 1d       	adc	r27, r1
#else
	if ((TIFR & _BV(TOV0)) && (t < 255))
		m++;
#endif

	SREG = oldSREG;
    60a0:	3f bf       	out	0x3f, r19	; 63
	
	return ((m << 8) + t) * (64 / clockCyclesPerMicrosecond());
    60a2:	ba 2f       	mov	r27, r26
    60a4:	a9 2f       	mov	r26, r25
    60a6:	98 2f       	mov	r25, r24
    60a8:	88 27       	eor	r24, r24
    60aa:	82 0f       	add	r24, r18
    60ac:	91 1d       	adc	r25, r1
    60ae:	a1 1d       	adc	r26, r1
    60b0:	b1 1d       	adc	r27, r1
    60b2:	bc 01       	movw	r22, r24
    60b4:	cd 01       	movw	r24, r26
    60b6:	42 e0       	ldi	r20, 0x02	; 2
    60b8:	66 0f       	add	r22, r22
    60ba:	77 1f       	adc	r23, r23
    60bc:	88 1f       	adc	r24, r24
    60be:	99 1f       	adc	r25, r25
    60c0:	4a 95       	dec	r20
    60c2:	d1 f7       	brne	.-12     	; 0x60b8 <micros+0x3c>
}
    60c4:	08 95       	ret

000060c6 <delay>:

void delay(unsigned long ms)
{
    60c6:	8f 92       	push	r8
    60c8:	9f 92       	push	r9
    60ca:	af 92       	push	r10
    60cc:	bf 92       	push	r11
    60ce:	cf 92       	push	r12
    60d0:	df 92       	push	r13
    60d2:	ef 92       	push	r14
    60d4:	ff 92       	push	r15
    60d6:	6b 01       	movw	r12, r22
    60d8:	7c 01       	movw	r14, r24
	uint32_t start = micros();
    60da:	d0 df       	rcall	.-96     	; 0x607c <micros>
    60dc:	4b 01       	movw	r8, r22
    60de:	5c 01       	movw	r10, r24

	while (ms > 0) {
    60e0:	c1 14       	cp	r12, r1
    60e2:	d1 04       	cpc	r13, r1
    60e4:	e1 04       	cpc	r14, r1
    60e6:	f1 04       	cpc	r15, r1
    60e8:	f1 f0       	breq	.+60     	; 0x6126 <delay+0x60>
		yield();
    60ea:	29 d4       	rcall	.+2130   	; 0x693e <yield>
		while ( ms > 0 && (micros() - start) >= 1000) {
    60ec:	c7 df       	rcall	.-114    	; 0x607c <micros>
    60ee:	dc 01       	movw	r26, r24
    60f0:	cb 01       	movw	r24, r22
    60f2:	88 19       	sub	r24, r8
    60f4:	99 09       	sbc	r25, r9
    60f6:	aa 09       	sbc	r26, r10
    60f8:	bb 09       	sbc	r27, r11
    60fa:	88 3e       	cpi	r24, 0xE8	; 232
    60fc:	93 40       	sbci	r25, 0x03	; 3
    60fe:	a1 05       	cpc	r26, r1
    6100:	b1 05       	cpc	r27, r1
    6102:	70 f3       	brcs	.-36     	; 0x60e0 <delay+0x1a>
			ms--;
    6104:	21 e0       	ldi	r18, 0x01	; 1
    6106:	c2 1a       	sub	r12, r18
    6108:	d1 08       	sbc	r13, r1
    610a:	e1 08       	sbc	r14, r1
    610c:	f1 08       	sbc	r15, r1
			start += 1000;
    610e:	88 ee       	ldi	r24, 0xE8	; 232
    6110:	88 0e       	add	r8, r24
    6112:	83 e0       	ldi	r24, 0x03	; 3
    6114:	98 1e       	adc	r9, r24
    6116:	a1 1c       	adc	r10, r1
    6118:	b1 1c       	adc	r11, r1
{
	uint32_t start = micros();

	while (ms > 0) {
		yield();
		while ( ms > 0 && (micros() - start) >= 1000) {
    611a:	c1 14       	cp	r12, r1
    611c:	d1 04       	cpc	r13, r1
    611e:	e1 04       	cpc	r14, r1
    6120:	f1 04       	cpc	r15, r1
    6122:	21 f7       	brne	.-56     	; 0x60ec <delay+0x26>
    6124:	dd cf       	rjmp	.-70     	; 0x60e0 <delay+0x1a>
			ms--;
			start += 1000;
		}
	}
}
    6126:	ff 90       	pop	r15
    6128:	ef 90       	pop	r14
    612a:	df 90       	pop	r13
    612c:	cf 90       	pop	r12
    612e:	bf 90       	pop	r11
    6130:	af 90       	pop	r10
    6132:	9f 90       	pop	r9
    6134:	8f 90       	pop	r8
    6136:	08 95       	ret

00006138 <delayMicroseconds>:
#elif F_CPU >= 16000000L
	// for the 16 MHz clock on most Arduino boards

	// for a one-microsecond delay, simply return.  the overhead
	// of the function call takes 14 (16) cycles, which is 1us
	if (us <= 1) return; //  = 3 cycles, (4 when true)
    6138:	82 30       	cpi	r24, 0x02	; 2
    613a:	91 05       	cpc	r25, r1
    613c:	38 f0       	brcs	.+14     	; 0x614c <delayMicroseconds+0x14>

	// the following loop takes 1/4 of a microsecond (4 cycles)
	// per iteration, so execute it four times for each microsecond of
	// delay requested.
	us <<= 2; // x4 us, = 4 cycles
    613e:	88 0f       	add	r24, r24
    6140:	99 1f       	adc	r25, r25
    6142:	88 0f       	add	r24, r24
    6144:	99 1f       	adc	r25, r25

	// account for the time taken in the preceeding commands.
	// we just burned 19 (21) cycles above, remove 5, (5*4=20)
	// us is at least 8 so we can substract 5
	us -= 5; // = 2 cycles,
    6146:	05 97       	sbiw	r24, 0x05	; 5
	

#endif

	// busy wait
	__asm__ __volatile__ (
    6148:	01 97       	sbiw	r24, 0x01	; 1
    614a:	f1 f7       	brne	.-4      	; 0x6148 <delayMicroseconds+0x10>
    614c:	08 95       	ret

0000614e <init>:

void init()
{
	// this needs to be called before setup() or some functions won't
	// work there
	sei();
    614e:	78 94       	sei
	
	// on the ATmega168, timer 0 is also used for fast hardware pwm
	// (using phase-correct PWM would mean that timer 0 overflowed half as often
	// resulting in different millis() behavior on the ATmega8 and ATmega168)
#if defined(TCCR0A) && defined(WGM01)
	sbi(TCCR0A, WGM01);
    6150:	84 b5       	in	r24, 0x24	; 36
    6152:	82 60       	ori	r24, 0x02	; 2
    6154:	84 bd       	out	0x24, r24	; 36
	sbi(TCCR0A, WGM00);
    6156:	84 b5       	in	r24, 0x24	; 36
    6158:	81 60       	ori	r24, 0x01	; 1
    615a:	84 bd       	out	0x24, r24	; 36
	// this combination is for the standard atmega8
	sbi(TCCR0, CS01);
	sbi(TCCR0, CS00);
#elif defined(TCCR0B) && defined(CS01) && defined(CS00)
	// this combination is for the standard 168/328/1280/2560
	sbi(TCCR0B, CS01);
    615c:	85 b5       	in	r24, 0x25	; 37
    615e:	82 60       	ori	r24, 0x02	; 2
    6160:	85 bd       	out	0x25, r24	; 37
	sbi(TCCR0B, CS00);
    6162:	85 b5       	in	r24, 0x25	; 37
    6164:	81 60       	ori	r24, 0x01	; 1
    6166:	85 bd       	out	0x25, r24	; 37

	// enable timer 0 overflow interrupt
#if defined(TIMSK) && defined(TOIE0)
	sbi(TIMSK, TOIE0);
#elif defined(TIMSK0) && defined(TOIE0)
	sbi(TIMSK0, TOIE0);
    6168:	ee e6       	ldi	r30, 0x6E	; 110
    616a:	f0 e0       	ldi	r31, 0x00	; 0
    616c:	80 81       	ld	r24, Z
    616e:	81 60       	ori	r24, 0x01	; 1
    6170:	80 83       	st	Z, r24
	// this is better for motors as it ensures an even waveform
	// note, however, that fast pwm mode can achieve a frequency of up
	// 8 MHz (with a 16 MHz clock) at 50% duty cycle

#if defined(TCCR1B) && defined(CS11) && defined(CS10)
	TCCR1B = 0;
    6172:	e1 e8       	ldi	r30, 0x81	; 129
    6174:	f0 e0       	ldi	r31, 0x00	; 0
    6176:	10 82       	st	Z, r1

	// set timer 1 prescale factor to 64
	sbi(TCCR1B, CS11);
    6178:	80 81       	ld	r24, Z
    617a:	82 60       	ori	r24, 0x02	; 2
    617c:	80 83       	st	Z, r24
#if F_CPU >= 8000000L
	sbi(TCCR1B, CS10);
    617e:	80 81       	ld	r24, Z
    6180:	81 60       	ori	r24, 0x01	; 1
    6182:	80 83       	st	Z, r24
	sbi(TCCR1, CS10);
#endif
#endif
	// put timer 1 in 8-bit phase correct pwm mode
#if defined(TCCR1A) && defined(WGM10)
	sbi(TCCR1A, WGM10);
    6184:	e0 e8       	ldi	r30, 0x80	; 128
    6186:	f0 e0       	ldi	r31, 0x00	; 0
    6188:	80 81       	ld	r24, Z
    618a:	81 60       	ori	r24, 0x01	; 1
    618c:	80 83       	st	Z, r24

	// set timer 2 prescale factor to 64
#if defined(TCCR2) && defined(CS22)
	sbi(TCCR2, CS22);
#elif defined(TCCR2B) && defined(CS22)
	sbi(TCCR2B, CS22);
    618e:	e1 eb       	ldi	r30, 0xB1	; 177
    6190:	f0 e0       	ldi	r31, 0x00	; 0
    6192:	80 81       	ld	r24, Z
    6194:	84 60       	ori	r24, 0x04	; 4
    6196:	80 83       	st	Z, r24

	// configure timer 2 for phase correct pwm (8-bit)
#if defined(TCCR2) && defined(WGM20)
	sbi(TCCR2, WGM20);
#elif defined(TCCR2A) && defined(WGM20)
	sbi(TCCR2A, WGM20);
    6198:	e0 eb       	ldi	r30, 0xB0	; 176
    619a:	f0 e0       	ldi	r31, 0x00	; 0
    619c:	80 81       	ld	r24, Z
    619e:	81 60       	ori	r24, 0x01	; 1
    61a0:	80 83       	st	Z, r24
#endif

#if defined(ADCSRA)
	// set a2d prescaler so we are inside the desired 50-200 KHz range.
	#if F_CPU >= 16000000 // 16 MHz / 128 = 125 KHz
		sbi(ADCSRA, ADPS2);
    61a2:	ea e7       	ldi	r30, 0x7A	; 122
    61a4:	f0 e0       	ldi	r31, 0x00	; 0
    61a6:	80 81       	ld	r24, Z
    61a8:	84 60       	ori	r24, 0x04	; 4
    61aa:	80 83       	st	Z, r24
		sbi(ADCSRA, ADPS1);
    61ac:	80 81       	ld	r24, Z
    61ae:	82 60       	ori	r24, 0x02	; 2
    61b0:	80 83       	st	Z, r24
		sbi(ADCSRA, ADPS0);
    61b2:	80 81       	ld	r24, Z
    61b4:	81 60       	ori	r24, 0x01	; 1
    61b6:	80 83       	st	Z, r24
		cbi(ADCSRA, ADPS2);
		cbi(ADCSRA, ADPS1);
		sbi(ADCSRA, ADPS0);
	#endif
	// enable a2d conversions
	sbi(ADCSRA, ADEN);
    61b8:	80 81       	ld	r24, Z
    61ba:	80 68       	ori	r24, 0x80	; 128
    61bc:	80 83       	st	Z, r24
	// here so they can be used as normal digital i/o; they will be
	// reconnected in Serial.begin()
#if defined(UCSRB)
	UCSRB = 0;
#elif defined(UCSR0B)
	UCSR0B = 0;
    61be:	10 92 c1 00 	sts	0x00C1, r1	; 0x8000c1 <__TEXT_REGION_LENGTH__+0x7e00c1>
    61c2:	08 95       	ret

000061c4 <analogRead>:
#elif defined(__AVR_ATmega32U4__)
	if (pin >= 18) pin -= 18; // allow for channel or pin numbers
#elif defined(__AVR_ATmega1284__) || defined(__AVR_ATmega1284P__) || defined(__AVR_ATmega644__) || defined(__AVR_ATmega644A__) || defined(__AVR_ATmega644P__) || defined(__AVR_ATmega644PA__)
	if (pin >= 24) pin -= 24; // allow for channel or pin numbers
#else
	if (pin >= 14) pin -= 14; // allow for channel or pin numbers
    61c4:	8e 30       	cpi	r24, 0x0E	; 14
    61c6:	08 f0       	brcs	.+2      	; 0x61ca <analogRead+0x6>
    61c8:	8e 50       	subi	r24, 0x0E	; 14
  
	// set the analog reference (high two bits of ADMUX) and select the
	// channel (low 4 bits).  this also sets ADLAR (left-adjust result)
	// to 0 (the default).
#if defined(ADMUX)
	ADMUX = (analog_reference << 6) | (pin & 0x07);
    61ca:	87 70       	andi	r24, 0x07	; 7
    61cc:	20 91 14 01 	lds	r18, 0x0114	; 0x800114 <analog_reference>
    61d0:	90 e4       	ldi	r25, 0x40	; 64
    61d2:	29 9f       	mul	r18, r25
    61d4:	90 01       	movw	r18, r0
    61d6:	11 24       	eor	r1, r1
    61d8:	82 2b       	or	r24, r18
    61da:	80 93 7c 00 	sts	0x007C, r24	; 0x80007c <__TEXT_REGION_LENGTH__+0x7e007c>
	// without a delay, we seem to read from the wrong channel
	//delay(1);

#if defined(ADCSRA) && defined(ADCL)
	// start the conversion
	sbi(ADCSRA, ADSC);
    61de:	80 91 7a 00 	lds	r24, 0x007A	; 0x80007a <__TEXT_REGION_LENGTH__+0x7e007a>
    61e2:	80 64       	ori	r24, 0x40	; 64
    61e4:	80 93 7a 00 	sts	0x007A, r24	; 0x80007a <__TEXT_REGION_LENGTH__+0x7e007a>

	// ADSC is cleared when the conversion finishes
	while (bit_is_set(ADCSRA, ADSC));
    61e8:	80 91 7a 00 	lds	r24, 0x007A	; 0x80007a <__TEXT_REGION_LENGTH__+0x7e007a>
    61ec:	86 fd       	sbrc	r24, 6
    61ee:	fc cf       	rjmp	.-8      	; 0x61e8 <analogRead+0x24>

	// we have to read ADCL first; doing so locks both ADCL
	// and ADCH until ADCH is read.  reading ADCL second would
	// cause the results of each conversion to be discarded,
	// as ADCL and ADCH would be locked when it completed.
	low  = ADCL;
    61f0:	80 91 78 00 	lds	r24, 0x0078	; 0x800078 <__TEXT_REGION_LENGTH__+0x7e0078>
	high = ADCH;
    61f4:	20 91 79 00 	lds	r18, 0x0079	; 0x800079 <__TEXT_REGION_LENGTH__+0x7e0079>
	low  = 0;
	high = 0;
#endif

	// combine the two bytes
	return (high << 8) | low;
    61f8:	90 e0       	ldi	r25, 0x00	; 0
}
    61fa:	92 2b       	or	r25, r18
    61fc:	08 95       	ret

000061fe <turnOffPWM>:
//
//static inline void turnOffPWM(uint8_t timer) __attribute__ ((always_inline));
//static inline void turnOffPWM(uint8_t timer)
static void turnOffPWM(uint8_t timer)
{
	switch (timer)
    61fe:	83 30       	cpi	r24, 0x03	; 3
    6200:	81 f0       	breq	.+32     	; 0x6222 <turnOffPWM+0x24>
    6202:	28 f4       	brcc	.+10     	; 0x620e <turnOffPWM+0x10>
    6204:	81 30       	cpi	r24, 0x01	; 1
    6206:	99 f0       	breq	.+38     	; 0x622e <turnOffPWM+0x30>
    6208:	82 30       	cpi	r24, 0x02	; 2
    620a:	a1 f0       	breq	.+40     	; 0x6234 <turnOffPWM+0x36>
    620c:	08 95       	ret
    620e:	87 30       	cpi	r24, 0x07	; 7
    6210:	a9 f0       	breq	.+42     	; 0x623c <turnOffPWM+0x3e>
    6212:	88 30       	cpi	r24, 0x08	; 8
    6214:	b9 f0       	breq	.+46     	; 0x6244 <turnOffPWM+0x46>
    6216:	84 30       	cpi	r24, 0x04	; 4
    6218:	d1 f4       	brne	.+52     	; 0x624e <turnOffPWM+0x50>
	{
		#if defined(TCCR1A) && defined(COM1A1)
		case TIMER1A:   cbi(TCCR1A, COM1A1);    break;
		#endif
		#if defined(TCCR1A) && defined(COM1B1)
		case TIMER1B:   cbi(TCCR1A, COM1B1);    break;
    621a:	80 91 80 00 	lds	r24, 0x0080	; 0x800080 <__TEXT_REGION_LENGTH__+0x7e0080>
    621e:	8f 7d       	andi	r24, 0xDF	; 223
    6220:	03 c0       	rjmp	.+6      	; 0x6228 <turnOffPWM+0x2a>
static void turnOffPWM(uint8_t timer)
{
	switch (timer)
	{
		#if defined(TCCR1A) && defined(COM1A1)
		case TIMER1A:   cbi(TCCR1A, COM1A1);    break;
    6222:	80 91 80 00 	lds	r24, 0x0080	; 0x800080 <__TEXT_REGION_LENGTH__+0x7e0080>
    6226:	8f 77       	andi	r24, 0x7F	; 127
		#endif
		#if defined(TCCR1A) && defined(COM1B1)
		case TIMER1B:   cbi(TCCR1A, COM1B1);    break;
    6228:	80 93 80 00 	sts	0x0080, r24	; 0x800080 <__TEXT_REGION_LENGTH__+0x7e0080>
    622c:	08 95       	ret
		#if defined(TCCR2) && defined(COM21)
		case  TIMER2:   cbi(TCCR2, COM21);      break;
		#endif
		
		#if defined(TCCR0A) && defined(COM0A1)
		case  TIMER0A:  cbi(TCCR0A, COM0A1);    break;
    622e:	84 b5       	in	r24, 0x24	; 36
    6230:	8f 77       	andi	r24, 0x7F	; 127
    6232:	02 c0       	rjmp	.+4      	; 0x6238 <turnOffPWM+0x3a>
		#endif
		
		#if defined(TCCR0A) && defined(COM0B1)
		case  TIMER0B:  cbi(TCCR0A, COM0B1);    break;
    6234:	84 b5       	in	r24, 0x24	; 36
    6236:	8f 7d       	andi	r24, 0xDF	; 223
    6238:	84 bd       	out	0x24, r24	; 36
    623a:	08 95       	ret
		#endif
		#if defined(TCCR2A) && defined(COM2A1)
		case  TIMER2A:  cbi(TCCR2A, COM2A1);    break;
    623c:	80 91 b0 00 	lds	r24, 0x00B0	; 0x8000b0 <__TEXT_REGION_LENGTH__+0x7e00b0>
    6240:	8f 77       	andi	r24, 0x7F	; 127
    6242:	03 c0       	rjmp	.+6      	; 0x624a <turnOffPWM+0x4c>
		#endif
		#if defined(TCCR2A) && defined(COM2B1)
		case  TIMER2B:  cbi(TCCR2A, COM2B1);    break;
    6244:	80 91 b0 00 	lds	r24, 0x00B0	; 0x8000b0 <__TEXT_REGION_LENGTH__+0x7e00b0>
    6248:	8f 7d       	andi	r24, 0xDF	; 223
    624a:	80 93 b0 00 	sts	0x00B0, r24	; 0x8000b0 <__TEXT_REGION_LENGTH__+0x7e00b0>
    624e:	08 95       	ret

00006250 <pinMode>:
#define ARDUINO_MAIN
#include "wiring_private.h"
#include "pins_arduino.h"

void pinMode(uint8_t pin, uint8_t mode)
{
    6250:	cf 93       	push	r28
    6252:	df 93       	push	r29
	uint8_t bit = digitalPinToBitMask(pin);
    6254:	90 e0       	ldi	r25, 0x00	; 0
    6256:	fc 01       	movw	r30, r24
    6258:	e6 58       	subi	r30, 0x86	; 134
    625a:	fb 4f       	sbci	r31, 0xFB	; 251
    625c:	24 91       	lpm	r18, Z
	uint8_t port = digitalPinToPort(pin);
    625e:	fc 01       	movw	r30, r24
    6260:	e2 57       	subi	r30, 0x72	; 114
    6262:	fb 4f       	sbci	r31, 0xFB	; 251
    6264:	84 91       	lpm	r24, Z
	volatile uint8_t *reg, *out;

	if (port == NOT_A_PIN) return;
    6266:	88 23       	and	r24, r24
    6268:	61 f1       	breq	.+88     	; 0x62c2 <pinMode+0x72>

	// JWS: can I let the optimizer do this?
	reg = portModeRegister(port);
    626a:	90 e0       	ldi	r25, 0x00	; 0
    626c:	88 0f       	add	r24, r24
    626e:	99 1f       	adc	r25, r25
    6270:	fc 01       	movw	r30, r24
    6272:	ea 54       	subi	r30, 0x4A	; 74
    6274:	fb 4f       	sbci	r31, 0xFB	; 251
    6276:	c5 91       	lpm	r28, Z+
    6278:	d4 91       	lpm	r29, Z
	out = portOutputRegister(port);
    627a:	fc 01       	movw	r30, r24
    627c:	e4 55       	subi	r30, 0x54	; 84
    627e:	fb 4f       	sbci	r31, 0xFB	; 251
    6280:	a5 91       	lpm	r26, Z+
    6282:	b4 91       	lpm	r27, Z

	if (mode == INPUT) { 
    6284:	61 11       	cpse	r22, r1
    6286:	09 c0       	rjmp	.+18     	; 0x629a <pinMode+0x4a>
		uint8_t oldSREG = SREG;
    6288:	9f b7       	in	r25, 0x3f	; 63
                cli();
    628a:	f8 94       	cli
		*reg &= ~bit;
    628c:	88 81       	ld	r24, Y
    628e:	20 95       	com	r18
    6290:	82 23       	and	r24, r18
    6292:	88 83       	st	Y, r24
		*out &= ~bit;
    6294:	ec 91       	ld	r30, X
    6296:	2e 23       	and	r18, r30
    6298:	0b c0       	rjmp	.+22     	; 0x62b0 <pinMode+0x60>
		SREG = oldSREG;
	} else if (mode == INPUT_PULLUP) {
    629a:	62 30       	cpi	r22, 0x02	; 2
    629c:	61 f4       	brne	.+24     	; 0x62b6 <pinMode+0x66>
		uint8_t oldSREG = SREG;
    629e:	9f b7       	in	r25, 0x3f	; 63
                cli();
    62a0:	f8 94       	cli
		*reg &= ~bit;
    62a2:	38 81       	ld	r19, Y
    62a4:	82 2f       	mov	r24, r18
    62a6:	80 95       	com	r24
    62a8:	83 23       	and	r24, r19
    62aa:	88 83       	st	Y, r24
		*out |= bit;
    62ac:	ec 91       	ld	r30, X
    62ae:	2e 2b       	or	r18, r30
    62b0:	2c 93       	st	X, r18
		SREG = oldSREG;
    62b2:	9f bf       	out	0x3f, r25	; 63
    62b4:	06 c0       	rjmp	.+12     	; 0x62c2 <pinMode+0x72>
	} else {
		uint8_t oldSREG = SREG;
    62b6:	8f b7       	in	r24, 0x3f	; 63
                cli();
    62b8:	f8 94       	cli
		*reg |= bit;
    62ba:	e8 81       	ld	r30, Y
    62bc:	2e 2b       	or	r18, r30
    62be:	28 83       	st	Y, r18
		SREG = oldSREG;
    62c0:	8f bf       	out	0x3f, r24	; 63
	}
}
    62c2:	df 91       	pop	r29
    62c4:	cf 91       	pop	r28
    62c6:	08 95       	ret

000062c8 <digitalWrite>:
		#endif
	}
}

void digitalWrite(uint8_t pin, uint8_t val)
{
    62c8:	1f 93       	push	r17
    62ca:	cf 93       	push	r28
    62cc:	df 93       	push	r29
	uint8_t timer = digitalPinToTimer(pin);
    62ce:	28 2f       	mov	r18, r24
    62d0:	30 e0       	ldi	r19, 0x00	; 0
    62d2:	f9 01       	movw	r30, r18
    62d4:	ea 59       	subi	r30, 0x9A	; 154
    62d6:	fb 4f       	sbci	r31, 0xFB	; 251
    62d8:	84 91       	lpm	r24, Z
	uint8_t bit = digitalPinToBitMask(pin);
    62da:	f9 01       	movw	r30, r18
    62dc:	e6 58       	subi	r30, 0x86	; 134
    62de:	fb 4f       	sbci	r31, 0xFB	; 251
    62e0:	d4 91       	lpm	r29, Z
	uint8_t port = digitalPinToPort(pin);
    62e2:	f9 01       	movw	r30, r18
    62e4:	e2 57       	subi	r30, 0x72	; 114
    62e6:	fb 4f       	sbci	r31, 0xFB	; 251
    62e8:	c4 91       	lpm	r28, Z
	volatile uint8_t *out;

	if (port == NOT_A_PIN) return;
    62ea:	cc 23       	and	r28, r28
    62ec:	c1 f0       	breq	.+48     	; 0x631e <digitalWrite+0x56>
    62ee:	16 2f       	mov	r17, r22

	// If the pin that support PWM output, we need to turn it off
	// before doing a digital write.
	if (timer != NOT_ON_TIMER) turnOffPWM(timer);
    62f0:	81 11       	cpse	r24, r1
    62f2:	85 df       	rcall	.-246    	; 0x61fe <turnOffPWM>

	out = portOutputRegister(port);
    62f4:	ec 2f       	mov	r30, r28
    62f6:	f0 e0       	ldi	r31, 0x00	; 0
    62f8:	ee 0f       	add	r30, r30
    62fa:	ff 1f       	adc	r31, r31
    62fc:	e4 55       	subi	r30, 0x54	; 84
    62fe:	fb 4f       	sbci	r31, 0xFB	; 251
    6300:	a5 91       	lpm	r26, Z+
    6302:	b4 91       	lpm	r27, Z

	uint8_t oldSREG = SREG;
    6304:	8f b7       	in	r24, 0x3f	; 63
	cli();
    6306:	f8 94       	cli

	if (val == LOW) {
    6308:	11 11       	cpse	r17, r1
    630a:	05 c0       	rjmp	.+10     	; 0x6316 <digitalWrite+0x4e>
		*out &= ~bit;
    630c:	9c 91       	ld	r25, X
    630e:	ed 2f       	mov	r30, r29
    6310:	e0 95       	com	r30
    6312:	e9 23       	and	r30, r25
    6314:	02 c0       	rjmp	.+4      	; 0x631a <digitalWrite+0x52>
	} else {
		*out |= bit;
    6316:	ec 91       	ld	r30, X
    6318:	ed 2b       	or	r30, r29
    631a:	ec 93       	st	X, r30
	}

	SREG = oldSREG;
    631c:	8f bf       	out	0x3f, r24	; 63
}
    631e:	df 91       	pop	r29
    6320:	cf 91       	pop	r28
    6322:	1f 91       	pop	r17
    6324:	08 95       	ret

00006326 <digitalRead>:

int digitalRead(uint8_t pin)
{
    6326:	cf 93       	push	r28
    6328:	df 93       	push	r29
	uint8_t timer = digitalPinToTimer(pin);
    632a:	28 2f       	mov	r18, r24
    632c:	30 e0       	ldi	r19, 0x00	; 0
    632e:	f9 01       	movw	r30, r18
    6330:	ea 59       	subi	r30, 0x9A	; 154
    6332:	fb 4f       	sbci	r31, 0xFB	; 251
    6334:	84 91       	lpm	r24, Z
	uint8_t bit = digitalPinToBitMask(pin);
    6336:	f9 01       	movw	r30, r18
    6338:	e6 58       	subi	r30, 0x86	; 134
    633a:	fb 4f       	sbci	r31, 0xFB	; 251
    633c:	d4 91       	lpm	r29, Z
	uint8_t port = digitalPinToPort(pin);
    633e:	f9 01       	movw	r30, r18
    6340:	e2 57       	subi	r30, 0x72	; 114
    6342:	fb 4f       	sbci	r31, 0xFB	; 251
    6344:	c4 91       	lpm	r28, Z

	if (port == NOT_A_PIN) return LOW;
    6346:	cc 23       	and	r28, r28
    6348:	89 f0       	breq	.+34     	; 0x636c <digitalRead+0x46>

	// If the pin that support PWM output, we need to turn it off
	// before getting a digital reading.
	if (timer != NOT_ON_TIMER) turnOffPWM(timer);
    634a:	81 11       	cpse	r24, r1
    634c:	58 df       	rcall	.-336    	; 0x61fe <turnOffPWM>

	if (*portInputRegister(port) & bit) return HIGH;
    634e:	ec 2f       	mov	r30, r28
    6350:	f0 e0       	ldi	r31, 0x00	; 0
    6352:	ee 0f       	add	r30, r30
    6354:	ff 1f       	adc	r31, r31
    6356:	ee 55       	subi	r30, 0x5E	; 94
    6358:	fb 4f       	sbci	r31, 0xFB	; 251
    635a:	a5 91       	lpm	r26, Z+
    635c:	b4 91       	lpm	r27, Z
    635e:	ec 91       	ld	r30, X
    6360:	ed 23       	and	r30, r29
    6362:	81 e0       	ldi	r24, 0x01	; 1
    6364:	90 e0       	ldi	r25, 0x00	; 0
    6366:	21 f4       	brne	.+8      	; 0x6370 <digitalRead+0x4a>
    6368:	80 e0       	ldi	r24, 0x00	; 0
    636a:	02 c0       	rjmp	.+4      	; 0x6370 <digitalRead+0x4a>
{
	uint8_t timer = digitalPinToTimer(pin);
	uint8_t bit = digitalPinToBitMask(pin);
	uint8_t port = digitalPinToPort(pin);

	if (port == NOT_A_PIN) return LOW;
    636c:	80 e0       	ldi	r24, 0x00	; 0
    636e:	90 e0       	ldi	r25, 0x00	; 0
	// before getting a digital reading.
	if (timer != NOT_ON_TIMER) turnOffPWM(timer);

	if (*portInputRegister(port) & bit) return HIGH;
	return LOW;
}
    6370:	df 91       	pop	r29
    6372:	cf 91       	pop	r28
    6374:	08 95       	ret

00006376 <_ZN6StringD1Ev>:
{
	if (!buffer) return;
	for (char *p = buffer; *p; p++) {
		*p = toupper(*p);
	}
}
    6376:	fc 01       	movw	r30, r24
    6378:	80 81       	ld	r24, Z
    637a:	91 81       	ldd	r25, Z+1	; 0x01
    637c:	29 c4       	rjmp	.+2130   	; 0x6bd0 <free>

0000637e <_ZN6String10invalidateEv>:
    637e:	cf 93       	push	r28
    6380:	df 93       	push	r29
    6382:	ec 01       	movw	r28, r24
    6384:	88 81       	ld	r24, Y
    6386:	99 81       	ldd	r25, Y+1	; 0x01
    6388:	00 97       	sbiw	r24, 0x00	; 0
    638a:	09 f0       	breq	.+2      	; 0x638e <_ZN6String10invalidateEv+0x10>
    638c:	21 d4       	rcall	.+2114   	; 0x6bd0 <free>
    638e:	19 82       	std	Y+1, r1	; 0x01
    6390:	18 82       	st	Y, r1
    6392:	1d 82       	std	Y+5, r1	; 0x05
    6394:	1c 82       	std	Y+4, r1	; 0x04
    6396:	1b 82       	std	Y+3, r1	; 0x03
    6398:	1a 82       	std	Y+2, r1	; 0x02
    639a:	df 91       	pop	r29
    639c:	cf 91       	pop	r28
    639e:	08 95       	ret

000063a0 <_ZN6String12changeBufferEj>:
    63a0:	0f 93       	push	r16
    63a2:	1f 93       	push	r17
    63a4:	cf 93       	push	r28
    63a6:	df 93       	push	r29
    63a8:	ec 01       	movw	r28, r24
    63aa:	8b 01       	movw	r16, r22
    63ac:	6f 5f       	subi	r22, 0xFF	; 255
    63ae:	7f 4f       	sbci	r23, 0xFF	; 255
    63b0:	88 81       	ld	r24, Y
    63b2:	99 81       	ldd	r25, Y+1	; 0x01
    63b4:	a5 d4       	rcall	.+2378   	; 0x6d00 <realloc>
    63b6:	00 97       	sbiw	r24, 0x00	; 0
    63b8:	31 f0       	breq	.+12     	; 0x63c6 <_ZN6String12changeBufferEj+0x26>
    63ba:	99 83       	std	Y+1, r25	; 0x01
    63bc:	88 83       	st	Y, r24
    63be:	1b 83       	std	Y+3, r17	; 0x03
    63c0:	0a 83       	std	Y+2, r16	; 0x02
    63c2:	81 e0       	ldi	r24, 0x01	; 1
    63c4:	01 c0       	rjmp	.+2      	; 0x63c8 <_ZN6String12changeBufferEj+0x28>
    63c6:	80 e0       	ldi	r24, 0x00	; 0
    63c8:	df 91       	pop	r29
    63ca:	cf 91       	pop	r28
    63cc:	1f 91       	pop	r17
    63ce:	0f 91       	pop	r16
    63d0:	08 95       	ret

000063d2 <_ZN6String7reserveEj>:
    63d2:	cf 93       	push	r28
    63d4:	df 93       	push	r29
    63d6:	ec 01       	movw	r28, r24
    63d8:	88 81       	ld	r24, Y
    63da:	99 81       	ldd	r25, Y+1	; 0x01
    63dc:	89 2b       	or	r24, r25
    63de:	29 f0       	breq	.+10     	; 0x63ea <_ZN6String7reserveEj+0x18>
    63e0:	8a 81       	ldd	r24, Y+2	; 0x02
    63e2:	9b 81       	ldd	r25, Y+3	; 0x03
    63e4:	86 17       	cp	r24, r22
    63e6:	97 07       	cpc	r25, r23
    63e8:	58 f4       	brcc	.+22     	; 0x6400 <_ZN6String7reserveEj+0x2e>
    63ea:	ce 01       	movw	r24, r28
    63ec:	d9 df       	rcall	.-78     	; 0x63a0 <_ZN6String12changeBufferEj>
    63ee:	88 23       	and	r24, r24
    63f0:	41 f0       	breq	.+16     	; 0x6402 <_ZN6String7reserveEj+0x30>
    63f2:	8c 81       	ldd	r24, Y+4	; 0x04
    63f4:	9d 81       	ldd	r25, Y+5	; 0x05
    63f6:	89 2b       	or	r24, r25
    63f8:	19 f4       	brne	.+6      	; 0x6400 <_ZN6String7reserveEj+0x2e>
    63fa:	e8 81       	ld	r30, Y
    63fc:	f9 81       	ldd	r31, Y+1	; 0x01
    63fe:	10 82       	st	Z, r1
    6400:	81 e0       	ldi	r24, 0x01	; 1
    6402:	df 91       	pop	r29
    6404:	cf 91       	pop	r28
    6406:	08 95       	ret

00006408 <_ZN6String4copyEPKcj>:
    6408:	ef 92       	push	r14
    640a:	ff 92       	push	r15
    640c:	0f 93       	push	r16
    640e:	1f 93       	push	r17
    6410:	cf 93       	push	r28
    6412:	df 93       	push	r29
    6414:	ec 01       	movw	r28, r24
    6416:	7b 01       	movw	r14, r22
    6418:	8a 01       	movw	r16, r20
    641a:	ba 01       	movw	r22, r20
    641c:	da df       	rcall	.-76     	; 0x63d2 <_ZN6String7reserveEj>
    641e:	81 11       	cpse	r24, r1
    6420:	03 c0       	rjmp	.+6      	; 0x6428 <_ZN6String4copyEPKcj+0x20>
    6422:	ce 01       	movw	r24, r28
    6424:	ac df       	rcall	.-168    	; 0x637e <_ZN6String10invalidateEv>
    6426:	06 c0       	rjmp	.+12     	; 0x6434 <_ZN6String4copyEPKcj+0x2c>
    6428:	1d 83       	std	Y+5, r17	; 0x05
    642a:	0c 83       	std	Y+4, r16	; 0x04
    642c:	b7 01       	movw	r22, r14
    642e:	88 81       	ld	r24, Y
    6430:	99 81       	ldd	r25, Y+1	; 0x01
    6432:	de d6       	rcall	.+3516   	; 0x71f0 <strcpy>
    6434:	ce 01       	movw	r24, r28
    6436:	df 91       	pop	r29
    6438:	cf 91       	pop	r28
    643a:	1f 91       	pop	r17
    643c:	0f 91       	pop	r16
    643e:	ff 90       	pop	r15
    6440:	ef 90       	pop	r14
    6442:	08 95       	ret

00006444 <_ZN6StringC1EPKc>:
    6444:	fc 01       	movw	r30, r24
    6446:	11 82       	std	Z+1, r1	; 0x01
    6448:	10 82       	st	Z, r1
    644a:	13 82       	std	Z+3, r1	; 0x03
    644c:	12 82       	std	Z+2, r1	; 0x02
    644e:	15 82       	std	Z+5, r1	; 0x05
    6450:	14 82       	std	Z+4, r1	; 0x04
    6452:	61 15       	cp	r22, r1
    6454:	71 05       	cpc	r23, r1
    6456:	49 f0       	breq	.+18     	; 0x646a <_ZN6StringC1EPKc+0x26>
    6458:	fb 01       	movw	r30, r22
    645a:	01 90       	ld	r0, Z+
    645c:	00 20       	and	r0, r0
    645e:	e9 f7       	brne	.-6      	; 0x645a <_ZN6StringC1EPKc+0x16>
    6460:	31 97       	sbiw	r30, 0x01	; 1
    6462:	af 01       	movw	r20, r30
    6464:	46 1b       	sub	r20, r22
    6466:	57 0b       	sbc	r21, r23
    6468:	cf cf       	rjmp	.-98     	; 0x6408 <_ZN6String4copyEPKcj>
    646a:	08 95       	ret

0000646c <_ZN6StringaSERKS_>:
    646c:	cf 93       	push	r28
    646e:	df 93       	push	r29
    6470:	ec 01       	movw	r28, r24
    6472:	fb 01       	movw	r30, r22
    6474:	86 17       	cp	r24, r22
    6476:	97 07       	cpc	r25, r23
    6478:	51 f0       	breq	.+20     	; 0x648e <_ZN6StringaSERKS_+0x22>
    647a:	60 81       	ld	r22, Z
    647c:	71 81       	ldd	r23, Z+1	; 0x01
    647e:	61 15       	cp	r22, r1
    6480:	71 05       	cpc	r23, r1
    6482:	21 f0       	breq	.+8      	; 0x648c <_ZN6StringaSERKS_+0x20>
    6484:	44 81       	ldd	r20, Z+4	; 0x04
    6486:	55 81       	ldd	r21, Z+5	; 0x05
    6488:	bf df       	rcall	.-130    	; 0x6408 <_ZN6String4copyEPKcj>
    648a:	01 c0       	rjmp	.+2      	; 0x648e <_ZN6StringaSERKS_+0x22>
    648c:	78 df       	rcall	.-272    	; 0x637e <_ZN6String10invalidateEv>
    648e:	ce 01       	movw	r24, r28
    6490:	df 91       	pop	r29
    6492:	cf 91       	pop	r28
    6494:	08 95       	ret

00006496 <_ZN6StringC1ERKS_>:
    6496:	fc 01       	movw	r30, r24
    6498:	11 82       	std	Z+1, r1	; 0x01
    649a:	10 82       	st	Z, r1
    649c:	13 82       	std	Z+3, r1	; 0x03
    649e:	12 82       	std	Z+2, r1	; 0x02
    64a0:	15 82       	std	Z+5, r1	; 0x05
    64a2:	14 82       	std	Z+4, r1	; 0x04
    64a4:	e3 cf       	rjmp	.-58     	; 0x646c <_ZN6StringaSERKS_>

000064a6 <_ZN6StringaSEPKc>:
    64a6:	cf 93       	push	r28
    64a8:	df 93       	push	r29
    64aa:	ec 01       	movw	r28, r24
    64ac:	61 15       	cp	r22, r1
    64ae:	71 05       	cpc	r23, r1
    64b0:	51 f0       	breq	.+20     	; 0x64c6 <_ZN6StringaSEPKc+0x20>
    64b2:	fb 01       	movw	r30, r22
    64b4:	01 90       	ld	r0, Z+
    64b6:	00 20       	and	r0, r0
    64b8:	e9 f7       	brne	.-6      	; 0x64b4 <_ZN6StringaSEPKc+0xe>
    64ba:	31 97       	sbiw	r30, 0x01	; 1
    64bc:	af 01       	movw	r20, r30
    64be:	46 1b       	sub	r20, r22
    64c0:	57 0b       	sbc	r21, r23
    64c2:	a2 df       	rcall	.-188    	; 0x6408 <_ZN6String4copyEPKcj>
    64c4:	01 c0       	rjmp	.+2      	; 0x64c8 <_ZN6StringaSEPKc+0x22>
    64c6:	5b df       	rcall	.-330    	; 0x637e <_ZN6String10invalidateEv>
    64c8:	ce 01       	movw	r24, r28
    64ca:	df 91       	pop	r29
    64cc:	cf 91       	pop	r28
    64ce:	08 95       	ret

000064d0 <_ZN6StringC1Eih>:
    64d0:	0f 93       	push	r16
    64d2:	1f 93       	push	r17
    64d4:	cf 93       	push	r28
    64d6:	df 93       	push	r29
    64d8:	cd b7       	in	r28, 0x3d	; 61
    64da:	de b7       	in	r29, 0x3e	; 62
    64dc:	62 97       	sbiw	r28, 0x12	; 18
    64de:	0f b6       	in	r0, 0x3f	; 63
    64e0:	f8 94       	cli
    64e2:	de bf       	out	0x3e, r29	; 62
    64e4:	0f be       	out	0x3f, r0	; 63
    64e6:	cd bf       	out	0x3d, r28	; 61
    64e8:	8c 01       	movw	r16, r24
    64ea:	cb 01       	movw	r24, r22
    64ec:	f8 01       	movw	r30, r16
    64ee:	11 82       	std	Z+1, r1	; 0x01
    64f0:	10 82       	st	Z, r1
    64f2:	13 82       	std	Z+3, r1	; 0x03
    64f4:	12 82       	std	Z+2, r1	; 0x02
    64f6:	15 82       	std	Z+5, r1	; 0x05
    64f8:	14 82       	std	Z+4, r1	; 0x04
    64fa:	50 e0       	ldi	r21, 0x00	; 0
    64fc:	be 01       	movw	r22, r28
    64fe:	6f 5f       	subi	r22, 0xFF	; 255
    6500:	7f 4f       	sbci	r23, 0xFF	; 255
    6502:	8b d6       	rcall	.+3350   	; 0x721a <itoa>
    6504:	be 01       	movw	r22, r28
    6506:	6f 5f       	subi	r22, 0xFF	; 255
    6508:	7f 4f       	sbci	r23, 0xFF	; 255
    650a:	c8 01       	movw	r24, r16
    650c:	cc df       	rcall	.-104    	; 0x64a6 <_ZN6StringaSEPKc>
    650e:	62 96       	adiw	r28, 0x12	; 18
    6510:	0f b6       	in	r0, 0x3f	; 63
    6512:	f8 94       	cli
    6514:	de bf       	out	0x3e, r29	; 62
    6516:	0f be       	out	0x3f, r0	; 63
    6518:	cd bf       	out	0x3d, r28	; 61
    651a:	df 91       	pop	r29
    651c:	cf 91       	pop	r28
    651e:	1f 91       	pop	r17
    6520:	0f 91       	pop	r16
    6522:	08 95       	ret

00006524 <_ZN6StringC1Elh>:
    6524:	0f 93       	push	r16
    6526:	1f 93       	push	r17
    6528:	cf 93       	push	r28
    652a:	df 93       	push	r29
    652c:	cd b7       	in	r28, 0x3d	; 61
    652e:	de b7       	in	r29, 0x3e	; 62
    6530:	a2 97       	sbiw	r28, 0x22	; 34
    6532:	0f b6       	in	r0, 0x3f	; 63
    6534:	f8 94       	cli
    6536:	de bf       	out	0x3e, r29	; 62
    6538:	0f be       	out	0x3f, r0	; 63
    653a:	cd bf       	out	0x3d, r28	; 61
    653c:	8c 01       	movw	r16, r24
    653e:	cb 01       	movw	r24, r22
    6540:	ba 01       	movw	r22, r20
    6542:	f8 01       	movw	r30, r16
    6544:	11 82       	std	Z+1, r1	; 0x01
    6546:	10 82       	st	Z, r1
    6548:	13 82       	std	Z+3, r1	; 0x03
    654a:	12 82       	std	Z+2, r1	; 0x02
    654c:	15 82       	std	Z+5, r1	; 0x05
    654e:	14 82       	std	Z+4, r1	; 0x04
    6550:	30 e0       	ldi	r19, 0x00	; 0
    6552:	ae 01       	movw	r20, r28
    6554:	4f 5f       	subi	r20, 0xFF	; 255
    6556:	5f 4f       	sbci	r21, 0xFF	; 255
    6558:	74 d6       	rcall	.+3304   	; 0x7242 <ltoa>
    655a:	be 01       	movw	r22, r28
    655c:	6f 5f       	subi	r22, 0xFF	; 255
    655e:	7f 4f       	sbci	r23, 0xFF	; 255
    6560:	c8 01       	movw	r24, r16
    6562:	a1 df       	rcall	.-190    	; 0x64a6 <_ZN6StringaSEPKc>
    6564:	a2 96       	adiw	r28, 0x22	; 34
    6566:	0f b6       	in	r0, 0x3f	; 63
    6568:	f8 94       	cli
    656a:	de bf       	out	0x3e, r29	; 62
    656c:	0f be       	out	0x3f, r0	; 63
    656e:	cd bf       	out	0x3d, r28	; 61
    6570:	df 91       	pop	r29
    6572:	cf 91       	pop	r28
    6574:	1f 91       	pop	r17
    6576:	0f 91       	pop	r16
    6578:	08 95       	ret

0000657a <_ZN6StringC1Efh>:
    657a:	ef 92       	push	r14
    657c:	ff 92       	push	r15
    657e:	0f 93       	push	r16
    6580:	1f 93       	push	r17
    6582:	cf 93       	push	r28
    6584:	df 93       	push	r29
    6586:	cd b7       	in	r28, 0x3d	; 61
    6588:	de b7       	in	r29, 0x3e	; 62
    658a:	a1 97       	sbiw	r28, 0x21	; 33
    658c:	0f b6       	in	r0, 0x3f	; 63
    658e:	f8 94       	cli
    6590:	de bf       	out	0x3e, r29	; 62
    6592:	0f be       	out	0x3f, r0	; 63
    6594:	cd bf       	out	0x3d, r28	; 61
    6596:	7c 01       	movw	r14, r24
    6598:	cb 01       	movw	r24, r22
    659a:	ba 01       	movw	r22, r20
    659c:	f7 01       	movw	r30, r14
    659e:	11 82       	std	Z+1, r1	; 0x01
    65a0:	10 82       	st	Z, r1
    65a2:	13 82       	std	Z+3, r1	; 0x03
    65a4:	12 82       	std	Z+2, r1	; 0x02
    65a6:	15 82       	std	Z+5, r1	; 0x05
    65a8:	14 82       	std	Z+4, r1	; 0x04
    65aa:	42 e0       	ldi	r20, 0x02	; 2
    65ac:	42 0f       	add	r20, r18
    65ae:	8e 01       	movw	r16, r28
    65b0:	0f 5f       	subi	r16, 0xFF	; 255
    65b2:	1f 4f       	sbci	r17, 0xFF	; 255
    65b4:	59 d2       	rcall	.+1202   	; 0x6a68 <dtostrf>
    65b6:	bc 01       	movw	r22, r24
    65b8:	c7 01       	movw	r24, r14
    65ba:	75 df       	rcall	.-278    	; 0x64a6 <_ZN6StringaSEPKc>
    65bc:	a1 96       	adiw	r28, 0x21	; 33
    65be:	0f b6       	in	r0, 0x3f	; 63
    65c0:	f8 94       	cli
    65c2:	de bf       	out	0x3e, r29	; 62
    65c4:	0f be       	out	0x3f, r0	; 63
    65c6:	cd bf       	out	0x3d, r28	; 61
    65c8:	df 91       	pop	r29
    65ca:	cf 91       	pop	r28
    65cc:	1f 91       	pop	r17
    65ce:	0f 91       	pop	r16
    65d0:	ff 90       	pop	r15
    65d2:	ef 90       	pop	r14
    65d4:	08 95       	ret

000065d6 <_ZN6StringC1Edh>:
    65d6:	ef 92       	push	r14
    65d8:	ff 92       	push	r15
    65da:	0f 93       	push	r16
    65dc:	1f 93       	push	r17
    65de:	cf 93       	push	r28
    65e0:	df 93       	push	r29
    65e2:	cd b7       	in	r28, 0x3d	; 61
    65e4:	de b7       	in	r29, 0x3e	; 62
    65e6:	a1 97       	sbiw	r28, 0x21	; 33
    65e8:	0f b6       	in	r0, 0x3f	; 63
    65ea:	f8 94       	cli
    65ec:	de bf       	out	0x3e, r29	; 62
    65ee:	0f be       	out	0x3f, r0	; 63
    65f0:	cd bf       	out	0x3d, r28	; 61
    65f2:	7c 01       	movw	r14, r24
    65f4:	cb 01       	movw	r24, r22
    65f6:	ba 01       	movw	r22, r20
    65f8:	f7 01       	movw	r30, r14
    65fa:	11 82       	std	Z+1, r1	; 0x01
    65fc:	10 82       	st	Z, r1
    65fe:	13 82       	std	Z+3, r1	; 0x03
    6600:	12 82       	std	Z+2, r1	; 0x02
    6602:	15 82       	std	Z+5, r1	; 0x05
    6604:	14 82       	std	Z+4, r1	; 0x04
    6606:	42 e0       	ldi	r20, 0x02	; 2
    6608:	42 0f       	add	r20, r18
    660a:	8e 01       	movw	r16, r28
    660c:	0f 5f       	subi	r16, 0xFF	; 255
    660e:	1f 4f       	sbci	r17, 0xFF	; 255
    6610:	2b d2       	rcall	.+1110   	; 0x6a68 <dtostrf>
    6612:	bc 01       	movw	r22, r24
    6614:	c7 01       	movw	r24, r14
    6616:	47 df       	rcall	.-370    	; 0x64a6 <_ZN6StringaSEPKc>
    6618:	a1 96       	adiw	r28, 0x21	; 33
    661a:	0f b6       	in	r0, 0x3f	; 63
    661c:	f8 94       	cli
    661e:	de bf       	out	0x3e, r29	; 62
    6620:	0f be       	out	0x3f, r0	; 63
    6622:	cd bf       	out	0x3d, r28	; 61
    6624:	df 91       	pop	r29
    6626:	cf 91       	pop	r28
    6628:	1f 91       	pop	r17
    662a:	0f 91       	pop	r16
    662c:	ff 90       	pop	r15
    662e:	ef 90       	pop	r14
    6630:	08 95       	ret

00006632 <_ZN6String6concatEPKcj>:
    6632:	ef 92       	push	r14
    6634:	ff 92       	push	r15
    6636:	0f 93       	push	r16
    6638:	1f 93       	push	r17
    663a:	cf 93       	push	r28
    663c:	df 93       	push	r29
    663e:	fc 01       	movw	r30, r24
    6640:	24 81       	ldd	r18, Z+4	; 0x04
    6642:	35 81       	ldd	r19, Z+5	; 0x05
    6644:	61 15       	cp	r22, r1
    6646:	71 05       	cpc	r23, r1
    6648:	11 f4       	brne	.+4      	; 0x664e <_ZN6String6concatEPKcj+0x1c>
    664a:	80 e0       	ldi	r24, 0x00	; 0
    664c:	17 c0       	rjmp	.+46     	; 0x667c <_ZN6String6concatEPKcj+0x4a>
    664e:	41 15       	cp	r20, r1
    6650:	51 05       	cpc	r21, r1
    6652:	99 f0       	breq	.+38     	; 0x667a <_ZN6String6concatEPKcj+0x48>
    6654:	7b 01       	movw	r14, r22
    6656:	ec 01       	movw	r28, r24
    6658:	8a 01       	movw	r16, r20
    665a:	02 0f       	add	r16, r18
    665c:	13 1f       	adc	r17, r19
    665e:	b8 01       	movw	r22, r16
    6660:	b8 de       	rcall	.-656    	; 0x63d2 <_ZN6String7reserveEj>
    6662:	88 23       	and	r24, r24
    6664:	91 f3       	breq	.-28     	; 0x664a <_ZN6String6concatEPKcj+0x18>
    6666:	28 81       	ld	r18, Y
    6668:	39 81       	ldd	r19, Y+1	; 0x01
    666a:	8c 81       	ldd	r24, Y+4	; 0x04
    666c:	9d 81       	ldd	r25, Y+5	; 0x05
    666e:	b7 01       	movw	r22, r14
    6670:	82 0f       	add	r24, r18
    6672:	93 1f       	adc	r25, r19
    6674:	bd d5       	rcall	.+2938   	; 0x71f0 <strcpy>
    6676:	1d 83       	std	Y+5, r17	; 0x05
    6678:	0c 83       	std	Y+4, r16	; 0x04
    667a:	81 e0       	ldi	r24, 0x01	; 1
    667c:	df 91       	pop	r29
    667e:	cf 91       	pop	r28
    6680:	1f 91       	pop	r17
    6682:	0f 91       	pop	r16
    6684:	ff 90       	pop	r15
    6686:	ef 90       	pop	r14
    6688:	08 95       	ret

0000668a <_ZN6String6concatEPKc>:
    668a:	61 15       	cp	r22, r1
    668c:	71 05       	cpc	r23, r1
    668e:	49 f0       	breq	.+18     	; 0x66a2 <_ZN6String6concatEPKc+0x18>
    6690:	fb 01       	movw	r30, r22
    6692:	01 90       	ld	r0, Z+
    6694:	00 20       	and	r0, r0
    6696:	e9 f7       	brne	.-6      	; 0x6692 <_ZN6String6concatEPKc+0x8>
    6698:	31 97       	sbiw	r30, 0x01	; 1
    669a:	af 01       	movw	r20, r30
    669c:	46 1b       	sub	r20, r22
    669e:	57 0b       	sbc	r21, r23
    66a0:	c8 cf       	rjmp	.-112    	; 0x6632 <_ZN6String6concatEPKcj>
    66a2:	80 e0       	ldi	r24, 0x00	; 0
    66a4:	08 95       	ret

000066a6 <_ZN6String6concatEc>:
    66a6:	cf 93       	push	r28
    66a8:	df 93       	push	r29
    66aa:	00 d0       	rcall	.+0      	; 0x66ac <_ZN6String6concatEc+0x6>
    66ac:	cd b7       	in	r28, 0x3d	; 61
    66ae:	de b7       	in	r29, 0x3e	; 62
    66b0:	69 83       	std	Y+1, r22	; 0x01
    66b2:	1a 82       	std	Y+2, r1	; 0x02
    66b4:	41 e0       	ldi	r20, 0x01	; 1
    66b6:	50 e0       	ldi	r21, 0x00	; 0
    66b8:	be 01       	movw	r22, r28
    66ba:	6f 5f       	subi	r22, 0xFF	; 255
    66bc:	7f 4f       	sbci	r23, 0xFF	; 255
    66be:	b9 df       	rcall	.-142    	; 0x6632 <_ZN6String6concatEPKcj>
    66c0:	0f 90       	pop	r0
    66c2:	0f 90       	pop	r0
    66c4:	df 91       	pop	r29
    66c6:	cf 91       	pop	r28
    66c8:	08 95       	ret

000066ca <_ZplRK15StringSumHelperRK6String>:
    66ca:	cf 93       	push	r28
    66cc:	df 93       	push	r29
    66ce:	ec 01       	movw	r28, r24
    66d0:	fb 01       	movw	r30, r22
    66d2:	44 81       	ldd	r20, Z+4	; 0x04
    66d4:	55 81       	ldd	r21, Z+5	; 0x05
    66d6:	60 81       	ld	r22, Z
    66d8:	71 81       	ldd	r23, Z+1	; 0x01
    66da:	ab df       	rcall	.-170    	; 0x6632 <_ZN6String6concatEPKcj>
    66dc:	81 11       	cpse	r24, r1
    66de:	02 c0       	rjmp	.+4      	; 0x66e4 <_ZplRK15StringSumHelperRK6String+0x1a>
    66e0:	ce 01       	movw	r24, r28
    66e2:	4d de       	rcall	.-870    	; 0x637e <_ZN6String10invalidateEv>
    66e4:	ce 01       	movw	r24, r28
    66e6:	df 91       	pop	r29
    66e8:	cf 91       	pop	r28
    66ea:	08 95       	ret

000066ec <_ZplRK15StringSumHelperPKc>:
    66ec:	cf 93       	push	r28
    66ee:	df 93       	push	r29
    66f0:	ec 01       	movw	r28, r24
    66f2:	61 15       	cp	r22, r1
    66f4:	71 05       	cpc	r23, r1
    66f6:	59 f0       	breq	.+22     	; 0x670e <_ZplRK15StringSumHelperPKc+0x22>
    66f8:	fb 01       	movw	r30, r22
    66fa:	01 90       	ld	r0, Z+
    66fc:	00 20       	and	r0, r0
    66fe:	e9 f7       	brne	.-6      	; 0x66fa <_ZplRK15StringSumHelperPKc+0xe>
    6700:	31 97       	sbiw	r30, 0x01	; 1
    6702:	af 01       	movw	r20, r30
    6704:	46 1b       	sub	r20, r22
    6706:	57 0b       	sbc	r21, r23
    6708:	94 df       	rcall	.-216    	; 0x6632 <_ZN6String6concatEPKcj>
    670a:	81 11       	cpse	r24, r1
    670c:	02 c0       	rjmp	.+4      	; 0x6712 <_ZplRK15StringSumHelperPKc+0x26>
    670e:	ce 01       	movw	r24, r28
    6710:	36 de       	rcall	.-916    	; 0x637e <_ZN6String10invalidateEv>
    6712:	ce 01       	movw	r24, r28
    6714:	df 91       	pop	r29
    6716:	cf 91       	pop	r28
    6718:	08 95       	ret

0000671a <_ZNK6String6equalsEPKc>:
    671a:	fc 01       	movw	r30, r24
    671c:	24 81       	ldd	r18, Z+4	; 0x04
    671e:	35 81       	ldd	r19, Z+5	; 0x05
    6720:	23 2b       	or	r18, r19
    6722:	31 f4       	brne	.+12     	; 0x6730 <_ZNK6String6equalsEPKc+0x16>
    6724:	21 e0       	ldi	r18, 0x01	; 1
    6726:	61 15       	cp	r22, r1
    6728:	71 05       	cpc	r23, r1
    672a:	99 f0       	breq	.+38     	; 0x6752 <_ZNK6String6equalsEPKc+0x38>
    672c:	fb 01       	movw	r30, r22
    672e:	08 c0       	rjmp	.+16     	; 0x6740 <_ZNK6String6equalsEPKc+0x26>
    6730:	fc 01       	movw	r30, r24
    6732:	80 81       	ld	r24, Z
    6734:	91 81       	ldd	r25, Z+1	; 0x01
    6736:	61 15       	cp	r22, r1
    6738:	71 05       	cpc	r23, r1
    673a:	31 f4       	brne	.+12     	; 0x6748 <_ZNK6String6equalsEPKc+0x2e>
    673c:	21 e0       	ldi	r18, 0x01	; 1
    673e:	fc 01       	movw	r30, r24
    6740:	80 81       	ld	r24, Z
    6742:	88 23       	and	r24, r24
    6744:	31 f0       	breq	.+12     	; 0x6752 <_ZNK6String6equalsEPKc+0x38>
    6746:	04 c0       	rjmp	.+8      	; 0x6750 <_ZNK6String6equalsEPKc+0x36>
    6748:	4a d5       	rcall	.+2708   	; 0x71de <strcmp>
    674a:	21 e0       	ldi	r18, 0x01	; 1
    674c:	89 2b       	or	r24, r25
    674e:	09 f0       	breq	.+2      	; 0x6752 <_ZNK6String6equalsEPKc+0x38>
    6750:	20 e0       	ldi	r18, 0x00	; 0
    6752:	82 2f       	mov	r24, r18
    6754:	08 95       	ret

00006756 <_ZNK6String10startsWithERKS_j>:
    6756:	db 01       	movw	r26, r22
    6758:	14 96       	adiw	r26, 0x04	; 4
    675a:	ed 91       	ld	r30, X+
    675c:	fc 91       	ld	r31, X
    675e:	15 97       	sbiw	r26, 0x05	; 5
    6760:	dc 01       	movw	r26, r24
    6762:	14 96       	adiw	r26, 0x04	; 4
    6764:	2d 91       	ld	r18, X+
    6766:	3c 91       	ld	r19, X
    6768:	15 97       	sbiw	r26, 0x05	; 5
    676a:	2e 1b       	sub	r18, r30
    676c:	3f 0b       	sbc	r19, r31
    676e:	24 17       	cp	r18, r20
    6770:	35 07       	cpc	r19, r21
    6772:	98 f0       	brcs	.+38     	; 0x679a <_ZNK6String10startsWithERKS_j+0x44>
    6774:	2d 91       	ld	r18, X+
    6776:	3c 91       	ld	r19, X
    6778:	21 15       	cp	r18, r1
    677a:	31 05       	cpc	r19, r1
    677c:	71 f0       	breq	.+28     	; 0x679a <_ZNK6String10startsWithERKS_j+0x44>
    677e:	db 01       	movw	r26, r22
    6780:	6d 91       	ld	r22, X+
    6782:	7c 91       	ld	r23, X
    6784:	61 15       	cp	r22, r1
    6786:	71 05       	cpc	r23, r1
    6788:	41 f0       	breq	.+16     	; 0x679a <_ZNK6String10startsWithERKS_j+0x44>
    678a:	ca 01       	movw	r24, r20
    678c:	af 01       	movw	r20, r30
    678e:	82 0f       	add	r24, r18
    6790:	93 1f       	adc	r25, r19
    6792:	35 d5       	rcall	.+2666   	; 0x71fe <strncmp>
    6794:	21 e0       	ldi	r18, 0x01	; 1
    6796:	89 2b       	or	r24, r25
    6798:	09 f0       	breq	.+2      	; 0x679c <_ZNK6String10startsWithERKS_j+0x46>
    679a:	20 e0       	ldi	r18, 0x00	; 0
    679c:	82 2f       	mov	r24, r18
    679e:	08 95       	ret

000067a0 <_ZNK6String10startsWithERKS_>:
    67a0:	fc 01       	movw	r30, r24
    67a2:	44 81       	ldd	r20, Z+4	; 0x04
    67a4:	55 81       	ldd	r21, Z+5	; 0x05
    67a6:	fb 01       	movw	r30, r22
    67a8:	24 81       	ldd	r18, Z+4	; 0x04
    67aa:	35 81       	ldd	r19, Z+5	; 0x05
    67ac:	42 17       	cp	r20, r18
    67ae:	53 07       	cpc	r21, r19
    67b0:	18 f0       	brcs	.+6      	; 0x67b8 <_ZNK6String10startsWithERKS_+0x18>
    67b2:	40 e0       	ldi	r20, 0x00	; 0
    67b4:	50 e0       	ldi	r21, 0x00	; 0
    67b6:	cf cf       	rjmp	.-98     	; 0x6756 <_ZNK6String10startsWithERKS_j>
    67b8:	80 e0       	ldi	r24, 0x00	; 0
    67ba:	08 95       	ret

000067bc <_ZNK6StringixEj>:
    67bc:	fc 01       	movw	r30, r24
    67be:	24 81       	ldd	r18, Z+4	; 0x04
    67c0:	35 81       	ldd	r19, Z+5	; 0x05
    67c2:	62 17       	cp	r22, r18
    67c4:	73 07       	cpc	r23, r19
    67c6:	48 f4       	brcc	.+18     	; 0x67da <_ZNK6StringixEj+0x1e>
    67c8:	80 81       	ld	r24, Z
    67ca:	91 81       	ldd	r25, Z+1	; 0x01
    67cc:	00 97       	sbiw	r24, 0x00	; 0
    67ce:	29 f0       	breq	.+10     	; 0x67da <_ZNK6StringixEj+0x1e>
    67d0:	fc 01       	movw	r30, r24
    67d2:	e6 0f       	add	r30, r22
    67d4:	f7 1f       	adc	r31, r23
    67d6:	80 81       	ld	r24, Z
    67d8:	08 95       	ret
    67da:	80 e0       	ldi	r24, 0x00	; 0
    67dc:	08 95       	ret

000067de <_ZNK6String6charAtEj>:
    67de:	ee cf       	rjmp	.-36     	; 0x67bc <_ZNK6StringixEj>

000067e0 <_ZNK6String9substringEjj>:
    67e0:	bf 92       	push	r11
    67e2:	cf 92       	push	r12
    67e4:	df 92       	push	r13
    67e6:	ef 92       	push	r14
    67e8:	ff 92       	push	r15
    67ea:	0f 93       	push	r16
    67ec:	1f 93       	push	r17
    67ee:	cf 93       	push	r28
    67f0:	df 93       	push	r29
    67f2:	7c 01       	movw	r14, r24
    67f4:	6b 01       	movw	r12, r22
    67f6:	8a 01       	movw	r16, r20
    67f8:	e9 01       	movw	r28, r18
    67fa:	24 17       	cp	r18, r20
    67fc:	35 07       	cpc	r19, r21
    67fe:	20 f4       	brcc	.+8      	; 0x6808 <_ZNK6String9substringEjj+0x28>
    6800:	81 2f       	mov	r24, r17
    6802:	89 01       	movw	r16, r18
    6804:	c4 2f       	mov	r28, r20
    6806:	d8 2f       	mov	r29, r24
    6808:	63 ec       	ldi	r22, 0xC3	; 195
    680a:	71 e0       	ldi	r23, 0x01	; 1
    680c:	c7 01       	movw	r24, r14
    680e:	1a de       	rcall	.-972    	; 0x6444 <_ZN6StringC1EPKc>
    6810:	d6 01       	movw	r26, r12
    6812:	14 96       	adiw	r26, 0x04	; 4
    6814:	8d 91       	ld	r24, X+
    6816:	9c 91       	ld	r25, X
    6818:	15 97       	sbiw	r26, 0x05	; 5
    681a:	08 17       	cp	r16, r24
    681c:	19 07       	cpc	r17, r25
    681e:	c8 f4       	brcc	.+50     	; 0x6852 <_ZNK6String9substringEjj+0x72>
    6820:	8c 17       	cp	r24, r28
    6822:	9d 07       	cpc	r25, r29
    6824:	08 f4       	brcc	.+2      	; 0x6828 <_ZNK6String9substringEjj+0x48>
    6826:	ec 01       	movw	r28, r24
    6828:	d6 01       	movw	r26, r12
    682a:	ed 91       	ld	r30, X+
    682c:	fc 91       	ld	r31, X
    682e:	11 97       	sbiw	r26, 0x01	; 1
    6830:	ec 0f       	add	r30, r28
    6832:	fd 1f       	adc	r31, r29
    6834:	b0 80       	ld	r11, Z
    6836:	10 82       	st	Z, r1
    6838:	4d 91       	ld	r20, X+
    683a:	5c 91       	ld	r21, X
    683c:	ba 01       	movw	r22, r20
    683e:	60 0f       	add	r22, r16
    6840:	71 1f       	adc	r23, r17
    6842:	c7 01       	movw	r24, r14
    6844:	30 de       	rcall	.-928    	; 0x64a6 <_ZN6StringaSEPKc>
    6846:	d6 01       	movw	r26, r12
    6848:	ed 91       	ld	r30, X+
    684a:	fc 91       	ld	r31, X
    684c:	ec 0f       	add	r30, r28
    684e:	fd 1f       	adc	r31, r29
    6850:	b0 82       	st	Z, r11
    6852:	c7 01       	movw	r24, r14
    6854:	df 91       	pop	r29
    6856:	cf 91       	pop	r28
    6858:	1f 91       	pop	r17
    685a:	0f 91       	pop	r16
    685c:	ff 90       	pop	r15
    685e:	ef 90       	pop	r14
    6860:	df 90       	pop	r13
    6862:	cf 90       	pop	r12
    6864:	bf 90       	pop	r11
    6866:	08 95       	ret

00006868 <_ZN6String4trimEv>:

void String::trim(void)
{
    6868:	af 92       	push	r10
    686a:	bf 92       	push	r11
    686c:	cf 92       	push	r12
    686e:	df 92       	push	r13
    6870:	ef 92       	push	r14
    6872:	ff 92       	push	r15
    6874:	0f 93       	push	r16
    6876:	1f 93       	push	r17
    6878:	cf 93       	push	r28
    687a:	df 93       	push	r29
	if (!buffer || len == 0) return;
    687c:	dc 01       	movw	r26, r24
    687e:	cd 90       	ld	r12, X+
    6880:	dc 90       	ld	r13, X
    6882:	11 97       	sbiw	r26, 0x01	; 1
    6884:	c1 14       	cp	r12, r1
    6886:	d1 04       	cpc	r13, r1
    6888:	d9 f1       	breq	.+118    	; 0x6900 <_ZN6String4trimEv+0x98>
    688a:	14 96       	adiw	r26, 0x04	; 4
    688c:	cd 91       	ld	r28, X+
    688e:	dc 91       	ld	r29, X
    6890:	15 97       	sbiw	r26, 0x05	; 5
    6892:	20 97       	sbiw	r28, 0x00	; 0
    6894:	a9 f1       	breq	.+106    	; 0x6900 <_ZN6String4trimEv+0x98>
    6896:	8c 01       	movw	r16, r24
    6898:	56 01       	movw	r10, r12
    689a:	75 01       	movw	r14, r10
    689c:	bf ef       	ldi	r27, 0xFF	; 255
    689e:	ab 1a       	sub	r10, r27
    68a0:	bb 0a       	sbc	r11, r27
	char *begin = buffer;
	while (isspace(*begin)) begin++;
    68a2:	f7 01       	movw	r30, r14
    68a4:	80 81       	ld	r24, Z
    68a6:	90 e0       	ldi	r25, 0x00	; 0
    68a8:	71 d4       	rcall	.+2274   	; 0x718c <isspace>
    68aa:	89 2b       	or	r24, r25
    68ac:	b1 f7       	brne	.-20     	; 0x689a <_ZN6String4trimEv+0x32>
	char *end = buffer + len - 1;
    68ae:	21 97       	sbiw	r28, 0x01	; 1
    68b0:	cc 0d       	add	r28, r12
    68b2:	dd 1d       	adc	r29, r13
	while (isspace(*end) && end >= begin) end--;
    68b4:	88 81       	ld	r24, Y
    68b6:	90 e0       	ldi	r25, 0x00	; 0
    68b8:	69 d4       	rcall	.+2258   	; 0x718c <isspace>
    68ba:	89 2b       	or	r24, r25
    68bc:	89 f4       	brne	.+34     	; 0x68e0 <_ZN6String4trimEv+0x78>
	len = end + 1 - begin;
    68be:	ae 01       	movw	r20, r28
    68c0:	4f 5f       	subi	r20, 0xFF	; 255
    68c2:	5f 4f       	sbci	r21, 0xFF	; 255
    68c4:	4e 19       	sub	r20, r14
    68c6:	5f 09       	sbc	r21, r15
    68c8:	d8 01       	movw	r26, r16
    68ca:	15 96       	adiw	r26, 0x05	; 5
    68cc:	5c 93       	st	X, r21
    68ce:	4e 93       	st	-X, r20
    68d0:	14 97       	sbiw	r26, 0x04	; 4
	if (begin > buffer) memcpy(buffer, begin, len);
    68d2:	ce 14       	cp	r12, r14
    68d4:	df 04       	cpc	r13, r15
    68d6:	48 f4       	brcc	.+18     	; 0x68ea <_ZN6String4trimEv+0x82>
    68d8:	b7 01       	movw	r22, r14
    68da:	c6 01       	movw	r24, r12
    68dc:	77 d4       	rcall	.+2286   	; 0x71cc <memcpy>
    68de:	05 c0       	rjmp	.+10     	; 0x68ea <_ZN6String4trimEv+0x82>
{
	if (!buffer || len == 0) return;
	char *begin = buffer;
	while (isspace(*begin)) begin++;
	char *end = buffer + len - 1;
	while (isspace(*end) && end >= begin) end--;
    68e0:	ce 15       	cp	r28, r14
    68e2:	df 05       	cpc	r29, r15
    68e4:	60 f3       	brcs	.-40     	; 0x68be <_ZN6String4trimEv+0x56>
    68e6:	21 97       	sbiw	r28, 0x01	; 1
    68e8:	e5 cf       	rjmp	.-54     	; 0x68b4 <_ZN6String4trimEv+0x4c>
	len = end + 1 - begin;
	if (begin > buffer) memcpy(buffer, begin, len);
	buffer[len] = 0;
    68ea:	d8 01       	movw	r26, r16
    68ec:	ed 91       	ld	r30, X+
    68ee:	fc 91       	ld	r31, X
    68f0:	11 97       	sbiw	r26, 0x01	; 1
    68f2:	14 96       	adiw	r26, 0x04	; 4
    68f4:	8d 91       	ld	r24, X+
    68f6:	9c 91       	ld	r25, X
    68f8:	15 97       	sbiw	r26, 0x05	; 5
    68fa:	e8 0f       	add	r30, r24
    68fc:	f9 1f       	adc	r31, r25
    68fe:	10 82       	st	Z, r1
}
    6900:	df 91       	pop	r29
    6902:	cf 91       	pop	r28
    6904:	1f 91       	pop	r17
    6906:	0f 91       	pop	r16
    6908:	ff 90       	pop	r15
    690a:	ef 90       	pop	r14
    690c:	df 90       	pop	r13
    690e:	cf 90       	pop	r12
    6910:	bf 90       	pop	r11
    6912:	af 90       	pop	r10
    6914:	08 95       	ret

00006916 <_ZNK6String5toIntEv>:
/*  Parsing / Conversion                     */
/*********************************************/

long String::toInt(void) const
{
	if (buffer) return atol(buffer);
    6916:	fc 01       	movw	r30, r24
    6918:	80 81       	ld	r24, Z
    691a:	91 81       	ldd	r25, Z+1	; 0x01
    691c:	00 97       	sbiw	r24, 0x00	; 0
    691e:	09 f0       	breq	.+2      	; 0x6922 <_ZNK6String5toIntEv+0xc>
    6920:	0f c4       	rjmp	.+2078   	; 0x7140 <atol>
	return 0;
}
    6922:	60 e0       	ldi	r22, 0x00	; 0
    6924:	70 e0       	ldi	r23, 0x00	; 0
    6926:	cb 01       	movw	r24, r22
    6928:	08 95       	ret

0000692a <_ZNK6String7toFloatEv>:

float String::toFloat(void) const
{
	if (buffer) return float(atof(buffer));
    692a:	fc 01       	movw	r30, r24
    692c:	80 81       	ld	r24, Z
    692e:	91 81       	ldd	r25, Z+1	; 0x01
    6930:	00 97       	sbiw	r24, 0x00	; 0
    6932:	09 f0       	breq	.+2      	; 0x6936 <_ZNK6String7toFloatEv+0xc>
    6934:	02 c4       	rjmp	.+2052   	; 0x713a <atof>
	return 0;
}
    6936:	60 e0       	ldi	r22, 0x00	; 0
    6938:	70 e0       	ldi	r23, 0x00	; 0
    693a:	cb 01       	movw	r24, r22
    693c:	08 95       	ret

0000693e <yield>:
 * libraries or sketches that supports cooperative threads.
 *
 * Its defined as a weak symbol and it can be redefined to implement a
 * real cooperative scheduler.
 */
static void __empty() {
    693e:	08 95       	ret

00006940 <__udivmodsi4>:
    6940:	a1 e2       	ldi	r26, 0x21	; 33
    6942:	1a 2e       	mov	r1, r26
    6944:	aa 1b       	sub	r26, r26
    6946:	bb 1b       	sub	r27, r27
    6948:	fd 01       	movw	r30, r26
    694a:	0d c0       	rjmp	.+26     	; 0x6966 <__udivmodsi4_ep>

0000694c <__udivmodsi4_loop>:
    694c:	aa 1f       	adc	r26, r26
    694e:	bb 1f       	adc	r27, r27
    6950:	ee 1f       	adc	r30, r30
    6952:	ff 1f       	adc	r31, r31
    6954:	a2 17       	cp	r26, r18
    6956:	b3 07       	cpc	r27, r19
    6958:	e4 07       	cpc	r30, r20
    695a:	f5 07       	cpc	r31, r21
    695c:	20 f0       	brcs	.+8      	; 0x6966 <__udivmodsi4_ep>
    695e:	a2 1b       	sub	r26, r18
    6960:	b3 0b       	sbc	r27, r19
    6962:	e4 0b       	sbc	r30, r20
    6964:	f5 0b       	sbc	r31, r21

00006966 <__udivmodsi4_ep>:
    6966:	66 1f       	adc	r22, r22
    6968:	77 1f       	adc	r23, r23
    696a:	88 1f       	adc	r24, r24
    696c:	99 1f       	adc	r25, r25
    696e:	1a 94       	dec	r1
    6970:	69 f7       	brne	.-38     	; 0x694c <__udivmodsi4_loop>
    6972:	60 95       	com	r22
    6974:	70 95       	com	r23
    6976:	80 95       	com	r24
    6978:	90 95       	com	r25
    697a:	9b 01       	movw	r18, r22
    697c:	ac 01       	movw	r20, r24
    697e:	bd 01       	movw	r22, r26
    6980:	cf 01       	movw	r24, r30
    6982:	08 95       	ret

00006984 <__divmodsi4>:
    6984:	05 2e       	mov	r0, r21
    6986:	97 fb       	bst	r25, 7
    6988:	16 f4       	brtc	.+4      	; 0x698e <__divmodsi4+0xa>
    698a:	00 94       	com	r0
    698c:	0f d0       	rcall	.+30     	; 0x69ac <__negsi2>
    698e:	57 fd       	sbrc	r21, 7
    6990:	05 d0       	rcall	.+10     	; 0x699c <__divmodsi4_neg2>
    6992:	d6 df       	rcall	.-84     	; 0x6940 <__udivmodsi4>
    6994:	07 fc       	sbrc	r0, 7
    6996:	02 d0       	rcall	.+4      	; 0x699c <__divmodsi4_neg2>
    6998:	46 f4       	brtc	.+16     	; 0x69aa <__divmodsi4_exit>
    699a:	08 c0       	rjmp	.+16     	; 0x69ac <__negsi2>

0000699c <__divmodsi4_neg2>:
    699c:	50 95       	com	r21
    699e:	40 95       	com	r20
    69a0:	30 95       	com	r19
    69a2:	21 95       	neg	r18
    69a4:	3f 4f       	sbci	r19, 0xFF	; 255
    69a6:	4f 4f       	sbci	r20, 0xFF	; 255
    69a8:	5f 4f       	sbci	r21, 0xFF	; 255

000069aa <__divmodsi4_exit>:
    69aa:	08 95       	ret

000069ac <__negsi2>:
    69ac:	90 95       	com	r25
    69ae:	80 95       	com	r24
    69b0:	70 95       	com	r23
    69b2:	61 95       	neg	r22
    69b4:	7f 4f       	sbci	r23, 0xFF	; 255
    69b6:	8f 4f       	sbci	r24, 0xFF	; 255
    69b8:	9f 4f       	sbci	r25, 0xFF	; 255
    69ba:	08 95       	ret

000069bc <__tablejump2__>:
    69bc:	ee 0f       	add	r30, r30
    69be:	ff 1f       	adc	r31, r31
    69c0:	05 90       	lpm	r0, Z+
    69c2:	f4 91       	lpm	r31, Z
    69c4:	e0 2d       	mov	r30, r0
    69c6:	09 94       	ijmp

000069c8 <__muluhisi3>:
    69c8:	40 d0       	rcall	.+128    	; 0x6a4a <__umulhisi3>
    69ca:	a5 9f       	mul	r26, r21
    69cc:	90 0d       	add	r25, r0
    69ce:	b4 9f       	mul	r27, r20
    69d0:	90 0d       	add	r25, r0
    69d2:	a4 9f       	mul	r26, r20
    69d4:	80 0d       	add	r24, r0
    69d6:	91 1d       	adc	r25, r1
    69d8:	11 24       	eor	r1, r1
    69da:	08 95       	ret

000069dc <__prologue_saves__>:
    69dc:	2f 92       	push	r2
    69de:	3f 92       	push	r3
    69e0:	4f 92       	push	r4
    69e2:	5f 92       	push	r5
    69e4:	6f 92       	push	r6
    69e6:	7f 92       	push	r7
    69e8:	8f 92       	push	r8
    69ea:	9f 92       	push	r9
    69ec:	af 92       	push	r10
    69ee:	bf 92       	push	r11
    69f0:	cf 92       	push	r12
    69f2:	df 92       	push	r13
    69f4:	ef 92       	push	r14
    69f6:	ff 92       	push	r15
    69f8:	0f 93       	push	r16
    69fa:	1f 93       	push	r17
    69fc:	cf 93       	push	r28
    69fe:	df 93       	push	r29
    6a00:	cd b7       	in	r28, 0x3d	; 61
    6a02:	de b7       	in	r29, 0x3e	; 62
    6a04:	ca 1b       	sub	r28, r26
    6a06:	db 0b       	sbc	r29, r27
    6a08:	0f b6       	in	r0, 0x3f	; 63
    6a0a:	f8 94       	cli
    6a0c:	de bf       	out	0x3e, r29	; 62
    6a0e:	0f be       	out	0x3f, r0	; 63
    6a10:	cd bf       	out	0x3d, r28	; 61
    6a12:	09 94       	ijmp

00006a14 <__epilogue_restores__>:
    6a14:	2a 88       	ldd	r2, Y+18	; 0x12
    6a16:	39 88       	ldd	r3, Y+17	; 0x11
    6a18:	48 88       	ldd	r4, Y+16	; 0x10
    6a1a:	5f 84       	ldd	r5, Y+15	; 0x0f
    6a1c:	6e 84       	ldd	r6, Y+14	; 0x0e
    6a1e:	7d 84       	ldd	r7, Y+13	; 0x0d
    6a20:	8c 84       	ldd	r8, Y+12	; 0x0c
    6a22:	9b 84       	ldd	r9, Y+11	; 0x0b
    6a24:	aa 84       	ldd	r10, Y+10	; 0x0a
    6a26:	b9 84       	ldd	r11, Y+9	; 0x09
    6a28:	c8 84       	ldd	r12, Y+8	; 0x08
    6a2a:	df 80       	ldd	r13, Y+7	; 0x07
    6a2c:	ee 80       	ldd	r14, Y+6	; 0x06
    6a2e:	fd 80       	ldd	r15, Y+5	; 0x05
    6a30:	0c 81       	ldd	r16, Y+4	; 0x04
    6a32:	1b 81       	ldd	r17, Y+3	; 0x03
    6a34:	aa 81       	ldd	r26, Y+2	; 0x02
    6a36:	b9 81       	ldd	r27, Y+1	; 0x01
    6a38:	ce 0f       	add	r28, r30
    6a3a:	d1 1d       	adc	r29, r1
    6a3c:	0f b6       	in	r0, 0x3f	; 63
    6a3e:	f8 94       	cli
    6a40:	de bf       	out	0x3e, r29	; 62
    6a42:	0f be       	out	0x3f, r0	; 63
    6a44:	cd bf       	out	0x3d, r28	; 61
    6a46:	ed 01       	movw	r28, r26
    6a48:	08 95       	ret

00006a4a <__umulhisi3>:
    6a4a:	a2 9f       	mul	r26, r18
    6a4c:	b0 01       	movw	r22, r0
    6a4e:	b3 9f       	mul	r27, r19
    6a50:	c0 01       	movw	r24, r0
    6a52:	a3 9f       	mul	r26, r19
    6a54:	70 0d       	add	r23, r0
    6a56:	81 1d       	adc	r24, r1
    6a58:	11 24       	eor	r1, r1
    6a5a:	91 1d       	adc	r25, r1
    6a5c:	b2 9f       	mul	r27, r18
    6a5e:	70 0d       	add	r23, r0
    6a60:	81 1d       	adc	r24, r1
    6a62:	11 24       	eor	r1, r1
    6a64:	91 1d       	adc	r25, r1
    6a66:	08 95       	ret

00006a68 <dtostrf>:
    6a68:	ef 92       	push	r14
    6a6a:	0f 93       	push	r16
    6a6c:	1f 93       	push	r17
    6a6e:	cf 93       	push	r28
    6a70:	df 93       	push	r29
    6a72:	e8 01       	movw	r28, r16
    6a74:	47 fd       	sbrc	r20, 7
    6a76:	02 c0       	rjmp	.+4      	; 0x6a7c <dtostrf+0x14>
    6a78:	34 e0       	ldi	r19, 0x04	; 4
    6a7a:	01 c0       	rjmp	.+2      	; 0x6a7e <dtostrf+0x16>
    6a7c:	34 e1       	ldi	r19, 0x14	; 20
    6a7e:	e4 2f       	mov	r30, r20
    6a80:	44 0f       	add	r20, r20
    6a82:	ff 0b       	sbc	r31, r31
    6a84:	f7 ff       	sbrs	r31, 7
    6a86:	03 c0       	rjmp	.+6      	; 0x6a8e <dtostrf+0x26>
    6a88:	f1 95       	neg	r31
    6a8a:	e1 95       	neg	r30
    6a8c:	f1 09       	sbc	r31, r1
    6a8e:	e3 2e       	mov	r14, r19
    6a90:	02 2f       	mov	r16, r18
    6a92:	2e 2f       	mov	r18, r30
    6a94:	ae 01       	movw	r20, r28
    6a96:	3c d4       	rcall	.+2168   	; 0x7310 <dtoa_prf>
    6a98:	ce 01       	movw	r24, r28
    6a9a:	df 91       	pop	r29
    6a9c:	cf 91       	pop	r28
    6a9e:	1f 91       	pop	r17
    6aa0:	0f 91       	pop	r16
    6aa2:	ef 90       	pop	r14
    6aa4:	08 95       	ret

00006aa6 <malloc>:
    6aa6:	cf 93       	push	r28
    6aa8:	df 93       	push	r29
    6aaa:	82 30       	cpi	r24, 0x02	; 2
    6aac:	91 05       	cpc	r25, r1
    6aae:	10 f4       	brcc	.+4      	; 0x6ab4 <malloc+0xe>
    6ab0:	82 e0       	ldi	r24, 0x02	; 2
    6ab2:	90 e0       	ldi	r25, 0x00	; 0
    6ab4:	e0 91 2e 06 	lds	r30, 0x062E	; 0x80062e <__flp>
    6ab8:	f0 91 2f 06 	lds	r31, 0x062F	; 0x80062f <__flp+0x1>
    6abc:	20 e0       	ldi	r18, 0x00	; 0
    6abe:	30 e0       	ldi	r19, 0x00	; 0
    6ac0:	c0 e0       	ldi	r28, 0x00	; 0
    6ac2:	d0 e0       	ldi	r29, 0x00	; 0
    6ac4:	30 97       	sbiw	r30, 0x00	; 0
    6ac6:	11 f1       	breq	.+68     	; 0x6b0c <malloc+0x66>
    6ac8:	40 81       	ld	r20, Z
    6aca:	51 81       	ldd	r21, Z+1	; 0x01
    6acc:	48 17       	cp	r20, r24
    6ace:	59 07       	cpc	r21, r25
    6ad0:	c0 f0       	brcs	.+48     	; 0x6b02 <malloc+0x5c>
    6ad2:	48 17       	cp	r20, r24
    6ad4:	59 07       	cpc	r21, r25
    6ad6:	61 f4       	brne	.+24     	; 0x6af0 <malloc+0x4a>
    6ad8:	82 81       	ldd	r24, Z+2	; 0x02
    6ada:	93 81       	ldd	r25, Z+3	; 0x03
    6adc:	20 97       	sbiw	r28, 0x00	; 0
    6ade:	19 f0       	breq	.+6      	; 0x6ae6 <malloc+0x40>
    6ae0:	9b 83       	std	Y+3, r25	; 0x03
    6ae2:	8a 83       	std	Y+2, r24	; 0x02
    6ae4:	2b c0       	rjmp	.+86     	; 0x6b3c <malloc+0x96>
    6ae6:	90 93 2f 06 	sts	0x062F, r25	; 0x80062f <__flp+0x1>
    6aea:	80 93 2e 06 	sts	0x062E, r24	; 0x80062e <__flp>
    6aee:	26 c0       	rjmp	.+76     	; 0x6b3c <malloc+0x96>
    6af0:	21 15       	cp	r18, r1
    6af2:	31 05       	cpc	r19, r1
    6af4:	19 f0       	breq	.+6      	; 0x6afc <malloc+0x56>
    6af6:	42 17       	cp	r20, r18
    6af8:	53 07       	cpc	r21, r19
    6afa:	18 f4       	brcc	.+6      	; 0x6b02 <malloc+0x5c>
    6afc:	9a 01       	movw	r18, r20
    6afe:	be 01       	movw	r22, r28
    6b00:	df 01       	movw	r26, r30
    6b02:	ef 01       	movw	r28, r30
    6b04:	02 80       	ldd	r0, Z+2	; 0x02
    6b06:	f3 81       	ldd	r31, Z+3	; 0x03
    6b08:	e0 2d       	mov	r30, r0
    6b0a:	dc cf       	rjmp	.-72     	; 0x6ac4 <malloc+0x1e>
    6b0c:	21 15       	cp	r18, r1
    6b0e:	31 05       	cpc	r19, r1
    6b10:	09 f1       	breq	.+66     	; 0x6b54 <malloc+0xae>
    6b12:	28 1b       	sub	r18, r24
    6b14:	39 0b       	sbc	r19, r25
    6b16:	24 30       	cpi	r18, 0x04	; 4
    6b18:	31 05       	cpc	r19, r1
    6b1a:	90 f4       	brcc	.+36     	; 0x6b40 <malloc+0x9a>
    6b1c:	12 96       	adiw	r26, 0x02	; 2
    6b1e:	8d 91       	ld	r24, X+
    6b20:	9c 91       	ld	r25, X
    6b22:	13 97       	sbiw	r26, 0x03	; 3
    6b24:	61 15       	cp	r22, r1
    6b26:	71 05       	cpc	r23, r1
    6b28:	21 f0       	breq	.+8      	; 0x6b32 <malloc+0x8c>
    6b2a:	fb 01       	movw	r30, r22
    6b2c:	93 83       	std	Z+3, r25	; 0x03
    6b2e:	82 83       	std	Z+2, r24	; 0x02
    6b30:	04 c0       	rjmp	.+8      	; 0x6b3a <malloc+0x94>
    6b32:	90 93 2f 06 	sts	0x062F, r25	; 0x80062f <__flp+0x1>
    6b36:	80 93 2e 06 	sts	0x062E, r24	; 0x80062e <__flp>
    6b3a:	fd 01       	movw	r30, r26
    6b3c:	32 96       	adiw	r30, 0x02	; 2
    6b3e:	44 c0       	rjmp	.+136    	; 0x6bc8 <malloc+0x122>
    6b40:	fd 01       	movw	r30, r26
    6b42:	e2 0f       	add	r30, r18
    6b44:	f3 1f       	adc	r31, r19
    6b46:	81 93       	st	Z+, r24
    6b48:	91 93       	st	Z+, r25
    6b4a:	22 50       	subi	r18, 0x02	; 2
    6b4c:	31 09       	sbc	r19, r1
    6b4e:	2d 93       	st	X+, r18
    6b50:	3c 93       	st	X, r19
    6b52:	3a c0       	rjmp	.+116    	; 0x6bc8 <malloc+0x122>
    6b54:	20 91 2c 06 	lds	r18, 0x062C	; 0x80062c <__brkval>
    6b58:	30 91 2d 06 	lds	r19, 0x062D	; 0x80062d <__brkval+0x1>
    6b5c:	23 2b       	or	r18, r19
    6b5e:	41 f4       	brne	.+16     	; 0x6b70 <malloc+0xca>
    6b60:	20 91 02 01 	lds	r18, 0x0102	; 0x800102 <__malloc_heap_start>
    6b64:	30 91 03 01 	lds	r19, 0x0103	; 0x800103 <__malloc_heap_start+0x1>
    6b68:	30 93 2d 06 	sts	0x062D, r19	; 0x80062d <__brkval+0x1>
    6b6c:	20 93 2c 06 	sts	0x062C, r18	; 0x80062c <__brkval>
    6b70:	20 91 00 01 	lds	r18, 0x0100	; 0x800100 <__data_start>
    6b74:	30 91 01 01 	lds	r19, 0x0101	; 0x800101 <__data_start+0x1>
    6b78:	21 15       	cp	r18, r1
    6b7a:	31 05       	cpc	r19, r1
    6b7c:	41 f4       	brne	.+16     	; 0x6b8e <malloc+0xe8>
    6b7e:	2d b7       	in	r18, 0x3d	; 61
    6b80:	3e b7       	in	r19, 0x3e	; 62
    6b82:	40 91 04 01 	lds	r20, 0x0104	; 0x800104 <__malloc_margin>
    6b86:	50 91 05 01 	lds	r21, 0x0105	; 0x800105 <__malloc_margin+0x1>
    6b8a:	24 1b       	sub	r18, r20
    6b8c:	35 0b       	sbc	r19, r21
    6b8e:	e0 91 2c 06 	lds	r30, 0x062C	; 0x80062c <__brkval>
    6b92:	f0 91 2d 06 	lds	r31, 0x062D	; 0x80062d <__brkval+0x1>
    6b96:	e2 17       	cp	r30, r18
    6b98:	f3 07       	cpc	r31, r19
    6b9a:	a0 f4       	brcc	.+40     	; 0x6bc4 <malloc+0x11e>
    6b9c:	2e 1b       	sub	r18, r30
    6b9e:	3f 0b       	sbc	r19, r31
    6ba0:	28 17       	cp	r18, r24
    6ba2:	39 07       	cpc	r19, r25
    6ba4:	78 f0       	brcs	.+30     	; 0x6bc4 <malloc+0x11e>
    6ba6:	ac 01       	movw	r20, r24
    6ba8:	4e 5f       	subi	r20, 0xFE	; 254
    6baa:	5f 4f       	sbci	r21, 0xFF	; 255
    6bac:	24 17       	cp	r18, r20
    6bae:	35 07       	cpc	r19, r21
    6bb0:	48 f0       	brcs	.+18     	; 0x6bc4 <malloc+0x11e>
    6bb2:	4e 0f       	add	r20, r30
    6bb4:	5f 1f       	adc	r21, r31
    6bb6:	50 93 2d 06 	sts	0x062D, r21	; 0x80062d <__brkval+0x1>
    6bba:	40 93 2c 06 	sts	0x062C, r20	; 0x80062c <__brkval>
    6bbe:	81 93       	st	Z+, r24
    6bc0:	91 93       	st	Z+, r25
    6bc2:	02 c0       	rjmp	.+4      	; 0x6bc8 <malloc+0x122>
    6bc4:	e0 e0       	ldi	r30, 0x00	; 0
    6bc6:	f0 e0       	ldi	r31, 0x00	; 0
    6bc8:	cf 01       	movw	r24, r30
    6bca:	df 91       	pop	r29
    6bcc:	cf 91       	pop	r28
    6bce:	08 95       	ret

00006bd0 <free>:
    6bd0:	0f 93       	push	r16
    6bd2:	1f 93       	push	r17
    6bd4:	cf 93       	push	r28
    6bd6:	df 93       	push	r29
    6bd8:	00 97       	sbiw	r24, 0x00	; 0
    6bda:	09 f4       	brne	.+2      	; 0x6bde <free+0xe>
    6bdc:	8c c0       	rjmp	.+280    	; 0x6cf6 <free+0x126>
    6bde:	fc 01       	movw	r30, r24
    6be0:	32 97       	sbiw	r30, 0x02	; 2
    6be2:	13 82       	std	Z+3, r1	; 0x03
    6be4:	12 82       	std	Z+2, r1	; 0x02
    6be6:	00 91 2e 06 	lds	r16, 0x062E	; 0x80062e <__flp>
    6bea:	10 91 2f 06 	lds	r17, 0x062F	; 0x80062f <__flp+0x1>
    6bee:	01 15       	cp	r16, r1
    6bf0:	11 05       	cpc	r17, r1
    6bf2:	81 f4       	brne	.+32     	; 0x6c14 <free+0x44>
    6bf4:	20 81       	ld	r18, Z
    6bf6:	31 81       	ldd	r19, Z+1	; 0x01
    6bf8:	82 0f       	add	r24, r18
    6bfa:	93 1f       	adc	r25, r19
    6bfc:	20 91 2c 06 	lds	r18, 0x062C	; 0x80062c <__brkval>
    6c00:	30 91 2d 06 	lds	r19, 0x062D	; 0x80062d <__brkval+0x1>
    6c04:	28 17       	cp	r18, r24
    6c06:	39 07       	cpc	r19, r25
    6c08:	79 f5       	brne	.+94     	; 0x6c68 <free+0x98>
    6c0a:	f0 93 2d 06 	sts	0x062D, r31	; 0x80062d <__brkval+0x1>
    6c0e:	e0 93 2c 06 	sts	0x062C, r30	; 0x80062c <__brkval>
    6c12:	71 c0       	rjmp	.+226    	; 0x6cf6 <free+0x126>
    6c14:	d8 01       	movw	r26, r16
    6c16:	40 e0       	ldi	r20, 0x00	; 0
    6c18:	50 e0       	ldi	r21, 0x00	; 0
    6c1a:	ae 17       	cp	r26, r30
    6c1c:	bf 07       	cpc	r27, r31
    6c1e:	50 f4       	brcc	.+20     	; 0x6c34 <free+0x64>
    6c20:	12 96       	adiw	r26, 0x02	; 2
    6c22:	2d 91       	ld	r18, X+
    6c24:	3c 91       	ld	r19, X
    6c26:	13 97       	sbiw	r26, 0x03	; 3
    6c28:	ad 01       	movw	r20, r26
    6c2a:	21 15       	cp	r18, r1
    6c2c:	31 05       	cpc	r19, r1
    6c2e:	09 f1       	breq	.+66     	; 0x6c72 <free+0xa2>
    6c30:	d9 01       	movw	r26, r18
    6c32:	f3 cf       	rjmp	.-26     	; 0x6c1a <free+0x4a>
    6c34:	9d 01       	movw	r18, r26
    6c36:	da 01       	movw	r26, r20
    6c38:	33 83       	std	Z+3, r19	; 0x03
    6c3a:	22 83       	std	Z+2, r18	; 0x02
    6c3c:	60 81       	ld	r22, Z
    6c3e:	71 81       	ldd	r23, Z+1	; 0x01
    6c40:	86 0f       	add	r24, r22
    6c42:	97 1f       	adc	r25, r23
    6c44:	82 17       	cp	r24, r18
    6c46:	93 07       	cpc	r25, r19
    6c48:	69 f4       	brne	.+26     	; 0x6c64 <free+0x94>
    6c4a:	ec 01       	movw	r28, r24
    6c4c:	28 81       	ld	r18, Y
    6c4e:	39 81       	ldd	r19, Y+1	; 0x01
    6c50:	26 0f       	add	r18, r22
    6c52:	37 1f       	adc	r19, r23
    6c54:	2e 5f       	subi	r18, 0xFE	; 254
    6c56:	3f 4f       	sbci	r19, 0xFF	; 255
    6c58:	31 83       	std	Z+1, r19	; 0x01
    6c5a:	20 83       	st	Z, r18
    6c5c:	8a 81       	ldd	r24, Y+2	; 0x02
    6c5e:	9b 81       	ldd	r25, Y+3	; 0x03
    6c60:	93 83       	std	Z+3, r25	; 0x03
    6c62:	82 83       	std	Z+2, r24	; 0x02
    6c64:	45 2b       	or	r20, r21
    6c66:	29 f4       	brne	.+10     	; 0x6c72 <free+0xa2>
    6c68:	f0 93 2f 06 	sts	0x062F, r31	; 0x80062f <__flp+0x1>
    6c6c:	e0 93 2e 06 	sts	0x062E, r30	; 0x80062e <__flp>
    6c70:	42 c0       	rjmp	.+132    	; 0x6cf6 <free+0x126>
    6c72:	13 96       	adiw	r26, 0x03	; 3
    6c74:	fc 93       	st	X, r31
    6c76:	ee 93       	st	-X, r30
    6c78:	12 97       	sbiw	r26, 0x02	; 2
    6c7a:	ed 01       	movw	r28, r26
    6c7c:	49 91       	ld	r20, Y+
    6c7e:	59 91       	ld	r21, Y+
    6c80:	9e 01       	movw	r18, r28
    6c82:	24 0f       	add	r18, r20
    6c84:	35 1f       	adc	r19, r21
    6c86:	e2 17       	cp	r30, r18
    6c88:	f3 07       	cpc	r31, r19
    6c8a:	71 f4       	brne	.+28     	; 0x6ca8 <free+0xd8>
    6c8c:	80 81       	ld	r24, Z
    6c8e:	91 81       	ldd	r25, Z+1	; 0x01
    6c90:	84 0f       	add	r24, r20
    6c92:	95 1f       	adc	r25, r21
    6c94:	02 96       	adiw	r24, 0x02	; 2
    6c96:	11 96       	adiw	r26, 0x01	; 1
    6c98:	9c 93       	st	X, r25
    6c9a:	8e 93       	st	-X, r24
    6c9c:	82 81       	ldd	r24, Z+2	; 0x02
    6c9e:	93 81       	ldd	r25, Z+3	; 0x03
    6ca0:	13 96       	adiw	r26, 0x03	; 3
    6ca2:	9c 93       	st	X, r25
    6ca4:	8e 93       	st	-X, r24
    6ca6:	12 97       	sbiw	r26, 0x02	; 2
    6ca8:	e0 e0       	ldi	r30, 0x00	; 0
    6caa:	f0 e0       	ldi	r31, 0x00	; 0
    6cac:	d8 01       	movw	r26, r16
    6cae:	12 96       	adiw	r26, 0x02	; 2
    6cb0:	8d 91       	ld	r24, X+
    6cb2:	9c 91       	ld	r25, X
    6cb4:	13 97       	sbiw	r26, 0x03	; 3
    6cb6:	00 97       	sbiw	r24, 0x00	; 0
    6cb8:	19 f0       	breq	.+6      	; 0x6cc0 <free+0xf0>
    6cba:	f8 01       	movw	r30, r16
    6cbc:	8c 01       	movw	r16, r24
    6cbe:	f6 cf       	rjmp	.-20     	; 0x6cac <free+0xdc>
    6cc0:	8d 91       	ld	r24, X+
    6cc2:	9c 91       	ld	r25, X
    6cc4:	98 01       	movw	r18, r16
    6cc6:	2e 5f       	subi	r18, 0xFE	; 254
    6cc8:	3f 4f       	sbci	r19, 0xFF	; 255
    6cca:	82 0f       	add	r24, r18
    6ccc:	93 1f       	adc	r25, r19
    6cce:	20 91 2c 06 	lds	r18, 0x062C	; 0x80062c <__brkval>
    6cd2:	30 91 2d 06 	lds	r19, 0x062D	; 0x80062d <__brkval+0x1>
    6cd6:	28 17       	cp	r18, r24
    6cd8:	39 07       	cpc	r19, r25
    6cda:	69 f4       	brne	.+26     	; 0x6cf6 <free+0x126>
    6cdc:	30 97       	sbiw	r30, 0x00	; 0
    6cde:	29 f4       	brne	.+10     	; 0x6cea <free+0x11a>
    6ce0:	10 92 2f 06 	sts	0x062F, r1	; 0x80062f <__flp+0x1>
    6ce4:	10 92 2e 06 	sts	0x062E, r1	; 0x80062e <__flp>
    6ce8:	02 c0       	rjmp	.+4      	; 0x6cee <free+0x11e>
    6cea:	13 82       	std	Z+3, r1	; 0x03
    6cec:	12 82       	std	Z+2, r1	; 0x02
    6cee:	10 93 2d 06 	sts	0x062D, r17	; 0x80062d <__brkval+0x1>
    6cf2:	00 93 2c 06 	sts	0x062C, r16	; 0x80062c <__brkval>
    6cf6:	df 91       	pop	r29
    6cf8:	cf 91       	pop	r28
    6cfa:	1f 91       	pop	r17
    6cfc:	0f 91       	pop	r16
    6cfe:	08 95       	ret

00006d00 <realloc>:
    6d00:	a0 e0       	ldi	r26, 0x00	; 0
    6d02:	b0 e0       	ldi	r27, 0x00	; 0
    6d04:	e5 e8       	ldi	r30, 0x85	; 133
    6d06:	f6 e3       	ldi	r31, 0x36	; 54
    6d08:	6d ce       	rjmp	.-806    	; 0x69e4 <__prologue_saves__+0x8>
    6d0a:	ec 01       	movw	r28, r24
    6d0c:	00 97       	sbiw	r24, 0x00	; 0
    6d0e:	19 f4       	brne	.+6      	; 0x6d16 <realloc+0x16>
    6d10:	cb 01       	movw	r24, r22
    6d12:	c9 de       	rcall	.-622    	; 0x6aa6 <malloc>
    6d14:	b4 c0       	rjmp	.+360    	; 0x6e7e <realloc+0x17e>
    6d16:	fc 01       	movw	r30, r24
    6d18:	e6 0f       	add	r30, r22
    6d1a:	f7 1f       	adc	r31, r23
    6d1c:	9c 01       	movw	r18, r24
    6d1e:	22 50       	subi	r18, 0x02	; 2
    6d20:	31 09       	sbc	r19, r1
    6d22:	e2 17       	cp	r30, r18
    6d24:	f3 07       	cpc	r31, r19
    6d26:	08 f4       	brcc	.+2      	; 0x6d2a <realloc+0x2a>
    6d28:	a8 c0       	rjmp	.+336    	; 0x6e7a <realloc+0x17a>
    6d2a:	d9 01       	movw	r26, r18
    6d2c:	0d 91       	ld	r16, X+
    6d2e:	1c 91       	ld	r17, X
    6d30:	11 97       	sbiw	r26, 0x01	; 1
    6d32:	06 17       	cp	r16, r22
    6d34:	17 07       	cpc	r17, r23
    6d36:	a8 f0       	brcs	.+42     	; 0x6d62 <realloc+0x62>
    6d38:	05 30       	cpi	r16, 0x05	; 5
    6d3a:	11 05       	cpc	r17, r1
    6d3c:	08 f4       	brcc	.+2      	; 0x6d40 <realloc+0x40>
    6d3e:	9b c0       	rjmp	.+310    	; 0x6e76 <realloc+0x176>
    6d40:	c8 01       	movw	r24, r16
    6d42:	04 97       	sbiw	r24, 0x04	; 4
    6d44:	86 17       	cp	r24, r22
    6d46:	97 07       	cpc	r25, r23
    6d48:	08 f4       	brcc	.+2      	; 0x6d4c <realloc+0x4c>
    6d4a:	95 c0       	rjmp	.+298    	; 0x6e76 <realloc+0x176>
    6d4c:	02 50       	subi	r16, 0x02	; 2
    6d4e:	11 09       	sbc	r17, r1
    6d50:	06 1b       	sub	r16, r22
    6d52:	17 0b       	sbc	r17, r23
    6d54:	01 93       	st	Z+, r16
    6d56:	11 93       	st	Z+, r17
    6d58:	6d 93       	st	X+, r22
    6d5a:	7c 93       	st	X, r23
    6d5c:	cf 01       	movw	r24, r30
    6d5e:	38 df       	rcall	.-400    	; 0x6bd0 <free>
    6d60:	8a c0       	rjmp	.+276    	; 0x6e76 <realloc+0x176>
    6d62:	5b 01       	movw	r10, r22
    6d64:	a0 1a       	sub	r10, r16
    6d66:	b1 0a       	sbc	r11, r17
    6d68:	4c 01       	movw	r8, r24
    6d6a:	80 0e       	add	r8, r16
    6d6c:	91 1e       	adc	r9, r17
    6d6e:	a0 91 2e 06 	lds	r26, 0x062E	; 0x80062e <__flp>
    6d72:	b0 91 2f 06 	lds	r27, 0x062F	; 0x80062f <__flp+0x1>
    6d76:	40 e0       	ldi	r20, 0x00	; 0
    6d78:	50 e0       	ldi	r21, 0x00	; 0
    6d7a:	e1 2c       	mov	r14, r1
    6d7c:	f1 2c       	mov	r15, r1
    6d7e:	10 97       	sbiw	r26, 0x00	; 0
    6d80:	09 f4       	brne	.+2      	; 0x6d84 <realloc+0x84>
    6d82:	4a c0       	rjmp	.+148    	; 0x6e18 <realloc+0x118>
    6d84:	a8 15       	cp	r26, r8
    6d86:	b9 05       	cpc	r27, r9
    6d88:	d1 f5       	brne	.+116    	; 0x6dfe <realloc+0xfe>
    6d8a:	6d 90       	ld	r6, X+
    6d8c:	7c 90       	ld	r7, X
    6d8e:	11 97       	sbiw	r26, 0x01	; 1
    6d90:	63 01       	movw	r12, r6
    6d92:	82 e0       	ldi	r24, 0x02	; 2
    6d94:	c8 0e       	add	r12, r24
    6d96:	d1 1c       	adc	r13, r1
    6d98:	ca 14       	cp	r12, r10
    6d9a:	db 04       	cpc	r13, r11
    6d9c:	80 f1       	brcs	.+96     	; 0x6dfe <realloc+0xfe>
    6d9e:	a3 01       	movw	r20, r6
    6da0:	4a 19       	sub	r20, r10
    6da2:	5b 09       	sbc	r21, r11
    6da4:	6a 01       	movw	r12, r20
    6da6:	82 e0       	ldi	r24, 0x02	; 2
    6da8:	c8 0e       	add	r12, r24
    6daa:	d1 1c       	adc	r13, r1
    6dac:	12 96       	adiw	r26, 0x02	; 2
    6dae:	bc 90       	ld	r11, X
    6db0:	12 97       	sbiw	r26, 0x02	; 2
    6db2:	13 96       	adiw	r26, 0x03	; 3
    6db4:	ac 91       	ld	r26, X
    6db6:	b5 e0       	ldi	r27, 0x05	; 5
    6db8:	cb 16       	cp	r12, r27
    6dba:	d1 04       	cpc	r13, r1
    6dbc:	40 f0       	brcs	.+16     	; 0x6dce <realloc+0xce>
    6dbe:	b2 82       	std	Z+2, r11	; 0x02
    6dc0:	a3 83       	std	Z+3, r26	; 0x03
    6dc2:	51 83       	std	Z+1, r21	; 0x01
    6dc4:	40 83       	st	Z, r20
    6dc6:	d9 01       	movw	r26, r18
    6dc8:	6d 93       	st	X+, r22
    6dca:	7c 93       	st	X, r23
    6dcc:	0a c0       	rjmp	.+20     	; 0x6de2 <realloc+0xe2>
    6dce:	0e 5f       	subi	r16, 0xFE	; 254
    6dd0:	1f 4f       	sbci	r17, 0xFF	; 255
    6dd2:	c3 01       	movw	r24, r6
    6dd4:	80 0f       	add	r24, r16
    6dd6:	91 1f       	adc	r25, r17
    6dd8:	f9 01       	movw	r30, r18
    6dda:	91 83       	std	Z+1, r25	; 0x01
    6ddc:	80 83       	st	Z, r24
    6dde:	eb 2d       	mov	r30, r11
    6de0:	fa 2f       	mov	r31, r26
    6de2:	e1 14       	cp	r14, r1
    6de4:	f1 04       	cpc	r15, r1
    6de6:	31 f0       	breq	.+12     	; 0x6df4 <realloc+0xf4>
    6de8:	d7 01       	movw	r26, r14
    6dea:	13 96       	adiw	r26, 0x03	; 3
    6dec:	fc 93       	st	X, r31
    6dee:	ee 93       	st	-X, r30
    6df0:	12 97       	sbiw	r26, 0x02	; 2
    6df2:	41 c0       	rjmp	.+130    	; 0x6e76 <realloc+0x176>
    6df4:	f0 93 2f 06 	sts	0x062F, r31	; 0x80062f <__flp+0x1>
    6df8:	e0 93 2e 06 	sts	0x062E, r30	; 0x80062e <__flp>
    6dfc:	3c c0       	rjmp	.+120    	; 0x6e76 <realloc+0x176>
    6dfe:	8d 91       	ld	r24, X+
    6e00:	9c 91       	ld	r25, X
    6e02:	11 97       	sbiw	r26, 0x01	; 1
    6e04:	48 17       	cp	r20, r24
    6e06:	59 07       	cpc	r21, r25
    6e08:	08 f4       	brcc	.+2      	; 0x6e0c <realloc+0x10c>
    6e0a:	ac 01       	movw	r20, r24
    6e0c:	7d 01       	movw	r14, r26
    6e0e:	12 96       	adiw	r26, 0x02	; 2
    6e10:	0d 90       	ld	r0, X+
    6e12:	bc 91       	ld	r27, X
    6e14:	a0 2d       	mov	r26, r0
    6e16:	b3 cf       	rjmp	.-154    	; 0x6d7e <realloc+0x7e>
    6e18:	80 91 2c 06 	lds	r24, 0x062C	; 0x80062c <__brkval>
    6e1c:	90 91 2d 06 	lds	r25, 0x062D	; 0x80062d <__brkval+0x1>
    6e20:	88 15       	cp	r24, r8
    6e22:	99 05       	cpc	r25, r9
    6e24:	e1 f4       	brne	.+56     	; 0x6e5e <realloc+0x15e>
    6e26:	46 17       	cp	r20, r22
    6e28:	57 07       	cpc	r21, r23
    6e2a:	c8 f4       	brcc	.+50     	; 0x6e5e <realloc+0x15e>
    6e2c:	80 91 00 01 	lds	r24, 0x0100	; 0x800100 <__data_start>
    6e30:	90 91 01 01 	lds	r25, 0x0101	; 0x800101 <__data_start+0x1>
    6e34:	00 97       	sbiw	r24, 0x00	; 0
    6e36:	41 f4       	brne	.+16     	; 0x6e48 <realloc+0x148>
    6e38:	8d b7       	in	r24, 0x3d	; 61
    6e3a:	9e b7       	in	r25, 0x3e	; 62
    6e3c:	40 91 04 01 	lds	r20, 0x0104	; 0x800104 <__malloc_margin>
    6e40:	50 91 05 01 	lds	r21, 0x0105	; 0x800105 <__malloc_margin+0x1>
    6e44:	84 1b       	sub	r24, r20
    6e46:	95 0b       	sbc	r25, r21
    6e48:	e8 17       	cp	r30, r24
    6e4a:	f9 07       	cpc	r31, r25
    6e4c:	b0 f4       	brcc	.+44     	; 0x6e7a <realloc+0x17a>
    6e4e:	f0 93 2d 06 	sts	0x062D, r31	; 0x80062d <__brkval+0x1>
    6e52:	e0 93 2c 06 	sts	0x062C, r30	; 0x80062c <__brkval>
    6e56:	f9 01       	movw	r30, r18
    6e58:	71 83       	std	Z+1, r23	; 0x01
    6e5a:	60 83       	st	Z, r22
    6e5c:	0c c0       	rjmp	.+24     	; 0x6e76 <realloc+0x176>
    6e5e:	cb 01       	movw	r24, r22
    6e60:	22 de       	rcall	.-956    	; 0x6aa6 <malloc>
    6e62:	7c 01       	movw	r14, r24
    6e64:	00 97       	sbiw	r24, 0x00	; 0
    6e66:	49 f0       	breq	.+18     	; 0x6e7a <realloc+0x17a>
    6e68:	a8 01       	movw	r20, r16
    6e6a:	be 01       	movw	r22, r28
    6e6c:	af d1       	rcall	.+862    	; 0x71cc <memcpy>
    6e6e:	ce 01       	movw	r24, r28
    6e70:	af de       	rcall	.-674    	; 0x6bd0 <free>
    6e72:	c7 01       	movw	r24, r14
    6e74:	04 c0       	rjmp	.+8      	; 0x6e7e <realloc+0x17e>
    6e76:	ce 01       	movw	r24, r28
    6e78:	02 c0       	rjmp	.+4      	; 0x6e7e <realloc+0x17e>
    6e7a:	80 e0       	ldi	r24, 0x00	; 0
    6e7c:	90 e0       	ldi	r25, 0x00	; 0
    6e7e:	cd b7       	in	r28, 0x3d	; 61
    6e80:	de b7       	in	r29, 0x3e	; 62
    6e82:	ee e0       	ldi	r30, 0x0E	; 14
    6e84:	cb cd       	rjmp	.-1130   	; 0x6a1c <__epilogue_restores__+0x8>

00006e86 <strtod>:
    6e86:	a0 e0       	ldi	r26, 0x00	; 0
    6e88:	b0 e0       	ldi	r27, 0x00	; 0
    6e8a:	e8 e4       	ldi	r30, 0x48	; 72
    6e8c:	f7 e3       	ldi	r31, 0x37	; 55
    6e8e:	aa cd       	rjmp	.-1196   	; 0x69e4 <__prologue_saves__+0x8>
    6e90:	ec 01       	movw	r28, r24
    6e92:	7b 01       	movw	r14, r22
    6e94:	61 15       	cp	r22, r1
    6e96:	71 05       	cpc	r23, r1
    6e98:	19 f0       	breq	.+6      	; 0x6ea0 <strtod+0x1a>
    6e9a:	db 01       	movw	r26, r22
    6e9c:	8d 93       	st	X+, r24
    6e9e:	9c 93       	st	X, r25
    6ea0:	8e 01       	movw	r16, r28
    6ea2:	0f 5f       	subi	r16, 0xFF	; 255
    6ea4:	1f 4f       	sbci	r17, 0xFF	; 255
    6ea6:	78 80       	ld	r7, Y
    6ea8:	87 2d       	mov	r24, r7
    6eaa:	90 e0       	ldi	r25, 0x00	; 0
    6eac:	6f d1       	rcall	.+734    	; 0x718c <isspace>
    6eae:	89 2b       	or	r24, r25
    6eb0:	11 f0       	breq	.+4      	; 0x6eb6 <strtod+0x30>
    6eb2:	e8 01       	movw	r28, r16
    6eb4:	f5 cf       	rjmp	.-22     	; 0x6ea0 <strtod+0x1a>
    6eb6:	bd e2       	ldi	r27, 0x2D	; 45
    6eb8:	7b 12       	cpse	r7, r27
    6eba:	05 c0       	rjmp	.+10     	; 0x6ec6 <strtod+0x40>
    6ebc:	0f 5f       	subi	r16, 0xFF	; 255
    6ebe:	1f 4f       	sbci	r17, 0xFF	; 255
    6ec0:	79 80       	ldd	r7, Y+1	; 0x01
    6ec2:	c1 e0       	ldi	r28, 0x01	; 1
    6ec4:	08 c0       	rjmp	.+16     	; 0x6ed6 <strtod+0x50>
    6ec6:	eb e2       	ldi	r30, 0x2B	; 43
    6ec8:	7e 12       	cpse	r7, r30
    6eca:	04 c0       	rjmp	.+8      	; 0x6ed4 <strtod+0x4e>
    6ecc:	8e 01       	movw	r16, r28
    6ece:	0e 5f       	subi	r16, 0xFE	; 254
    6ed0:	1f 4f       	sbci	r17, 0xFF	; 255
    6ed2:	79 80       	ldd	r7, Y+1	; 0x01
    6ed4:	c0 e0       	ldi	r28, 0x00	; 0
    6ed6:	68 01       	movw	r12, r16
    6ed8:	f1 e0       	ldi	r31, 0x01	; 1
    6eda:	cf 1a       	sub	r12, r31
    6edc:	d1 08       	sbc	r13, r1
    6ede:	43 e0       	ldi	r20, 0x03	; 3
    6ee0:	50 e0       	ldi	r21, 0x00	; 0
    6ee2:	62 e6       	ldi	r22, 0x62	; 98
    6ee4:	72 e0       	ldi	r23, 0x02	; 2
    6ee6:	c6 01       	movw	r24, r12
    6ee8:	59 d1       	rcall	.+690    	; 0x719c <strncasecmp_P>
    6eea:	89 2b       	or	r24, r25
    6eec:	e9 f4       	brne	.+58     	; 0x6f28 <strtod+0xa2>
    6eee:	68 01       	movw	r12, r16
    6ef0:	22 e0       	ldi	r18, 0x02	; 2
    6ef2:	c2 0e       	add	r12, r18
    6ef4:	d1 1c       	adc	r13, r1
    6ef6:	45 e0       	ldi	r20, 0x05	; 5
    6ef8:	50 e0       	ldi	r21, 0x00	; 0
    6efa:	6d e5       	ldi	r22, 0x5D	; 93
    6efc:	72 e0       	ldi	r23, 0x02	; 2
    6efe:	c6 01       	movw	r24, r12
    6f00:	4d d1       	rcall	.+666    	; 0x719c <strncasecmp_P>
    6f02:	89 2b       	or	r24, r25
    6f04:	21 f4       	brne	.+8      	; 0x6f0e <strtod+0x88>
    6f06:	68 01       	movw	r12, r16
    6f08:	87 e0       	ldi	r24, 0x07	; 7
    6f0a:	c8 0e       	add	r12, r24
    6f0c:	d1 1c       	adc	r13, r1
    6f0e:	e1 14       	cp	r14, r1
    6f10:	f1 04       	cpc	r15, r1
    6f12:	19 f0       	breq	.+6      	; 0x6f1a <strtod+0x94>
    6f14:	d7 01       	movw	r26, r14
    6f16:	cd 92       	st	X+, r12
    6f18:	dc 92       	st	X, r13
    6f1a:	c1 11       	cpse	r28, r1
    6f1c:	fd c0       	rjmp	.+506    	; 0x7118 <strtod+0x292>
    6f1e:	60 e0       	ldi	r22, 0x00	; 0
    6f20:	70 e0       	ldi	r23, 0x00	; 0
    6f22:	80 e8       	ldi	r24, 0x80	; 128
    6f24:	9f e7       	ldi	r25, 0x7F	; 127
    6f26:	01 c1       	rjmp	.+514    	; 0x712a <strtod+0x2a4>
    6f28:	43 e0       	ldi	r20, 0x03	; 3
    6f2a:	50 e0       	ldi	r21, 0x00	; 0
    6f2c:	6a e5       	ldi	r22, 0x5A	; 90
    6f2e:	72 e0       	ldi	r23, 0x02	; 2
    6f30:	c6 01       	movw	r24, r12
    6f32:	34 d1       	rcall	.+616    	; 0x719c <strncasecmp_P>
    6f34:	89 2b       	or	r24, r25
    6f36:	51 f4       	brne	.+20     	; 0x6f4c <strtod+0xc6>
    6f38:	e1 14       	cp	r14, r1
    6f3a:	f1 04       	cpc	r15, r1
    6f3c:	09 f4       	brne	.+2      	; 0x6f40 <strtod+0xba>
    6f3e:	f1 c0       	rjmp	.+482    	; 0x7122 <strtod+0x29c>
    6f40:	0e 5f       	subi	r16, 0xFE	; 254
    6f42:	1f 4f       	sbci	r17, 0xFF	; 255
    6f44:	f7 01       	movw	r30, r14
    6f46:	11 83       	std	Z+1, r17	; 0x01
    6f48:	00 83       	st	Z, r16
    6f4a:	eb c0       	rjmp	.+470    	; 0x7122 <strtod+0x29c>
    6f4c:	68 01       	movw	r12, r16
    6f4e:	60 e0       	ldi	r22, 0x00	; 0
    6f50:	70 e0       	ldi	r23, 0x00	; 0
    6f52:	cb 01       	movw	r24, r22
    6f54:	00 e0       	ldi	r16, 0x00	; 0
    6f56:	10 e0       	ldi	r17, 0x00	; 0
    6f58:	f6 01       	movw	r30, r12
    6f5a:	d0 ed       	ldi	r29, 0xD0	; 208
    6f5c:	d7 0d       	add	r29, r7
    6f5e:	da 30       	cpi	r29, 0x0A	; 10
    6f60:	50 f5       	brcc	.+84     	; 0x6fb6 <strtod+0x130>
    6f62:	2c 2f       	mov	r18, r28
    6f64:	22 60       	ori	r18, 0x02	; 2
    6f66:	62 2e       	mov	r6, r18
    6f68:	2c 2f       	mov	r18, r28
    6f6a:	28 70       	andi	r18, 0x08	; 8
    6f6c:	c2 ff       	sbrs	r28, 2
    6f6e:	05 c0       	rjmp	.+10     	; 0x6f7a <strtod+0xf4>
    6f70:	21 11       	cpse	r18, r1
    6f72:	27 c0       	rjmp	.+78     	; 0x6fc2 <strtod+0x13c>
    6f74:	0f 5f       	subi	r16, 0xFF	; 255
    6f76:	1f 4f       	sbci	r17, 0xFF	; 255
    6f78:	24 c0       	rjmp	.+72     	; 0x6fc2 <strtod+0x13c>
    6f7a:	22 23       	and	r18, r18
    6f7c:	11 f0       	breq	.+4      	; 0x6f82 <strtod+0xfc>
    6f7e:	01 50       	subi	r16, 0x01	; 1
    6f80:	11 09       	sbc	r17, r1
    6f82:	a5 e0       	ldi	r26, 0x05	; 5
    6f84:	b0 e0       	ldi	r27, 0x00	; 0
    6f86:	9b 01       	movw	r18, r22
    6f88:	ac 01       	movw	r20, r24
    6f8a:	1e dd       	rcall	.-1476   	; 0x69c8 <__muluhisi3>
    6f8c:	4b 01       	movw	r8, r22
    6f8e:	5c 01       	movw	r10, r24
    6f90:	88 0c       	add	r8, r8
    6f92:	99 1c       	adc	r9, r9
    6f94:	aa 1c       	adc	r10, r10
    6f96:	bb 1c       	adc	r11, r11
    6f98:	c5 01       	movw	r24, r10
    6f9a:	b4 01       	movw	r22, r8
    6f9c:	6d 0f       	add	r22, r29
    6f9e:	71 1d       	adc	r23, r1
    6fa0:	81 1d       	adc	r24, r1
    6fa2:	91 1d       	adc	r25, r1
    6fa4:	68 39       	cpi	r22, 0x98	; 152
    6fa6:	a9 e9       	ldi	r26, 0x99	; 153
    6fa8:	7a 07       	cpc	r23, r26
    6faa:	8a 07       	cpc	r24, r26
    6fac:	a9 e1       	ldi	r26, 0x19	; 25
    6fae:	9a 07       	cpc	r25, r26
    6fb0:	40 f0       	brcs	.+16     	; 0x6fc2 <strtod+0x13c>
    6fb2:	c6 60       	ori	r28, 0x06	; 6
    6fb4:	05 c0       	rjmp	.+10     	; 0x6fc0 <strtod+0x13a>
    6fb6:	de 3f       	cpi	r29, 0xFE	; 254
    6fb8:	51 f4       	brne	.+20     	; 0x6fce <strtod+0x148>
    6fba:	c3 fd       	sbrc	r28, 3
    6fbc:	44 c0       	rjmp	.+136    	; 0x7046 <strtod+0x1c0>
    6fbe:	c8 60       	ori	r28, 0x08	; 8
    6fc0:	6c 2e       	mov	r6, r28
    6fc2:	bf ef       	ldi	r27, 0xFF	; 255
    6fc4:	cb 1a       	sub	r12, r27
    6fc6:	db 0a       	sbc	r13, r27
    6fc8:	70 80       	ld	r7, Z
    6fca:	c6 2d       	mov	r28, r6
    6fcc:	c5 cf       	rjmp	.-118    	; 0x6f58 <strtod+0xd2>
    6fce:	2d 2f       	mov	r18, r29
    6fd0:	2f 7d       	andi	r18, 0xDF	; 223
    6fd2:	25 31       	cpi	r18, 0x15	; 21
    6fd4:	c1 f5       	brne	.+112    	; 0x7046 <strtod+0x1c0>
    6fd6:	40 81       	ld	r20, Z
    6fd8:	4d 32       	cpi	r20, 0x2D	; 45
    6fda:	11 f4       	brne	.+4      	; 0x6fe0 <strtod+0x15a>
    6fdc:	c0 61       	ori	r28, 0x10	; 16
    6fde:	06 c0       	rjmp	.+12     	; 0x6fec <strtod+0x166>
    6fe0:	4b 32       	cpi	r20, 0x2B	; 43
    6fe2:	21 f0       	breq	.+8      	; 0x6fec <strtod+0x166>
    6fe4:	31 96       	adiw	r30, 0x01	; 1
    6fe6:	21 e0       	ldi	r18, 0x01	; 1
    6fe8:	30 e0       	ldi	r19, 0x00	; 0
    6fea:	06 c0       	rjmp	.+12     	; 0x6ff8 <strtod+0x172>
    6fec:	32 96       	adiw	r30, 0x02	; 2
    6fee:	d6 01       	movw	r26, r12
    6ff0:	11 96       	adiw	r26, 0x01	; 1
    6ff2:	4c 91       	ld	r20, X
    6ff4:	22 e0       	ldi	r18, 0x02	; 2
    6ff6:	30 e0       	ldi	r19, 0x00	; 0
    6ff8:	a0 ed       	ldi	r26, 0xD0	; 208
    6ffa:	a4 0f       	add	r26, r20
    6ffc:	aa 30       	cpi	r26, 0x0A	; 10
    6ffe:	18 f0       	brcs	.+6      	; 0x7006 <strtod+0x180>
    7000:	e2 1b       	sub	r30, r18
    7002:	f3 0b       	sbc	r31, r19
    7004:	20 c0       	rjmp	.+64     	; 0x7046 <strtod+0x1c0>
    7006:	40 e0       	ldi	r20, 0x00	; 0
    7008:	50 e0       	ldi	r21, 0x00	; 0
    700a:	40 38       	cpi	r20, 0x80	; 128
    700c:	bc e0       	ldi	r27, 0x0C	; 12
    700e:	5b 07       	cpc	r21, r27
    7010:	5c f4       	brge	.+22     	; 0x7028 <strtod+0x1a2>
    7012:	9a 01       	movw	r18, r20
    7014:	22 0f       	add	r18, r18
    7016:	33 1f       	adc	r19, r19
    7018:	22 0f       	add	r18, r18
    701a:	33 1f       	adc	r19, r19
    701c:	42 0f       	add	r20, r18
    701e:	53 1f       	adc	r21, r19
    7020:	44 0f       	add	r20, r20
    7022:	55 1f       	adc	r21, r21
    7024:	4a 0f       	add	r20, r26
    7026:	51 1d       	adc	r21, r1
    7028:	31 96       	adiw	r30, 0x01	; 1
    702a:	df 01       	movw	r26, r30
    702c:	11 97       	sbiw	r26, 0x01	; 1
    702e:	2c 91       	ld	r18, X
    7030:	a0 ed       	ldi	r26, 0xD0	; 208
    7032:	a2 0f       	add	r26, r18
    7034:	aa 30       	cpi	r26, 0x0A	; 10
    7036:	48 f3       	brcs	.-46     	; 0x700a <strtod+0x184>
    7038:	c4 ff       	sbrs	r28, 4
    703a:	03 c0       	rjmp	.+6      	; 0x7042 <strtod+0x1bc>
    703c:	51 95       	neg	r21
    703e:	41 95       	neg	r20
    7040:	51 09       	sbc	r21, r1
    7042:	04 0f       	add	r16, r20
    7044:	15 1f       	adc	r17, r21
    7046:	c1 ff       	sbrs	r28, 1
    7048:	07 c0       	rjmp	.+14     	; 0x7058 <strtod+0x1d2>
    704a:	e1 14       	cp	r14, r1
    704c:	f1 04       	cpc	r15, r1
    704e:	21 f0       	breq	.+8      	; 0x7058 <strtod+0x1d2>
    7050:	31 97       	sbiw	r30, 0x01	; 1
    7052:	d7 01       	movw	r26, r14
    7054:	ed 93       	st	X+, r30
    7056:	fc 93       	st	X, r31
    7058:	0e 94 bc 2a 	call	0x5578	; 0x5578 <__floatunsisf>
    705c:	c3 70       	andi	r28, 0x03	; 3
    705e:	c3 30       	cpi	r28, 0x03	; 3
    7060:	19 f0       	breq	.+6      	; 0x7068 <strtod+0x1e2>
    7062:	6b 01       	movw	r12, r22
    7064:	7c 01       	movw	r14, r24
    7066:	06 c0       	rjmp	.+12     	; 0x7074 <strtod+0x1ee>
    7068:	6b 01       	movw	r12, r22
    706a:	7c 01       	movw	r14, r24
    706c:	f7 fa       	bst	r15, 7
    706e:	f0 94       	com	r15
    7070:	f7 f8       	bld	r15, 7
    7072:	f0 94       	com	r15
    7074:	20 e0       	ldi	r18, 0x00	; 0
    7076:	30 e0       	ldi	r19, 0x00	; 0
    7078:	a9 01       	movw	r20, r18
    707a:	c7 01       	movw	r24, r14
    707c:	b6 01       	movw	r22, r12
    707e:	0e 94 1f 2a 	call	0x543e	; 0x543e <__cmpsf2>
    7082:	88 23       	and	r24, r24
    7084:	09 f4       	brne	.+2      	; 0x7088 <strtod+0x202>
    7086:	45 c0       	rjmp	.+138    	; 0x7112 <strtod+0x28c>
    7088:	17 ff       	sbrs	r17, 7
    708a:	06 c0       	rjmp	.+12     	; 0x7098 <strtod+0x212>
    708c:	11 95       	neg	r17
    708e:	01 95       	neg	r16
    7090:	11 09       	sbc	r17, r1
    7092:	c9 e7       	ldi	r28, 0x79	; 121
    7094:	d2 e0       	ldi	r29, 0x02	; 2
    7096:	02 c0       	rjmp	.+4      	; 0x709c <strtod+0x216>
    7098:	c1 e9       	ldi	r28, 0x91	; 145
    709a:	d2 e0       	ldi	r29, 0x02	; 2
    709c:	5e 01       	movw	r10, r28
    709e:	b8 e1       	ldi	r27, 0x18	; 24
    70a0:	ab 1a       	sub	r10, r27
    70a2:	b1 08       	sbc	r11, r1
    70a4:	46 01       	movw	r8, r12
    70a6:	be 2d       	mov	r27, r14
    70a8:	af 2d       	mov	r26, r15
    70aa:	90 e2       	ldi	r25, 0x20	; 32
    70ac:	e9 2e       	mov	r14, r25
    70ae:	f1 2c       	mov	r15, r1
    70b0:	0e 15       	cp	r16, r14
    70b2:	1f 05       	cpc	r17, r15
    70b4:	84 f0       	brlt	.+32     	; 0x70d6 <strtod+0x250>
    70b6:	fe 01       	movw	r30, r28
    70b8:	25 91       	lpm	r18, Z+
    70ba:	35 91       	lpm	r19, Z+
    70bc:	45 91       	lpm	r20, Z+
    70be:	54 91       	lpm	r21, Z
    70c0:	b4 01       	movw	r22, r8
    70c2:	8b 2f       	mov	r24, r27
    70c4:	9a 2f       	mov	r25, r26
    70c6:	0e 94 72 2b 	call	0x56e4	; 0x56e4 <__mulsf3>
    70ca:	4b 01       	movw	r8, r22
    70cc:	b8 2f       	mov	r27, r24
    70ce:	a9 2f       	mov	r26, r25
    70d0:	0e 19       	sub	r16, r14
    70d2:	1f 09       	sbc	r17, r15
    70d4:	ed cf       	rjmp	.-38     	; 0x70b0 <strtod+0x22a>
    70d6:	24 97       	sbiw	r28, 0x04	; 4
    70d8:	f5 94       	asr	r15
    70da:	e7 94       	ror	r14
    70dc:	ca 15       	cp	r28, r10
    70de:	db 05       	cpc	r29, r11
    70e0:	39 f7       	brne	.-50     	; 0x70b0 <strtod+0x22a>
    70e2:	64 01       	movw	r12, r8
    70e4:	eb 2e       	mov	r14, r27
    70e6:	fa 2e       	mov	r15, r26
    70e8:	8e 2d       	mov	r24, r14
    70ea:	88 0f       	add	r24, r24
    70ec:	8f 2d       	mov	r24, r15
    70ee:	88 1f       	adc	r24, r24
    70f0:	8f 3f       	cpi	r24, 0xFF	; 255
    70f2:	49 f0       	breq	.+18     	; 0x7106 <strtod+0x280>
    70f4:	20 e0       	ldi	r18, 0x00	; 0
    70f6:	30 e0       	ldi	r19, 0x00	; 0
    70f8:	a9 01       	movw	r20, r18
    70fa:	c7 01       	movw	r24, r14
    70fc:	b6 01       	movw	r22, r12
    70fe:	0e 94 1f 2a 	call	0x543e	; 0x543e <__cmpsf2>
    7102:	81 11       	cpse	r24, r1
    7104:	06 c0       	rjmp	.+12     	; 0x7112 <strtod+0x28c>
    7106:	82 e2       	ldi	r24, 0x22	; 34
    7108:	90 e0       	ldi	r25, 0x00	; 0
    710a:	90 93 31 06 	sts	0x0631, r25	; 0x800631 <errno+0x1>
    710e:	80 93 30 06 	sts	0x0630, r24	; 0x800630 <errno>
    7112:	c7 01       	movw	r24, r14
    7114:	b6 01       	movw	r22, r12
    7116:	09 c0       	rjmp	.+18     	; 0x712a <strtod+0x2a4>
    7118:	60 e0       	ldi	r22, 0x00	; 0
    711a:	70 e0       	ldi	r23, 0x00	; 0
    711c:	80 e8       	ldi	r24, 0x80	; 128
    711e:	9f ef       	ldi	r25, 0xFF	; 255
    7120:	04 c0       	rjmp	.+8      	; 0x712a <strtod+0x2a4>
    7122:	60 e0       	ldi	r22, 0x00	; 0
    7124:	70 e0       	ldi	r23, 0x00	; 0
    7126:	80 ec       	ldi	r24, 0xC0	; 192
    7128:	9f e7       	ldi	r25, 0x7F	; 127
    712a:	cd b7       	in	r28, 0x3d	; 61
    712c:	de b7       	in	r29, 0x3e	; 62
    712e:	ee e0       	ldi	r30, 0x0E	; 14
    7130:	75 cc       	rjmp	.-1814   	; 0x6a1c <__epilogue_restores__+0x8>

00007132 <abort>:
    7132:	81 e0       	ldi	r24, 0x01	; 1
    7134:	90 e0       	ldi	r25, 0x00	; 0
    7136:	f8 94       	cli
    7138:	79 c3       	rjmp	.+1778   	; 0x782c <__do_global_dtors>

0000713a <atof>:
    713a:	66 27       	eor	r22, r22
    713c:	77 27       	eor	r23, r23
    713e:	a3 ce       	rjmp	.-698    	; 0x6e86 <strtod>

00007140 <atol>:
    7140:	1f 93       	push	r17
    7142:	fc 01       	movw	r30, r24
    7144:	99 27       	eor	r25, r25
    7146:	88 27       	eor	r24, r24
    7148:	bc 01       	movw	r22, r24
    714a:	e8 94       	clt
    714c:	11 91       	ld	r17, Z+
    714e:	10 32       	cpi	r17, 0x20	; 32
    7150:	e9 f3       	breq	.-6      	; 0x714c <atol+0xc>
    7152:	19 30       	cpi	r17, 0x09	; 9
    7154:	10 f0       	brcs	.+4      	; 0x715a <atol+0x1a>
    7156:	1e 30       	cpi	r17, 0x0E	; 14
    7158:	c8 f3       	brcs	.-14     	; 0x714c <atol+0xc>
    715a:	1b 32       	cpi	r17, 0x2B	; 43
    715c:	49 f0       	breq	.+18     	; 0x7170 <atol+0x30>
    715e:	1d 32       	cpi	r17, 0x2D	; 45
    7160:	41 f4       	brne	.+16     	; 0x7172 <atol+0x32>
    7162:	68 94       	set
    7164:	05 c0       	rjmp	.+10     	; 0x7170 <atol+0x30>
    7166:	85 d0       	rcall	.+266    	; 0x7272 <__mulsi_const_10>
    7168:	61 0f       	add	r22, r17
    716a:	71 1d       	adc	r23, r1
    716c:	81 1d       	adc	r24, r1
    716e:	91 1d       	adc	r25, r1
    7170:	11 91       	ld	r17, Z+
    7172:	10 53       	subi	r17, 0x30	; 48
    7174:	1a 30       	cpi	r17, 0x0A	; 10
    7176:	b8 f3       	brcs	.-18     	; 0x7166 <atol+0x26>
    7178:	3e f4       	brtc	.+14     	; 0x7188 <atol+0x48>
    717a:	90 95       	com	r25
    717c:	80 95       	com	r24
    717e:	70 95       	com	r23
    7180:	61 95       	neg	r22
    7182:	7f 4f       	sbci	r23, 0xFF	; 255
    7184:	8f 4f       	sbci	r24, 0xFF	; 255
    7186:	9f 4f       	sbci	r25, 0xFF	; 255
    7188:	1f 91       	pop	r17
    718a:	08 95       	ret

0000718c <isspace>:
    718c:	91 11       	cpse	r25, r1
    718e:	25 c3       	rjmp	.+1610   	; 0x77da <__ctype_isfalse>
    7190:	80 32       	cpi	r24, 0x20	; 32
    7192:	19 f0       	breq	.+6      	; 0x719a <isspace+0xe>
    7194:	89 50       	subi	r24, 0x09	; 9
    7196:	85 50       	subi	r24, 0x05	; 5
    7198:	d0 f7       	brcc	.-12     	; 0x718e <isspace+0x2>
    719a:	08 95       	ret

0000719c <strncasecmp_P>:
    719c:	fb 01       	movw	r30, r22
    719e:	dc 01       	movw	r26, r24
    71a0:	41 50       	subi	r20, 0x01	; 1
    71a2:	50 40       	sbci	r21, 0x00	; 0
    71a4:	88 f0       	brcs	.+34     	; 0x71c8 <strncasecmp_P+0x2c>
    71a6:	8d 91       	ld	r24, X+
    71a8:	81 34       	cpi	r24, 0x41	; 65
    71aa:	1c f0       	brlt	.+6      	; 0x71b2 <strncasecmp_P+0x16>
    71ac:	8b 35       	cpi	r24, 0x5B	; 91
    71ae:	0c f4       	brge	.+2      	; 0x71b2 <strncasecmp_P+0x16>
    71b0:	80 5e       	subi	r24, 0xE0	; 224
    71b2:	65 91       	lpm	r22, Z+
    71b4:	61 34       	cpi	r22, 0x41	; 65
    71b6:	1c f0       	brlt	.+6      	; 0x71be <strncasecmp_P+0x22>
    71b8:	6b 35       	cpi	r22, 0x5B	; 91
    71ba:	0c f4       	brge	.+2      	; 0x71be <strncasecmp_P+0x22>
    71bc:	60 5e       	subi	r22, 0xE0	; 224
    71be:	86 1b       	sub	r24, r22
    71c0:	61 11       	cpse	r22, r1
    71c2:	71 f3       	breq	.-36     	; 0x71a0 <strncasecmp_P+0x4>
    71c4:	99 0b       	sbc	r25, r25
    71c6:	08 95       	ret
    71c8:	88 1b       	sub	r24, r24
    71ca:	fc cf       	rjmp	.-8      	; 0x71c4 <strncasecmp_P+0x28>

000071cc <memcpy>:
    71cc:	fb 01       	movw	r30, r22
    71ce:	dc 01       	movw	r26, r24
    71d0:	02 c0       	rjmp	.+4      	; 0x71d6 <memcpy+0xa>
    71d2:	01 90       	ld	r0, Z+
    71d4:	0d 92       	st	X+, r0
    71d6:	41 50       	subi	r20, 0x01	; 1
    71d8:	50 40       	sbci	r21, 0x00	; 0
    71da:	d8 f7       	brcc	.-10     	; 0x71d2 <memcpy+0x6>
    71dc:	08 95       	ret

000071de <strcmp>:
    71de:	fb 01       	movw	r30, r22
    71e0:	dc 01       	movw	r26, r24
    71e2:	8d 91       	ld	r24, X+
    71e4:	01 90       	ld	r0, Z+
    71e6:	80 19       	sub	r24, r0
    71e8:	01 10       	cpse	r0, r1
    71ea:	d9 f3       	breq	.-10     	; 0x71e2 <strcmp+0x4>
    71ec:	99 0b       	sbc	r25, r25
    71ee:	08 95       	ret

000071f0 <strcpy>:
    71f0:	fb 01       	movw	r30, r22
    71f2:	dc 01       	movw	r26, r24
    71f4:	01 90       	ld	r0, Z+
    71f6:	0d 92       	st	X+, r0
    71f8:	00 20       	and	r0, r0
    71fa:	e1 f7       	brne	.-8      	; 0x71f4 <strcpy+0x4>
    71fc:	08 95       	ret

000071fe <strncmp>:
    71fe:	fb 01       	movw	r30, r22
    7200:	dc 01       	movw	r26, r24
    7202:	41 50       	subi	r20, 0x01	; 1
    7204:	50 40       	sbci	r21, 0x00	; 0
    7206:	30 f0       	brcs	.+12     	; 0x7214 <strncmp+0x16>
    7208:	8d 91       	ld	r24, X+
    720a:	01 90       	ld	r0, Z+
    720c:	80 19       	sub	r24, r0
    720e:	19 f4       	brne	.+6      	; 0x7216 <strncmp+0x18>
    7210:	00 20       	and	r0, r0
    7212:	b9 f7       	brne	.-18     	; 0x7202 <strncmp+0x4>
    7214:	88 1b       	sub	r24, r24
    7216:	99 0b       	sbc	r25, r25
    7218:	08 95       	ret

0000721a <itoa>:
    721a:	45 32       	cpi	r20, 0x25	; 37
    721c:	51 05       	cpc	r21, r1
    721e:	18 f4       	brcc	.+6      	; 0x7226 <itoa+0xc>
    7220:	42 30       	cpi	r20, 0x02	; 2
    7222:	08 f0       	brcs	.+2      	; 0x7226 <itoa+0xc>
    7224:	04 c0       	rjmp	.+8      	; 0x722e <__itoa_ncheck>
    7226:	fb 01       	movw	r30, r22
    7228:	10 82       	st	Z, r1
    722a:	cb 01       	movw	r24, r22
    722c:	08 95       	ret

0000722e <__itoa_ncheck>:
    722e:	bb 27       	eor	r27, r27
    7230:	4a 30       	cpi	r20, 0x0A	; 10
    7232:	31 f4       	brne	.+12     	; 0x7240 <__itoa_ncheck+0x12>
    7234:	99 23       	and	r25, r25
    7236:	22 f4       	brpl	.+8      	; 0x7240 <__itoa_ncheck+0x12>
    7238:	bd e2       	ldi	r27, 0x2D	; 45
    723a:	90 95       	com	r25
    723c:	81 95       	neg	r24
    723e:	9f 4f       	sbci	r25, 0xFF	; 255
    7240:	4f c0       	rjmp	.+158    	; 0x72e0 <__utoa_common>

00007242 <ltoa>:
    7242:	25 32       	cpi	r18, 0x25	; 37
    7244:	31 05       	cpc	r19, r1
    7246:	18 f4       	brcc	.+6      	; 0x724e <ltoa+0xc>
    7248:	22 30       	cpi	r18, 0x02	; 2
    724a:	08 f0       	brcs	.+2      	; 0x724e <ltoa+0xc>
    724c:	04 c0       	rjmp	.+8      	; 0x7256 <__ltoa_ncheck>
    724e:	fa 01       	movw	r30, r20
    7250:	10 82       	st	Z, r1
    7252:	ca 01       	movw	r24, r20
    7254:	08 95       	ret

00007256 <__ltoa_ncheck>:
    7256:	bb 27       	eor	r27, r27
    7258:	2a 30       	cpi	r18, 0x0A	; 10
    725a:	51 f4       	brne	.+20     	; 0x7270 <__ltoa_ncheck+0x1a>
    725c:	99 23       	and	r25, r25
    725e:	42 f4       	brpl	.+16     	; 0x7270 <__ltoa_ncheck+0x1a>
    7260:	bd e2       	ldi	r27, 0x2D	; 45
    7262:	90 95       	com	r25
    7264:	80 95       	com	r24
    7266:	70 95       	com	r23
    7268:	61 95       	neg	r22
    726a:	7f 4f       	sbci	r23, 0xFF	; 255
    726c:	8f 4f       	sbci	r24, 0xFF	; 255
    726e:	9f 4f       	sbci	r25, 0xFF	; 255
    7270:	16 c0       	rjmp	.+44     	; 0x729e <__ultoa_common>

00007272 <__mulsi_const_10>:
    7272:	59 2f       	mov	r21, r25
    7274:	48 2f       	mov	r20, r24
    7276:	37 2f       	mov	r19, r23
    7278:	26 2f       	mov	r18, r22
    727a:	66 0f       	add	r22, r22
    727c:	77 1f       	adc	r23, r23
    727e:	88 1f       	adc	r24, r24
    7280:	99 1f       	adc	r25, r25
    7282:	66 0f       	add	r22, r22
    7284:	77 1f       	adc	r23, r23
    7286:	88 1f       	adc	r24, r24
    7288:	99 1f       	adc	r25, r25
    728a:	62 0f       	add	r22, r18
    728c:	73 1f       	adc	r23, r19
    728e:	84 1f       	adc	r24, r20
    7290:	95 1f       	adc	r25, r21
    7292:	66 0f       	add	r22, r22
    7294:	77 1f       	adc	r23, r23
    7296:	88 1f       	adc	r24, r24
    7298:	99 1f       	adc	r25, r25
    729a:	08 95       	ret

0000729c <__ultoa_ncheck>:
    729c:	bb 27       	eor	r27, r27

0000729e <__ultoa_common>:
    729e:	fa 01       	movw	r30, r20
    72a0:	a6 2f       	mov	r26, r22
    72a2:	62 17       	cp	r22, r18
    72a4:	71 05       	cpc	r23, r1
    72a6:	81 05       	cpc	r24, r1
    72a8:	91 05       	cpc	r25, r1
    72aa:	33 0b       	sbc	r19, r19
    72ac:	30 fb       	bst	r19, 0
    72ae:	66 f0       	brts	.+24     	; 0x72c8 <__ultoa_common+0x2a>
    72b0:	aa 27       	eor	r26, r26
    72b2:	66 0f       	add	r22, r22
    72b4:	77 1f       	adc	r23, r23
    72b6:	88 1f       	adc	r24, r24
    72b8:	99 1f       	adc	r25, r25
    72ba:	aa 1f       	adc	r26, r26
    72bc:	a2 17       	cp	r26, r18
    72be:	10 f0       	brcs	.+4      	; 0x72c4 <__ultoa_common+0x26>
    72c0:	a2 1b       	sub	r26, r18
    72c2:	63 95       	inc	r22
    72c4:	38 50       	subi	r19, 0x08	; 8
    72c6:	a9 f7       	brne	.-22     	; 0x72b2 <__ultoa_common+0x14>
    72c8:	a0 5d       	subi	r26, 0xD0	; 208
    72ca:	aa 33       	cpi	r26, 0x3A	; 58
    72cc:	08 f0       	brcs	.+2      	; 0x72d0 <__ultoa_common+0x32>
    72ce:	a9 5d       	subi	r26, 0xD9	; 217
    72d0:	a1 93       	st	Z+, r26
    72d2:	36 f7       	brtc	.-52     	; 0x72a0 <__ultoa_common+0x2>
    72d4:	b1 11       	cpse	r27, r1
    72d6:	b1 93       	st	Z+, r27
    72d8:	10 82       	st	Z, r1
    72da:	ca 01       	movw	r24, r20
    72dc:	81 c2       	rjmp	.+1282   	; 0x77e0 <strrev>

000072de <__utoa_ncheck>:
    72de:	bb 27       	eor	r27, r27

000072e0 <__utoa_common>:
    72e0:	fb 01       	movw	r30, r22
    72e2:	55 27       	eor	r21, r21
    72e4:	aa 27       	eor	r26, r26
    72e6:	88 0f       	add	r24, r24
    72e8:	99 1f       	adc	r25, r25
    72ea:	aa 1f       	adc	r26, r26
    72ec:	a4 17       	cp	r26, r20
    72ee:	10 f0       	brcs	.+4      	; 0x72f4 <__utoa_common+0x14>
    72f0:	a4 1b       	sub	r26, r20
    72f2:	83 95       	inc	r24
    72f4:	50 51       	subi	r21, 0x10	; 16
    72f6:	b9 f7       	brne	.-18     	; 0x72e6 <__utoa_common+0x6>
    72f8:	a0 5d       	subi	r26, 0xD0	; 208
    72fa:	aa 33       	cpi	r26, 0x3A	; 58
    72fc:	08 f0       	brcs	.+2      	; 0x7300 <__utoa_common+0x20>
    72fe:	a9 5d       	subi	r26, 0xD9	; 217
    7300:	a1 93       	st	Z+, r26
    7302:	00 97       	sbiw	r24, 0x00	; 0
    7304:	79 f7       	brne	.-34     	; 0x72e4 <__utoa_common+0x4>
    7306:	b1 11       	cpse	r27, r1
    7308:	b1 93       	st	Z+, r27
    730a:	11 92       	st	Z+, r1
    730c:	cb 01       	movw	r24, r22
    730e:	68 c2       	rjmp	.+1232   	; 0x77e0 <strrev>

00007310 <dtoa_prf>:
    7310:	4f 92       	push	r4
    7312:	5f 92       	push	r5
    7314:	6f 92       	push	r6
    7316:	7f 92       	push	r7
    7318:	9f 92       	push	r9
    731a:	af 92       	push	r10
    731c:	bf 92       	push	r11
    731e:	cf 92       	push	r12
    7320:	df 92       	push	r13
    7322:	ef 92       	push	r14
    7324:	ff 92       	push	r15
    7326:	0f 93       	push	r16
    7328:	1f 93       	push	r17
    732a:	cf 93       	push	r28
    732c:	df 93       	push	r29
    732e:	cd b7       	in	r28, 0x3d	; 61
    7330:	de b7       	in	r29, 0x3e	; 62
    7332:	29 97       	sbiw	r28, 0x09	; 9
    7334:	0f b6       	in	r0, 0x3f	; 63
    7336:	f8 94       	cli
    7338:	de bf       	out	0x3e, r29	; 62
    733a:	0f be       	out	0x3f, r0	; 63
    733c:	cd bf       	out	0x3d, r28	; 61
    733e:	6a 01       	movw	r12, r20
    7340:	12 2f       	mov	r17, r18
    7342:	b0 2e       	mov	r11, r16
    7344:	2b e3       	ldi	r18, 0x3B	; 59
    7346:	20 17       	cp	r18, r16
    7348:	20 f0       	brcs	.+8      	; 0x7352 <dtoa_prf+0x42>
    734a:	ff 24       	eor	r15, r15
    734c:	f3 94       	inc	r15
    734e:	f0 0e       	add	r15, r16
    7350:	02 c0       	rjmp	.+4      	; 0x7356 <dtoa_prf+0x46>
    7352:	bc e3       	ldi	r27, 0x3C	; 60
    7354:	fb 2e       	mov	r15, r27
    7356:	0f 2d       	mov	r16, r15
    7358:	27 e0       	ldi	r18, 0x07	; 7
    735a:	ae 01       	movw	r20, r28
    735c:	4f 5f       	subi	r20, 0xFF	; 255
    735e:	5f 4f       	sbci	r21, 0xFF	; 255
    7360:	64 d1       	rcall	.+712    	; 0x762a <__ftoa_engine>
    7362:	ac 01       	movw	r20, r24
    7364:	89 81       	ldd	r24, Y+1	; 0x01
    7366:	98 2f       	mov	r25, r24
    7368:	99 70       	andi	r25, 0x09	; 9
    736a:	91 30       	cpi	r25, 0x01	; 1
    736c:	31 f0       	breq	.+12     	; 0x737a <dtoa_prf+0x6a>
    736e:	e1 fc       	sbrc	r14, 1
    7370:	06 c0       	rjmp	.+12     	; 0x737e <dtoa_prf+0x6e>
    7372:	e0 fe       	sbrs	r14, 0
    7374:	06 c0       	rjmp	.+12     	; 0x7382 <dtoa_prf+0x72>
    7376:	90 e2       	ldi	r25, 0x20	; 32
    7378:	05 c0       	rjmp	.+10     	; 0x7384 <dtoa_prf+0x74>
    737a:	9d e2       	ldi	r25, 0x2D	; 45
    737c:	03 c0       	rjmp	.+6      	; 0x7384 <dtoa_prf+0x74>
    737e:	9b e2       	ldi	r25, 0x2B	; 43
    7380:	01 c0       	rjmp	.+2      	; 0x7384 <dtoa_prf+0x74>
    7382:	90 e0       	ldi	r25, 0x00	; 0
    7384:	ee 2d       	mov	r30, r14
    7386:	e0 71       	andi	r30, 0x10	; 16
    7388:	83 ff       	sbrs	r24, 3
    738a:	3c c0       	rjmp	.+120    	; 0x7404 <dtoa_prf+0xf4>
    738c:	91 11       	cpse	r25, r1
    738e:	02 c0       	rjmp	.+4      	; 0x7394 <dtoa_prf+0x84>
    7390:	83 e0       	ldi	r24, 0x03	; 3
    7392:	01 c0       	rjmp	.+2      	; 0x7396 <dtoa_prf+0x86>
    7394:	84 e0       	ldi	r24, 0x04	; 4
    7396:	81 17       	cp	r24, r17
    7398:	18 f4       	brcc	.+6      	; 0x73a0 <dtoa_prf+0x90>
    739a:	21 2f       	mov	r18, r17
    739c:	28 1b       	sub	r18, r24
    739e:	01 c0       	rjmp	.+2      	; 0x73a2 <dtoa_prf+0x92>
    73a0:	20 e0       	ldi	r18, 0x00	; 0
    73a2:	e1 11       	cpse	r30, r1
    73a4:	0b c0       	rjmp	.+22     	; 0x73bc <dtoa_prf+0xac>
    73a6:	f6 01       	movw	r30, r12
    73a8:	82 2f       	mov	r24, r18
    73aa:	30 e2       	ldi	r19, 0x20	; 32
    73ac:	88 23       	and	r24, r24
    73ae:	19 f0       	breq	.+6      	; 0x73b6 <dtoa_prf+0xa6>
    73b0:	31 93       	st	Z+, r19
    73b2:	81 50       	subi	r24, 0x01	; 1
    73b4:	fb cf       	rjmp	.-10     	; 0x73ac <dtoa_prf+0x9c>
    73b6:	c2 0e       	add	r12, r18
    73b8:	d1 1c       	adc	r13, r1
    73ba:	20 e0       	ldi	r18, 0x00	; 0
    73bc:	99 23       	and	r25, r25
    73be:	29 f0       	breq	.+10     	; 0x73ca <dtoa_prf+0xba>
    73c0:	d6 01       	movw	r26, r12
    73c2:	9c 93       	st	X, r25
    73c4:	f6 01       	movw	r30, r12
    73c6:	31 96       	adiw	r30, 0x01	; 1
    73c8:	6f 01       	movw	r12, r30
    73ca:	c6 01       	movw	r24, r12
    73cc:	03 96       	adiw	r24, 0x03	; 3
    73ce:	e2 fe       	sbrs	r14, 2
    73d0:	0a c0       	rjmp	.+20     	; 0x73e6 <dtoa_prf+0xd6>
    73d2:	3e e4       	ldi	r19, 0x4E	; 78
    73d4:	d6 01       	movw	r26, r12
    73d6:	3c 93       	st	X, r19
    73d8:	41 e4       	ldi	r20, 0x41	; 65
    73da:	11 96       	adiw	r26, 0x01	; 1
    73dc:	4c 93       	st	X, r20
    73de:	11 97       	sbiw	r26, 0x01	; 1
    73e0:	12 96       	adiw	r26, 0x02	; 2
    73e2:	3c 93       	st	X, r19
    73e4:	06 c0       	rjmp	.+12     	; 0x73f2 <dtoa_prf+0xe2>
    73e6:	3e e6       	ldi	r19, 0x6E	; 110
    73e8:	f6 01       	movw	r30, r12
    73ea:	30 83       	st	Z, r19
    73ec:	41 e6       	ldi	r20, 0x61	; 97
    73ee:	41 83       	std	Z+1, r20	; 0x01
    73f0:	32 83       	std	Z+2, r19	; 0x02
    73f2:	fc 01       	movw	r30, r24
    73f4:	32 2f       	mov	r19, r18
    73f6:	40 e2       	ldi	r20, 0x20	; 32
    73f8:	33 23       	and	r19, r19
    73fa:	09 f4       	brne	.+2      	; 0x73fe <dtoa_prf+0xee>
    73fc:	42 c0       	rjmp	.+132    	; 0x7482 <dtoa_prf+0x172>
    73fe:	41 93       	st	Z+, r20
    7400:	31 50       	subi	r19, 0x01	; 1
    7402:	fa cf       	rjmp	.-12     	; 0x73f8 <dtoa_prf+0xe8>
    7404:	82 ff       	sbrs	r24, 2
    7406:	44 c0       	rjmp	.+136    	; 0x7490 <dtoa_prf+0x180>
    7408:	91 11       	cpse	r25, r1
    740a:	02 c0       	rjmp	.+4      	; 0x7410 <dtoa_prf+0x100>
    740c:	83 e0       	ldi	r24, 0x03	; 3
    740e:	01 c0       	rjmp	.+2      	; 0x7412 <dtoa_prf+0x102>
    7410:	84 e0       	ldi	r24, 0x04	; 4
    7412:	81 17       	cp	r24, r17
    7414:	18 f4       	brcc	.+6      	; 0x741c <dtoa_prf+0x10c>
    7416:	21 2f       	mov	r18, r17
    7418:	28 1b       	sub	r18, r24
    741a:	01 c0       	rjmp	.+2      	; 0x741e <dtoa_prf+0x10e>
    741c:	20 e0       	ldi	r18, 0x00	; 0
    741e:	e1 11       	cpse	r30, r1
    7420:	0b c0       	rjmp	.+22     	; 0x7438 <dtoa_prf+0x128>
    7422:	f6 01       	movw	r30, r12
    7424:	82 2f       	mov	r24, r18
    7426:	30 e2       	ldi	r19, 0x20	; 32
    7428:	88 23       	and	r24, r24
    742a:	19 f0       	breq	.+6      	; 0x7432 <dtoa_prf+0x122>
    742c:	31 93       	st	Z+, r19
    742e:	81 50       	subi	r24, 0x01	; 1
    7430:	fb cf       	rjmp	.-10     	; 0x7428 <dtoa_prf+0x118>
    7432:	c2 0e       	add	r12, r18
    7434:	d1 1c       	adc	r13, r1
    7436:	20 e0       	ldi	r18, 0x00	; 0
    7438:	99 23       	and	r25, r25
    743a:	29 f0       	breq	.+10     	; 0x7446 <dtoa_prf+0x136>
    743c:	d6 01       	movw	r26, r12
    743e:	9c 93       	st	X, r25
    7440:	f6 01       	movw	r30, r12
    7442:	31 96       	adiw	r30, 0x01	; 1
    7444:	6f 01       	movw	r12, r30
    7446:	c6 01       	movw	r24, r12
    7448:	03 96       	adiw	r24, 0x03	; 3
    744a:	e2 fe       	sbrs	r14, 2
    744c:	0b c0       	rjmp	.+22     	; 0x7464 <dtoa_prf+0x154>
    744e:	39 e4       	ldi	r19, 0x49	; 73
    7450:	d6 01       	movw	r26, r12
    7452:	3c 93       	st	X, r19
    7454:	3e e4       	ldi	r19, 0x4E	; 78
    7456:	11 96       	adiw	r26, 0x01	; 1
    7458:	3c 93       	st	X, r19
    745a:	11 97       	sbiw	r26, 0x01	; 1
    745c:	36 e4       	ldi	r19, 0x46	; 70
    745e:	12 96       	adiw	r26, 0x02	; 2
    7460:	3c 93       	st	X, r19
    7462:	07 c0       	rjmp	.+14     	; 0x7472 <dtoa_prf+0x162>
    7464:	39 e6       	ldi	r19, 0x69	; 105
    7466:	f6 01       	movw	r30, r12
    7468:	30 83       	st	Z, r19
    746a:	3e e6       	ldi	r19, 0x6E	; 110
    746c:	31 83       	std	Z+1, r19	; 0x01
    746e:	36 e6       	ldi	r19, 0x66	; 102
    7470:	32 83       	std	Z+2, r19	; 0x02
    7472:	fc 01       	movw	r30, r24
    7474:	32 2f       	mov	r19, r18
    7476:	40 e2       	ldi	r20, 0x20	; 32
    7478:	33 23       	and	r19, r19
    747a:	19 f0       	breq	.+6      	; 0x7482 <dtoa_prf+0x172>
    747c:	41 93       	st	Z+, r20
    747e:	31 50       	subi	r19, 0x01	; 1
    7480:	fb cf       	rjmp	.-10     	; 0x7478 <dtoa_prf+0x168>
    7482:	fc 01       	movw	r30, r24
    7484:	e2 0f       	add	r30, r18
    7486:	f1 1d       	adc	r31, r1
    7488:	10 82       	st	Z, r1
    748a:	8e ef       	ldi	r24, 0xFE	; 254
    748c:	9f ef       	ldi	r25, 0xFF	; 255
    748e:	b7 c0       	rjmp	.+366    	; 0x75fe <dtoa_prf+0x2ee>
    7490:	f1 e0       	ldi	r31, 0x01	; 1
    7492:	91 11       	cpse	r25, r1
    7494:	01 c0       	rjmp	.+2      	; 0x7498 <dtoa_prf+0x188>
    7496:	f0 e0       	ldi	r31, 0x00	; 0
    7498:	6f 2f       	mov	r22, r31
    749a:	70 e0       	ldi	r23, 0x00	; 0
    749c:	14 16       	cp	r1, r20
    749e:	15 06       	cpc	r1, r21
    74a0:	24 f4       	brge	.+8      	; 0x74aa <dtoa_prf+0x19a>
    74a2:	9a 01       	movw	r18, r20
    74a4:	2f 5f       	subi	r18, 0xFF	; 255
    74a6:	3f 4f       	sbci	r19, 0xFF	; 255
    74a8:	02 c0       	rjmp	.+4      	; 0x74ae <dtoa_prf+0x19e>
    74aa:	21 e0       	ldi	r18, 0x01	; 1
    74ac:	30 e0       	ldi	r19, 0x00	; 0
    74ae:	26 0f       	add	r18, r22
    74b0:	37 1f       	adc	r19, r23
    74b2:	bb 20       	and	r11, r11
    74b4:	29 f0       	breq	.+10     	; 0x74c0 <dtoa_prf+0x1b0>
    74b6:	6b 2d       	mov	r22, r11
    74b8:	70 e0       	ldi	r23, 0x00	; 0
    74ba:	6f 5f       	subi	r22, 0xFF	; 255
    74bc:	7f 4f       	sbci	r23, 0xFF	; 255
    74be:	02 c0       	rjmp	.+4      	; 0x74c4 <dtoa_prf+0x1b4>
    74c0:	60 e0       	ldi	r22, 0x00	; 0
    74c2:	70 e0       	ldi	r23, 0x00	; 0
    74c4:	26 0f       	add	r18, r22
    74c6:	37 1f       	adc	r19, r23
    74c8:	61 2f       	mov	r22, r17
    74ca:	70 e0       	ldi	r23, 0x00	; 0
    74cc:	26 17       	cp	r18, r22
    74ce:	37 07       	cpc	r19, r23
    74d0:	1c f4       	brge	.+6      	; 0x74d8 <dtoa_prf+0x1c8>
    74d2:	12 1b       	sub	r17, r18
    74d4:	21 2f       	mov	r18, r17
    74d6:	01 c0       	rjmp	.+2      	; 0x74da <dtoa_prf+0x1ca>
    74d8:	20 e0       	ldi	r18, 0x00	; 0
    74da:	3e 2d       	mov	r19, r14
    74dc:	38 71       	andi	r19, 0x18	; 24
    74de:	59 f4       	brne	.+22     	; 0x74f6 <dtoa_prf+0x1e6>
    74e0:	d6 01       	movw	r26, r12
    74e2:	32 2f       	mov	r19, r18
    74e4:	60 e2       	ldi	r22, 0x20	; 32
    74e6:	33 23       	and	r19, r19
    74e8:	19 f0       	breq	.+6      	; 0x74f0 <dtoa_prf+0x1e0>
    74ea:	6d 93       	st	X+, r22
    74ec:	31 50       	subi	r19, 0x01	; 1
    74ee:	fb cf       	rjmp	.-10     	; 0x74e6 <dtoa_prf+0x1d6>
    74f0:	c2 0e       	add	r12, r18
    74f2:	d1 1c       	adc	r13, r1
    74f4:	20 e0       	ldi	r18, 0x00	; 0
    74f6:	ff 23       	and	r31, r31
    74f8:	31 f0       	breq	.+12     	; 0x7506 <dtoa_prf+0x1f6>
    74fa:	d6 01       	movw	r26, r12
    74fc:	9c 93       	st	X, r25
    74fe:	b6 01       	movw	r22, r12
    7500:	6f 5f       	subi	r22, 0xFF	; 255
    7502:	7f 4f       	sbci	r23, 0xFF	; 255
    7504:	6b 01       	movw	r12, r22
    7506:	e1 11       	cpse	r30, r1
    7508:	0b c0       	rjmp	.+22     	; 0x7520 <dtoa_prf+0x210>
    750a:	f6 01       	movw	r30, r12
    750c:	92 2f       	mov	r25, r18
    750e:	30 e3       	ldi	r19, 0x30	; 48
    7510:	99 23       	and	r25, r25
    7512:	19 f0       	breq	.+6      	; 0x751a <dtoa_prf+0x20a>
    7514:	31 93       	st	Z+, r19
    7516:	91 50       	subi	r25, 0x01	; 1
    7518:	fb cf       	rjmp	.-10     	; 0x7510 <dtoa_prf+0x200>
    751a:	c2 0e       	add	r12, r18
    751c:	d1 1c       	adc	r13, r1
    751e:	20 e0       	ldi	r18, 0x00	; 0
    7520:	9f 2d       	mov	r25, r15
    7522:	94 0f       	add	r25, r20
    7524:	3a 81       	ldd	r19, Y+2	; 0x02
    7526:	78 2f       	mov	r23, r24
    7528:	70 71       	andi	r23, 0x10	; 16
    752a:	a7 2e       	mov	r10, r23
    752c:	84 ff       	sbrs	r24, 4
    752e:	03 c0       	rjmp	.+6      	; 0x7536 <dtoa_prf+0x226>
    7530:	31 33       	cpi	r19, 0x31	; 49
    7532:	09 f4       	brne	.+2      	; 0x7536 <dtoa_prf+0x226>
    7534:	91 50       	subi	r25, 0x01	; 1
    7536:	19 16       	cp	r1, r25
    7538:	24 f4       	brge	.+8      	; 0x7542 <dtoa_prf+0x232>
    753a:	99 30       	cpi	r25, 0x09	; 9
    753c:	18 f0       	brcs	.+6      	; 0x7544 <dtoa_prf+0x234>
    753e:	98 e0       	ldi	r25, 0x08	; 8
    7540:	01 c0       	rjmp	.+2      	; 0x7544 <dtoa_prf+0x234>
    7542:	91 e0       	ldi	r25, 0x01	; 1
    7544:	e4 2f       	mov	r30, r20
    7546:	85 2f       	mov	r24, r21
    7548:	57 ff       	sbrs	r21, 7
    754a:	02 c0       	rjmp	.+4      	; 0x7550 <dtoa_prf+0x240>
    754c:	e0 e0       	ldi	r30, 0x00	; 0
    754e:	80 e0       	ldi	r24, 0x00	; 0
    7550:	6e 2f       	mov	r22, r30
    7552:	78 2f       	mov	r23, r24
    7554:	e0 e0       	ldi	r30, 0x00	; 0
    7556:	f0 e0       	ldi	r31, 0x00	; 0
    7558:	ae e2       	ldi	r26, 0x2E	; 46
    755a:	9a 2e       	mov	r9, r26
    755c:	3a 01       	movw	r6, r20
    755e:	69 1a       	sub	r6, r25
    7560:	71 08       	sbc	r7, r1
    7562:	2a 01       	movw	r4, r20
    7564:	46 1a       	sub	r4, r22
    7566:	57 0a       	sbc	r5, r23
    7568:	0b 2d       	mov	r16, r11
    756a:	10 e0       	ldi	r17, 0x00	; 0
    756c:	11 95       	neg	r17
    756e:	01 95       	neg	r16
    7570:	11 09       	sbc	r17, r1
    7572:	6f 3f       	cpi	r22, 0xFF	; 255
    7574:	8f ef       	ldi	r24, 0xFF	; 255
    7576:	78 07       	cpc	r23, r24
    7578:	29 f4       	brne	.+10     	; 0x7584 <dtoa_prf+0x274>
    757a:	d6 01       	movw	r26, r12
    757c:	9c 92       	st	X, r9
    757e:	c6 01       	movw	r24, r12
    7580:	01 96       	adiw	r24, 0x01	; 1
    7582:	6c 01       	movw	r12, r24
    7584:	46 17       	cp	r20, r22
    7586:	57 07       	cpc	r21, r23
    7588:	84 f0       	brlt	.+32     	; 0x75aa <dtoa_prf+0x29a>
    758a:	66 16       	cp	r6, r22
    758c:	77 06       	cpc	r7, r23
    758e:	6c f4       	brge	.+26     	; 0x75aa <dtoa_prf+0x29a>
    7590:	7f 01       	movw	r14, r30
    7592:	e4 0c       	add	r14, r4
    7594:	f5 1c       	adc	r15, r5
    7596:	a1 e0       	ldi	r26, 0x01	; 1
    7598:	b0 e0       	ldi	r27, 0x00	; 0
    759a:	ac 0f       	add	r26, r28
    759c:	bd 1f       	adc	r27, r29
    759e:	ea 0e       	add	r14, r26
    75a0:	fb 1e       	adc	r15, r27
    75a2:	d7 01       	movw	r26, r14
    75a4:	11 96       	adiw	r26, 0x01	; 1
    75a6:	bc 90       	ld	r11, X
    75a8:	02 c0       	rjmp	.+4      	; 0x75ae <dtoa_prf+0x29e>
    75aa:	90 e3       	ldi	r25, 0x30	; 48
    75ac:	b9 2e       	mov	r11, r25
    75ae:	61 50       	subi	r22, 0x01	; 1
    75b0:	71 09       	sbc	r23, r1
    75b2:	31 96       	adiw	r30, 0x01	; 1
    75b4:	c6 01       	movw	r24, r12
    75b6:	01 96       	adiw	r24, 0x01	; 1
    75b8:	7c 01       	movw	r14, r24
    75ba:	60 17       	cp	r22, r16
    75bc:	71 07       	cpc	r23, r17
    75be:	24 f0       	brlt	.+8      	; 0x75c8 <dtoa_prf+0x2b8>
    75c0:	d6 01       	movw	r26, r12
    75c2:	bc 92       	st	X, r11
    75c4:	6c 01       	movw	r12, r24
    75c6:	d5 cf       	rjmp	.-86     	; 0x7572 <dtoa_prf+0x262>
    75c8:	64 17       	cp	r22, r20
    75ca:	75 07       	cpc	r23, r21
    75cc:	41 f4       	brne	.+16     	; 0x75de <dtoa_prf+0x2ce>
    75ce:	36 33       	cpi	r19, 0x36	; 54
    75d0:	20 f4       	brcc	.+8      	; 0x75da <dtoa_prf+0x2ca>
    75d2:	35 33       	cpi	r19, 0x35	; 53
    75d4:	21 f4       	brne	.+8      	; 0x75de <dtoa_prf+0x2ce>
    75d6:	a1 10       	cpse	r10, r1
    75d8:	02 c0       	rjmp	.+4      	; 0x75de <dtoa_prf+0x2ce>
    75da:	81 e3       	ldi	r24, 0x31	; 49
    75dc:	b8 2e       	mov	r11, r24
    75de:	f6 01       	movw	r30, r12
    75e0:	b0 82       	st	Z, r11
    75e2:	f7 01       	movw	r30, r14
    75e4:	82 2f       	mov	r24, r18
    75e6:	90 e2       	ldi	r25, 0x20	; 32
    75e8:	88 23       	and	r24, r24
    75ea:	19 f0       	breq	.+6      	; 0x75f2 <dtoa_prf+0x2e2>
    75ec:	91 93       	st	Z+, r25
    75ee:	81 50       	subi	r24, 0x01	; 1
    75f0:	fb cf       	rjmp	.-10     	; 0x75e8 <dtoa_prf+0x2d8>
    75f2:	f7 01       	movw	r30, r14
    75f4:	e2 0f       	add	r30, r18
    75f6:	f1 1d       	adc	r31, r1
    75f8:	10 82       	st	Z, r1
    75fa:	80 e0       	ldi	r24, 0x00	; 0
    75fc:	90 e0       	ldi	r25, 0x00	; 0
    75fe:	29 96       	adiw	r28, 0x09	; 9
    7600:	0f b6       	in	r0, 0x3f	; 63
    7602:	f8 94       	cli
    7604:	de bf       	out	0x3e, r29	; 62
    7606:	0f be       	out	0x3f, r0	; 63
    7608:	cd bf       	out	0x3d, r28	; 61
    760a:	df 91       	pop	r29
    760c:	cf 91       	pop	r28
    760e:	1f 91       	pop	r17
    7610:	0f 91       	pop	r16
    7612:	ff 90       	pop	r15
    7614:	ef 90       	pop	r14
    7616:	df 90       	pop	r13
    7618:	cf 90       	pop	r12
    761a:	bf 90       	pop	r11
    761c:	af 90       	pop	r10
    761e:	9f 90       	pop	r9
    7620:	7f 90       	pop	r7
    7622:	6f 90       	pop	r6
    7624:	5f 90       	pop	r5
    7626:	4f 90       	pop	r4
    7628:	08 95       	ret

0000762a <__ftoa_engine>:
    762a:	28 30       	cpi	r18, 0x08	; 8
    762c:	08 f0       	brcs	.+2      	; 0x7630 <__ftoa_engine+0x6>
    762e:	27 e0       	ldi	r18, 0x07	; 7
    7630:	33 27       	eor	r19, r19
    7632:	da 01       	movw	r26, r20
    7634:	99 0f       	add	r25, r25
    7636:	31 1d       	adc	r19, r1
    7638:	87 fd       	sbrc	r24, 7
    763a:	91 60       	ori	r25, 0x01	; 1
    763c:	00 96       	adiw	r24, 0x00	; 0
    763e:	61 05       	cpc	r22, r1
    7640:	71 05       	cpc	r23, r1
    7642:	39 f4       	brne	.+14     	; 0x7652 <__ftoa_engine+0x28>
    7644:	32 60       	ori	r19, 0x02	; 2
    7646:	2e 5f       	subi	r18, 0xFE	; 254
    7648:	3d 93       	st	X+, r19
    764a:	30 e3       	ldi	r19, 0x30	; 48
    764c:	2a 95       	dec	r18
    764e:	e1 f7       	brne	.-8      	; 0x7648 <__ftoa_engine+0x1e>
    7650:	08 95       	ret
    7652:	9f 3f       	cpi	r25, 0xFF	; 255
    7654:	30 f0       	brcs	.+12     	; 0x7662 <__ftoa_engine+0x38>
    7656:	80 38       	cpi	r24, 0x80	; 128
    7658:	71 05       	cpc	r23, r1
    765a:	61 05       	cpc	r22, r1
    765c:	09 f0       	breq	.+2      	; 0x7660 <__ftoa_engine+0x36>
    765e:	3c 5f       	subi	r19, 0xFC	; 252
    7660:	3c 5f       	subi	r19, 0xFC	; 252
    7662:	3d 93       	st	X+, r19
    7664:	91 30       	cpi	r25, 0x01	; 1
    7666:	08 f0       	brcs	.+2      	; 0x766a <__ftoa_engine+0x40>
    7668:	80 68       	ori	r24, 0x80	; 128
    766a:	91 1d       	adc	r25, r1
    766c:	df 93       	push	r29
    766e:	cf 93       	push	r28
    7670:	1f 93       	push	r17
    7672:	0f 93       	push	r16
    7674:	ff 92       	push	r15
    7676:	ef 92       	push	r14
    7678:	19 2f       	mov	r17, r25
    767a:	98 7f       	andi	r25, 0xF8	; 248
    767c:	96 95       	lsr	r25
    767e:	e9 2f       	mov	r30, r25
    7680:	96 95       	lsr	r25
    7682:	96 95       	lsr	r25
    7684:	e9 0f       	add	r30, r25
    7686:	ff 27       	eor	r31, r31
    7688:	e1 51       	subi	r30, 0x11	; 17
    768a:	fd 4f       	sbci	r31, 0xFD	; 253
    768c:	99 27       	eor	r25, r25
    768e:	33 27       	eor	r19, r19
    7690:	ee 24       	eor	r14, r14
    7692:	ff 24       	eor	r15, r15
    7694:	a7 01       	movw	r20, r14
    7696:	e7 01       	movw	r28, r14
    7698:	05 90       	lpm	r0, Z+
    769a:	08 94       	sec
    769c:	07 94       	ror	r0
    769e:	28 f4       	brcc	.+10     	; 0x76aa <__ftoa_engine+0x80>
    76a0:	36 0f       	add	r19, r22
    76a2:	e7 1e       	adc	r14, r23
    76a4:	f8 1e       	adc	r15, r24
    76a6:	49 1f       	adc	r20, r25
    76a8:	51 1d       	adc	r21, r1
    76aa:	66 0f       	add	r22, r22
    76ac:	77 1f       	adc	r23, r23
    76ae:	88 1f       	adc	r24, r24
    76b0:	99 1f       	adc	r25, r25
    76b2:	06 94       	lsr	r0
    76b4:	a1 f7       	brne	.-24     	; 0x769e <__ftoa_engine+0x74>
    76b6:	05 90       	lpm	r0, Z+
    76b8:	07 94       	ror	r0
    76ba:	28 f4       	brcc	.+10     	; 0x76c6 <__ftoa_engine+0x9c>
    76bc:	e7 0e       	add	r14, r23
    76be:	f8 1e       	adc	r15, r24
    76c0:	49 1f       	adc	r20, r25
    76c2:	56 1f       	adc	r21, r22
    76c4:	c1 1d       	adc	r28, r1
    76c6:	77 0f       	add	r23, r23
    76c8:	88 1f       	adc	r24, r24
    76ca:	99 1f       	adc	r25, r25
    76cc:	66 1f       	adc	r22, r22
    76ce:	06 94       	lsr	r0
    76d0:	a1 f7       	brne	.-24     	; 0x76ba <__ftoa_engine+0x90>
    76d2:	05 90       	lpm	r0, Z+
    76d4:	07 94       	ror	r0
    76d6:	28 f4       	brcc	.+10     	; 0x76e2 <__ftoa_engine+0xb8>
    76d8:	f8 0e       	add	r15, r24
    76da:	49 1f       	adc	r20, r25
    76dc:	56 1f       	adc	r21, r22
    76de:	c7 1f       	adc	r28, r23
    76e0:	d1 1d       	adc	r29, r1
    76e2:	88 0f       	add	r24, r24
    76e4:	99 1f       	adc	r25, r25
    76e6:	66 1f       	adc	r22, r22
    76e8:	77 1f       	adc	r23, r23
    76ea:	06 94       	lsr	r0
    76ec:	a1 f7       	brne	.-24     	; 0x76d6 <__ftoa_engine+0xac>
    76ee:	05 90       	lpm	r0, Z+
    76f0:	07 94       	ror	r0
    76f2:	20 f4       	brcc	.+8      	; 0x76fc <__ftoa_engine+0xd2>
    76f4:	49 0f       	add	r20, r25
    76f6:	56 1f       	adc	r21, r22
    76f8:	c7 1f       	adc	r28, r23
    76fa:	d8 1f       	adc	r29, r24
    76fc:	99 0f       	add	r25, r25
    76fe:	66 1f       	adc	r22, r22
    7700:	77 1f       	adc	r23, r23
    7702:	88 1f       	adc	r24, r24
    7704:	06 94       	lsr	r0
    7706:	a9 f7       	brne	.-22     	; 0x76f2 <__ftoa_engine+0xc8>
    7708:	84 91       	lpm	r24, Z
    770a:	10 95       	com	r17
    770c:	17 70       	andi	r17, 0x07	; 7
    770e:	41 f0       	breq	.+16     	; 0x7720 <__ftoa_engine+0xf6>
    7710:	d6 95       	lsr	r29
    7712:	c7 95       	ror	r28
    7714:	57 95       	ror	r21
    7716:	47 95       	ror	r20
    7718:	f7 94       	ror	r15
    771a:	e7 94       	ror	r14
    771c:	1a 95       	dec	r17
    771e:	c1 f7       	brne	.-16     	; 0x7710 <__ftoa_engine+0xe6>
    7720:	e5 e9       	ldi	r30, 0x95	; 149
    7722:	f2 e0       	ldi	r31, 0x02	; 2
    7724:	68 94       	set
    7726:	15 90       	lpm	r1, Z+
    7728:	15 91       	lpm	r17, Z+
    772a:	35 91       	lpm	r19, Z+
    772c:	65 91       	lpm	r22, Z+
    772e:	95 91       	lpm	r25, Z+
    7730:	05 90       	lpm	r0, Z+
    7732:	7f e2       	ldi	r23, 0x2F	; 47
    7734:	73 95       	inc	r23
    7736:	e1 18       	sub	r14, r1
    7738:	f1 0a       	sbc	r15, r17
    773a:	43 0b       	sbc	r20, r19
    773c:	56 0b       	sbc	r21, r22
    773e:	c9 0b       	sbc	r28, r25
    7740:	d0 09       	sbc	r29, r0
    7742:	c0 f7       	brcc	.-16     	; 0x7734 <__ftoa_engine+0x10a>
    7744:	e1 0c       	add	r14, r1
    7746:	f1 1e       	adc	r15, r17
    7748:	43 1f       	adc	r20, r19
    774a:	56 1f       	adc	r21, r22
    774c:	c9 1f       	adc	r28, r25
    774e:	d0 1d       	adc	r29, r0
    7750:	7e f4       	brtc	.+30     	; 0x7770 <__ftoa_engine+0x146>
    7752:	70 33       	cpi	r23, 0x30	; 48
    7754:	11 f4       	brne	.+4      	; 0x775a <__ftoa_engine+0x130>
    7756:	8a 95       	dec	r24
    7758:	e6 cf       	rjmp	.-52     	; 0x7726 <__ftoa_engine+0xfc>
    775a:	e8 94       	clt
    775c:	01 50       	subi	r16, 0x01	; 1
    775e:	30 f0       	brcs	.+12     	; 0x776c <__ftoa_engine+0x142>
    7760:	08 0f       	add	r16, r24
    7762:	0a f4       	brpl	.+2      	; 0x7766 <__ftoa_engine+0x13c>
    7764:	00 27       	eor	r16, r16
    7766:	02 17       	cp	r16, r18
    7768:	08 f4       	brcc	.+2      	; 0x776c <__ftoa_engine+0x142>
    776a:	20 2f       	mov	r18, r16
    776c:	23 95       	inc	r18
    776e:	02 2f       	mov	r16, r18
    7770:	7a 33       	cpi	r23, 0x3A	; 58
    7772:	28 f0       	brcs	.+10     	; 0x777e <__ftoa_engine+0x154>
    7774:	79 e3       	ldi	r23, 0x39	; 57
    7776:	7d 93       	st	X+, r23
    7778:	2a 95       	dec	r18
    777a:	e9 f7       	brne	.-6      	; 0x7776 <__ftoa_engine+0x14c>
    777c:	10 c0       	rjmp	.+32     	; 0x779e <__ftoa_engine+0x174>
    777e:	7d 93       	st	X+, r23
    7780:	2a 95       	dec	r18
    7782:	89 f6       	brne	.-94     	; 0x7726 <__ftoa_engine+0xfc>
    7784:	06 94       	lsr	r0
    7786:	97 95       	ror	r25
    7788:	67 95       	ror	r22
    778a:	37 95       	ror	r19
    778c:	17 95       	ror	r17
    778e:	17 94       	ror	r1
    7790:	e1 18       	sub	r14, r1
    7792:	f1 0a       	sbc	r15, r17
    7794:	43 0b       	sbc	r20, r19
    7796:	56 0b       	sbc	r21, r22
    7798:	c9 0b       	sbc	r28, r25
    779a:	d0 09       	sbc	r29, r0
    779c:	98 f0       	brcs	.+38     	; 0x77c4 <__ftoa_engine+0x19a>
    779e:	23 95       	inc	r18
    77a0:	7e 91       	ld	r23, -X
    77a2:	73 95       	inc	r23
    77a4:	7a 33       	cpi	r23, 0x3A	; 58
    77a6:	08 f0       	brcs	.+2      	; 0x77aa <__ftoa_engine+0x180>
    77a8:	70 e3       	ldi	r23, 0x30	; 48
    77aa:	7c 93       	st	X, r23
    77ac:	20 13       	cpse	r18, r16
    77ae:	b8 f7       	brcc	.-18     	; 0x779e <__ftoa_engine+0x174>
    77b0:	7e 91       	ld	r23, -X
    77b2:	70 61       	ori	r23, 0x10	; 16
    77b4:	7d 93       	st	X+, r23
    77b6:	30 f0       	brcs	.+12     	; 0x77c4 <__ftoa_engine+0x19a>
    77b8:	83 95       	inc	r24
    77ba:	71 e3       	ldi	r23, 0x31	; 49
    77bc:	7d 93       	st	X+, r23
    77be:	70 e3       	ldi	r23, 0x30	; 48
    77c0:	2a 95       	dec	r18
    77c2:	e1 f7       	brne	.-8      	; 0x77bc <__ftoa_engine+0x192>
    77c4:	11 24       	eor	r1, r1
    77c6:	ef 90       	pop	r14
    77c8:	ff 90       	pop	r15
    77ca:	0f 91       	pop	r16
    77cc:	1f 91       	pop	r17
    77ce:	cf 91       	pop	r28
    77d0:	df 91       	pop	r29
    77d2:	99 27       	eor	r25, r25
    77d4:	87 fd       	sbrc	r24, 7
    77d6:	90 95       	com	r25
    77d8:	08 95       	ret

000077da <__ctype_isfalse>:
    77da:	99 27       	eor	r25, r25
    77dc:	88 27       	eor	r24, r24

000077de <__ctype_istrue>:
    77de:	08 95       	ret

000077e0 <strrev>:
    77e0:	dc 01       	movw	r26, r24
    77e2:	fc 01       	movw	r30, r24
    77e4:	67 2f       	mov	r22, r23
    77e6:	71 91       	ld	r23, Z+
    77e8:	77 23       	and	r23, r23
    77ea:	e1 f7       	brne	.-8      	; 0x77e4 <strrev+0x4>
    77ec:	32 97       	sbiw	r30, 0x02	; 2
    77ee:	04 c0       	rjmp	.+8      	; 0x77f8 <strrev+0x18>
    77f0:	7c 91       	ld	r23, X
    77f2:	6d 93       	st	X+, r22
    77f4:	70 83       	st	Z, r23
    77f6:	62 91       	ld	r22, -Z
    77f8:	ae 17       	cp	r26, r30
    77fa:	bf 07       	cpc	r27, r31
    77fc:	c8 f3       	brcs	.-14     	; 0x77f0 <strrev+0x10>
    77fe:	08 95       	ret

00007800 <eeprom_read_byte>:
    7800:	f9 99       	sbic	0x1f, 1	; 31
    7802:	fe cf       	rjmp	.-4      	; 0x7800 <eeprom_read_byte>
    7804:	92 bd       	out	0x22, r25	; 34
    7806:	81 bd       	out	0x21, r24	; 33
    7808:	f8 9a       	sbi	0x1f, 0	; 31
    780a:	99 27       	eor	r25, r25
    780c:	80 b5       	in	r24, 0x20	; 32
    780e:	08 95       	ret

00007810 <eeprom_write_byte>:
    7810:	26 2f       	mov	r18, r22

00007812 <eeprom_write_r18>:
    7812:	f9 99       	sbic	0x1f, 1	; 31
    7814:	fe cf       	rjmp	.-4      	; 0x7812 <eeprom_write_r18>
    7816:	1f ba       	out	0x1f, r1	; 31
    7818:	92 bd       	out	0x22, r25	; 34
    781a:	81 bd       	out	0x21, r24	; 33
    781c:	20 bd       	out	0x20, r18	; 32
    781e:	0f b6       	in	r0, 0x3f	; 63
    7820:	f8 94       	cli
    7822:	fa 9a       	sbi	0x1f, 2	; 31
    7824:	f9 9a       	sbi	0x1f, 1	; 31
    7826:	0f be       	out	0x3f, r0	; 63
    7828:	01 96       	adiw	r24, 0x01	; 1
    782a:	08 95       	ret

0000782c <__do_global_dtors>:
    782c:	12 e0       	ldi	r17, 0x02	; 2
    782e:	c6 e6       	ldi	r28, 0x66	; 102
    7830:	d2 e0       	ldi	r29, 0x02	; 2
    7832:	03 c0       	rjmp	.+6      	; 0x783a <__do_global_dtors+0xe>
    7834:	fe 01       	movw	r30, r28
    7836:	c2 d8       	rcall	.-3708   	; 0x69bc <__tablejump2__>
    7838:	21 96       	adiw	r28, 0x01	; 1
    783a:	c8 36       	cpi	r28, 0x68	; 104
    783c:	d1 07       	cpc	r29, r17
    783e:	d1 f7       	brne	.-12     	; 0x7834 <__do_global_dtors+0x8>
    7840:	f8 94       	cli

00007842 <__stop_program>:
    7842:	ff cf       	rjmp	.-2      	; 0x7842 <__stop_program>
