
WaterSensors.elf:     file format elf32-avr

Sections:
Idx Name          Size      VMA       LMA       File off  Algn
  0 .data         000000d8  00800100  00006774  00006828  2**0
                  CONTENTS, ALLOC, LOAD, DATA
  1 .text         00006774  00000000  00000000  000000b4  2**1
                  CONTENTS, ALLOC, LOAD, READONLY, CODE
  2 .bss          000003e9  008001d8  008001d8  00006900  2**0
                  ALLOC
  3 .eeprom       00000006  00810000  00810000  00006900  2**0
                  CONTENTS, ALLOC, LOAD, DATA
  4 .comment      0000005c  00000000  00000000  00006906  2**0
                  CONTENTS, READONLY
  5 .note.gnu.avr.deviceinfo 00000040  00000000  00000000  00006964  2**2
                  CONTENTS, READONLY
  6 .debug_aranges 00001028  00000000  00000000  000069a4  2**0
                  CONTENTS, READONLY, DEBUGGING
  7 .debug_info   00028509  00000000  00000000  000079cc  2**0
                  CONTENTS, READONLY, DEBUGGING
  8 .debug_abbrev 0000501f  00000000  00000000  0002fed5  2**0
                  CONTENTS, READONLY, DEBUGGING
  9 .debug_line   0000b5cd  00000000  00000000  00034ef4  2**0
                  CONTENTS, READONLY, DEBUGGING
 10 .debug_frame  000031c4  00000000  00000000  000404c4  2**2
                  CONTENTS, READONLY, DEBUGGING
 11 .debug_str    0001361e  00000000  00000000  00043688  2**0
                  CONTENTS, READONLY, DEBUGGING
 12 .debug_loc    00009b62  00000000  00000000  00056ca6  2**0
                  CONTENTS, READONLY, DEBUGGING
 13 .debug_ranges 00000f98  00000000  00000000  00060808  2**0
                  CONTENTS, READONLY, DEBUGGING
 14 .debug_macro  000103a9  00000000  00000000  000617a0  2**0
                  CONTENTS, READONLY, DEBUGGING

Disassembly of section .text:

00000000 <__vectors>:
       0:	61 c2       	rjmp	.+1218   	; 0x4c4 <__dtors_end>
       2:	00 00       	nop
       4:	87 c2       	rjmp	.+1294   	; 0x514 <__bad_interrupt>
       6:	00 00       	nop
       8:	85 c2       	rjmp	.+1290   	; 0x514 <__bad_interrupt>
       a:	00 00       	nop
       c:	0d c7       	rjmp	.+3610   	; 0xe28 <__vector_3>
       e:	00 00       	nop
      10:	0b c7       	rjmp	.+3606   	; 0xe28 <__vector_3>
      12:	00 00       	nop
      14:	09 c7       	rjmp	.+3602   	; 0xe28 <__vector_3>
      16:	00 00       	nop
      18:	7d c2       	rjmp	.+1274   	; 0x514 <__bad_interrupt>
      1a:	00 00       	nop
      1c:	7b c2       	rjmp	.+1270   	; 0x514 <__bad_interrupt>
      1e:	00 00       	nop
      20:	79 c2       	rjmp	.+1266   	; 0x514 <__bad_interrupt>
      22:	00 00       	nop
      24:	77 c2       	rjmp	.+1262   	; 0x514 <__bad_interrupt>
      26:	00 00       	nop
      28:	75 c2       	rjmp	.+1258   	; 0x514 <__bad_interrupt>
      2a:	00 00       	nop
      2c:	73 c2       	rjmp	.+1254   	; 0x514 <__bad_interrupt>
      2e:	00 00       	nop
      30:	71 c2       	rjmp	.+1250   	; 0x514 <__bad_interrupt>
      32:	00 00       	nop
      34:	6f c2       	rjmp	.+1246   	; 0x514 <__bad_interrupt>
      36:	00 00       	nop
      38:	6d c2       	rjmp	.+1242   	; 0x514 <__bad_interrupt>
      3a:	00 00       	nop
      3c:	6b c2       	rjmp	.+1238   	; 0x514 <__bad_interrupt>
      3e:	00 00       	nop
      40:	0c 94 80 27 	jmp	0x4f00	; 0x4f00 <__vector_16>
      44:	67 c2       	rjmp	.+1230   	; 0x514 <__bad_interrupt>
      46:	00 00       	nop
      48:	0c 94 7d 25 	jmp	0x4afa	; 0x4afa <__vector_18>
      4c:	0c 94 af 25 	jmp	0x4b5e	; 0x4b5e <__vector_19>
      50:	61 c2       	rjmp	.+1218   	; 0x514 <__bad_interrupt>
      52:	00 00       	nop
      54:	5f c2       	rjmp	.+1214   	; 0x514 <__bad_interrupt>
      56:	00 00       	nop
      58:	5d c2       	rjmp	.+1210   	; 0x514 <__bad_interrupt>
      5a:	00 00       	nop
      5c:	5b c2       	rjmp	.+1206   	; 0x514 <__bad_interrupt>
      5e:	00 00       	nop
      60:	3d c3       	rjmp	.+1658   	; 0x6dc <__vector_24>
      62:	00 00       	nop
      64:	57 c2       	rjmp	.+1198   	; 0x514 <__bad_interrupt>
      66:	00 00       	nop
      68:	9b 04       	cpc	r9, r11
      6a:	9f 04       	cpc	r9, r15
      6c:	9f 04       	cpc	r9, r15
      6e:	9f 04       	cpc	r9, r15
      70:	9f 04       	cpc	r9, r15
      72:	9f 04       	cpc	r9, r15
      74:	9f 04       	cpc	r9, r15
      76:	9f 04       	cpc	r9, r15
      78:	9f 03       	fmulsu	r17, r23
      7a:	9f 04       	cpc	r9, r15
      7c:	9f 04       	cpc	r9, r15
      7e:	9f 04       	cpc	r9, r15
      80:	9f 04       	cpc	r9, r15
      82:	9f 04       	cpc	r9, r15
      84:	9f 04       	cpc	r9, r15
      86:	9f 04       	cpc	r9, r15
      88:	9f 03       	fmulsu	r17, r23
      8a:	9f 04       	cpc	r9, r15
      8c:	9f 04       	cpc	r9, r15
      8e:	9f 04       	cpc	r9, r15
      90:	9f 04       	cpc	r9, r15
      92:	9f 04       	cpc	r9, r15
      94:	9f 04       	cpc	r9, r15
      96:	9f 04       	cpc	r9, r15
      98:	a8 03       	fmulsu	r18, r16
      9a:	9f 04       	cpc	r9, r15
      9c:	9f 04       	cpc	r9, r15
      9e:	9f 04       	cpc	r9, r15
      a0:	9f 04       	cpc	r9, r15
      a2:	9f 04       	cpc	r9, r15
      a4:	9f 04       	cpc	r9, r15
      a6:	9f 04       	cpc	r9, r15
      a8:	d3 03       	fmuls	r21, r19
      aa:	9f 04       	cpc	r9, r15
      ac:	9f 04       	cpc	r9, r15
      ae:	9f 04       	cpc	r9, r15
      b0:	9f 04       	cpc	r9, r15
      b2:	9f 04       	cpc	r9, r15
      b4:	9f 04       	cpc	r9, r15
      b6:	9f 04       	cpc	r9, r15
      b8:	a8 03       	fmulsu	r18, r16
      ba:	9f 04       	cpc	r9, r15
      bc:	9f 04       	cpc	r9, r15
      be:	9f 04       	cpc	r9, r15
      c0:	9f 04       	cpc	r9, r15
      c2:	9f 04       	cpc	r9, r15
      c4:	9f 04       	cpc	r9, r15
      c6:	9f 04       	cpc	r9, r15
      c8:	d8 03       	fmulsu	r21, r16
      ca:	9f 04       	cpc	r9, r15
      cc:	9f 04       	cpc	r9, r15
      ce:	9f 04       	cpc	r9, r15
      d0:	9f 04       	cpc	r9, r15
      d2:	9f 04       	cpc	r9, r15
      d4:	9f 04       	cpc	r9, r15
      d6:	9f 04       	cpc	r9, r15
      d8:	dd 03       	fmulsu	r21, r21
      da:	9f 04       	cpc	r9, r15
      dc:	9f 04       	cpc	r9, r15
      de:	9f 04       	cpc	r9, r15
      e0:	9f 04       	cpc	r9, r15
      e2:	9f 04       	cpc	r9, r15
      e4:	9f 04       	cpc	r9, r15
      e6:	9f 04       	cpc	r9, r15
      e8:	f2 03       	fmuls	r23, r18
      ea:	9f 04       	cpc	r9, r15
      ec:	9f 04       	cpc	r9, r15
      ee:	9f 04       	cpc	r9, r15
      f0:	9f 04       	cpc	r9, r15
      f2:	9f 04       	cpc	r9, r15
      f4:	9f 04       	cpc	r9, r15
      f6:	9f 04       	cpc	r9, r15
      f8:	1f 04       	cpc	r1, r15
      fa:	9f 04       	cpc	r9, r15
      fc:	9f 04       	cpc	r9, r15
      fe:	9f 04       	cpc	r9, r15
     100:	9f 04       	cpc	r9, r15
     102:	9f 04       	cpc	r9, r15
     104:	9f 04       	cpc	r9, r15
     106:	9f 04       	cpc	r9, r15
     108:	e2 03       	fmuls	r22, r18
     10a:	9f 04       	cpc	r9, r15
     10c:	9f 04       	cpc	r9, r15
     10e:	9f 04       	cpc	r9, r15
     110:	9f 04       	cpc	r9, r15
     112:	9f 04       	cpc	r9, r15
     114:	9f 04       	cpc	r9, r15
     116:	9f 04       	cpc	r9, r15
     118:	fe 03       	fmulsu	r23, r22
     11a:	9f 04       	cpc	r9, r15
     11c:	9f 04       	cpc	r9, r15
     11e:	9f 04       	cpc	r9, r15
     120:	9f 04       	cpc	r9, r15
     122:	9f 04       	cpc	r9, r15
     124:	9f 04       	cpc	r9, r15
     126:	9f 04       	cpc	r9, r15
     128:	21 04       	cpc	r2, r1
     12a:	9f 04       	cpc	r9, r15
     12c:	9f 04       	cpc	r9, r15
     12e:	9f 04       	cpc	r9, r15
     130:	9f 04       	cpc	r9, r15
     132:	9f 04       	cpc	r9, r15
     134:	9f 04       	cpc	r9, r15
     136:	9f 04       	cpc	r9, r15
     138:	21 04       	cpc	r2, r1
     13a:	9f 04       	cpc	r9, r15
     13c:	9f 04       	cpc	r9, r15
     13e:	9f 04       	cpc	r9, r15
     140:	9f 04       	cpc	r9, r15
     142:	9f 04       	cpc	r9, r15
     144:	9f 04       	cpc	r9, r15
     146:	9f 04       	cpc	r9, r15
     148:	21 04       	cpc	r2, r1
     14a:	9f 04       	cpc	r9, r15
     14c:	9f 04       	cpc	r9, r15
     14e:	9f 04       	cpc	r9, r15
     150:	9f 04       	cpc	r9, r15
     152:	9f 04       	cpc	r9, r15
     154:	9f 04       	cpc	r9, r15
     156:	9f 04       	cpc	r9, r15
     158:	21 04       	cpc	r2, r1
     15a:	9f 04       	cpc	r9, r15
     15c:	9f 04       	cpc	r9, r15
     15e:	9f 04       	cpc	r9, r15
     160:	9f 04       	cpc	r9, r15
     162:	9f 04       	cpc	r9, r15
     164:	9f 04       	cpc	r9, r15
     166:	9f 04       	cpc	r9, r15
     168:	29 04       	cpc	r2, r9
     16a:	9f 04       	cpc	r9, r15
     16c:	9f 04       	cpc	r9, r15
     16e:	9f 04       	cpc	r9, r15
     170:	9f 04       	cpc	r9, r15
     172:	9f 04       	cpc	r9, r15
     174:	9f 04       	cpc	r9, r15
     176:	9f 04       	cpc	r9, r15
     178:	61 04       	cpc	r6, r1
     17a:	9f 04       	cpc	r9, r15
     17c:	9f 04       	cpc	r9, r15
     17e:	9f 04       	cpc	r9, r15
     180:	9f 04       	cpc	r9, r15
     182:	9f 04       	cpc	r9, r15
     184:	9f 04       	cpc	r9, r15
     186:	9f 04       	cpc	r9, r15
     188:	29 04       	cpc	r2, r9
     18a:	9f 04       	cpc	r9, r15
     18c:	9f 04       	cpc	r9, r15
     18e:	9f 04       	cpc	r9, r15
     190:	9f 04       	cpc	r9, r15
     192:	9f 04       	cpc	r9, r15
     194:	9f 04       	cpc	r9, r15
     196:	9f 04       	cpc	r9, r15
     198:	61 04       	cpc	r6, r1
     19a:	9f 04       	cpc	r9, r15
     19c:	9f 04       	cpc	r9, r15
     19e:	9f 04       	cpc	r9, r15
     1a0:	9f 04       	cpc	r9, r15
     1a2:	9f 04       	cpc	r9, r15
     1a4:	9f 04       	cpc	r9, r15
     1a6:	9f 04       	cpc	r9, r15
     1a8:	43 04       	cpc	r4, r3
     1aa:	9f 04       	cpc	r9, r15
     1ac:	9f 04       	cpc	r9, r15
     1ae:	9f 04       	cpc	r9, r15
     1b0:	9f 04       	cpc	r9, r15
     1b2:	9f 04       	cpc	r9, r15
     1b4:	9f 04       	cpc	r9, r15
     1b6:	9f 04       	cpc	r9, r15
     1b8:	64 04       	cpc	r6, r4
     1ba:	9f 04       	cpc	r9, r15
     1bc:	9f 04       	cpc	r9, r15
     1be:	9f 04       	cpc	r9, r15
     1c0:	9f 04       	cpc	r9, r15
     1c2:	9f 04       	cpc	r9, r15
     1c4:	9f 04       	cpc	r9, r15
     1c6:	9f 04       	cpc	r9, r15
     1c8:	64 04       	cpc	r6, r4
     1ca:	9f 04       	cpc	r9, r15
     1cc:	9f 04       	cpc	r9, r15
     1ce:	9f 04       	cpc	r9, r15
     1d0:	9f 04       	cpc	r9, r15
     1d2:	9f 04       	cpc	r9, r15
     1d4:	9f 04       	cpc	r9, r15
     1d6:	9f 04       	cpc	r9, r15
     1d8:	7a 04       	cpc	r7, r10
     1da:	9f 04       	cpc	r9, r15
     1dc:	9f 04       	cpc	r9, r15
     1de:	9f 04       	cpc	r9, r15
     1e0:	9f 04       	cpc	r9, r15
     1e2:	9f 04       	cpc	r9, r15
     1e4:	9f 04       	cpc	r9, r15
     1e6:	9f 04       	cpc	r9, r15
     1e8:	96 04       	cpc	r9, r6
     1ea:	9f 04       	cpc	r9, r15
     1ec:	9f 04       	cpc	r9, r15
     1ee:	9f 04       	cpc	r9, r15
     1f0:	9f 04       	cpc	r9, r15
     1f2:	9f 04       	cpc	r9, r15
     1f4:	9f 04       	cpc	r9, r15
     1f6:	9f 04       	cpc	r9, r15
     1f8:	96 04       	cpc	r9, r6
     1fa:	9f 04       	cpc	r9, r15
     1fc:	9f 04       	cpc	r9, r15
     1fe:	9f 04       	cpc	r9, r15
     200:	9f 04       	cpc	r9, r15
     202:	9f 04       	cpc	r9, r15
     204:	9f 04       	cpc	r9, r15
     206:	9f 04       	cpc	r9, r15
     208:	9f 04       	cpc	r9, r15
     20a:	9f 04       	cpc	r9, r15
     20c:	9f 04       	cpc	r9, r15
     20e:	9f 04       	cpc	r9, r15
     210:	9f 04       	cpc	r9, r15
     212:	9f 04       	cpc	r9, r15
     214:	9f 04       	cpc	r9, r15
     216:	9f 04       	cpc	r9, r15
     218:	9f 04       	cpc	r9, r15
     21a:	9f 04       	cpc	r9, r15
     21c:	9f 04       	cpc	r9, r15
     21e:	9f 04       	cpc	r9, r15
     220:	9f 04       	cpc	r9, r15
     222:	9f 04       	cpc	r9, r15
     224:	9f 04       	cpc	r9, r15
     226:	9f 04       	cpc	r9, r15
     228:	9f 04       	cpc	r9, r15
     22a:	9f 04       	cpc	r9, r15
     22c:	9f 04       	cpc	r9, r15
     22e:	9f 04       	cpc	r9, r15
     230:	9f 04       	cpc	r9, r15
     232:	9f 04       	cpc	r9, r15
     234:	9f 04       	cpc	r9, r15
     236:	9f 04       	cpc	r9, r15
     238:	9f 04       	cpc	r9, r15
     23a:	9f 04       	cpc	r9, r15
     23c:	9f 04       	cpc	r9, r15
     23e:	9f 04       	cpc	r9, r15
     240:	9f 04       	cpc	r9, r15
     242:	9f 04       	cpc	r9, r15
     244:	9f 04       	cpc	r9, r15
     246:	9f 04       	cpc	r9, r15
     248:	9f 04       	cpc	r9, r15
     24a:	9f 04       	cpc	r9, r15
     24c:	9f 04       	cpc	r9, r15
     24e:	9f 04       	cpc	r9, r15
     250:	9f 04       	cpc	r9, r15
     252:	9f 04       	cpc	r9, r15
     254:	9f 04       	cpc	r9, r15
     256:	9f 04       	cpc	r9, r15
     258:	9f 04       	cpc	r9, r15

0000025a <__trampolines_end>:
     25a:	4e 41       	sbci	r20, 0x1E	; 30
     25c:	4e 49       	Address 0x0000025c is out of bounds.
.word	0xffff	; ????

0000025d <pstr_inity>:
     25d:	49 4e 49 54 59                                      INITY

00000262 <pstr_inf>:
     262:	49 4e 46                                            INF

00000265 <pwr_m10>:
     265:	cd cc cc 3d 0a d7 23 3c 17 b7 d1 38 77 cc 2b 32     ...=..#<...8w.+2
     275:	95 95 e6 24 1f b1 4f 0a                             ...$..O.

0000027d <pwr_p10>:
     27d:	00 00 20 41 00 00 c8 42 00 40 1c 46 20 bc be 4c     .. A...B.@.F ..L
     28d:	ca 1b 0e 5a ae c5 9d 74 00 40 7a 10 f3 5a 00 a0     ...Z...t.@z..Z..
     29d:	72 4e 18 09 00 10 a5 d4 e8 00 00 e8 76 48 17 00     rN..........vH..
     2ad:	00 e4 0b 54 02 00 00 ca 9a 3b 00 00 00 e1 f5 05     ...T.....;......
     2bd:	00 00 80 96 98 00 00 00 40 42 0f 00 00 00 a0 86     ........@B......
     2cd:	01 00 00 00 10 27 00 00 00 00 e8 03 00 00 00 00     .....'..........
     2dd:	64 00 00 00 00 00 0a 00 00 00 00 00 01 00 00 00     d...............
     2ed:	00 00 2c 76 d8 88 dc 67 4f 08 23 df c1 df ae 59     ..,v...gO.#....Y
     2fd:	e1 b1 b7 96 e5 e3 e4 53 c6 3a e6 51 99 76 96 e8     .......S.:.Q.v..
     30d:	e6 c2 84 26 eb 89 8c 9b 62 ed 40 7c 6f fc ef bc     ...&....b.@|o...
     31d:	9c 9f 40 f2 ba a5 6f a5 f4 90 05 5a 2a f7 5c 93     ..@...o....Z*.\.
     32d:	6b 6c f9 67 6d c1 1b fc e0 e4 0d 47 fe f5 20 e6     kl.gm......G.. .
     33d:	b5 00 d0 ed 90 2e 03 00 94 35 77 05 00 80 84 1e     .........5w.....
     34d:	08 00 00 20 4e 0a 00 00 00 c8 0c 33 33 33 33 0f     ... N......3333.
     35d:	98 6e 12 83 11 41 ef 8d 21 14 89 3b e6 55 16 cf     .n...A..!..;.U..
     36d:	fe e6 db 18 d1 84 4b 38 1b f7 7c 1d 90 1d a4 bb     ......K8..|.....
     37d:	e4 24 20 32 84 72 5e 22 81 00 c9 f1 24 ec a1 e5     .$ 2.r^"....$...
     38d:	3d 27                                               ='

0000038f <_ZZN7LCDBase9ClearLineEsE3__c>:
     38f:	20 20 20 20 20 20 20 20 20 20 20 20 20 20 20 20                     
	...

000003a0 <_ZZN7MathExt16CalculateAverageEPiiE3__c>:
     3a0:	45 72 72 6f 72 20 6e 75 6d 62 65 72 20 66 6f 72     Error number for
     3b0:	20 74 68 65 20 61 72 72 61 79 20 74 6f 20 61 76      the array to av
     3c0:	72 61 67 69 6e 67 21 2f 6e 00                       raging!/n.

000003ca <_ZZN8PHSensor10getPHValueEvE3__c>:
     3ca:	50 48 20 52 61 77 20 52 65 61 64 69 6e 67 3a 20     PH Raw Reading: 
	...

000003db <_ZZN9TDSSensor11getTDSValueEvE3__c>:
     3db:	54 44 53 20 52 61 77 20 52 65 61 64 69 6e 67 3a     TDS Raw Reading:
     3eb:	20 00                                                .

000003ed <_ZZN15WaterSensorWire5SetupEvE3__c>:
     3ed:	5f 73 6c 61 76 65 3a 20 00                          _slave: .

000003f6 <_ZZN15WaterSensorWire7ReceiveEiE3__c>:
     3f6:	63 6d 64 3a 20 00                                   cmd: .

000003fc <_ZZN15WaterSensorWire7ReceiveEiE3__c_0>:
     3fc:	63 6d 64 44 61 74 61 3a 20 00                       cmdData: .

00000406 <_ZZN15WaterSensorWire7ReceiveEiE3__c_1>:
     406:	55 6e 65 78 70 65 63 74 65 64 20 6e 75 6d 62 65     Unexpected numbe
     416:	72 20 6f 66 20 62 79 74 65 73 20 72 65 63 65 69     r of bytes recei
     426:	76 65 64 3a 20 00                                   ved: .

0000042c <_ZZN15WaterSensorWire7RequestEvE3__c>:
     42c:	7e 72 65 73 70 6f 6e 73 65 49 6e 64 65 78 20 6e     ~responseIndex n
     43c:	6f 74 20 66 6f 75 6e 64 3a 20 00                    ot found: .

00000447 <_ZZ11AsyncDoWorkvE3__c>:
     447:	5b 53 65 6c 65 6c 63 74 5d 20 50 72 65 73 73 65     [Selelct] Presse
     457:	64 00                                               d.

00000459 <digital_pin_to_timer_PGM>:
     459:	00 00 00 08 00 02 01 00 00 03 04 07 00 00 00 00     ................
     469:	00 00 00 00                                         ....

0000046d <digital_pin_to_bit_mask_PGM>:
     46d:	01 02 04 08 10 20 40 80 01 02 04 08 10 20 01 02     ..... @...... ..
     47d:	04 08 10 20                                         ... 

00000481 <digital_pin_to_port_PGM>:
     481:	04 04 04 04 04 04 04 04 02 02 02 02 02 02 03 03     ................
     491:	03 03 03 03                                         ....

00000495 <port_to_input_PGM>:
     495:	00 00 00 00 23 00 26 00 29 00                       ....#.&.).

0000049f <port_to_output_PGM>:
     49f:	00 00 00 00 25 00 28 00 2b 00                       ....%.(.+.

000004a9 <port_to_mode_PGM>:
     4a9:	00 00 00 00 24 00 27 00 2a 00 00                    ....$.'.*..

000004b4 <__ctors_start>:
     4b4:	cc 06       	cpc	r12, r28
     4b6:	e7 0b       	sbc	r30, r23
     4b8:	0c 20       	and	r0, r12
     4ba:	e8 20       	and	r14, r8
     4bc:	2c 22       	and	r2, r28
     4be:	dd 25       	eor	r29, r13

000004c0 <__ctors_end>:
     4c0:	1a 20       	and	r1, r10
     4c2:	f6 20       	and	r15, r6

000004c4 <__dtors_end>:
     4c4:	11 24       	eor	r1, r1
     4c6:	1f be       	out	0x3f, r1	; 63
     4c8:	cf ef       	ldi	r28, 0xFF	; 255
     4ca:	d8 e0       	ldi	r29, 0x08	; 8
     4cc:	de bf       	out	0x3e, r29	; 62
     4ce:	cd bf       	out	0x3d, r28	; 61

000004d0 <__do_copy_data>:
     4d0:	11 e0       	ldi	r17, 0x01	; 1
     4d2:	a0 e0       	ldi	r26, 0x00	; 0
     4d4:	b1 e0       	ldi	r27, 0x01	; 1
     4d6:	e4 e7       	ldi	r30, 0x74	; 116
     4d8:	f7 e6       	ldi	r31, 0x67	; 103
     4da:	02 c0       	rjmp	.+4      	; 0x4e0 <__do_copy_data+0x10>
     4dc:	05 90       	lpm	r0, Z+
     4de:	0d 92       	st	X+, r0
     4e0:	a8 3d       	cpi	r26, 0xD8	; 216
     4e2:	b1 07       	cpc	r27, r17
     4e4:	d9 f7       	brne	.-10     	; 0x4dc <__do_copy_data+0xc>

000004e6 <__do_clear_bss>:
     4e6:	25 e0       	ldi	r18, 0x05	; 5
     4e8:	a8 ed       	ldi	r26, 0xD8	; 216
     4ea:	b1 e0       	ldi	r27, 0x01	; 1
     4ec:	01 c0       	rjmp	.+2      	; 0x4f0 <.do_clear_bss_start>

000004ee <.do_clear_bss_loop>:
     4ee:	1d 92       	st	X+, r1

000004f0 <.do_clear_bss_start>:
     4f0:	a1 3c       	cpi	r26, 0xC1	; 193
     4f2:	b2 07       	cpc	r27, r18
     4f4:	e1 f7       	brne	.-8      	; 0x4ee <.do_clear_bss_loop>

000004f6 <__do_global_ctors>:
     4f6:	12 e0       	ldi	r17, 0x02	; 2
     4f8:	c0 e6       	ldi	r28, 0x60	; 96
     4fa:	d2 e0       	ldi	r29, 0x02	; 2
     4fc:	04 c0       	rjmp	.+8      	; 0x506 <__do_global_ctors+0x10>
     4fe:	21 97       	sbiw	r28, 0x01	; 1
     500:	fe 01       	movw	r30, r28
     502:	0e 94 76 2c 	call	0x58ec	; 0x58ec <__tablejump2__>
     506:	ca 35       	cpi	r28, 0x5A	; 90
     508:	d1 07       	cpc	r29, r17
     50a:	c9 f7       	brne	.-14     	; 0x4fe <__do_global_ctors+0x8>
     50c:	0e 94 0b 26 	call	0x4c16	; 0x4c16 <main>
     510:	0c 94 ae 33 	jmp	0x675c	; 0x675c <__do_global_dtors>

00000514 <__bad_interrupt>:
     514:	75 cd       	rjmp	.-1302   	; 0x0 <__vectors>

00000516 <twi_init>:
    return 2;	// error: address send, nack received
  else if (twi_error == TW_MT_DATA_NACK)
    return 3;	// error: data send, nack received
  else
    return 4;	// other twi error
}
     516:	a0 e0       	ldi	r26, 0x00	; 0
     518:	b0 e0       	ldi	r27, 0x00	; 0
     51a:	e1 e9       	ldi	r30, 0x91	; 145
     51c:	f2 e0       	ldi	r31, 0x02	; 2
     51e:	0c 94 96 2c 	jmp	0x592c	; 0x592c <__prologue_saves__+0x20>
     522:	10 92 d8 01 	sts	0x01D8, r1	; 0x8001d8 <__data_end>
     526:	81 e0       	ldi	r24, 0x01	; 1
     528:	80 93 da 01 	sts	0x01DA, r24	; 0x8001da <twi_sendStop>
     52c:	10 92 db 01 	sts	0x01DB, r1	; 0x8001db <twi_inRepStart>
     530:	82 e1       	ldi	r24, 0x12	; 18
     532:	61 e0       	ldi	r22, 0x01	; 1
     534:	0e 94 fc 28 	call	0x51f8	; 0x51f8 <digitalWrite>
     538:	83 e1       	ldi	r24, 0x13	; 19
     53a:	61 e0       	ldi	r22, 0x01	; 1
     53c:	0e 94 fc 28 	call	0x51f8	; 0x51f8 <digitalWrite>
     540:	89 eb       	ldi	r24, 0xB9	; 185
     542:	90 e0       	ldi	r25, 0x00	; 0
     544:	29 eb       	ldi	r18, 0xB9	; 185
     546:	30 e0       	ldi	r19, 0x00	; 0
     548:	f9 01       	movw	r30, r18
     54a:	20 81       	ld	r18, Z
     54c:	2e 7f       	andi	r18, 0xFE	; 254
     54e:	fc 01       	movw	r30, r24
     550:	20 83       	st	Z, r18
     552:	89 eb       	ldi	r24, 0xB9	; 185
     554:	90 e0       	ldi	r25, 0x00	; 0
     556:	29 eb       	ldi	r18, 0xB9	; 185
     558:	30 e0       	ldi	r19, 0x00	; 0
     55a:	f9 01       	movw	r30, r18
     55c:	20 81       	ld	r18, Z
     55e:	2d 7f       	andi	r18, 0xFD	; 253
     560:	fc 01       	movw	r30, r24
     562:	20 83       	st	Z, r18
     564:	88 eb       	ldi	r24, 0xB8	; 184
     566:	90 e0       	ldi	r25, 0x00	; 0
     568:	28 e4       	ldi	r18, 0x48	; 72
     56a:	fc 01       	movw	r30, r24
     56c:	20 83       	st	Z, r18
     56e:	8c eb       	ldi	r24, 0xBC	; 188
     570:	90 e0       	ldi	r25, 0x00	; 0
     572:	25 e4       	ldi	r18, 0x45	; 69
     574:	fc 01       	movw	r30, r24
     576:	20 83       	st	Z, r18
     578:	e2 e0       	ldi	r30, 0x02	; 2
     57a:	0c 94 b2 2c 	jmp	0x5964	; 0x5964 <__epilogue_restores__+0x20>

0000057e <twi_setAddress>:
     57e:	a1 e0       	ldi	r26, 0x01	; 1
     580:	b0 e0       	ldi	r27, 0x00	; 0
     582:	e5 ec       	ldi	r30, 0xC5	; 197
     584:	f2 e0       	ldi	r31, 0x02	; 2
     586:	0c 94 96 2c 	jmp	0x592c	; 0x592c <__prologue_saves__+0x20>
     58a:	89 83       	std	Y+1, r24	; 0x01
     58c:	8a eb       	ldi	r24, 0xBA	; 186
     58e:	90 e0       	ldi	r25, 0x00	; 0
     590:	29 81       	ldd	r18, Y+1	; 0x01
     592:	22 0f       	add	r18, r18
     594:	fc 01       	movw	r30, r24
     596:	20 83       	st	Z, r18
     598:	21 96       	adiw	r28, 0x01	; 1
     59a:	e2 e0       	ldi	r30, 0x02	; 2
     59c:	0c 94 b2 2c 	jmp	0x5964	; 0x5964 <__epilogue_restores__+0x20>

000005a0 <twi_transmit>:
 * Output   1 length too long for buffer
 *          2 not slave transmitter
 *          0 ok
 */
uint8_t twi_transmit(const uint8_t* data, uint8_t length)
{
     5a0:	a4 e0       	ldi	r26, 0x04	; 4
     5a2:	b0 e0       	ldi	r27, 0x00	; 0
     5a4:	e6 ed       	ldi	r30, 0xD6	; 214
     5a6:	f2 e0       	ldi	r31, 0x02	; 2
     5a8:	0c 94 96 2c 	jmp	0x592c	; 0x592c <__prologue_saves__+0x20>
     5ac:	9b 83       	std	Y+3, r25	; 0x03
     5ae:	8a 83       	std	Y+2, r24	; 0x02
     5b0:	6c 83       	std	Y+4, r22	; 0x04
  uint8_t i;

  // ensure data will fit into buffer
  if(TWI_BUFFER_LENGTH < length){
     5b2:	8c 81       	ldd	r24, Y+4	; 0x04
     5b4:	81 32       	cpi	r24, 0x21	; 33
     5b6:	10 f0       	brcs	.+4      	; 0x5bc <twi_transmit+0x1c>
    return 1;
     5b8:	81 e0       	ldi	r24, 0x01	; 1
     5ba:	23 c0       	rjmp	.+70     	; 0x602 <twi_transmit+0x62>
  }
  
  // ensure we are currently a slave transmitter
  if(TWI_STX != twi_state){
     5bc:	80 91 d8 01 	lds	r24, 0x01D8	; 0x8001d8 <__data_end>
     5c0:	84 30       	cpi	r24, 0x04	; 4
     5c2:	11 f0       	breq	.+4      	; 0x5c8 <twi_transmit+0x28>
    return 2;
     5c4:	82 e0       	ldi	r24, 0x02	; 2
     5c6:	1d c0       	rjmp	.+58     	; 0x602 <twi_transmit+0x62>
  }
  
  // set length and copy data into tx buffer
  twi_txBufferLength = length;
     5c8:	8c 81       	ldd	r24, Y+4	; 0x04
     5ca:	80 93 23 02 	sts	0x0223, r24	; 0x800223 <twi_txBufferLength>
  for(i = 0; i < length; ++i){
     5ce:	19 82       	std	Y+1, r1	; 0x01
     5d0:	13 c0       	rjmp	.+38     	; 0x5f8 <twi_transmit+0x58>
    twi_txBuffer[i] = data[i];
     5d2:	89 81       	ldd	r24, Y+1	; 0x01
     5d4:	88 2f       	mov	r24, r24
     5d6:	90 e0       	ldi	r25, 0x00	; 0
     5d8:	29 81       	ldd	r18, Y+1	; 0x01
     5da:	22 2f       	mov	r18, r18
     5dc:	30 e0       	ldi	r19, 0x00	; 0
     5de:	4a 81       	ldd	r20, Y+2	; 0x02
     5e0:	5b 81       	ldd	r21, Y+3	; 0x03
     5e2:	24 0f       	add	r18, r20
     5e4:	35 1f       	adc	r19, r21
     5e6:	f9 01       	movw	r30, r18
     5e8:	20 81       	ld	r18, Z
     5ea:	8e 5f       	subi	r24, 0xFE	; 254
     5ec:	9d 4f       	sbci	r25, 0xFD	; 253
     5ee:	fc 01       	movw	r30, r24
     5f0:	20 83       	st	Z, r18
    return 2;
  }
  
  // set length and copy data into tx buffer
  twi_txBufferLength = length;
  for(i = 0; i < length; ++i){
     5f2:	89 81       	ldd	r24, Y+1	; 0x01
     5f4:	8f 5f       	subi	r24, 0xFF	; 255
     5f6:	89 83       	std	Y+1, r24	; 0x01
     5f8:	99 81       	ldd	r25, Y+1	; 0x01
     5fa:	8c 81       	ldd	r24, Y+4	; 0x04
     5fc:	98 17       	cp	r25, r24
     5fe:	48 f3       	brcs	.-46     	; 0x5d2 <twi_transmit+0x32>
    twi_txBuffer[i] = data[i];
  }
  
  return 0;
     600:	80 e0       	ldi	r24, 0x00	; 0
}
     602:	24 96       	adiw	r28, 0x04	; 4
     604:	e2 e0       	ldi	r30, 0x02	; 2
     606:	0c 94 b2 2c 	jmp	0x5964	; 0x5964 <__epilogue_restores__+0x20>

0000060a <twi_attachSlaveRxEvent>:
 * Desc     sets function called before a slave read operation
 * Input    function: callback function to use
 * Output   none
 */
void twi_attachSlaveRxEvent( void (*function)(uint8_t*, int) )
{
     60a:	a2 e0       	ldi	r26, 0x02	; 2
     60c:	b0 e0       	ldi	r27, 0x00	; 0
     60e:	eb e0       	ldi	r30, 0x0B	; 11
     610:	f3 e0       	ldi	r31, 0x03	; 3
     612:	0c 94 96 2c 	jmp	0x592c	; 0x592c <__prologue_saves__+0x20>
     616:	9a 83       	std	Y+2, r25	; 0x02
     618:	89 83       	std	Y+1, r24	; 0x01
  twi_onSlaveReceive = function;
     61a:	89 81       	ldd	r24, Y+1	; 0x01
     61c:	9a 81       	ldd	r25, Y+2	; 0x02
     61e:	90 93 df 01 	sts	0x01DF, r25	; 0x8001df <twi_onSlaveReceive+0x1>
     622:	80 93 de 01 	sts	0x01DE, r24	; 0x8001de <twi_onSlaveReceive>
}
     626:	22 96       	adiw	r28, 0x02	; 2
     628:	e2 e0       	ldi	r30, 0x02	; 2
     62a:	0c 94 b2 2c 	jmp	0x5964	; 0x5964 <__epilogue_restores__+0x20>

0000062e <twi_attachSlaveTxEvent>:
 * Desc     sets function called before a slave write operation
 * Input    function: callback function to use
 * Output   none
 */
void twi_attachSlaveTxEvent( void (*function)(void) )
{
     62e:	a2 e0       	ldi	r26, 0x02	; 2
     630:	b0 e0       	ldi	r27, 0x00	; 0
     632:	ed e1       	ldi	r30, 0x1D	; 29
     634:	f3 e0       	ldi	r31, 0x03	; 3
     636:	0c 94 96 2c 	jmp	0x592c	; 0x592c <__prologue_saves__+0x20>
     63a:	9a 83       	std	Y+2, r25	; 0x02
     63c:	89 83       	std	Y+1, r24	; 0x01
  twi_onSlaveTransmit = function;
     63e:	89 81       	ldd	r24, Y+1	; 0x01
     640:	9a 81       	ldd	r25, Y+2	; 0x02
     642:	90 93 dd 01 	sts	0x01DD, r25	; 0x8001dd <twi_onSlaveTransmit+0x1>
     646:	80 93 dc 01 	sts	0x01DC, r24	; 0x8001dc <twi_onSlaveTransmit>
}
     64a:	22 96       	adiw	r28, 0x02	; 2
     64c:	e2 e0       	ldi	r30, 0x02	; 2
     64e:	0c 94 b2 2c 	jmp	0x5964	; 0x5964 <__epilogue_restores__+0x20>

00000652 <twi_reply>:
 * Desc     sends byte or readys receive line
 * Input    ack: byte indicating to ack or to nack
 * Output   none
 */
void twi_reply(uint8_t ack)
{
     652:	a1 e0       	ldi	r26, 0x01	; 1
     654:	b0 e0       	ldi	r27, 0x00	; 0
     656:	ef e2       	ldi	r30, 0x2F	; 47
     658:	f3 e0       	ldi	r31, 0x03	; 3
     65a:	0c 94 96 2c 	jmp	0x592c	; 0x592c <__prologue_saves__+0x20>
     65e:	89 83       	std	Y+1, r24	; 0x01
  // transmit master read ready signal, with or without ack
  if(ack){
     660:	89 81       	ldd	r24, Y+1	; 0x01
     662:	88 23       	and	r24, r24
     664:	31 f0       	breq	.+12     	; 0x672 <twi_reply+0x20>
    TWCR = _BV(TWEN) | _BV(TWIE) | _BV(TWINT) | _BV(TWEA);
     666:	8c eb       	ldi	r24, 0xBC	; 188
     668:	90 e0       	ldi	r25, 0x00	; 0
     66a:	25 ec       	ldi	r18, 0xC5	; 197
     66c:	fc 01       	movw	r30, r24
     66e:	20 83       	st	Z, r18
     670:	05 c0       	rjmp	.+10     	; 0x67c <twi_reply+0x2a>
  }else{
	  TWCR = _BV(TWEN) | _BV(TWIE) | _BV(TWINT);
     672:	8c eb       	ldi	r24, 0xBC	; 188
     674:	90 e0       	ldi	r25, 0x00	; 0
     676:	25 e8       	ldi	r18, 0x85	; 133
     678:	fc 01       	movw	r30, r24
     67a:	20 83       	st	Z, r18
  }
}
     67c:	21 96       	adiw	r28, 0x01	; 1
     67e:	e2 e0       	ldi	r30, 0x02	; 2
     680:	0c 94 b2 2c 	jmp	0x5964	; 0x5964 <__epilogue_restores__+0x20>

00000684 <twi_stop>:
 * Desc     relinquishes bus master status
 * Input    none
 * Output   none
 */
void twi_stop(void)
{
     684:	a0 e0       	ldi	r26, 0x00	; 0
     686:	b0 e0       	ldi	r27, 0x00	; 0
     688:	e8 e4       	ldi	r30, 0x48	; 72
     68a:	f3 e0       	ldi	r31, 0x03	; 3
     68c:	0c 94 96 2c 	jmp	0x592c	; 0x592c <__prologue_saves__+0x20>
  // send stop condition
  TWCR = _BV(TWEN) | _BV(TWIE) | _BV(TWEA) | _BV(TWINT) | _BV(TWSTO);
     690:	8c eb       	ldi	r24, 0xBC	; 188
     692:	90 e0       	ldi	r25, 0x00	; 0
     694:	25 ed       	ldi	r18, 0xD5	; 213
     696:	fc 01       	movw	r30, r24
     698:	20 83       	st	Z, r18

  // wait for stop condition to be exectued on bus
  // TWINT is not set after a stop condition!
  while(TWCR & _BV(TWSTO)){
     69a:	01 c0       	rjmp	.+2      	; 0x69e <twi_stop+0x1a>
    continue;
     69c:	00 00       	nop
  // send stop condition
  TWCR = _BV(TWEN) | _BV(TWIE) | _BV(TWEA) | _BV(TWINT) | _BV(TWSTO);

  // wait for stop condition to be exectued on bus
  // TWINT is not set after a stop condition!
  while(TWCR & _BV(TWSTO)){
     69e:	8c eb       	ldi	r24, 0xBC	; 188
     6a0:	90 e0       	ldi	r25, 0x00	; 0
     6a2:	fc 01       	movw	r30, r24
     6a4:	80 81       	ld	r24, Z
     6a6:	88 2f       	mov	r24, r24
     6a8:	90 e0       	ldi	r25, 0x00	; 0
     6aa:	80 71       	andi	r24, 0x10	; 16
     6ac:	99 27       	eor	r25, r25
     6ae:	89 2b       	or	r24, r25
     6b0:	a9 f7       	brne	.-22     	; 0x69c <twi_stop+0x18>
    continue;
  }

  // update twi state
  twi_state = TWI_READY;
     6b2:	10 92 d8 01 	sts	0x01D8, r1	; 0x8001d8 <__data_end>
}
     6b6:	e2 e0       	ldi	r30, 0x02	; 2
     6b8:	0c 94 b2 2c 	jmp	0x5964	; 0x5964 <__epilogue_restores__+0x20>

000006bc <twi_releaseBus>:
 * Desc     releases bus control
 * Input    none
 * Output   none
 */
void twi_releaseBus(void)
{
     6bc:	a0 e0       	ldi	r26, 0x00	; 0
     6be:	b0 e0       	ldi	r27, 0x00	; 0
     6c0:	e4 e6       	ldi	r30, 0x64	; 100
     6c2:	f3 e0       	ldi	r31, 0x03	; 3
     6c4:	0c 94 96 2c 	jmp	0x592c	; 0x592c <__prologue_saves__+0x20>
  // release bus
  TWCR = _BV(TWEN) | _BV(TWIE) | _BV(TWEA) | _BV(TWINT);
     6c8:	8c eb       	ldi	r24, 0xBC	; 188
     6ca:	90 e0       	ldi	r25, 0x00	; 0
     6cc:	25 ec       	ldi	r18, 0xC5	; 197
     6ce:	fc 01       	movw	r30, r24
     6d0:	20 83       	st	Z, r18

  // update twi state
  twi_state = TWI_READY;
     6d2:	10 92 d8 01 	sts	0x01D8, r1	; 0x8001d8 <__data_end>
}
     6d6:	e2 e0       	ldi	r30, 0x02	; 2
     6d8:	0c 94 b2 2c 	jmp	0x5964	; 0x5964 <__epilogue_restores__+0x20>

000006dc <__vector_24>:

ISR(TWI_vect)
{
     6dc:	1f 92       	push	r1
     6de:	0f 92       	push	r0
     6e0:	00 90 5f 00 	lds	r0, 0x005F	; 0x80005f <__TEXT_REGION_LENGTH__+0x7e005f>
     6e4:	0f 92       	push	r0
     6e6:	11 24       	eor	r1, r1
     6e8:	2f 93       	push	r18
     6ea:	3f 93       	push	r19
     6ec:	4f 93       	push	r20
     6ee:	5f 93       	push	r21
     6f0:	6f 93       	push	r22
     6f2:	7f 93       	push	r23
     6f4:	8f 93       	push	r24
     6f6:	9f 93       	push	r25
     6f8:	af 93       	push	r26
     6fa:	bf 93       	push	r27
     6fc:	ef 93       	push	r30
     6fe:	ff 93       	push	r31
     700:	cf 93       	push	r28
     702:	df 93       	push	r29
     704:	cd b7       	in	r28, 0x3d	; 61
     706:	de b7       	in	r29, 0x3e	; 62
  switch(TW_STATUS){
     708:	89 eb       	ldi	r24, 0xB9	; 185
     70a:	90 e0       	ldi	r25, 0x00	; 0
     70c:	fc 01       	movw	r30, r24
     70e:	80 81       	ld	r24, Z
     710:	88 2f       	mov	r24, r24
     712:	90 e0       	ldi	r25, 0x00	; 0
     714:	88 7f       	andi	r24, 0xF8	; 248
     716:	99 27       	eor	r25, r25
     718:	09 2e       	mov	r0, r25
     71a:	00 0c       	add	r0, r0
     71c:	aa 0b       	sbc	r26, r26
     71e:	bb 0b       	sbc	r27, r27
     720:	40 e0       	ldi	r20, 0x00	; 0
     722:	50 e0       	ldi	r21, 0x00	; 0
     724:	28 ef       	ldi	r18, 0xF8	; 248
     726:	30 e0       	ldi	r19, 0x00	; 0
     728:	84 1b       	sub	r24, r20
     72a:	95 0b       	sbc	r25, r21
     72c:	28 17       	cp	r18, r24
     72e:	39 07       	cpc	r19, r25
     730:	08 f4       	brcc	.+2      	; 0x734 <__vector_24+0x58>
     732:	05 c1       	rjmp	.+522    	; 0x93e <__stack+0x3f>
     734:	8c 5c       	subi	r24, 0xCC	; 204
     736:	9f 4f       	sbci	r25, 0xFF	; 255
     738:	fc 01       	movw	r30, r24
     73a:	0c 94 76 2c 	jmp	0x58ec	; 0x58ec <__tablejump2__>
    // All Master
    case TW_START:     // sent start condition
    case TW_REP_START: // sent repeated start condition
      // copy device address and r/w bit to output register and ack
      TWDR = twi_slarw;
     73e:	8b eb       	ldi	r24, 0xBB	; 187
     740:	90 e0       	ldi	r25, 0x00	; 0
     742:	20 91 d9 01 	lds	r18, 0x01D9	; 0x8001d9 <twi_slarw>
     746:	fc 01       	movw	r30, r24
     748:	20 83       	st	Z, r18
      twi_reply(1);
     74a:	81 e0       	ldi	r24, 0x01	; 1
     74c:	82 df       	rcall	.-252    	; 0x652 <twi_reply>
      break;
     74e:	f7 c0       	rjmp	.+494    	; 0x93e <__stack+0x3f>

    // Master Transmitter
    case TW_MT_SLA_ACK:  // slave receiver acked address
    case TW_MT_DATA_ACK: // slave receiver acked data
      // if there is data to send, send it, otherwise stop 
      if(twi_masterBufferIndex < twi_masterBufferLength){
     750:	90 91 00 02 	lds	r25, 0x0200	; 0x800200 <twi_masterBufferIndex>
     754:	80 91 01 02 	lds	r24, 0x0201	; 0x800201 <twi_masterBufferLength>
     758:	98 17       	cp	r25, r24
     75a:	98 f4       	brcc	.+38     	; 0x782 <__vector_24+0xa6>
        // copy data to output register and ack
        TWDR = twi_masterBuffer[twi_masterBufferIndex++];
     75c:	8b eb       	ldi	r24, 0xBB	; 187
     75e:	90 e0       	ldi	r25, 0x00	; 0
     760:	20 91 00 02 	lds	r18, 0x0200	; 0x800200 <twi_masterBufferIndex>
     764:	31 e0       	ldi	r19, 0x01	; 1
     766:	32 0f       	add	r19, r18
     768:	30 93 00 02 	sts	0x0200, r19	; 0x800200 <twi_masterBufferIndex>
     76c:	22 2f       	mov	r18, r18
     76e:	30 e0       	ldi	r19, 0x00	; 0
     770:	20 52       	subi	r18, 0x20	; 32
     772:	3e 4f       	sbci	r19, 0xFE	; 254
     774:	f9 01       	movw	r30, r18
     776:	20 81       	ld	r18, Z
     778:	fc 01       	movw	r30, r24
     77a:	20 83       	st	Z, r18
        twi_reply(1);
     77c:	81 e0       	ldi	r24, 0x01	; 1
     77e:	69 df       	rcall	.-302    	; 0x652 <twi_reply>
     780:	11 c0       	rjmp	.+34     	; 0x7a4 <__vector_24+0xc8>
      }else{
	if (twi_sendStop)
     782:	80 91 da 01 	lds	r24, 0x01DA	; 0x8001da <twi_sendStop>
     786:	88 23       	and	r24, r24
     788:	11 f0       	breq	.+4      	; 0x78e <__vector_24+0xb2>
          twi_stop();
     78a:	7c df       	rcall	.-264    	; 0x684 <twi_stop>
     78c:	0b c0       	rjmp	.+22     	; 0x7a4 <__vector_24+0xc8>
	else {
	  twi_inRepStart = true;	// we're gonna send the START
     78e:	81 e0       	ldi	r24, 0x01	; 1
     790:	80 93 db 01 	sts	0x01DB, r24	; 0x8001db <twi_inRepStart>
	  // don't enable the interrupt. We'll generate the start, but we 
	  // avoid handling the interrupt until we're in the next transaction,
	  // at the point where we would normally issue the start.
	  TWCR = _BV(TWINT) | _BV(TWSTA)| _BV(TWEN) ;
     794:	8c eb       	ldi	r24, 0xBC	; 188
     796:	90 e0       	ldi	r25, 0x00	; 0
     798:	24 ea       	ldi	r18, 0xA4	; 164
     79a:	fc 01       	movw	r30, r24
     79c:	20 83       	st	Z, r18
	  twi_state = TWI_READY;
     79e:	10 92 d8 01 	sts	0x01D8, r1	; 0x8001d8 <__data_end>
	}
      }
      break;
     7a2:	cd c0       	rjmp	.+410    	; 0x93e <__stack+0x3f>
     7a4:	cc c0       	rjmp	.+408    	; 0x93e <__stack+0x3f>
    case TW_MT_SLA_NACK:  // address sent, nack received
      twi_error = TW_MT_SLA_NACK;
     7a6:	80 e2       	ldi	r24, 0x20	; 32
     7a8:	80 93 45 02 	sts	0x0245, r24	; 0x800245 <twi_error>
      twi_stop();
     7ac:	6b df       	rcall	.-298    	; 0x684 <twi_stop>
      break;
     7ae:	c7 c0       	rjmp	.+398    	; 0x93e <__stack+0x3f>
    case TW_MT_DATA_NACK: // data sent, nack received
      twi_error = TW_MT_DATA_NACK;
     7b0:	80 e3       	ldi	r24, 0x30	; 48
     7b2:	80 93 45 02 	sts	0x0245, r24	; 0x800245 <twi_error>
      twi_stop();
     7b6:	66 df       	rcall	.-308    	; 0x684 <twi_stop>
      break;
     7b8:	c2 c0       	rjmp	.+388    	; 0x93e <__stack+0x3f>
    case TW_MT_ARB_LOST: // lost bus arbitration
      twi_error = TW_MT_ARB_LOST;
     7ba:	88 e3       	ldi	r24, 0x38	; 56
     7bc:	80 93 45 02 	sts	0x0245, r24	; 0x800245 <twi_error>
      twi_releaseBus();
     7c0:	7d df       	rcall	.-262    	; 0x6bc <twi_releaseBus>
      break;
     7c2:	bd c0       	rjmp	.+378    	; 0x93e <__stack+0x3f>

    // Master Receiver
    case TW_MR_DATA_ACK: // data received, ack sent
      // put byte into buffer
      twi_masterBuffer[twi_masterBufferIndex++] = TWDR;
     7c4:	80 91 00 02 	lds	r24, 0x0200	; 0x800200 <twi_masterBufferIndex>
     7c8:	91 e0       	ldi	r25, 0x01	; 1
     7ca:	98 0f       	add	r25, r24
     7cc:	90 93 00 02 	sts	0x0200, r25	; 0x800200 <twi_masterBufferIndex>
     7d0:	88 2f       	mov	r24, r24
     7d2:	90 e0       	ldi	r25, 0x00	; 0
     7d4:	2b eb       	ldi	r18, 0xBB	; 187
     7d6:	30 e0       	ldi	r19, 0x00	; 0
     7d8:	f9 01       	movw	r30, r18
     7da:	20 81       	ld	r18, Z
     7dc:	80 52       	subi	r24, 0x20	; 32
     7de:	9e 4f       	sbci	r25, 0xFE	; 254
     7e0:	fc 01       	movw	r30, r24
     7e2:	20 83       	st	Z, r18
    case TW_MR_SLA_ACK:  // address sent, ack received
      // ack if more bytes are expected, otherwise nack
      if(twi_masterBufferIndex < twi_masterBufferLength){
     7e4:	90 91 00 02 	lds	r25, 0x0200	; 0x800200 <twi_masterBufferIndex>
     7e8:	80 91 01 02 	lds	r24, 0x0201	; 0x800201 <twi_masterBufferLength>
     7ec:	98 17       	cp	r25, r24
     7ee:	18 f4       	brcc	.+6      	; 0x7f6 <__vector_24+0x11a>
        twi_reply(1);
     7f0:	81 e0       	ldi	r24, 0x01	; 1
     7f2:	2f df       	rcall	.-418    	; 0x652 <twi_reply>
      }else{
        twi_reply(0);
      }
      break;
     7f4:	a4 c0       	rjmp	.+328    	; 0x93e <__stack+0x3f>
    case TW_MR_SLA_ACK:  // address sent, ack received
      // ack if more bytes are expected, otherwise nack
      if(twi_masterBufferIndex < twi_masterBufferLength){
        twi_reply(1);
      }else{
        twi_reply(0);
     7f6:	80 e0       	ldi	r24, 0x00	; 0
     7f8:	2c df       	rcall	.-424    	; 0x652 <twi_reply>
      }
      break;
     7fa:	a1 c0       	rjmp	.+322    	; 0x93e <__stack+0x3f>
    case TW_MR_DATA_NACK: // data received, nack sent
      // put final byte into buffer
      twi_masterBuffer[twi_masterBufferIndex++] = TWDR;
     7fc:	80 91 00 02 	lds	r24, 0x0200	; 0x800200 <twi_masterBufferIndex>
     800:	91 e0       	ldi	r25, 0x01	; 1
     802:	98 0f       	add	r25, r24
     804:	90 93 00 02 	sts	0x0200, r25	; 0x800200 <twi_masterBufferIndex>
     808:	88 2f       	mov	r24, r24
     80a:	90 e0       	ldi	r25, 0x00	; 0
     80c:	2b eb       	ldi	r18, 0xBB	; 187
     80e:	30 e0       	ldi	r19, 0x00	; 0
     810:	f9 01       	movw	r30, r18
     812:	20 81       	ld	r18, Z
     814:	80 52       	subi	r24, 0x20	; 32
     816:	9e 4f       	sbci	r25, 0xFE	; 254
     818:	fc 01       	movw	r30, r24
     81a:	20 83       	st	Z, r18
	if (twi_sendStop)
     81c:	80 91 da 01 	lds	r24, 0x01DA	; 0x8001da <twi_sendStop>
     820:	88 23       	and	r24, r24
     822:	11 f0       	breq	.+4      	; 0x828 <__vector_24+0x14c>
          twi_stop();
     824:	2f df       	rcall	.-418    	; 0x684 <twi_stop>
	  // avoid handling the interrupt until we're in the next transaction,
	  // at the point where we would normally issue the start.
	  TWCR = _BV(TWINT) | _BV(TWSTA)| _BV(TWEN) ;
	  twi_state = TWI_READY;
	}    
	break;
     826:	8b c0       	rjmp	.+278    	; 0x93e <__stack+0x3f>
      // put final byte into buffer
      twi_masterBuffer[twi_masterBufferIndex++] = TWDR;
	if (twi_sendStop)
          twi_stop();
	else {
	  twi_inRepStart = true;	// we're gonna send the START
     828:	81 e0       	ldi	r24, 0x01	; 1
     82a:	80 93 db 01 	sts	0x01DB, r24	; 0x8001db <twi_inRepStart>
	  // don't enable the interrupt. We'll generate the start, but we 
	  // avoid handling the interrupt until we're in the next transaction,
	  // at the point where we would normally issue the start.
	  TWCR = _BV(TWINT) | _BV(TWSTA)| _BV(TWEN) ;
     82e:	8c eb       	ldi	r24, 0xBC	; 188
     830:	90 e0       	ldi	r25, 0x00	; 0
     832:	24 ea       	ldi	r18, 0xA4	; 164
     834:	fc 01       	movw	r30, r24
     836:	20 83       	st	Z, r18
	  twi_state = TWI_READY;
     838:	10 92 d8 01 	sts	0x01D8, r1	; 0x8001d8 <__data_end>
	}    
	break;
     83c:	80 c0       	rjmp	.+256    	; 0x93e <__stack+0x3f>
    case TW_MR_SLA_NACK: // address sent, nack received
      twi_stop();
     83e:	22 df       	rcall	.-444    	; 0x684 <twi_stop>
      break;
     840:	7e c0       	rjmp	.+252    	; 0x93e <__stack+0x3f>
    case TW_SR_SLA_ACK:   // addressed, returned ack
    case TW_SR_GCALL_ACK: // addressed generally, returned ack
    case TW_SR_ARB_LOST_SLA_ACK:   // lost arbitration, returned ack
    case TW_SR_ARB_LOST_GCALL_ACK: // lost arbitration, returned ack
      // enter slave receiver mode
      twi_state = TWI_SRX;
     842:	83 e0       	ldi	r24, 0x03	; 3
     844:	80 93 d8 01 	sts	0x01D8, r24	; 0x8001d8 <__data_end>
      // indicate that rx buffer can be overwritten and ack
      twi_rxBufferIndex = 0;
     848:	10 92 44 02 	sts	0x0244, r1	; 0x800244 <twi_rxBufferIndex>
      twi_reply(1);
     84c:	81 e0       	ldi	r24, 0x01	; 1
     84e:	01 df       	rcall	.-510    	; 0x652 <twi_reply>
      break;
     850:	76 c0       	rjmp	.+236    	; 0x93e <__stack+0x3f>
    case TW_SR_DATA_ACK:       // data received, returned ack
    case TW_SR_GCALL_DATA_ACK: // data received generally, returned ack
      // if there is still room in the rx buffer
      if(twi_rxBufferIndex < TWI_BUFFER_LENGTH){
     852:	80 91 44 02 	lds	r24, 0x0244	; 0x800244 <twi_rxBufferIndex>
     856:	80 32       	cpi	r24, 0x20	; 32
     858:	98 f4       	brcc	.+38     	; 0x880 <__vector_24+0x1a4>
        // put byte in buffer and ack
        twi_rxBuffer[twi_rxBufferIndex++] = TWDR;
     85a:	80 91 44 02 	lds	r24, 0x0244	; 0x800244 <twi_rxBufferIndex>
     85e:	91 e0       	ldi	r25, 0x01	; 1
     860:	98 0f       	add	r25, r24
     862:	90 93 44 02 	sts	0x0244, r25	; 0x800244 <twi_rxBufferIndex>
     866:	88 2f       	mov	r24, r24
     868:	90 e0       	ldi	r25, 0x00	; 0
     86a:	2b eb       	ldi	r18, 0xBB	; 187
     86c:	30 e0       	ldi	r19, 0x00	; 0
     86e:	f9 01       	movw	r30, r18
     870:	20 81       	ld	r18, Z
     872:	8c 5d       	subi	r24, 0xDC	; 220
     874:	9d 4f       	sbci	r25, 0xFD	; 253
     876:	fc 01       	movw	r30, r24
     878:	20 83       	st	Z, r18
        twi_reply(1);
     87a:	81 e0       	ldi	r24, 0x01	; 1
     87c:	ea de       	rcall	.-556    	; 0x652 <twi_reply>
      }else{
        // otherwise nack
        twi_reply(0);
      }
      break;
     87e:	5f c0       	rjmp	.+190    	; 0x93e <__stack+0x3f>
        // put byte in buffer and ack
        twi_rxBuffer[twi_rxBufferIndex++] = TWDR;
        twi_reply(1);
      }else{
        // otherwise nack
        twi_reply(0);
     880:	80 e0       	ldi	r24, 0x00	; 0
     882:	e7 de       	rcall	.-562    	; 0x652 <twi_reply>
      }
      break;
     884:	5c c0       	rjmp	.+184    	; 0x93e <__stack+0x3f>
    case TW_SR_STOP: // stop or repeated start condition received
      // put a null char after data if there's room
      if(twi_rxBufferIndex < TWI_BUFFER_LENGTH){
     886:	80 91 44 02 	lds	r24, 0x0244	; 0x800244 <twi_rxBufferIndex>
     88a:	80 32       	cpi	r24, 0x20	; 32
     88c:	40 f4       	brcc	.+16     	; 0x89e <__vector_24+0x1c2>
        twi_rxBuffer[twi_rxBufferIndex] = '\0';
     88e:	80 91 44 02 	lds	r24, 0x0244	; 0x800244 <twi_rxBufferIndex>
     892:	88 2f       	mov	r24, r24
     894:	90 e0       	ldi	r25, 0x00	; 0
     896:	8c 5d       	subi	r24, 0xDC	; 220
     898:	9d 4f       	sbci	r25, 0xFD	; 253
     89a:	fc 01       	movw	r30, r24
     89c:	10 82       	st	Z, r1
      }
      // sends ack and stops interface for clock stretching
      twi_stop();
     89e:	f2 de       	rcall	.-540    	; 0x684 <twi_stop>
      // callback to user defined callback
      twi_onSlaveReceive(twi_rxBuffer, twi_rxBufferIndex);
     8a0:	20 91 de 01 	lds	r18, 0x01DE	; 0x8001de <twi_onSlaveReceive>
     8a4:	30 91 df 01 	lds	r19, 0x01DF	; 0x8001df <twi_onSlaveReceive+0x1>
     8a8:	80 91 44 02 	lds	r24, 0x0244	; 0x800244 <twi_rxBufferIndex>
     8ac:	88 2f       	mov	r24, r24
     8ae:	90 e0       	ldi	r25, 0x00	; 0
     8b0:	bc 01       	movw	r22, r24
     8b2:	84 e2       	ldi	r24, 0x24	; 36
     8b4:	92 e0       	ldi	r25, 0x02	; 2
     8b6:	f9 01       	movw	r30, r18
     8b8:	09 95       	icall
      // since we submit rx buffer to "wire" library, we can reset it
      twi_rxBufferIndex = 0;
     8ba:	10 92 44 02 	sts	0x0244, r1	; 0x800244 <twi_rxBufferIndex>
      // ack future responses and leave slave receiver state
      twi_releaseBus();
     8be:	fe de       	rcall	.-516    	; 0x6bc <twi_releaseBus>
      break;
     8c0:	3e c0       	rjmp	.+124    	; 0x93e <__stack+0x3f>
    case TW_SR_DATA_NACK:       // data received, returned nack
    case TW_SR_GCALL_DATA_NACK: // data received generally, returned nack
      // nack back at master
      twi_reply(0);
     8c2:	80 e0       	ldi	r24, 0x00	; 0
     8c4:	c6 de       	rcall	.-628    	; 0x652 <twi_reply>
      break;
     8c6:	3b c0       	rjmp	.+118    	; 0x93e <__stack+0x3f>
    
    // Slave Transmitter
    case TW_ST_SLA_ACK:          // addressed, returned ack
    case TW_ST_ARB_LOST_SLA_ACK: // arbitration lost, returned ack
      // enter slave transmitter mode
      twi_state = TWI_STX;
     8c8:	84 e0       	ldi	r24, 0x04	; 4
     8ca:	80 93 d8 01 	sts	0x01D8, r24	; 0x8001d8 <__data_end>
      // ready the tx buffer index for iteration
      twi_txBufferIndex = 0;
     8ce:	10 92 22 02 	sts	0x0222, r1	; 0x800222 <twi_txBufferIndex>
      // set tx buffer length to be zero, to verify if user changes it
      twi_txBufferLength = 0;
     8d2:	10 92 23 02 	sts	0x0223, r1	; 0x800223 <twi_txBufferLength>
      // request for txBuffer to be filled and length to be set
      // note: user must call twi_transmit(bytes, length) to do this
      twi_onSlaveTransmit();
     8d6:	80 91 dc 01 	lds	r24, 0x01DC	; 0x8001dc <twi_onSlaveTransmit>
     8da:	90 91 dd 01 	lds	r25, 0x01DD	; 0x8001dd <twi_onSlaveTransmit+0x1>
     8de:	fc 01       	movw	r30, r24
     8e0:	09 95       	icall
      // if they didn't change buffer & length, initialize it
      if(0 == twi_txBufferLength){
     8e2:	80 91 23 02 	lds	r24, 0x0223	; 0x800223 <twi_txBufferLength>
     8e6:	88 23       	and	r24, r24
     8e8:	29 f4       	brne	.+10     	; 0x8f4 <__vector_24+0x218>
        twi_txBufferLength = 1;
     8ea:	81 e0       	ldi	r24, 0x01	; 1
     8ec:	80 93 23 02 	sts	0x0223, r24	; 0x800223 <twi_txBufferLength>
        twi_txBuffer[0] = 0x00;
     8f0:	10 92 02 02 	sts	0x0202, r1	; 0x800202 <twi_txBuffer>
      }
      // transmit first byte from buffer, fall
    case TW_ST_DATA_ACK: // byte sent, ack returned
      // copy data to output register
      TWDR = twi_txBuffer[twi_txBufferIndex++];
     8f4:	8b eb       	ldi	r24, 0xBB	; 187
     8f6:	90 e0       	ldi	r25, 0x00	; 0
     8f8:	20 91 22 02 	lds	r18, 0x0222	; 0x800222 <twi_txBufferIndex>
     8fc:	31 e0       	ldi	r19, 0x01	; 1
     8fe:	32 0f       	add	r19, r18
     900:	30 93 22 02 	sts	0x0222, r19	; 0x800222 <twi_txBufferIndex>
     904:	22 2f       	mov	r18, r18
     906:	30 e0       	ldi	r19, 0x00	; 0
     908:	2e 5f       	subi	r18, 0xFE	; 254
     90a:	3d 4f       	sbci	r19, 0xFD	; 253
     90c:	f9 01       	movw	r30, r18
     90e:	20 81       	ld	r18, Z
     910:	fc 01       	movw	r30, r24
     912:	20 83       	st	Z, r18
      // if there is more to send, ack, otherwise nack
      if(twi_txBufferIndex < twi_txBufferLength){
     914:	90 91 22 02 	lds	r25, 0x0222	; 0x800222 <twi_txBufferIndex>
     918:	80 91 23 02 	lds	r24, 0x0223	; 0x800223 <twi_txBufferLength>
     91c:	98 17       	cp	r25, r24
     91e:	18 f4       	brcc	.+6      	; 0x926 <__stack+0x27>
        twi_reply(1);
     920:	81 e0       	ldi	r24, 0x01	; 1
     922:	97 de       	rcall	.-722    	; 0x652 <twi_reply>
      }else{
        twi_reply(0);
      }
      break;
     924:	0c c0       	rjmp	.+24     	; 0x93e <__stack+0x3f>
      TWDR = twi_txBuffer[twi_txBufferIndex++];
      // if there is more to send, ack, otherwise nack
      if(twi_txBufferIndex < twi_txBufferLength){
        twi_reply(1);
      }else{
        twi_reply(0);
     926:	80 e0       	ldi	r24, 0x00	; 0
     928:	94 de       	rcall	.-728    	; 0x652 <twi_reply>
      }
      break;
     92a:	09 c0       	rjmp	.+18     	; 0x93e <__stack+0x3f>
    case TW_ST_DATA_NACK: // received nack, we are done 
    case TW_ST_LAST_DATA: // received ack, but we are done already!
      // ack future responses
      twi_reply(1);
     92c:	81 e0       	ldi	r24, 0x01	; 1
     92e:	91 de       	rcall	.-734    	; 0x652 <twi_reply>
      // leave slave receiver state
      twi_state = TWI_READY;
     930:	10 92 d8 01 	sts	0x01D8, r1	; 0x8001d8 <__data_end>
      break;
     934:	04 c0       	rjmp	.+8      	; 0x93e <__stack+0x3f>

    // All
    case TW_NO_INFO:   // no state information
      break;
    case TW_BUS_ERROR: // bus error, illegal stop/start
      twi_error = TW_BUS_ERROR;
     936:	10 92 45 02 	sts	0x0245, r1	; 0x800245 <twi_error>
      twi_stop();
     93a:	a4 de       	rcall	.-696    	; 0x684 <twi_stop>
      break;
     93c:	00 00       	nop
  }
}
     93e:	df 91       	pop	r29
     940:	cf 91       	pop	r28
     942:	ff 91       	pop	r31
     944:	ef 91       	pop	r30
     946:	bf 91       	pop	r27
     948:	af 91       	pop	r26
     94a:	9f 91       	pop	r25
     94c:	8f 91       	pop	r24
     94e:	7f 91       	pop	r23
     950:	6f 91       	pop	r22
     952:	5f 91       	pop	r21
     954:	4f 91       	pop	r20
     956:	3f 91       	pop	r19
     958:	2f 91       	pop	r18
     95a:	0f 90       	pop	r0
     95c:	00 92 5f 00 	sts	0x005F, r0	; 0x80005f <__TEXT_REGION_LENGTH__+0x7e005f>
     960:	0f 90       	pop	r0
     962:	1f 90       	pop	r1
     964:	18 95       	reti

00000966 <_ZN5Print13setWriteErrorEi>:
//	definition, and expected behaviour, of endTransmission
//
uint8_t TwoWire::endTransmission(void)
{
  return endTransmission(true);
}
     966:	a4 e0       	ldi	r26, 0x04	; 4
     968:	b0 e0       	ldi	r27, 0x00	; 0
     96a:	e9 eb       	ldi	r30, 0xB9	; 185
     96c:	f4 e0       	ldi	r31, 0x04	; 4
     96e:	0c 94 96 2c 	jmp	0x592c	; 0x592c <__prologue_saves__+0x20>
     972:	9a 83       	std	Y+2, r25	; 0x02
     974:	89 83       	std	Y+1, r24	; 0x01
     976:	7c 83       	std	Y+4, r23	; 0x04
     978:	6b 83       	std	Y+3, r22	; 0x03
     97a:	89 81       	ldd	r24, Y+1	; 0x01
     97c:	9a 81       	ldd	r25, Y+2	; 0x02
     97e:	2b 81       	ldd	r18, Y+3	; 0x03
     980:	3c 81       	ldd	r19, Y+4	; 0x04
     982:	fc 01       	movw	r30, r24
     984:	33 83       	std	Z+3, r19	; 0x03
     986:	22 83       	std	Z+2, r18	; 0x02
     988:	24 96       	adiw	r28, 0x04	; 4
     98a:	e2 e0       	ldi	r30, 0x02	; 2
     98c:	0c 94 b2 2c 	jmp	0x5964	; 0x5964 <__epilogue_restores__+0x20>

00000990 <_ZN5PrintC1Ev>:
     990:	a2 e0       	ldi	r26, 0x02	; 2
     992:	b0 e0       	ldi	r27, 0x00	; 0
     994:	ee ec       	ldi	r30, 0xCE	; 206
     996:	f4 e0       	ldi	r31, 0x04	; 4
     998:	0c 94 96 2c 	jmp	0x592c	; 0x592c <__prologue_saves__+0x20>
     99c:	9a 83       	std	Y+2, r25	; 0x02
     99e:	89 83       	std	Y+1, r24	; 0x01
     9a0:	89 81       	ldd	r24, Y+1	; 0x01
     9a2:	9a 81       	ldd	r25, Y+2	; 0x02
     9a4:	24 ed       	ldi	r18, 0xD4	; 212
     9a6:	31 e0       	ldi	r19, 0x01	; 1
     9a8:	fc 01       	movw	r30, r24
     9aa:	31 83       	std	Z+1, r19	; 0x01
     9ac:	20 83       	st	Z, r18
     9ae:	89 81       	ldd	r24, Y+1	; 0x01
     9b0:	9a 81       	ldd	r25, Y+2	; 0x02
     9b2:	fc 01       	movw	r30, r24
     9b4:	13 82       	std	Z+3, r1	; 0x03
     9b6:	12 82       	std	Z+2, r1	; 0x02
     9b8:	22 96       	adiw	r28, 0x02	; 2
     9ba:	e2 e0       	ldi	r30, 0x02	; 2
     9bc:	0c 94 b2 2c 	jmp	0x5964	; 0x5964 <__epilogue_restores__+0x20>

000009c0 <_ZN6StreamC1Ev>:
     9c0:	a2 e0       	ldi	r26, 0x02	; 2
     9c2:	b0 e0       	ldi	r27, 0x00	; 0
     9c4:	e6 ee       	ldi	r30, 0xE6	; 230
     9c6:	f4 e0       	ldi	r31, 0x04	; 4
     9c8:	0c 94 96 2c 	jmp	0x592c	; 0x592c <__prologue_saves__+0x20>
     9cc:	9a 83       	std	Y+2, r25	; 0x02
     9ce:	89 83       	std	Y+1, r24	; 0x01
     9d0:	89 81       	ldd	r24, Y+1	; 0x01
     9d2:	9a 81       	ldd	r25, Y+2	; 0x02
     9d4:	dd df       	rcall	.-70     	; 0x990 <_ZN5PrintC1Ev>
     9d6:	89 81       	ldd	r24, Y+1	; 0x01
     9d8:	9a 81       	ldd	r25, Y+2	; 0x02
     9da:	25 e7       	ldi	r18, 0x75	; 117
     9dc:	31 e0       	ldi	r19, 0x01	; 1
     9de:	fc 01       	movw	r30, r24
     9e0:	31 83       	std	Z+1, r19	; 0x01
     9e2:	20 83       	st	Z, r18
     9e4:	29 81       	ldd	r18, Y+1	; 0x01
     9e6:	3a 81       	ldd	r19, Y+2	; 0x02
     9e8:	88 ee       	ldi	r24, 0xE8	; 232
     9ea:	93 e0       	ldi	r25, 0x03	; 3
     9ec:	a0 e0       	ldi	r26, 0x00	; 0
     9ee:	b0 e0       	ldi	r27, 0x00	; 0
     9f0:	f9 01       	movw	r30, r18
     9f2:	84 83       	std	Z+4, r24	; 0x04
     9f4:	95 83       	std	Z+5, r25	; 0x05
     9f6:	a6 83       	std	Z+6, r26	; 0x06
     9f8:	b7 83       	std	Z+7, r27	; 0x07
     9fa:	22 96       	adiw	r28, 0x02	; 2
     9fc:	e2 e0       	ldi	r30, 0x02	; 2
     9fe:	0c 94 b2 2c 	jmp	0x5964	; 0x5964 <__epilogue_restores__+0x20>

00000a02 <_ZN7TwoWireC1Ev>:
     a02:	a2 e0       	ldi	r26, 0x02	; 2
     a04:	b0 e0       	ldi	r27, 0x00	; 0
     a06:	e7 e0       	ldi	r30, 0x07	; 7
     a08:	f5 e0       	ldi	r31, 0x05	; 5
     a0a:	0c 94 96 2c 	jmp	0x592c	; 0x592c <__prologue_saves__+0x20>
     a0e:	9a 83       	std	Y+2, r25	; 0x02
     a10:	89 83       	std	Y+1, r24	; 0x01
     a12:	89 81       	ldd	r24, Y+1	; 0x01
     a14:	9a 81       	ldd	r25, Y+2	; 0x02
     a16:	d4 df       	rcall	.-88     	; 0x9c0 <_ZN6StreamC1Ev>
     a18:	89 81       	ldd	r24, Y+1	; 0x01
     a1a:	9a 81       	ldd	r25, Y+2	; 0x02
     a1c:	25 e6       	ldi	r18, 0x65	; 101
     a1e:	31 e0       	ldi	r19, 0x01	; 1
     a20:	fc 01       	movw	r30, r24
     a22:	31 83       	std	Z+1, r19	; 0x01
     a24:	20 83       	st	Z, r18
     a26:	22 96       	adiw	r28, 0x02	; 2
     a28:	e2 e0       	ldi	r30, 0x02	; 2
     a2a:	0c 94 b2 2c 	jmp	0x5964	; 0x5964 <__epilogue_restores__+0x20>

00000a2e <_ZN7TwoWire5beginEv>:
     a2e:	a2 e0       	ldi	r26, 0x02	; 2
     a30:	b0 e0       	ldi	r27, 0x00	; 0
     a32:	ed e1       	ldi	r30, 0x1D	; 29
     a34:	f5 e0       	ldi	r31, 0x05	; 5
     a36:	0c 94 96 2c 	jmp	0x592c	; 0x592c <__prologue_saves__+0x20>
     a3a:	9a 83       	std	Y+2, r25	; 0x02
     a3c:	89 83       	std	Y+1, r24	; 0x01
     a3e:	10 92 66 02 	sts	0x0266, r1	; 0x800266 <_ZN7TwoWire13rxBufferIndexE>
     a42:	10 92 67 02 	sts	0x0267, r1	; 0x800267 <_ZN7TwoWire14rxBufferLengthE>
     a46:	10 92 88 02 	sts	0x0288, r1	; 0x800288 <_ZN7TwoWire13txBufferIndexE>
     a4a:	10 92 89 02 	sts	0x0289, r1	; 0x800289 <_ZN7TwoWire14txBufferLengthE>
     a4e:	63 dd       	rcall	.-1338   	; 0x516 <twi_init>
     a50:	22 96       	adiw	r28, 0x02	; 2
     a52:	e2 e0       	ldi	r30, 0x02	; 2
     a54:	0c 94 b2 2c 	jmp	0x5964	; 0x5964 <__epilogue_restores__+0x20>

00000a58 <_ZN7TwoWire5beginEh>:
     a58:	a3 e0       	ldi	r26, 0x03	; 3
     a5a:	b0 e0       	ldi	r27, 0x00	; 0
     a5c:	e2 e3       	ldi	r30, 0x32	; 50
     a5e:	f5 e0       	ldi	r31, 0x05	; 5
     a60:	0c 94 96 2c 	jmp	0x592c	; 0x592c <__prologue_saves__+0x20>
     a64:	9a 83       	std	Y+2, r25	; 0x02
     a66:	89 83       	std	Y+1, r24	; 0x01
     a68:	6b 83       	std	Y+3, r22	; 0x03
     a6a:	8b 81       	ldd	r24, Y+3	; 0x03
     a6c:	88 dd       	rcall	.-1264   	; 0x57e <twi_setAddress>
     a6e:	81 e7       	ldi	r24, 0x71	; 113
     a70:	96 e0       	ldi	r25, 0x06	; 6
     a72:	dd dd       	rcall	.-1094   	; 0x62e <twi_attachSlaveTxEvent>
     a74:	8b e2       	ldi	r24, 0x2B	; 43
     a76:	96 e0       	ldi	r25, 0x06	; 6
     a78:	c8 dd       	rcall	.-1136   	; 0x60a <twi_attachSlaveRxEvent>
     a7a:	89 81       	ldd	r24, Y+1	; 0x01
     a7c:	9a 81       	ldd	r25, Y+2	; 0x02
     a7e:	d7 df       	rcall	.-82     	; 0xa2e <_ZN7TwoWire5beginEv>
     a80:	23 96       	adiw	r28, 0x03	; 3
     a82:	e2 e0       	ldi	r30, 0x02	; 2
     a84:	0c 94 b2 2c 	jmp	0x5964	; 0x5964 <__epilogue_restores__+0x20>

00000a88 <_ZN7TwoWire5writeEh>:

// must be called in:
// slave tx event callback
// or after beginTransmission(address)
size_t TwoWire::write(uint8_t data)
{
     a88:	a3 e0       	ldi	r26, 0x03	; 3
     a8a:	b0 e0       	ldi	r27, 0x00	; 0
     a8c:	ea e4       	ldi	r30, 0x4A	; 74
     a8e:	f5 e0       	ldi	r31, 0x05	; 5
     a90:	0c 94 96 2c 	jmp	0x592c	; 0x592c <__prologue_saves__+0x20>
     a94:	9a 83       	std	Y+2, r25	; 0x02
     a96:	89 83       	std	Y+1, r24	; 0x01
     a98:	6b 83       	std	Y+3, r22	; 0x03
  if(transmitting){
     a9a:	80 91 8a 02 	lds	r24, 0x028A	; 0x80028a <_ZN7TwoWire12transmittingE>
     a9e:	88 23       	and	r24, r24
     aa0:	f9 f0       	breq	.+62     	; 0xae0 <_ZN7TwoWire5writeEh+0x58>
  // in master transmitter mode
    // don't bother if buffer is full
    if(txBufferLength >= BUFFER_LENGTH){
     aa2:	80 91 89 02 	lds	r24, 0x0289	; 0x800289 <_ZN7TwoWire14txBufferLengthE>
     aa6:	80 32       	cpi	r24, 0x20	; 32
     aa8:	40 f0       	brcs	.+16     	; 0xaba <_ZN7TwoWire5writeEh+0x32>
      setWriteError();
     aaa:	89 81       	ldd	r24, Y+1	; 0x01
     aac:	9a 81       	ldd	r25, Y+2	; 0x02
     aae:	61 e0       	ldi	r22, 0x01	; 1
     ab0:	70 e0       	ldi	r23, 0x00	; 0
     ab2:	59 df       	rcall	.-334    	; 0x966 <_ZN5Print13setWriteErrorEi>
      return 0;
     ab4:	80 e0       	ldi	r24, 0x00	; 0
     ab6:	90 e0       	ldi	r25, 0x00	; 0
     ab8:	19 c0       	rjmp	.+50     	; 0xaec <_ZN7TwoWire5writeEh+0x64>
    }
    // put byte in tx buffer
    txBuffer[txBufferIndex] = data;
     aba:	80 91 88 02 	lds	r24, 0x0288	; 0x800288 <_ZN7TwoWire13txBufferIndexE>
     abe:	88 2f       	mov	r24, r24
     ac0:	90 e0       	ldi	r25, 0x00	; 0
     ac2:	2b 81       	ldd	r18, Y+3	; 0x03
     ac4:	88 59       	subi	r24, 0x98	; 152
     ac6:	9d 4f       	sbci	r25, 0xFD	; 253
     ac8:	fc 01       	movw	r30, r24
     aca:	20 83       	st	Z, r18
    ++txBufferIndex;
     acc:	80 91 88 02 	lds	r24, 0x0288	; 0x800288 <_ZN7TwoWire13txBufferIndexE>
     ad0:	8f 5f       	subi	r24, 0xFF	; 255
     ad2:	80 93 88 02 	sts	0x0288, r24	; 0x800288 <_ZN7TwoWire13txBufferIndexE>
    // update amount in buffer   
    txBufferLength = txBufferIndex;
     ad6:	80 91 88 02 	lds	r24, 0x0288	; 0x800288 <_ZN7TwoWire13txBufferIndexE>
     ada:	80 93 89 02 	sts	0x0289, r24	; 0x800289 <_ZN7TwoWire14txBufferLengthE>
     ade:	04 c0       	rjmp	.+8      	; 0xae8 <_ZN7TwoWire5writeEh+0x60>
  }else{
  // in slave send mode
    // reply to master
    twi_transmit(&data, 1);
     ae0:	ce 01       	movw	r24, r28
     ae2:	03 96       	adiw	r24, 0x03	; 3
     ae4:	61 e0       	ldi	r22, 0x01	; 1
     ae6:	5c dd       	rcall	.-1352   	; 0x5a0 <twi_transmit>
  }
  return 1;
     ae8:	81 e0       	ldi	r24, 0x01	; 1
     aea:	90 e0       	ldi	r25, 0x00	; 0
}
     aec:	23 96       	adiw	r28, 0x03	; 3
     aee:	e2 e0       	ldi	r30, 0x02	; 2
     af0:	0c 94 b2 2c 	jmp	0x5964	; 0x5964 <__epilogue_restores__+0x20>

00000af4 <_ZN7TwoWire5writeEPKhj>:

// must be called in:
// slave tx event callback
// or after beginTransmission(address)
size_t TwoWire::write(const uint8_t *data, size_t quantity)
{
     af4:	a8 e0       	ldi	r26, 0x08	; 8
     af6:	b0 e0       	ldi	r27, 0x00	; 0
     af8:	e0 e8       	ldi	r30, 0x80	; 128
     afa:	f5 e0       	ldi	r31, 0x05	; 5
     afc:	0c 94 96 2c 	jmp	0x592c	; 0x592c <__prologue_saves__+0x20>
     b00:	9c 83       	std	Y+4, r25	; 0x04
     b02:	8b 83       	std	Y+3, r24	; 0x03
     b04:	7e 83       	std	Y+6, r23	; 0x06
     b06:	6d 83       	std	Y+5, r22	; 0x05
     b08:	58 87       	std	Y+8, r21	; 0x08
     b0a:	4f 83       	std	Y+7, r20	; 0x07
  if(transmitting){
     b0c:	80 91 8a 02 	lds	r24, 0x028A	; 0x80028a <_ZN7TwoWire12transmittingE>
     b10:	88 23       	and	r24, r24
     b12:	29 f1       	breq	.+74     	; 0xb5e <_ZN7TwoWire5writeEPKhj+0x6a>
  // in master transmitter mode
    for(size_t i = 0; i < quantity; ++i){
     b14:	1a 82       	std	Y+2, r1	; 0x02
     b16:	19 82       	std	Y+1, r1	; 0x01
     b18:	1a c0       	rjmp	.+52     	; 0xb4e <_ZN7TwoWire5writeEPKhj+0x5a>
      write(data[i]);
     b1a:	8b 81       	ldd	r24, Y+3	; 0x03
     b1c:	9c 81       	ldd	r25, Y+4	; 0x04
     b1e:	fc 01       	movw	r30, r24
     b20:	80 81       	ld	r24, Z
     b22:	91 81       	ldd	r25, Z+1	; 0x01
     b24:	fc 01       	movw	r30, r24
     b26:	20 81       	ld	r18, Z
     b28:	31 81       	ldd	r19, Z+1	; 0x01
     b2a:	4d 81       	ldd	r20, Y+5	; 0x05
     b2c:	5e 81       	ldd	r21, Y+6	; 0x06
     b2e:	89 81       	ldd	r24, Y+1	; 0x01
     b30:	9a 81       	ldd	r25, Y+2	; 0x02
     b32:	84 0f       	add	r24, r20
     b34:	95 1f       	adc	r25, r21
     b36:	fc 01       	movw	r30, r24
     b38:	40 81       	ld	r20, Z
     b3a:	8b 81       	ldd	r24, Y+3	; 0x03
     b3c:	9c 81       	ldd	r25, Y+4	; 0x04
     b3e:	64 2f       	mov	r22, r20
     b40:	f9 01       	movw	r30, r18
     b42:	09 95       	icall
// or after beginTransmission(address)
size_t TwoWire::write(const uint8_t *data, size_t quantity)
{
  if(transmitting){
  // in master transmitter mode
    for(size_t i = 0; i < quantity; ++i){
     b44:	89 81       	ldd	r24, Y+1	; 0x01
     b46:	9a 81       	ldd	r25, Y+2	; 0x02
     b48:	01 96       	adiw	r24, 0x01	; 1
     b4a:	9a 83       	std	Y+2, r25	; 0x02
     b4c:	89 83       	std	Y+1, r24	; 0x01
     b4e:	29 81       	ldd	r18, Y+1	; 0x01
     b50:	3a 81       	ldd	r19, Y+2	; 0x02
     b52:	8f 81       	ldd	r24, Y+7	; 0x07
     b54:	98 85       	ldd	r25, Y+8	; 0x08
     b56:	28 17       	cp	r18, r24
     b58:	39 07       	cpc	r19, r25
     b5a:	f8 f2       	brcs	.-66     	; 0xb1a <_ZN7TwoWire5writeEPKhj+0x26>
     b5c:	05 c0       	rjmp	.+10     	; 0xb68 <_ZN7TwoWire5writeEPKhj+0x74>
      write(data[i]);
    }
  }else{
  // in slave send mode
    // reply to master
    twi_transmit(data, quantity);
     b5e:	2f 81       	ldd	r18, Y+7	; 0x07
     b60:	8d 81       	ldd	r24, Y+5	; 0x05
     b62:	9e 81       	ldd	r25, Y+6	; 0x06
     b64:	62 2f       	mov	r22, r18
     b66:	1c dd       	rcall	.-1480   	; 0x5a0 <twi_transmit>
  }
  return quantity;
     b68:	8f 81       	ldd	r24, Y+7	; 0x07
     b6a:	98 85       	ldd	r25, Y+8	; 0x08
}
     b6c:	28 96       	adiw	r28, 0x08	; 8
     b6e:	e2 e0       	ldi	r30, 0x02	; 2
     b70:	0c 94 b2 2c 	jmp	0x5964	; 0x5964 <__epilogue_restores__+0x20>

00000b74 <_ZN7TwoWire9availableEv>:

// must be called in:
// slave rx event callback
// or after requestFrom(address, numBytes)
int TwoWire::available(void)
{
     b74:	a2 e0       	ldi	r26, 0x02	; 2
     b76:	b0 e0       	ldi	r27, 0x00	; 0
     b78:	e0 ec       	ldi	r30, 0xC0	; 192
     b7a:	f5 e0       	ldi	r31, 0x05	; 5
     b7c:	0c 94 96 2c 	jmp	0x592c	; 0x592c <__prologue_saves__+0x20>
     b80:	9a 83       	std	Y+2, r25	; 0x02
     b82:	89 83       	std	Y+1, r24	; 0x01
  return rxBufferLength - rxBufferIndex;
     b84:	80 91 67 02 	lds	r24, 0x0267	; 0x800267 <_ZN7TwoWire14rxBufferLengthE>
     b88:	28 2f       	mov	r18, r24
     b8a:	30 e0       	ldi	r19, 0x00	; 0
     b8c:	80 91 66 02 	lds	r24, 0x0266	; 0x800266 <_ZN7TwoWire13rxBufferIndexE>
     b90:	88 2f       	mov	r24, r24
     b92:	90 e0       	ldi	r25, 0x00	; 0
     b94:	a9 01       	movw	r20, r18
     b96:	48 1b       	sub	r20, r24
     b98:	59 0b       	sbc	r21, r25
     b9a:	ca 01       	movw	r24, r20
}
     b9c:	22 96       	adiw	r28, 0x02	; 2
     b9e:	e2 e0       	ldi	r30, 0x02	; 2
     ba0:	0c 94 b2 2c 	jmp	0x5964	; 0x5964 <__epilogue_restores__+0x20>

00000ba4 <_ZN7TwoWire4readEv>:

// must be called in:
// slave rx event callback
// or after requestFrom(address, numBytes)
int TwoWire::read(void)
{
     ba4:	a4 e0       	ldi	r26, 0x04	; 4
     ba6:	b0 e0       	ldi	r27, 0x00	; 0
     ba8:	e8 ed       	ldi	r30, 0xD8	; 216
     baa:	f5 e0       	ldi	r31, 0x05	; 5
     bac:	0c 94 96 2c 	jmp	0x592c	; 0x592c <__prologue_saves__+0x20>
     bb0:	9c 83       	std	Y+4, r25	; 0x04
     bb2:	8b 83       	std	Y+3, r24	; 0x03
  int value = -1;
     bb4:	8f ef       	ldi	r24, 0xFF	; 255
     bb6:	9f ef       	ldi	r25, 0xFF	; 255
     bb8:	9a 83       	std	Y+2, r25	; 0x02
     bba:	89 83       	std	Y+1, r24	; 0x01
  
  // get each successive byte on each call
  if(rxBufferIndex < rxBufferLength){
     bbc:	90 91 66 02 	lds	r25, 0x0266	; 0x800266 <_ZN7TwoWire13rxBufferIndexE>
     bc0:	80 91 67 02 	lds	r24, 0x0267	; 0x800267 <_ZN7TwoWire14rxBufferLengthE>
     bc4:	98 17       	cp	r25, r24
     bc6:	88 f4       	brcc	.+34     	; 0xbea <_ZN7TwoWire4readEv+0x46>
    value = rxBuffer[rxBufferIndex];
     bc8:	80 91 66 02 	lds	r24, 0x0266	; 0x800266 <_ZN7TwoWire13rxBufferIndexE>
     bcc:	88 2f       	mov	r24, r24
     bce:	90 e0       	ldi	r25, 0x00	; 0
     bd0:	8a 5b       	subi	r24, 0xBA	; 186
     bd2:	9d 4f       	sbci	r25, 0xFD	; 253
     bd4:	fc 01       	movw	r30, r24
     bd6:	80 81       	ld	r24, Z
     bd8:	88 2f       	mov	r24, r24
     bda:	90 e0       	ldi	r25, 0x00	; 0
     bdc:	9a 83       	std	Y+2, r25	; 0x02
     bde:	89 83       	std	Y+1, r24	; 0x01
    ++rxBufferIndex;
     be0:	80 91 66 02 	lds	r24, 0x0266	; 0x800266 <_ZN7TwoWire13rxBufferIndexE>
     be4:	8f 5f       	subi	r24, 0xFF	; 255
     be6:	80 93 66 02 	sts	0x0266, r24	; 0x800266 <_ZN7TwoWire13rxBufferIndexE>
  }

  return value;
     bea:	89 81       	ldd	r24, Y+1	; 0x01
     bec:	9a 81       	ldd	r25, Y+2	; 0x02
}
     bee:	24 96       	adiw	r28, 0x04	; 4
     bf0:	e2 e0       	ldi	r30, 0x02	; 2
     bf2:	0c 94 b2 2c 	jmp	0x5964	; 0x5964 <__epilogue_restores__+0x20>

00000bf6 <_ZN7TwoWire4peekEv>:

// must be called in:
// slave rx event callback
// or after requestFrom(address, numBytes)
int TwoWire::peek(void)
{
     bf6:	a4 e0       	ldi	r26, 0x04	; 4
     bf8:	b0 e0       	ldi	r27, 0x00	; 0
     bfa:	e1 e0       	ldi	r30, 0x01	; 1
     bfc:	f6 e0       	ldi	r31, 0x06	; 6
     bfe:	0c 94 96 2c 	jmp	0x592c	; 0x592c <__prologue_saves__+0x20>
     c02:	9c 83       	std	Y+4, r25	; 0x04
     c04:	8b 83       	std	Y+3, r24	; 0x03
  int value = -1;
     c06:	8f ef       	ldi	r24, 0xFF	; 255
     c08:	9f ef       	ldi	r25, 0xFF	; 255
     c0a:	9a 83       	std	Y+2, r25	; 0x02
     c0c:	89 83       	std	Y+1, r24	; 0x01
  
  if(rxBufferIndex < rxBufferLength){
     c0e:	90 91 66 02 	lds	r25, 0x0266	; 0x800266 <_ZN7TwoWire13rxBufferIndexE>
     c12:	80 91 67 02 	lds	r24, 0x0267	; 0x800267 <_ZN7TwoWire14rxBufferLengthE>
     c16:	98 17       	cp	r25, r24
     c18:	60 f4       	brcc	.+24     	; 0xc32 <_ZN7TwoWire4peekEv+0x3c>
    value = rxBuffer[rxBufferIndex];
     c1a:	80 91 66 02 	lds	r24, 0x0266	; 0x800266 <_ZN7TwoWire13rxBufferIndexE>
     c1e:	88 2f       	mov	r24, r24
     c20:	90 e0       	ldi	r25, 0x00	; 0
     c22:	8a 5b       	subi	r24, 0xBA	; 186
     c24:	9d 4f       	sbci	r25, 0xFD	; 253
     c26:	fc 01       	movw	r30, r24
     c28:	80 81       	ld	r24, Z
     c2a:	88 2f       	mov	r24, r24
     c2c:	90 e0       	ldi	r25, 0x00	; 0
     c2e:	9a 83       	std	Y+2, r25	; 0x02
     c30:	89 83       	std	Y+1, r24	; 0x01
  }

  return value;
     c32:	89 81       	ldd	r24, Y+1	; 0x01
     c34:	9a 81       	ldd	r25, Y+2	; 0x02
}
     c36:	24 96       	adiw	r28, 0x04	; 4
     c38:	e2 e0       	ldi	r30, 0x02	; 2
     c3a:	0c 94 b2 2c 	jmp	0x5964	; 0x5964 <__epilogue_restores__+0x20>

00000c3e <_ZN7TwoWire5flushEv>:

void TwoWire::flush(void)
{
     c3e:	a2 e0       	ldi	r26, 0x02	; 2
     c40:	b0 e0       	ldi	r27, 0x00	; 0
     c42:	e5 e2       	ldi	r30, 0x25	; 37
     c44:	f6 e0       	ldi	r31, 0x06	; 6
     c46:	0c 94 96 2c 	jmp	0x592c	; 0x592c <__prologue_saves__+0x20>
     c4a:	9a 83       	std	Y+2, r25	; 0x02
     c4c:	89 83       	std	Y+1, r24	; 0x01
  // XXX: to be implemented.
}
     c4e:	22 96       	adiw	r28, 0x02	; 2
     c50:	e2 e0       	ldi	r30, 0x02	; 2
     c52:	0c 94 b2 2c 	jmp	0x5964	; 0x5964 <__epilogue_restores__+0x20>

00000c56 <_ZN7TwoWire16onReceiveServiceEPhi>:

// behind the scenes function that is called when data is received
void TwoWire::onReceiveService(uint8_t* inBytes, int numBytes)
{
     c56:	a5 e0       	ldi	r26, 0x05	; 5
     c58:	b0 e0       	ldi	r27, 0x00	; 0
     c5a:	e1 e3       	ldi	r30, 0x31	; 49
     c5c:	f6 e0       	ldi	r31, 0x06	; 6
     c5e:	0c 94 96 2c 	jmp	0x592c	; 0x592c <__prologue_saves__+0x20>
     c62:	9b 83       	std	Y+3, r25	; 0x03
     c64:	8a 83       	std	Y+2, r24	; 0x02
     c66:	7d 83       	std	Y+5, r23	; 0x05
     c68:	6c 83       	std	Y+4, r22	; 0x04
  // don't bother if user hasn't registered a callback
  if(!user_onReceive){
     c6a:	80 91 8d 02 	lds	r24, 0x028D	; 0x80028d <_ZN7TwoWire14user_onReceiveE>
     c6e:	90 91 8e 02 	lds	r25, 0x028E	; 0x80028e <_ZN7TwoWire14user_onReceiveE+0x1>
     c72:	89 2b       	or	r24, r25
     c74:	09 f4       	brne	.+2      	; 0xc78 <_ZN7TwoWire16onReceiveServiceEPhi+0x22>
    return;
     c76:	31 c0       	rjmp	.+98     	; 0xcda <_ZN7TwoWire16onReceiveServiceEPhi+0x84>
  }
  // don't bother if rx buffer is in use by a master requestFrom() op
  // i know this drops data, but it allows for slight stupidity
  // meaning, they may not have read all the master requestFrom() data yet
  if(rxBufferIndex < rxBufferLength){
     c78:	90 91 66 02 	lds	r25, 0x0266	; 0x800266 <_ZN7TwoWire13rxBufferIndexE>
     c7c:	80 91 67 02 	lds	r24, 0x0267	; 0x800267 <_ZN7TwoWire14rxBufferLengthE>
     c80:	98 17       	cp	r25, r24
     c82:	08 f4       	brcc	.+2      	; 0xc86 <_ZN7TwoWire16onReceiveServiceEPhi+0x30>
    return;
     c84:	2a c0       	rjmp	.+84     	; 0xcda <_ZN7TwoWire16onReceiveServiceEPhi+0x84>
  }
  // copy twi rx buffer into local read buffer
  // this enables new reads to happen in parallel
  for(uint8_t i = 0; i < numBytes; ++i){
     c86:	19 82       	std	Y+1, r1	; 0x01
     c88:	13 c0       	rjmp	.+38     	; 0xcb0 <_ZN7TwoWire16onReceiveServiceEPhi+0x5a>
    rxBuffer[i] = inBytes[i];    
     c8a:	89 81       	ldd	r24, Y+1	; 0x01
     c8c:	88 2f       	mov	r24, r24
     c8e:	90 e0       	ldi	r25, 0x00	; 0
     c90:	29 81       	ldd	r18, Y+1	; 0x01
     c92:	22 2f       	mov	r18, r18
     c94:	30 e0       	ldi	r19, 0x00	; 0
     c96:	4a 81       	ldd	r20, Y+2	; 0x02
     c98:	5b 81       	ldd	r21, Y+3	; 0x03
     c9a:	24 0f       	add	r18, r20
     c9c:	35 1f       	adc	r19, r21
     c9e:	f9 01       	movw	r30, r18
     ca0:	20 81       	ld	r18, Z
     ca2:	8a 5b       	subi	r24, 0xBA	; 186
     ca4:	9d 4f       	sbci	r25, 0xFD	; 253
     ca6:	fc 01       	movw	r30, r24
     ca8:	20 83       	st	Z, r18
  if(rxBufferIndex < rxBufferLength){
    return;
  }
  // copy twi rx buffer into local read buffer
  // this enables new reads to happen in parallel
  for(uint8_t i = 0; i < numBytes; ++i){
     caa:	89 81       	ldd	r24, Y+1	; 0x01
     cac:	8f 5f       	subi	r24, 0xFF	; 255
     cae:	89 83       	std	Y+1, r24	; 0x01
     cb0:	89 81       	ldd	r24, Y+1	; 0x01
     cb2:	28 2f       	mov	r18, r24
     cb4:	30 e0       	ldi	r19, 0x00	; 0
     cb6:	8c 81       	ldd	r24, Y+4	; 0x04
     cb8:	9d 81       	ldd	r25, Y+5	; 0x05
     cba:	28 17       	cp	r18, r24
     cbc:	39 07       	cpc	r19, r25
     cbe:	2c f3       	brlt	.-54     	; 0xc8a <_ZN7TwoWire16onReceiveServiceEPhi+0x34>
    rxBuffer[i] = inBytes[i];    
  }
  // set rx iterator vars
  rxBufferIndex = 0;
     cc0:	10 92 66 02 	sts	0x0266, r1	; 0x800266 <_ZN7TwoWire13rxBufferIndexE>
  rxBufferLength = numBytes;
     cc4:	8c 81       	ldd	r24, Y+4	; 0x04
     cc6:	80 93 67 02 	sts	0x0267, r24	; 0x800267 <_ZN7TwoWire14rxBufferLengthE>
  // alert user program
  user_onReceive(numBytes);
     cca:	20 91 8d 02 	lds	r18, 0x028D	; 0x80028d <_ZN7TwoWire14user_onReceiveE>
     cce:	30 91 8e 02 	lds	r19, 0x028E	; 0x80028e <_ZN7TwoWire14user_onReceiveE+0x1>
     cd2:	8c 81       	ldd	r24, Y+4	; 0x04
     cd4:	9d 81       	ldd	r25, Y+5	; 0x05
     cd6:	f9 01       	movw	r30, r18
     cd8:	09 95       	icall
}
     cda:	25 96       	adiw	r28, 0x05	; 5
     cdc:	e2 e0       	ldi	r30, 0x02	; 2
     cde:	0c 94 b2 2c 	jmp	0x5964	; 0x5964 <__epilogue_restores__+0x20>

00000ce2 <_ZN7TwoWire16onRequestServiceEv>:

// behind the scenes function that is called when data is requested
void TwoWire::onRequestService(void)
{
     ce2:	a0 e0       	ldi	r26, 0x00	; 0
     ce4:	b0 e0       	ldi	r27, 0x00	; 0
     ce6:	e7 e7       	ldi	r30, 0x77	; 119
     ce8:	f6 e0       	ldi	r31, 0x06	; 6
     cea:	0c 94 96 2c 	jmp	0x592c	; 0x592c <__prologue_saves__+0x20>
  // don't bother if user hasn't registered a callback
  if(!user_onRequest){
     cee:	80 91 8b 02 	lds	r24, 0x028B	; 0x80028b <_ZN7TwoWire14user_onRequestE>
     cf2:	90 91 8c 02 	lds	r25, 0x028C	; 0x80028c <_ZN7TwoWire14user_onRequestE+0x1>
     cf6:	89 2b       	or	r24, r25
     cf8:	09 f4       	brne	.+2      	; 0xcfc <_ZN7TwoWire16onRequestServiceEv+0x1a>
    return;
     cfa:	0a c0       	rjmp	.+20     	; 0xd10 <_ZN7TwoWire16onRequestServiceEv+0x2e>
  }
  // reset tx buffer iterator vars
  // !!! this will kill any pending pre-master sendTo() activity
  txBufferIndex = 0;
     cfc:	10 92 88 02 	sts	0x0288, r1	; 0x800288 <_ZN7TwoWire13txBufferIndexE>
  txBufferLength = 0;
     d00:	10 92 89 02 	sts	0x0289, r1	; 0x800289 <_ZN7TwoWire14txBufferLengthE>
  // alert user program
  user_onRequest();
     d04:	80 91 8b 02 	lds	r24, 0x028B	; 0x80028b <_ZN7TwoWire14user_onRequestE>
     d08:	90 91 8c 02 	lds	r25, 0x028C	; 0x80028c <_ZN7TwoWire14user_onRequestE+0x1>
     d0c:	fc 01       	movw	r30, r24
     d0e:	09 95       	icall
}
     d10:	e2 e0       	ldi	r30, 0x02	; 2
     d12:	0c 94 b2 2c 	jmp	0x5964	; 0x5964 <__epilogue_restores__+0x20>

00000d16 <_ZN7TwoWire9onReceiveEPFviE>:

// sets function called on slave write
void TwoWire::onReceive( void (*function)(int) )
{
     d16:	a4 e0       	ldi	r26, 0x04	; 4
     d18:	b0 e0       	ldi	r27, 0x00	; 0
     d1a:	e1 e9       	ldi	r30, 0x91	; 145
     d1c:	f6 e0       	ldi	r31, 0x06	; 6
     d1e:	0c 94 96 2c 	jmp	0x592c	; 0x592c <__prologue_saves__+0x20>
     d22:	9a 83       	std	Y+2, r25	; 0x02
     d24:	89 83       	std	Y+1, r24	; 0x01
     d26:	7c 83       	std	Y+4, r23	; 0x04
     d28:	6b 83       	std	Y+3, r22	; 0x03
  user_onReceive = function;
     d2a:	8b 81       	ldd	r24, Y+3	; 0x03
     d2c:	9c 81       	ldd	r25, Y+4	; 0x04
     d2e:	90 93 8e 02 	sts	0x028E, r25	; 0x80028e <_ZN7TwoWire14user_onReceiveE+0x1>
     d32:	80 93 8d 02 	sts	0x028D, r24	; 0x80028d <_ZN7TwoWire14user_onReceiveE>
}
     d36:	24 96       	adiw	r28, 0x04	; 4
     d38:	e2 e0       	ldi	r30, 0x02	; 2
     d3a:	0c 94 b2 2c 	jmp	0x5964	; 0x5964 <__epilogue_restores__+0x20>

00000d3e <_ZN7TwoWire9onRequestEPFvvE>:

// sets function called on slave read
void TwoWire::onRequest( void (*function)(void) )
{
     d3e:	a4 e0       	ldi	r26, 0x04	; 4
     d40:	b0 e0       	ldi	r27, 0x00	; 0
     d42:	e5 ea       	ldi	r30, 0xA5	; 165
     d44:	f6 e0       	ldi	r31, 0x06	; 6
     d46:	0c 94 96 2c 	jmp	0x592c	; 0x592c <__prologue_saves__+0x20>
     d4a:	9a 83       	std	Y+2, r25	; 0x02
     d4c:	89 83       	std	Y+1, r24	; 0x01
     d4e:	7c 83       	std	Y+4, r23	; 0x04
     d50:	6b 83       	std	Y+3, r22	; 0x03
  user_onRequest = function;
     d52:	8b 81       	ldd	r24, Y+3	; 0x03
     d54:	9c 81       	ldd	r25, Y+4	; 0x04
     d56:	90 93 8c 02 	sts	0x028C, r25	; 0x80028c <_ZN7TwoWire14user_onRequestE+0x1>
     d5a:	80 93 8b 02 	sts	0x028B, r24	; 0x80028b <_ZN7TwoWire14user_onRequestE>
}
     d5e:	24 96       	adiw	r28, 0x04	; 4
     d60:	e2 e0       	ldi	r30, 0x02	; 2
     d62:	0c 94 b2 2c 	jmp	0x5964	; 0x5964 <__epilogue_restores__+0x20>

00000d66 <_Z41__static_initialization_and_destruction_0ii>:

// Preinstantiate Objects //////////////////////////////////////////////////////

TwoWire Wire = TwoWire();
     d66:	a4 e0       	ldi	r26, 0x04	; 4
     d68:	b0 e0       	ldi	r27, 0x00	; 0
     d6a:	e9 eb       	ldi	r30, 0xB9	; 185
     d6c:	f6 e0       	ldi	r31, 0x06	; 6
     d6e:	0c 94 96 2c 	jmp	0x592c	; 0x592c <__prologue_saves__+0x20>
     d72:	9a 83       	std	Y+2, r25	; 0x02
     d74:	89 83       	std	Y+1, r24	; 0x01
     d76:	7c 83       	std	Y+4, r23	; 0x04
     d78:	6b 83       	std	Y+3, r22	; 0x03
     d7a:	89 81       	ldd	r24, Y+1	; 0x01
     d7c:	9a 81       	ldd	r25, Y+2	; 0x02
     d7e:	01 97       	sbiw	r24, 0x01	; 1
     d80:	39 f4       	brne	.+14     	; 0xd90 <_Z41__static_initialization_and_destruction_0ii+0x2a>
     d82:	8b 81       	ldd	r24, Y+3	; 0x03
     d84:	9c 81       	ldd	r25, Y+4	; 0x04
     d86:	01 96       	adiw	r24, 0x01	; 1
     d88:	19 f4       	brne	.+6      	; 0xd90 <_Z41__static_initialization_and_destruction_0ii+0x2a>
     d8a:	8f e8       	ldi	r24, 0x8F	; 143
     d8c:	92 e0       	ldi	r25, 0x02	; 2
     d8e:	39 de       	rcall	.-910    	; 0xa02 <_ZN7TwoWireC1Ev>
     d90:	24 96       	adiw	r28, 0x04	; 4
     d92:	e2 e0       	ldi	r30, 0x02	; 2
     d94:	0c 94 b2 2c 	jmp	0x5964	; 0x5964 <__epilogue_restores__+0x20>

00000d98 <_GLOBAL__sub_I__ZN7TwoWire8rxBufferE>:
     d98:	a0 e0       	ldi	r26, 0x00	; 0
     d9a:	b0 e0       	ldi	r27, 0x00	; 0
     d9c:	e2 ed       	ldi	r30, 0xD2	; 210
     d9e:	f6 e0       	ldi	r31, 0x06	; 6
     da0:	0c 94 96 2c 	jmp	0x592c	; 0x592c <__prologue_saves__+0x20>
     da4:	6f ef       	ldi	r22, 0xFF	; 255
     da6:	7f ef       	ldi	r23, 0xFF	; 255
     da8:	81 e0       	ldi	r24, 0x01	; 1
     daa:	90 e0       	ldi	r25, 0x00	; 0
     dac:	dc df       	rcall	.-72     	; 0xd66 <_Z41__static_initialization_and_destruction_0ii>
     dae:	e2 e0       	ldi	r30, 0x02	; 2
     db0:	0c 94 b2 2c 	jmp	0x5964	; 0x5964 <__epilogue_restores__+0x20>

00000db4 <_Z10DebugPulsehh>:
    "pop r20 \n\t"
    "pop r19 \n\t"
    "pop r18 \n\t"
    ::);
#endif
}
     db4:	a2 e0       	ldi	r26, 0x02	; 2
     db6:	b0 e0       	ldi	r27, 0x00	; 0
     db8:	e0 ee       	ldi	r30, 0xE0	; 224
     dba:	f6 e0       	ldi	r31, 0x06	; 6
     dbc:	0c 94 96 2c 	jmp	0x592c	; 0x592c <__prologue_saves__+0x20>
     dc0:	89 83       	std	Y+1, r24	; 0x01
     dc2:	6a 83       	std	Y+2, r22	; 0x02
     dc4:	22 96       	adiw	r28, 0x02	; 2
     dc6:	e2 e0       	ldi	r30, 0x02	; 2
     dc8:	0c 94 b2 2c 	jmp	0x5964	; 0x5964 <__epilogue_restores__+0x20>

00000dcc <_ZN14SoftwareSerial10tunedDelayEj>:
     dcc:	a4 e0       	ldi	r26, 0x04	; 4
     dce:	b0 e0       	ldi	r27, 0x00	; 0
     dd0:	ec ee       	ldi	r30, 0xEC	; 236
     dd2:	f6 e0       	ldi	r31, 0x06	; 6
     dd4:	0c 94 96 2c 	jmp	0x592c	; 0x592c <__prologue_saves__+0x20>
     dd8:	9c 83       	std	Y+4, r25	; 0x04
     dda:	8b 83       	std	Y+3, r24	; 0x03
     ddc:	8b 81       	ldd	r24, Y+3	; 0x03
     dde:	9c 81       	ldd	r25, Y+4	; 0x04
     de0:	9a 83       	std	Y+2, r25	; 0x02
     de2:	89 83       	std	Y+1, r24	; 0x01
     de4:	89 81       	ldd	r24, Y+1	; 0x01
     de6:	9a 81       	ldd	r25, Y+2	; 0x02
     de8:	01 97       	sbiw	r24, 0x01	; 1
     dea:	f1 f7       	brne	.-4      	; 0xde8 <_ZN14SoftwareSerial10tunedDelayEj+0x1c>
     dec:	9a 83       	std	Y+2, r25	; 0x02
     dee:	89 83       	std	Y+1, r24	; 0x01
     df0:	24 96       	adiw	r28, 0x04	; 4
     df2:	e2 e0       	ldi	r30, 0x02	; 2
     df4:	0c 94 b2 2c 	jmp	0x5964	; 0x5964 <__epilogue_restores__+0x20>

00000df8 <_ZN14SoftwareSerial11rx_pin_readEv>:

uint8_t SoftwareSerial::rx_pin_read()
{
     df8:	a2 e0       	ldi	r26, 0x02	; 2
     dfa:	b0 e0       	ldi	r27, 0x00	; 0
     dfc:	e2 e0       	ldi	r30, 0x02	; 2
     dfe:	f7 e0       	ldi	r31, 0x07	; 7
     e00:	0c 94 96 2c 	jmp	0x592c	; 0x592c <__prologue_saves__+0x20>
     e04:	9a 83       	std	Y+2, r25	; 0x02
     e06:	89 83       	std	Y+1, r24	; 0x01
  return *_receivePortRegister & _receiveBitMask;
     e08:	89 81       	ldd	r24, Y+1	; 0x01
     e0a:	9a 81       	ldd	r25, Y+2	; 0x02
     e0c:	fc 01       	movw	r30, r24
     e0e:	86 85       	ldd	r24, Z+14	; 0x0e
     e10:	97 85       	ldd	r25, Z+15	; 0x0f
     e12:	fc 01       	movw	r30, r24
     e14:	20 81       	ld	r18, Z
     e16:	89 81       	ldd	r24, Y+1	; 0x01
     e18:	9a 81       	ldd	r25, Y+2	; 0x02
     e1a:	fc 01       	movw	r30, r24
     e1c:	85 85       	ldd	r24, Z+13	; 0x0d
     e1e:	82 23       	and	r24, r18
}
     e20:	22 96       	adiw	r28, 0x02	; 2
     e22:	e2 e0       	ldi	r30, 0x02	; 2
     e24:	0c 94 b2 2c 	jmp	0x5964	; 0x5964 <__epilogue_restores__+0x20>

00000e28 <__vector_3>:
  }
}

#if defined(PCINT0_vect)
ISR(PCINT0_vect)
{
     e28:	1f 92       	push	r1
     e2a:	0f 92       	push	r0
     e2c:	00 90 5f 00 	lds	r0, 0x005F	; 0x80005f <__TEXT_REGION_LENGTH__+0x7e005f>
     e30:	0f 92       	push	r0
     e32:	11 24       	eor	r1, r1
     e34:	2f 93       	push	r18
     e36:	3f 93       	push	r19
     e38:	4f 93       	push	r20
     e3a:	5f 93       	push	r21
     e3c:	6f 93       	push	r22
     e3e:	7f 93       	push	r23
     e40:	8f 93       	push	r24
     e42:	9f 93       	push	r25
     e44:	af 93       	push	r26
     e46:	bf 93       	push	r27
     e48:	ef 93       	push	r30
     e4a:	ff 93       	push	r31
     e4c:	cf 93       	push	r28
     e4e:	df 93       	push	r29
     e50:	cd b7       	in	r28, 0x3d	; 61
     e52:	de b7       	in	r29, 0x3e	; 62
     e54:	2b 97       	sbiw	r28, 0x0b	; 11
     e56:	de bf       	out	0x3e, r29	; 62
     e58:	cd bf       	out	0x3d, r28	; 61
//

/* static */
inline void SoftwareSerial::handle_interrupt()
{
  if (active_object)
     e5a:	80 91 9b 02 	lds	r24, 0x029B	; 0x80029b <_ZN14SoftwareSerial13active_objectE>
     e5e:	90 91 9c 02 	lds	r25, 0x029C	; 0x80029c <_ZN14SoftwareSerial13active_objectE+0x1>
     e62:	89 2b       	or	r24, r25
     e64:	09 f4       	brne	.+2      	; 0xe68 <__vector_3+0x40>
     e66:	f4 c0       	rjmp	.+488    	; 0x1050 <__vector_3+0x228>
  {
    active_object->recv();
     e68:	80 91 9b 02 	lds	r24, 0x029B	; 0x80029b <_ZN14SoftwareSerial13active_objectE>
     e6c:	90 91 9c 02 	lds	r25, 0x029C	; 0x80029c <_ZN14SoftwareSerial13active_objectE+0x1>
     e70:	9a 83       	std	Y+2, r25	; 0x02
     e72:	89 83       	std	Y+1, r24	; 0x01
    "push r26 \n\t"
    "push r27 \n\t"
    ::);
#endif  

  uint8_t d = 0;
     e74:	1b 82       	std	Y+3, r1	; 0x03

  // If RX line is high, then we don't see any start bit
  // so interrupt is probably not for us
  if (_inverse_logic ? rx_pin_read() : !rx_pin_read())
     e76:	89 81       	ldd	r24, Y+1	; 0x01
     e78:	9a 81       	ldd	r25, Y+2	; 0x02
     e7a:	fc 01       	movw	r30, r24
     e7c:	86 8d       	ldd	r24, Z+30	; 0x1e
     e7e:	82 70       	andi	r24, 0x02	; 2
     e80:	88 23       	and	r24, r24
     e82:	49 f0       	breq	.+18     	; 0xe96 <__vector_3+0x6e>
     e84:	89 81       	ldd	r24, Y+1	; 0x01
     e86:	9a 81       	ldd	r25, Y+2	; 0x02
     e88:	b7 df       	rcall	.-146    	; 0xdf8 <_ZN14SoftwareSerial11rx_pin_readEv>
     e8a:	98 2f       	mov	r25, r24
     e8c:	81 e0       	ldi	r24, 0x01	; 1
     e8e:	99 23       	and	r25, r25
     e90:	51 f4       	brne	.+20     	; 0xea6 <__vector_3+0x7e>
     e92:	80 e0       	ldi	r24, 0x00	; 0
     e94:	08 c0       	rjmp	.+16     	; 0xea6 <__vector_3+0x7e>
     e96:	89 81       	ldd	r24, Y+1	; 0x01
     e98:	9a 81       	ldd	r25, Y+2	; 0x02
     e9a:	ae df       	rcall	.-164    	; 0xdf8 <_ZN14SoftwareSerial11rx_pin_readEv>
     e9c:	98 2f       	mov	r25, r24
     e9e:	81 e0       	ldi	r24, 0x01	; 1
     ea0:	99 23       	and	r25, r25
     ea2:	09 f0       	breq	.+2      	; 0xea6 <__vector_3+0x7e>
     ea4:	80 e0       	ldi	r24, 0x00	; 0
     ea6:	88 23       	and	r24, r24
     ea8:	09 f4       	brne	.+2      	; 0xeac <__vector_3+0x84>
     eaa:	d2 c0       	rjmp	.+420    	; 0x1050 <__vector_3+0x228>
     eac:	89 81       	ldd	r24, Y+1	; 0x01
     eae:	9a 81       	ldd	r25, Y+2	; 0x02
     eb0:	9d 83       	std	Y+5, r25	; 0x05
     eb2:	8c 83       	std	Y+4, r24	; 0x04
     eb4:	1e 82       	std	Y+6, r1	; 0x06
  listen();
}

void SoftwareSerial::setRxIntMsk(bool enable)
{
    if (enable)
     eb6:	8e 81       	ldd	r24, Y+6	; 0x06
     eb8:	88 23       	and	r24, r24
     eba:	a1 f0       	breq	.+40     	; 0xee4 <__vector_3+0xbc>
      *_pcint_maskreg |= _pcint_maskvalue;
     ebc:	8c 81       	ldd	r24, Y+4	; 0x04
     ebe:	9d 81       	ldd	r25, Y+5	; 0x05
     ec0:	fc 01       	movw	r30, r24
     ec2:	83 89       	ldd	r24, Z+19	; 0x13
     ec4:	94 89       	ldd	r25, Z+20	; 0x14
     ec6:	2c 81       	ldd	r18, Y+4	; 0x04
     ec8:	3d 81       	ldd	r19, Y+5	; 0x05
     eca:	f9 01       	movw	r30, r18
     ecc:	23 89       	ldd	r18, Z+19	; 0x13
     ece:	34 89       	ldd	r19, Z+20	; 0x14
     ed0:	f9 01       	movw	r30, r18
     ed2:	40 81       	ld	r20, Z
     ed4:	2c 81       	ldd	r18, Y+4	; 0x04
     ed6:	3d 81       	ldd	r19, Y+5	; 0x05
     ed8:	f9 01       	movw	r30, r18
     eda:	25 89       	ldd	r18, Z+21	; 0x15
     edc:	24 2b       	or	r18, r20
     ede:	fc 01       	movw	r30, r24
     ee0:	20 83       	st	Z, r18
     ee2:	15 c0       	rjmp	.+42     	; 0xf0e <__vector_3+0xe6>
    else
      *_pcint_maskreg &= ~_pcint_maskvalue;
     ee4:	8c 81       	ldd	r24, Y+4	; 0x04
     ee6:	9d 81       	ldd	r25, Y+5	; 0x05
     ee8:	fc 01       	movw	r30, r24
     eea:	83 89       	ldd	r24, Z+19	; 0x13
     eec:	94 89       	ldd	r25, Z+20	; 0x14
     eee:	2c 81       	ldd	r18, Y+4	; 0x04
     ef0:	3d 81       	ldd	r19, Y+5	; 0x05
     ef2:	f9 01       	movw	r30, r18
     ef4:	23 89       	ldd	r18, Z+19	; 0x13
     ef6:	34 89       	ldd	r19, Z+20	; 0x14
     ef8:	f9 01       	movw	r30, r18
     efa:	20 81       	ld	r18, Z
     efc:	42 2f       	mov	r20, r18
     efe:	2c 81       	ldd	r18, Y+4	; 0x04
     f00:	3d 81       	ldd	r19, Y+5	; 0x05
     f02:	f9 01       	movw	r30, r18
     f04:	25 89       	ldd	r18, Z+21	; 0x15
     f06:	20 95       	com	r18
     f08:	24 23       	and	r18, r20
     f0a:	fc 01       	movw	r30, r24
     f0c:	20 83       	st	Z, r18
    // triggering another interrupt directly after we return, which can
    // cause problems at higher baudrates.
    setRxIntMsk(false);

    // Wait approximately 1/2 of a bit width to "center" the sample
    tunedDelay(_rx_delay_centering);
     f0e:	89 81       	ldd	r24, Y+1	; 0x01
     f10:	9a 81       	ldd	r25, Y+2	; 0x02
     f12:	fc 01       	movw	r30, r24
     f14:	86 89       	ldd	r24, Z+22	; 0x16
     f16:	97 89       	ldd	r25, Z+23	; 0x17
     f18:	59 df       	rcall	.-334    	; 0xdcc <_ZN14SoftwareSerial10tunedDelayEj>
    DebugPulse(_DEBUG_PIN2, 1);
     f1a:	61 e0       	ldi	r22, 0x01	; 1
     f1c:	8d e0       	ldi	r24, 0x0D	; 13
     f1e:	4a df       	rcall	.-364    	; 0xdb4 <_Z10DebugPulsehh>

    // Read each of the 8 bits
    for (uint8_t i=8; i > 0; --i)
     f20:	88 e0       	ldi	r24, 0x08	; 8
     f22:	8f 83       	std	Y+7, r24	; 0x07
     f24:	1f c0       	rjmp	.+62     	; 0xf64 <__vector_3+0x13c>
    {
      tunedDelay(_rx_delay_intrabit);
     f26:	89 81       	ldd	r24, Y+1	; 0x01
     f28:	9a 81       	ldd	r25, Y+2	; 0x02
     f2a:	fc 01       	movw	r30, r24
     f2c:	80 8d       	ldd	r24, Z+24	; 0x18
     f2e:	91 8d       	ldd	r25, Z+25	; 0x19
     f30:	4d df       	rcall	.-358    	; 0xdcc <_ZN14SoftwareSerial10tunedDelayEj>
      d >>= 1;
     f32:	8b 81       	ldd	r24, Y+3	; 0x03
     f34:	88 2f       	mov	r24, r24
     f36:	90 e0       	ldi	r25, 0x00	; 0
     f38:	95 95       	asr	r25
     f3a:	87 95       	ror	r24
     f3c:	8b 83       	std	Y+3, r24	; 0x03
      DebugPulse(_DEBUG_PIN2, 1);
     f3e:	61 e0       	ldi	r22, 0x01	; 1
     f40:	8d e0       	ldi	r24, 0x0D	; 13
     f42:	38 df       	rcall	.-400    	; 0xdb4 <_Z10DebugPulsehh>
      if (rx_pin_read())
     f44:	89 81       	ldd	r24, Y+1	; 0x01
     f46:	9a 81       	ldd	r25, Y+2	; 0x02
     f48:	57 df       	rcall	.-338    	; 0xdf8 <_ZN14SoftwareSerial11rx_pin_readEv>
     f4a:	98 2f       	mov	r25, r24
     f4c:	81 e0       	ldi	r24, 0x01	; 1
     f4e:	99 23       	and	r25, r25
     f50:	09 f4       	brne	.+2      	; 0xf54 <__vector_3+0x12c>
     f52:	80 e0       	ldi	r24, 0x00	; 0
     f54:	88 23       	and	r24, r24
     f56:	19 f0       	breq	.+6      	; 0xf5e <__vector_3+0x136>
        d |= 0x80;
     f58:	8b 81       	ldd	r24, Y+3	; 0x03
     f5a:	80 68       	ori	r24, 0x80	; 128
     f5c:	8b 83       	std	Y+3, r24	; 0x03
    // Wait approximately 1/2 of a bit width to "center" the sample
    tunedDelay(_rx_delay_centering);
    DebugPulse(_DEBUG_PIN2, 1);

    // Read each of the 8 bits
    for (uint8_t i=8; i > 0; --i)
     f5e:	8f 81       	ldd	r24, Y+7	; 0x07
     f60:	81 50       	subi	r24, 0x01	; 1
     f62:	8f 83       	std	Y+7, r24	; 0x07
     f64:	8f 81       	ldd	r24, Y+7	; 0x07
     f66:	88 23       	and	r24, r24
     f68:	f1 f6       	brne	.-68     	; 0xf26 <__vector_3+0xfe>
      DebugPulse(_DEBUG_PIN2, 1);
      if (rx_pin_read())
        d |= 0x80;
    }

    if (_inverse_logic)
     f6a:	89 81       	ldd	r24, Y+1	; 0x01
     f6c:	9a 81       	ldd	r25, Y+2	; 0x02
     f6e:	fc 01       	movw	r30, r24
     f70:	86 8d       	ldd	r24, Z+30	; 0x1e
     f72:	82 70       	andi	r24, 0x02	; 2
     f74:	88 23       	and	r24, r24
     f76:	19 f0       	breq	.+6      	; 0xf7e <__vector_3+0x156>
      d = ~d;
     f78:	8b 81       	ldd	r24, Y+3	; 0x03
     f7a:	80 95       	com	r24
     f7c:	8b 83       	std	Y+3, r24	; 0x03

    // if buffer full, set the overflow flag and return
    uint8_t next = (_receive_buffer_tail + 1) % _SS_MAX_RX_BUFF;
     f7e:	80 91 dd 02 	lds	r24, 0x02DD	; 0x8002dd <_ZN14SoftwareSerial20_receive_buffer_tailE>
     f82:	88 2f       	mov	r24, r24
     f84:	90 e0       	ldi	r25, 0x00	; 0
     f86:	01 96       	adiw	r24, 0x01	; 1
     f88:	8f 73       	andi	r24, 0x3F	; 63
     f8a:	90 78       	andi	r25, 0x80	; 128
     f8c:	99 23       	and	r25, r25
     f8e:	24 f4       	brge	.+8      	; 0xf98 <__vector_3+0x170>
     f90:	01 97       	sbiw	r24, 0x01	; 1
     f92:	80 6c       	ori	r24, 0xC0	; 192
     f94:	9f 6f       	ori	r25, 0xFF	; 255
     f96:	01 96       	adiw	r24, 0x01	; 1
     f98:	88 87       	std	Y+8, r24	; 0x08
    if (next != _receive_buffer_head)
     f9a:	90 91 de 02 	lds	r25, 0x02DE	; 0x8002de <_ZN14SoftwareSerial20_receive_buffer_headE>
     f9e:	81 e0       	ldi	r24, 0x01	; 1
     fa0:	28 85       	ldd	r18, Y+8	; 0x08
     fa2:	29 17       	cp	r18, r25
     fa4:	09 f4       	brne	.+2      	; 0xfa8 <__vector_3+0x180>
     fa6:	80 e0       	ldi	r24, 0x00	; 0
     fa8:	88 23       	and	r24, r24
     faa:	69 f0       	breq	.+26     	; 0xfc6 <__vector_3+0x19e>
    {
      // save new data in buffer: tail points to where byte goes
      _receive_buffer[_receive_buffer_tail] = d; // save new byte
     fac:	80 91 dd 02 	lds	r24, 0x02DD	; 0x8002dd <_ZN14SoftwareSerial20_receive_buffer_tailE>
     fb0:	88 2f       	mov	r24, r24
     fb2:	90 e0       	ldi	r25, 0x00	; 0
     fb4:	83 56       	subi	r24, 0x63	; 99
     fb6:	9d 4f       	sbci	r25, 0xFD	; 253
     fb8:	2b 81       	ldd	r18, Y+3	; 0x03
     fba:	fc 01       	movw	r30, r24
     fbc:	20 83       	st	Z, r18
      _receive_buffer_tail = next;
     fbe:	88 85       	ldd	r24, Y+8	; 0x08
     fc0:	80 93 dd 02 	sts	0x02DD, r24	; 0x8002dd <_ZN14SoftwareSerial20_receive_buffer_tailE>
     fc4:	0a c0       	rjmp	.+20     	; 0xfda <__vector_3+0x1b2>
    } 
    else 
    {
      DebugPulse(_DEBUG_PIN1, 1);
     fc6:	61 e0       	ldi	r22, 0x01	; 1
     fc8:	8b e0       	ldi	r24, 0x0B	; 11
     fca:	f4 de       	rcall	.-536    	; 0xdb4 <_Z10DebugPulsehh>
      _buffer_overflow = true;
     fcc:	89 81       	ldd	r24, Y+1	; 0x01
     fce:	9a 81       	ldd	r25, Y+2	; 0x02
     fd0:	fc 01       	movw	r30, r24
     fd2:	26 8d       	ldd	r18, Z+30	; 0x1e
     fd4:	21 60       	ori	r18, 0x01	; 1
     fd6:	fc 01       	movw	r30, r24
     fd8:	26 8f       	std	Z+30, r18	; 0x1e
    }

    // skip the stop bit
    tunedDelay(_rx_delay_stopbit);
     fda:	89 81       	ldd	r24, Y+1	; 0x01
     fdc:	9a 81       	ldd	r25, Y+2	; 0x02
     fde:	fc 01       	movw	r30, r24
     fe0:	82 8d       	ldd	r24, Z+26	; 0x1a
     fe2:	93 8d       	ldd	r25, Z+27	; 0x1b
     fe4:	f3 de       	rcall	.-538    	; 0xdcc <_ZN14SoftwareSerial10tunedDelayEj>
    DebugPulse(_DEBUG_PIN1, 1);
     fe6:	61 e0       	ldi	r22, 0x01	; 1
     fe8:	8b e0       	ldi	r24, 0x0B	; 11
     fea:	e4 de       	rcall	.-568    	; 0xdb4 <_Z10DebugPulsehh>
     fec:	89 81       	ldd	r24, Y+1	; 0x01
     fee:	9a 81       	ldd	r25, Y+2	; 0x02
     ff0:	9a 87       	std	Y+10, r25	; 0x0a
     ff2:	89 87       	std	Y+9, r24	; 0x09
     ff4:	81 e0       	ldi	r24, 0x01	; 1
     ff6:	8b 87       	std	Y+11, r24	; 0x0b
  listen();
}

void SoftwareSerial::setRxIntMsk(bool enable)
{
    if (enable)
     ff8:	8b 85       	ldd	r24, Y+11	; 0x0b
     ffa:	88 23       	and	r24, r24
     ffc:	a1 f0       	breq	.+40     	; 0x1026 <__vector_3+0x1fe>
      *_pcint_maskreg |= _pcint_maskvalue;
     ffe:	89 85       	ldd	r24, Y+9	; 0x09
    1000:	9a 85       	ldd	r25, Y+10	; 0x0a
    1002:	fc 01       	movw	r30, r24
    1004:	83 89       	ldd	r24, Z+19	; 0x13
    1006:	94 89       	ldd	r25, Z+20	; 0x14
    1008:	29 85       	ldd	r18, Y+9	; 0x09
    100a:	3a 85       	ldd	r19, Y+10	; 0x0a
    100c:	f9 01       	movw	r30, r18
    100e:	23 89       	ldd	r18, Z+19	; 0x13
    1010:	34 89       	ldd	r19, Z+20	; 0x14
    1012:	f9 01       	movw	r30, r18
    1014:	40 81       	ld	r20, Z
    1016:	29 85       	ldd	r18, Y+9	; 0x09
    1018:	3a 85       	ldd	r19, Y+10	; 0x0a
    101a:	f9 01       	movw	r30, r18
    101c:	25 89       	ldd	r18, Z+21	; 0x15
    101e:	24 2b       	or	r18, r20
    1020:	fc 01       	movw	r30, r24
    1022:	20 83       	st	Z, r18
    1024:	15 c0       	rjmp	.+42     	; 0x1050 <__vector_3+0x228>
    else
      *_pcint_maskreg &= ~_pcint_maskvalue;
    1026:	89 85       	ldd	r24, Y+9	; 0x09
    1028:	9a 85       	ldd	r25, Y+10	; 0x0a
    102a:	fc 01       	movw	r30, r24
    102c:	83 89       	ldd	r24, Z+19	; 0x13
    102e:	94 89       	ldd	r25, Z+20	; 0x14
    1030:	29 85       	ldd	r18, Y+9	; 0x09
    1032:	3a 85       	ldd	r19, Y+10	; 0x0a
    1034:	f9 01       	movw	r30, r18
    1036:	23 89       	ldd	r18, Z+19	; 0x13
    1038:	34 89       	ldd	r19, Z+20	; 0x14
    103a:	f9 01       	movw	r30, r18
    103c:	20 81       	ld	r18, Z
    103e:	42 2f       	mov	r20, r18
    1040:	29 85       	ldd	r18, Y+9	; 0x09
    1042:	3a 85       	ldd	r19, Y+10	; 0x0a
    1044:	f9 01       	movw	r30, r18
    1046:	25 89       	ldd	r18, Z+21	; 0x15
    1048:	20 95       	com	r18
    104a:	24 23       	and	r18, r20
    104c:	fc 01       	movw	r30, r24
    104e:	20 83       	st	Z, r18

#if defined(PCINT0_vect)
ISR(PCINT0_vect)
{
  SoftwareSerial::handle_interrupt();
}
    1050:	2b 96       	adiw	r28, 0x0b	; 11
    1052:	0f b6       	in	r0, 0x3f	; 63
    1054:	f8 94       	cli
    1056:	de bf       	out	0x3e, r29	; 62
    1058:	0f be       	out	0x3f, r0	; 63
    105a:	cd bf       	out	0x3d, r28	; 61
    105c:	df 91       	pop	r29
    105e:	cf 91       	pop	r28
    1060:	ff 91       	pop	r31
    1062:	ef 91       	pop	r30
    1064:	bf 91       	pop	r27
    1066:	af 91       	pop	r26
    1068:	9f 91       	pop	r25
    106a:	8f 91       	pop	r24
    106c:	7f 91       	pop	r23
    106e:	6f 91       	pop	r22
    1070:	5f 91       	pop	r21
    1072:	4f 91       	pop	r20
    1074:	3f 91       	pop	r19
    1076:	2f 91       	pop	r18
    1078:	0f 90       	pop	r0
    107a:	00 92 5f 00 	sts	0x005F, r0	; 0x80005f <__TEXT_REGION_LENGTH__+0x7e005f>
    107e:	0f 90       	pop	r0
    1080:	1f 90       	pop	r1
    1082:	18 95       	reti

00001084 <_ZN13LiquidCrystalC1Ehhhhhh>:
  location &= 0x7; // we only have 8 locations 0-7
  command(LCD_SETCGRAMADDR | (location << 3));
  for (int i=0; i<8; i++) {
    write(charmap[i]);
  }
}
    1084:	8f 92       	push	r8
    1086:	af 92       	push	r10
    1088:	cf 92       	push	r12
    108a:	ef 92       	push	r14
    108c:	0f 93       	push	r16
    108e:	cf 93       	push	r28
    1090:	df 93       	push	r29
    1092:	cd b7       	in	r28, 0x3d	; 61
    1094:	de b7       	in	r29, 0x3e	; 62
    1096:	28 97       	sbiw	r28, 0x08	; 8
    1098:	0f b6       	in	r0, 0x3f	; 63
    109a:	f8 94       	cli
    109c:	de bf       	out	0x3e, r29	; 62
    109e:	0f be       	out	0x3f, r0	; 63
    10a0:	cd bf       	out	0x3d, r28	; 61
    10a2:	9a 83       	std	Y+2, r25	; 0x02
    10a4:	89 83       	std	Y+1, r24	; 0x01
    10a6:	6b 83       	std	Y+3, r22	; 0x03
    10a8:	4c 83       	std	Y+4, r20	; 0x04
    10aa:	2d 83       	std	Y+5, r18	; 0x05
    10ac:	0e 83       	std	Y+6, r16	; 0x06
    10ae:	ef 82       	std	Y+7, r14	; 0x07
    10b0:	c8 86       	std	Y+8, r12	; 0x08
    10b2:	89 81       	ldd	r24, Y+1	; 0x01
    10b4:	9a 81       	ldd	r25, Y+2	; 0x02
    10b6:	6c dc       	rcall	.-1832   	; 0x990 <_ZN5PrintC1Ev>
    10b8:	89 81       	ldd	r24, Y+1	; 0x01
    10ba:	9a 81       	ldd	r25, Y+2	; 0x02
    10bc:	25 e8       	ldi	r18, 0x85	; 133
    10be:	31 e0       	ldi	r19, 0x01	; 1
    10c0:	fc 01       	movw	r30, r24
    10c2:	31 83       	std	Z+1, r19	; 0x01
    10c4:	20 83       	st	Z, r18
    10c6:	89 81       	ldd	r24, Y+1	; 0x01
    10c8:	9a 81       	ldd	r25, Y+2	; 0x02
    10ca:	1f 92       	push	r1
    10cc:	1f 92       	push	r1
    10ce:	1f 92       	push	r1
    10d0:	1f 92       	push	r1
    10d2:	88 84       	ldd	r8, Y+8	; 0x08
    10d4:	af 80       	ldd	r10, Y+7	; 0x07
    10d6:	ce 80       	ldd	r12, Y+6	; 0x06
    10d8:	ed 80       	ldd	r14, Y+5	; 0x05
    10da:	0c 81       	ldd	r16, Y+4	; 0x04
    10dc:	2f ef       	ldi	r18, 0xFF	; 255
    10de:	4b 81       	ldd	r20, Y+3	; 0x03
    10e0:	61 e0       	ldi	r22, 0x01	; 1
    10e2:	12 d0       	rcall	.+36     	; 0x1108 <_ZN13LiquidCrystal4initEhhhhhhhhhhhh>
    10e4:	0f 90       	pop	r0
    10e6:	0f 90       	pop	r0
    10e8:	0f 90       	pop	r0
    10ea:	0f 90       	pop	r0
    10ec:	28 96       	adiw	r28, 0x08	; 8
    10ee:	0f b6       	in	r0, 0x3f	; 63
    10f0:	f8 94       	cli
    10f2:	de bf       	out	0x3e, r29	; 62
    10f4:	0f be       	out	0x3f, r0	; 63
    10f6:	cd bf       	out	0x3d, r28	; 61
    10f8:	df 91       	pop	r29
    10fa:	cf 91       	pop	r28
    10fc:	0f 91       	pop	r16
    10fe:	ef 90       	pop	r14
    1100:	cf 90       	pop	r12
    1102:	af 90       	pop	r10
    1104:	8f 90       	pop	r8
    1106:	08 95       	ret

00001108 <_ZN13LiquidCrystal4initEhhhhhhhhhhhh>:
    1108:	8f 92       	push	r8
    110a:	af 92       	push	r10
    110c:	cf 92       	push	r12
    110e:	ef 92       	push	r14
    1110:	0f 93       	push	r16
    1112:	cf 93       	push	r28
    1114:	df 93       	push	r29
    1116:	cd b7       	in	r28, 0x3d	; 61
    1118:	de b7       	in	r29, 0x3e	; 62
    111a:	2a 97       	sbiw	r28, 0x0a	; 10
    111c:	0f b6       	in	r0, 0x3f	; 63
    111e:	f8 94       	cli
    1120:	de bf       	out	0x3e, r29	; 62
    1122:	0f be       	out	0x3f, r0	; 63
    1124:	cd bf       	out	0x3d, r28	; 61
    1126:	9a 83       	std	Y+2, r25	; 0x02
    1128:	89 83       	std	Y+1, r24	; 0x01
    112a:	6b 83       	std	Y+3, r22	; 0x03
    112c:	4c 83       	std	Y+4, r20	; 0x04
    112e:	2d 83       	std	Y+5, r18	; 0x05
    1130:	0e 83       	std	Y+6, r16	; 0x06
    1132:	ef 82       	std	Y+7, r14	; 0x07
    1134:	c8 86       	std	Y+8, r12	; 0x08
    1136:	a9 86       	std	Y+9, r10	; 0x09
    1138:	8a 86       	std	Y+10, r8	; 0x0a
    113a:	89 81       	ldd	r24, Y+1	; 0x01
    113c:	9a 81       	ldd	r25, Y+2	; 0x02
    113e:	2c 81       	ldd	r18, Y+4	; 0x04
    1140:	fc 01       	movw	r30, r24
    1142:	24 83       	std	Z+4, r18	; 0x04
    1144:	89 81       	ldd	r24, Y+1	; 0x01
    1146:	9a 81       	ldd	r25, Y+2	; 0x02
    1148:	2d 81       	ldd	r18, Y+5	; 0x05
    114a:	fc 01       	movw	r30, r24
    114c:	25 83       	std	Z+5, r18	; 0x05
    114e:	89 81       	ldd	r24, Y+1	; 0x01
    1150:	9a 81       	ldd	r25, Y+2	; 0x02
    1152:	2e 81       	ldd	r18, Y+6	; 0x06
    1154:	fc 01       	movw	r30, r24
    1156:	26 83       	std	Z+6, r18	; 0x06
    1158:	89 81       	ldd	r24, Y+1	; 0x01
    115a:	9a 81       	ldd	r25, Y+2	; 0x02
    115c:	2f 81       	ldd	r18, Y+7	; 0x07
    115e:	fc 01       	movw	r30, r24
    1160:	27 83       	std	Z+7, r18	; 0x07
    1162:	89 81       	ldd	r24, Y+1	; 0x01
    1164:	9a 81       	ldd	r25, Y+2	; 0x02
    1166:	28 85       	ldd	r18, Y+8	; 0x08
    1168:	fc 01       	movw	r30, r24
    116a:	20 87       	std	Z+8, r18	; 0x08
    116c:	89 81       	ldd	r24, Y+1	; 0x01
    116e:	9a 81       	ldd	r25, Y+2	; 0x02
    1170:	29 85       	ldd	r18, Y+9	; 0x09
    1172:	fc 01       	movw	r30, r24
    1174:	21 87       	std	Z+9, r18	; 0x09
    1176:	89 81       	ldd	r24, Y+1	; 0x01
    1178:	9a 81       	ldd	r25, Y+2	; 0x02
    117a:	2a 85       	ldd	r18, Y+10	; 0x0a
    117c:	fc 01       	movw	r30, r24
    117e:	22 87       	std	Z+10, r18	; 0x0a
    1180:	89 81       	ldd	r24, Y+1	; 0x01
    1182:	9a 81       	ldd	r25, Y+2	; 0x02
    1184:	2c 89       	ldd	r18, Y+20	; 0x14
    1186:	fc 01       	movw	r30, r24
    1188:	23 87       	std	Z+11, r18	; 0x0b
    118a:	89 81       	ldd	r24, Y+1	; 0x01
    118c:	9a 81       	ldd	r25, Y+2	; 0x02
    118e:	2d 89       	ldd	r18, Y+21	; 0x15
    1190:	fc 01       	movw	r30, r24
    1192:	24 87       	std	Z+12, r18	; 0x0c
    1194:	89 81       	ldd	r24, Y+1	; 0x01
    1196:	9a 81       	ldd	r25, Y+2	; 0x02
    1198:	2e 89       	ldd	r18, Y+22	; 0x16
    119a:	fc 01       	movw	r30, r24
    119c:	25 87       	std	Z+13, r18	; 0x0d
    119e:	89 81       	ldd	r24, Y+1	; 0x01
    11a0:	9a 81       	ldd	r25, Y+2	; 0x02
    11a2:	2f 89       	ldd	r18, Y+23	; 0x17
    11a4:	fc 01       	movw	r30, r24
    11a6:	26 87       	std	Z+14, r18	; 0x0e
    11a8:	89 81       	ldd	r24, Y+1	; 0x01
    11aa:	9a 81       	ldd	r25, Y+2	; 0x02
    11ac:	fc 01       	movw	r30, r24
    11ae:	84 81       	ldd	r24, Z+4	; 0x04
    11b0:	61 e0       	ldi	r22, 0x01	; 1
    11b2:	0e 94 c0 28 	call	0x5180	; 0x5180 <pinMode>
    11b6:	89 81       	ldd	r24, Y+1	; 0x01
    11b8:	9a 81       	ldd	r25, Y+2	; 0x02
    11ba:	fc 01       	movw	r30, r24
    11bc:	85 81       	ldd	r24, Z+5	; 0x05
    11be:	8f 3f       	cpi	r24, 0xFF	; 255
    11c0:	39 f0       	breq	.+14     	; 0x11d0 <_ZN13LiquidCrystal4initEhhhhhhhhhhhh+0xc8>
    11c2:	89 81       	ldd	r24, Y+1	; 0x01
    11c4:	9a 81       	ldd	r25, Y+2	; 0x02
    11c6:	fc 01       	movw	r30, r24
    11c8:	85 81       	ldd	r24, Z+5	; 0x05
    11ca:	61 e0       	ldi	r22, 0x01	; 1
    11cc:	0e 94 c0 28 	call	0x5180	; 0x5180 <pinMode>
    11d0:	89 81       	ldd	r24, Y+1	; 0x01
    11d2:	9a 81       	ldd	r25, Y+2	; 0x02
    11d4:	fc 01       	movw	r30, r24
    11d6:	86 81       	ldd	r24, Z+6	; 0x06
    11d8:	61 e0       	ldi	r22, 0x01	; 1
    11da:	0e 94 c0 28 	call	0x5180	; 0x5180 <pinMode>
    11de:	8b 81       	ldd	r24, Y+3	; 0x03
    11e0:	88 23       	and	r24, r24
    11e2:	29 f0       	breq	.+10     	; 0x11ee <_ZN13LiquidCrystal4initEhhhhhhhhhhhh+0xe6>
    11e4:	89 81       	ldd	r24, Y+1	; 0x01
    11e6:	9a 81       	ldd	r25, Y+2	; 0x02
    11e8:	fc 01       	movw	r30, r24
    11ea:	17 86       	std	Z+15, r1	; 0x0f
    11ec:	05 c0       	rjmp	.+10     	; 0x11f8 <_ZN13LiquidCrystal4initEhhhhhhhhhhhh+0xf0>
    11ee:	89 81       	ldd	r24, Y+1	; 0x01
    11f0:	9a 81       	ldd	r25, Y+2	; 0x02
    11f2:	20 e1       	ldi	r18, 0x10	; 16
    11f4:	fc 01       	movw	r30, r24
    11f6:	27 87       	std	Z+15, r18	; 0x0f
    11f8:	89 81       	ldd	r24, Y+1	; 0x01
    11fa:	9a 81       	ldd	r25, Y+2	; 0x02
    11fc:	20 e0       	ldi	r18, 0x00	; 0
    11fe:	41 e0       	ldi	r20, 0x01	; 1
    1200:	60 e1       	ldi	r22, 0x10	; 16
    1202:	0e d0       	rcall	.+28     	; 0x1220 <_ZN13LiquidCrystal5beginEhhh>
    1204:	2a 96       	adiw	r28, 0x0a	; 10
    1206:	0f b6       	in	r0, 0x3f	; 63
    1208:	f8 94       	cli
    120a:	de bf       	out	0x3e, r29	; 62
    120c:	0f be       	out	0x3f, r0	; 63
    120e:	cd bf       	out	0x3d, r28	; 61
    1210:	df 91       	pop	r29
    1212:	cf 91       	pop	r28
    1214:	0f 91       	pop	r16
    1216:	ef 90       	pop	r14
    1218:	cf 90       	pop	r12
    121a:	af 90       	pop	r10
    121c:	8f 90       	pop	r8
    121e:	08 95       	ret

00001220 <_ZN13LiquidCrystal5beginEhhh>:
    1220:	a5 e0       	ldi	r26, 0x05	; 5
    1222:	b0 e0       	ldi	r27, 0x00	; 0
    1224:	e6 e1       	ldi	r30, 0x16	; 22
    1226:	f9 e0       	ldi	r31, 0x09	; 9
    1228:	0c 94 94 2c 	jmp	0x5928	; 0x5928 <__prologue_saves__+0x1c>
    122c:	9a 83       	std	Y+2, r25	; 0x02
    122e:	89 83       	std	Y+1, r24	; 0x01
    1230:	6b 83       	std	Y+3, r22	; 0x03
    1232:	4c 83       	std	Y+4, r20	; 0x04
    1234:	2d 83       	std	Y+5, r18	; 0x05
    1236:	8c 81       	ldd	r24, Y+4	; 0x04
    1238:	82 30       	cpi	r24, 0x02	; 2
    123a:	50 f0       	brcs	.+20     	; 0x1250 <_ZN13LiquidCrystal5beginEhhh+0x30>
    123c:	89 81       	ldd	r24, Y+1	; 0x01
    123e:	9a 81       	ldd	r25, Y+2	; 0x02
    1240:	fc 01       	movw	r30, r24
    1242:	87 85       	ldd	r24, Z+15	; 0x0f
    1244:	28 2f       	mov	r18, r24
    1246:	28 60       	ori	r18, 0x08	; 8
    1248:	89 81       	ldd	r24, Y+1	; 0x01
    124a:	9a 81       	ldd	r25, Y+2	; 0x02
    124c:	fc 01       	movw	r30, r24
    124e:	27 87       	std	Z+15, r18	; 0x0f
    1250:	89 81       	ldd	r24, Y+1	; 0x01
    1252:	9a 81       	ldd	r25, Y+2	; 0x02
    1254:	2c 81       	ldd	r18, Y+4	; 0x04
    1256:	fc 01       	movw	r30, r24
    1258:	23 8b       	std	Z+19, r18	; 0x13
    125a:	8b 81       	ldd	r24, Y+3	; 0x03
    125c:	88 2f       	mov	r24, r24
    125e:	90 e0       	ldi	r25, 0x00	; 0
    1260:	ac 01       	movw	r20, r24
    1262:	40 5c       	subi	r20, 0xC0	; 192
    1264:	5f 4f       	sbci	r21, 0xFF	; 255
    1266:	8b 81       	ldd	r24, Y+3	; 0x03
    1268:	28 2f       	mov	r18, r24
    126a:	30 e0       	ldi	r19, 0x00	; 0
    126c:	89 81       	ldd	r24, Y+1	; 0x01
    126e:	9a 81       	ldd	r25, Y+2	; 0x02
    1270:	8a 01       	movw	r16, r20
    1272:	40 e4       	ldi	r20, 0x40	; 64
    1274:	50 e0       	ldi	r21, 0x00	; 0
    1276:	60 e0       	ldi	r22, 0x00	; 0
    1278:	70 e0       	ldi	r23, 0x00	; 0
    127a:	a4 d0       	rcall	.+328    	; 0x13c4 <_ZN13LiquidCrystal13setRowOffsetsEiiii>
    127c:	8d 81       	ldd	r24, Y+5	; 0x05
    127e:	88 23       	and	r24, r24
    1280:	69 f0       	breq	.+26     	; 0x129c <_ZN13LiquidCrystal5beginEhhh+0x7c>
    1282:	8c 81       	ldd	r24, Y+4	; 0x04
    1284:	81 30       	cpi	r24, 0x01	; 1
    1286:	51 f4       	brne	.+20     	; 0x129c <_ZN13LiquidCrystal5beginEhhh+0x7c>
    1288:	89 81       	ldd	r24, Y+1	; 0x01
    128a:	9a 81       	ldd	r25, Y+2	; 0x02
    128c:	fc 01       	movw	r30, r24
    128e:	87 85       	ldd	r24, Z+15	; 0x0f
    1290:	28 2f       	mov	r18, r24
    1292:	24 60       	ori	r18, 0x04	; 4
    1294:	89 81       	ldd	r24, Y+1	; 0x01
    1296:	9a 81       	ldd	r25, Y+2	; 0x02
    1298:	fc 01       	movw	r30, r24
    129a:	27 87       	std	Z+15, r18	; 0x0f
    129c:	80 e5       	ldi	r24, 0x50	; 80
    129e:	93 ec       	ldi	r25, 0xC3	; 195
    12a0:	0e 94 34 28 	call	0x5068	; 0x5068 <delayMicroseconds>
    12a4:	89 81       	ldd	r24, Y+1	; 0x01
    12a6:	9a 81       	ldd	r25, Y+2	; 0x02
    12a8:	fc 01       	movw	r30, r24
    12aa:	84 81       	ldd	r24, Z+4	; 0x04
    12ac:	60 e0       	ldi	r22, 0x00	; 0
    12ae:	0e 94 fc 28 	call	0x51f8	; 0x51f8 <digitalWrite>
    12b2:	89 81       	ldd	r24, Y+1	; 0x01
    12b4:	9a 81       	ldd	r25, Y+2	; 0x02
    12b6:	fc 01       	movw	r30, r24
    12b8:	86 81       	ldd	r24, Z+6	; 0x06
    12ba:	60 e0       	ldi	r22, 0x00	; 0
    12bc:	0e 94 fc 28 	call	0x51f8	; 0x51f8 <digitalWrite>
    12c0:	89 81       	ldd	r24, Y+1	; 0x01
    12c2:	9a 81       	ldd	r25, Y+2	; 0x02
    12c4:	fc 01       	movw	r30, r24
    12c6:	85 81       	ldd	r24, Z+5	; 0x05
    12c8:	8f 3f       	cpi	r24, 0xFF	; 255
    12ca:	39 f0       	breq	.+14     	; 0x12da <_ZN13LiquidCrystal5beginEhhh+0xba>
    12cc:	89 81       	ldd	r24, Y+1	; 0x01
    12ce:	9a 81       	ldd	r25, Y+2	; 0x02
    12d0:	fc 01       	movw	r30, r24
    12d2:	85 81       	ldd	r24, Z+5	; 0x05
    12d4:	60 e0       	ldi	r22, 0x00	; 0
    12d6:	0e 94 fc 28 	call	0x51f8	; 0x51f8 <digitalWrite>
    12da:	89 81       	ldd	r24, Y+1	; 0x01
    12dc:	9a 81       	ldd	r25, Y+2	; 0x02
    12de:	fc 01       	movw	r30, r24
    12e0:	87 85       	ldd	r24, Z+15	; 0x0f
    12e2:	88 2f       	mov	r24, r24
    12e4:	90 e0       	ldi	r25, 0x00	; 0
    12e6:	80 71       	andi	r24, 0x10	; 16
    12e8:	99 27       	eor	r25, r25
    12ea:	89 2b       	or	r24, r25
    12ec:	e9 f4       	brne	.+58     	; 0x1328 <_ZN13LiquidCrystal5beginEhhh+0x108>
    12ee:	89 81       	ldd	r24, Y+1	; 0x01
    12f0:	9a 81       	ldd	r25, Y+2	; 0x02
    12f2:	63 e0       	ldi	r22, 0x03	; 3
    12f4:	91 d1       	rcall	.+802    	; 0x1618 <_ZN13LiquidCrystal10write4bitsEh>
    12f6:	84 e9       	ldi	r24, 0x94	; 148
    12f8:	91 e1       	ldi	r25, 0x11	; 17
    12fa:	0e 94 34 28 	call	0x5068	; 0x5068 <delayMicroseconds>
    12fe:	89 81       	ldd	r24, Y+1	; 0x01
    1300:	9a 81       	ldd	r25, Y+2	; 0x02
    1302:	63 e0       	ldi	r22, 0x03	; 3
    1304:	89 d1       	rcall	.+786    	; 0x1618 <_ZN13LiquidCrystal10write4bitsEh>
    1306:	84 e9       	ldi	r24, 0x94	; 148
    1308:	91 e1       	ldi	r25, 0x11	; 17
    130a:	0e 94 34 28 	call	0x5068	; 0x5068 <delayMicroseconds>
    130e:	89 81       	ldd	r24, Y+1	; 0x01
    1310:	9a 81       	ldd	r25, Y+2	; 0x02
    1312:	63 e0       	ldi	r22, 0x03	; 3
    1314:	81 d1       	rcall	.+770    	; 0x1618 <_ZN13LiquidCrystal10write4bitsEh>
    1316:	86 e9       	ldi	r24, 0x96	; 150
    1318:	90 e0       	ldi	r25, 0x00	; 0
    131a:	0e 94 34 28 	call	0x5068	; 0x5068 <delayMicroseconds>
    131e:	89 81       	ldd	r24, Y+1	; 0x01
    1320:	9a 81       	ldd	r25, Y+2	; 0x02
    1322:	62 e0       	ldi	r22, 0x02	; 2
    1324:	79 d1       	rcall	.+754    	; 0x1618 <_ZN13LiquidCrystal10write4bitsEh>
    1326:	26 c0       	rjmp	.+76     	; 0x1374 <_ZN13LiquidCrystal5beginEhhh+0x154>
    1328:	89 81       	ldd	r24, Y+1	; 0x01
    132a:	9a 81       	ldd	r25, Y+2	; 0x02
    132c:	fc 01       	movw	r30, r24
    132e:	87 85       	ldd	r24, Z+15	; 0x0f
    1330:	28 2f       	mov	r18, r24
    1332:	20 62       	ori	r18, 0x20	; 32
    1334:	89 81       	ldd	r24, Y+1	; 0x01
    1336:	9a 81       	ldd	r25, Y+2	; 0x02
    1338:	62 2f       	mov	r22, r18
    133a:	d6 d0       	rcall	.+428    	; 0x14e8 <_ZN13LiquidCrystal7commandEh>
    133c:	84 e9       	ldi	r24, 0x94	; 148
    133e:	91 e1       	ldi	r25, 0x11	; 17
    1340:	0e 94 34 28 	call	0x5068	; 0x5068 <delayMicroseconds>
    1344:	89 81       	ldd	r24, Y+1	; 0x01
    1346:	9a 81       	ldd	r25, Y+2	; 0x02
    1348:	fc 01       	movw	r30, r24
    134a:	87 85       	ldd	r24, Z+15	; 0x0f
    134c:	28 2f       	mov	r18, r24
    134e:	20 62       	ori	r18, 0x20	; 32
    1350:	89 81       	ldd	r24, Y+1	; 0x01
    1352:	9a 81       	ldd	r25, Y+2	; 0x02
    1354:	62 2f       	mov	r22, r18
    1356:	c8 d0       	rcall	.+400    	; 0x14e8 <_ZN13LiquidCrystal7commandEh>
    1358:	86 e9       	ldi	r24, 0x96	; 150
    135a:	90 e0       	ldi	r25, 0x00	; 0
    135c:	0e 94 34 28 	call	0x5068	; 0x5068 <delayMicroseconds>
    1360:	89 81       	ldd	r24, Y+1	; 0x01
    1362:	9a 81       	ldd	r25, Y+2	; 0x02
    1364:	fc 01       	movw	r30, r24
    1366:	87 85       	ldd	r24, Z+15	; 0x0f
    1368:	28 2f       	mov	r18, r24
    136a:	20 62       	ori	r18, 0x20	; 32
    136c:	89 81       	ldd	r24, Y+1	; 0x01
    136e:	9a 81       	ldd	r25, Y+2	; 0x02
    1370:	62 2f       	mov	r22, r18
    1372:	ba d0       	rcall	.+372    	; 0x14e8 <_ZN13LiquidCrystal7commandEh>
    1374:	89 81       	ldd	r24, Y+1	; 0x01
    1376:	9a 81       	ldd	r25, Y+2	; 0x02
    1378:	fc 01       	movw	r30, r24
    137a:	87 85       	ldd	r24, Z+15	; 0x0f
    137c:	28 2f       	mov	r18, r24
    137e:	20 62       	ori	r18, 0x20	; 32
    1380:	89 81       	ldd	r24, Y+1	; 0x01
    1382:	9a 81       	ldd	r25, Y+2	; 0x02
    1384:	62 2f       	mov	r22, r18
    1386:	b0 d0       	rcall	.+352    	; 0x14e8 <_ZN13LiquidCrystal7commandEh>
    1388:	89 81       	ldd	r24, Y+1	; 0x01
    138a:	9a 81       	ldd	r25, Y+2	; 0x02
    138c:	24 e0       	ldi	r18, 0x04	; 4
    138e:	fc 01       	movw	r30, r24
    1390:	20 8b       	std	Z+16, r18	; 0x10
    1392:	89 81       	ldd	r24, Y+1	; 0x01
    1394:	9a 81       	ldd	r25, Y+2	; 0x02
    1396:	88 d0       	rcall	.+272    	; 0x14a8 <_ZN13LiquidCrystal7displayEv>
    1398:	89 81       	ldd	r24, Y+1	; 0x01
    139a:	9a 81       	ldd	r25, Y+2	; 0x02
    139c:	3b d0       	rcall	.+118    	; 0x1414 <_ZN13LiquidCrystal5clearEv>
    139e:	89 81       	ldd	r24, Y+1	; 0x01
    13a0:	9a 81       	ldd	r25, Y+2	; 0x02
    13a2:	22 e0       	ldi	r18, 0x02	; 2
    13a4:	fc 01       	movw	r30, r24
    13a6:	21 8b       	std	Z+17, r18	; 0x11
    13a8:	89 81       	ldd	r24, Y+1	; 0x01
    13aa:	9a 81       	ldd	r25, Y+2	; 0x02
    13ac:	fc 01       	movw	r30, r24
    13ae:	81 89       	ldd	r24, Z+17	; 0x11
    13b0:	28 2f       	mov	r18, r24
    13b2:	24 60       	ori	r18, 0x04	; 4
    13b4:	89 81       	ldd	r24, Y+1	; 0x01
    13b6:	9a 81       	ldd	r25, Y+2	; 0x02
    13b8:	62 2f       	mov	r22, r18
    13ba:	96 d0       	rcall	.+300    	; 0x14e8 <_ZN13LiquidCrystal7commandEh>
    13bc:	25 96       	adiw	r28, 0x05	; 5
    13be:	e4 e0       	ldi	r30, 0x04	; 4
    13c0:	0c 94 b0 2c 	jmp	0x5960	; 0x5960 <__epilogue_restores__+0x1c>

000013c4 <_ZN13LiquidCrystal13setRowOffsetsEiiii>:
    13c4:	aa e0       	ldi	r26, 0x0A	; 10
    13c6:	b0 e0       	ldi	r27, 0x00	; 0
    13c8:	e8 ee       	ldi	r30, 0xE8	; 232
    13ca:	f9 e0       	ldi	r31, 0x09	; 9
    13cc:	0c 94 94 2c 	jmp	0x5928	; 0x5928 <__prologue_saves__+0x1c>
    13d0:	9a 83       	std	Y+2, r25	; 0x02
    13d2:	89 83       	std	Y+1, r24	; 0x01
    13d4:	7c 83       	std	Y+4, r23	; 0x04
    13d6:	6b 83       	std	Y+3, r22	; 0x03
    13d8:	5e 83       	std	Y+6, r21	; 0x06
    13da:	4d 83       	std	Y+5, r20	; 0x05
    13dc:	38 87       	std	Y+8, r19	; 0x08
    13de:	2f 83       	std	Y+7, r18	; 0x07
    13e0:	1a 87       	std	Y+10, r17	; 0x0a
    13e2:	09 87       	std	Y+9, r16	; 0x09
    13e4:	2b 81       	ldd	r18, Y+3	; 0x03
    13e6:	89 81       	ldd	r24, Y+1	; 0x01
    13e8:	9a 81       	ldd	r25, Y+2	; 0x02
    13ea:	fc 01       	movw	r30, r24
    13ec:	24 8b       	std	Z+20, r18	; 0x14
    13ee:	2d 81       	ldd	r18, Y+5	; 0x05
    13f0:	89 81       	ldd	r24, Y+1	; 0x01
    13f2:	9a 81       	ldd	r25, Y+2	; 0x02
    13f4:	fc 01       	movw	r30, r24
    13f6:	25 8b       	std	Z+21, r18	; 0x15
    13f8:	2f 81       	ldd	r18, Y+7	; 0x07
    13fa:	89 81       	ldd	r24, Y+1	; 0x01
    13fc:	9a 81       	ldd	r25, Y+2	; 0x02
    13fe:	fc 01       	movw	r30, r24
    1400:	26 8b       	std	Z+22, r18	; 0x16
    1402:	29 85       	ldd	r18, Y+9	; 0x09
    1404:	89 81       	ldd	r24, Y+1	; 0x01
    1406:	9a 81       	ldd	r25, Y+2	; 0x02
    1408:	fc 01       	movw	r30, r24
    140a:	27 8b       	std	Z+23, r18	; 0x17
    140c:	2a 96       	adiw	r28, 0x0a	; 10
    140e:	e4 e0       	ldi	r30, 0x04	; 4
    1410:	0c 94 b0 2c 	jmp	0x5960	; 0x5960 <__epilogue_restores__+0x1c>

00001414 <_ZN13LiquidCrystal5clearEv>:
    1414:	a2 e0       	ldi	r26, 0x02	; 2
    1416:	b0 e0       	ldi	r27, 0x00	; 0
    1418:	e0 e1       	ldi	r30, 0x10	; 16
    141a:	fa e0       	ldi	r31, 0x0A	; 10
    141c:	0c 94 96 2c 	jmp	0x592c	; 0x592c <__prologue_saves__+0x20>
    1420:	9a 83       	std	Y+2, r25	; 0x02
    1422:	89 83       	std	Y+1, r24	; 0x01
    1424:	89 81       	ldd	r24, Y+1	; 0x01
    1426:	9a 81       	ldd	r25, Y+2	; 0x02
    1428:	61 e0       	ldi	r22, 0x01	; 1
    142a:	5e d0       	rcall	.+188    	; 0x14e8 <_ZN13LiquidCrystal7commandEh>
    142c:	80 ed       	ldi	r24, 0xD0	; 208
    142e:	97 e0       	ldi	r25, 0x07	; 7
    1430:	0e 94 34 28 	call	0x5068	; 0x5068 <delayMicroseconds>
    1434:	22 96       	adiw	r28, 0x02	; 2
    1436:	e2 e0       	ldi	r30, 0x02	; 2
    1438:	0c 94 b2 2c 	jmp	0x5964	; 0x5964 <__epilogue_restores__+0x20>

0000143c <_ZN13LiquidCrystal9setCursorEhh>:
    143c:	a6 e0       	ldi	r26, 0x06	; 6
    143e:	b0 e0       	ldi	r27, 0x00	; 0
    1440:	e4 e2       	ldi	r30, 0x24	; 36
    1442:	fa e0       	ldi	r31, 0x0A	; 10
    1444:	0c 94 96 2c 	jmp	0x592c	; 0x592c <__prologue_saves__+0x20>
    1448:	9c 83       	std	Y+4, r25	; 0x04
    144a:	8b 83       	std	Y+3, r24	; 0x03
    144c:	6d 83       	std	Y+5, r22	; 0x05
    144e:	4e 83       	std	Y+6, r20	; 0x06
    1450:	84 e0       	ldi	r24, 0x04	; 4
    1452:	90 e0       	ldi	r25, 0x00	; 0
    1454:	9a 83       	std	Y+2, r25	; 0x02
    1456:	89 83       	std	Y+1, r24	; 0x01
    1458:	8e 81       	ldd	r24, Y+6	; 0x06
    145a:	84 30       	cpi	r24, 0x04	; 4
    145c:	10 f0       	brcs	.+4      	; 0x1462 <_ZN13LiquidCrystal9setCursorEhh+0x26>
    145e:	83 e0       	ldi	r24, 0x03	; 3
    1460:	8e 83       	std	Y+6, r24	; 0x06
    1462:	8b 81       	ldd	r24, Y+3	; 0x03
    1464:	9c 81       	ldd	r25, Y+4	; 0x04
    1466:	fc 01       	movw	r30, r24
    1468:	93 89       	ldd	r25, Z+19	; 0x13
    146a:	8e 81       	ldd	r24, Y+6	; 0x06
    146c:	89 17       	cp	r24, r25
    146e:	30 f0       	brcs	.+12     	; 0x147c <_ZN13LiquidCrystal9setCursorEhh+0x40>
    1470:	8b 81       	ldd	r24, Y+3	; 0x03
    1472:	9c 81       	ldd	r25, Y+4	; 0x04
    1474:	fc 01       	movw	r30, r24
    1476:	83 89       	ldd	r24, Z+19	; 0x13
    1478:	81 50       	subi	r24, 0x01	; 1
    147a:	8e 83       	std	Y+6, r24	; 0x06
    147c:	8e 81       	ldd	r24, Y+6	; 0x06
    147e:	88 2f       	mov	r24, r24
    1480:	90 e0       	ldi	r25, 0x00	; 0
    1482:	2b 81       	ldd	r18, Y+3	; 0x03
    1484:	3c 81       	ldd	r19, Y+4	; 0x04
    1486:	82 0f       	add	r24, r18
    1488:	93 1f       	adc	r25, r19
    148a:	44 96       	adiw	r24, 0x14	; 20
    148c:	fc 01       	movw	r30, r24
    148e:	90 81       	ld	r25, Z
    1490:	8d 81       	ldd	r24, Y+5	; 0x05
    1492:	89 0f       	add	r24, r25
    1494:	80 68       	ori	r24, 0x80	; 128
    1496:	28 2f       	mov	r18, r24
    1498:	8b 81       	ldd	r24, Y+3	; 0x03
    149a:	9c 81       	ldd	r25, Y+4	; 0x04
    149c:	62 2f       	mov	r22, r18
    149e:	24 d0       	rcall	.+72     	; 0x14e8 <_ZN13LiquidCrystal7commandEh>
    14a0:	26 96       	adiw	r28, 0x06	; 6
    14a2:	e2 e0       	ldi	r30, 0x02	; 2
    14a4:	0c 94 b2 2c 	jmp	0x5964	; 0x5964 <__epilogue_restores__+0x20>

000014a8 <_ZN13LiquidCrystal7displayEv>:
    14a8:	a2 e0       	ldi	r26, 0x02	; 2
    14aa:	b0 e0       	ldi	r27, 0x00	; 0
    14ac:	ea e5       	ldi	r30, 0x5A	; 90
    14ae:	fa e0       	ldi	r31, 0x0A	; 10
    14b0:	0c 94 96 2c 	jmp	0x592c	; 0x592c <__prologue_saves__+0x20>
    14b4:	9a 83       	std	Y+2, r25	; 0x02
    14b6:	89 83       	std	Y+1, r24	; 0x01
    14b8:	89 81       	ldd	r24, Y+1	; 0x01
    14ba:	9a 81       	ldd	r25, Y+2	; 0x02
    14bc:	fc 01       	movw	r30, r24
    14be:	80 89       	ldd	r24, Z+16	; 0x10
    14c0:	28 2f       	mov	r18, r24
    14c2:	24 60       	ori	r18, 0x04	; 4
    14c4:	89 81       	ldd	r24, Y+1	; 0x01
    14c6:	9a 81       	ldd	r25, Y+2	; 0x02
    14c8:	fc 01       	movw	r30, r24
    14ca:	20 8b       	std	Z+16, r18	; 0x10
    14cc:	89 81       	ldd	r24, Y+1	; 0x01
    14ce:	9a 81       	ldd	r25, Y+2	; 0x02
    14d0:	fc 01       	movw	r30, r24
    14d2:	80 89       	ldd	r24, Z+16	; 0x10
    14d4:	28 2f       	mov	r18, r24
    14d6:	28 60       	ori	r18, 0x08	; 8
    14d8:	89 81       	ldd	r24, Y+1	; 0x01
    14da:	9a 81       	ldd	r25, Y+2	; 0x02
    14dc:	62 2f       	mov	r22, r18
    14de:	04 d0       	rcall	.+8      	; 0x14e8 <_ZN13LiquidCrystal7commandEh>
    14e0:	22 96       	adiw	r28, 0x02	; 2
    14e2:	e2 e0       	ldi	r30, 0x02	; 2
    14e4:	0c 94 b2 2c 	jmp	0x5964	; 0x5964 <__epilogue_restores__+0x20>

000014e8 <_ZN13LiquidCrystal7commandEh>:

/*********** mid level commands, for sending data/cmds */

inline void LiquidCrystal::command(uint8_t value) {
    14e8:	a3 e0       	ldi	r26, 0x03	; 3
    14ea:	b0 e0       	ldi	r27, 0x00	; 0
    14ec:	ea e7       	ldi	r30, 0x7A	; 122
    14ee:	fa e0       	ldi	r31, 0x0A	; 10
    14f0:	0c 94 96 2c 	jmp	0x592c	; 0x592c <__prologue_saves__+0x20>
    14f4:	9a 83       	std	Y+2, r25	; 0x02
    14f6:	89 83       	std	Y+1, r24	; 0x01
    14f8:	6b 83       	std	Y+3, r22	; 0x03
  send(value, LOW);
    14fa:	89 81       	ldd	r24, Y+1	; 0x01
    14fc:	9a 81       	ldd	r25, Y+2	; 0x02
    14fe:	40 e0       	ldi	r20, 0x00	; 0
    1500:	6b 81       	ldd	r22, Y+3	; 0x03
    1502:	18 d0       	rcall	.+48     	; 0x1534 <_ZN13LiquidCrystal4sendEhh>
}
    1504:	23 96       	adiw	r28, 0x03	; 3
    1506:	e2 e0       	ldi	r30, 0x02	; 2
    1508:	0c 94 b2 2c 	jmp	0x5964	; 0x5964 <__epilogue_restores__+0x20>

0000150c <_ZN13LiquidCrystal5writeEh>:

inline size_t LiquidCrystal::write(uint8_t value) {
    150c:	a3 e0       	ldi	r26, 0x03	; 3
    150e:	b0 e0       	ldi	r27, 0x00	; 0
    1510:	ec e8       	ldi	r30, 0x8C	; 140
    1512:	fa e0       	ldi	r31, 0x0A	; 10
    1514:	0c 94 96 2c 	jmp	0x592c	; 0x592c <__prologue_saves__+0x20>
    1518:	9a 83       	std	Y+2, r25	; 0x02
    151a:	89 83       	std	Y+1, r24	; 0x01
    151c:	6b 83       	std	Y+3, r22	; 0x03
  send(value, HIGH);
    151e:	89 81       	ldd	r24, Y+1	; 0x01
    1520:	9a 81       	ldd	r25, Y+2	; 0x02
    1522:	41 e0       	ldi	r20, 0x01	; 1
    1524:	6b 81       	ldd	r22, Y+3	; 0x03
    1526:	06 d0       	rcall	.+12     	; 0x1534 <_ZN13LiquidCrystal4sendEhh>
  return 1; // assume sucess
    1528:	81 e0       	ldi	r24, 0x01	; 1
    152a:	90 e0       	ldi	r25, 0x00	; 0
}
    152c:	23 96       	adiw	r28, 0x03	; 3
    152e:	e2 e0       	ldi	r30, 0x02	; 2
    1530:	0c 94 b2 2c 	jmp	0x5964	; 0x5964 <__epilogue_restores__+0x20>

00001534 <_ZN13LiquidCrystal4sendEhh>:

/************ low level data pushing commands **********/

// write either command or data, with automatic 4/8-bit selection
void LiquidCrystal::send(uint8_t value, uint8_t mode) {
    1534:	a4 e0       	ldi	r26, 0x04	; 4
    1536:	b0 e0       	ldi	r27, 0x00	; 0
    1538:	e0 ea       	ldi	r30, 0xA0	; 160
    153a:	fa e0       	ldi	r31, 0x0A	; 10
    153c:	0c 94 96 2c 	jmp	0x592c	; 0x592c <__prologue_saves__+0x20>
    1540:	9a 83       	std	Y+2, r25	; 0x02
    1542:	89 83       	std	Y+1, r24	; 0x01
    1544:	6b 83       	std	Y+3, r22	; 0x03
    1546:	4c 83       	std	Y+4, r20	; 0x04
  digitalWrite(_rs_pin, mode);
    1548:	89 81       	ldd	r24, Y+1	; 0x01
    154a:	9a 81       	ldd	r25, Y+2	; 0x02
    154c:	fc 01       	movw	r30, r24
    154e:	84 81       	ldd	r24, Z+4	; 0x04
    1550:	6c 81       	ldd	r22, Y+4	; 0x04
    1552:	0e 94 fc 28 	call	0x51f8	; 0x51f8 <digitalWrite>

  // if there is a RW pin indicated, set it low to Write
  if (_rw_pin != 255) { 
    1556:	89 81       	ldd	r24, Y+1	; 0x01
    1558:	9a 81       	ldd	r25, Y+2	; 0x02
    155a:	fc 01       	movw	r30, r24
    155c:	85 81       	ldd	r24, Z+5	; 0x05
    155e:	8f 3f       	cpi	r24, 0xFF	; 255
    1560:	39 f0       	breq	.+14     	; 0x1570 <_ZN13LiquidCrystal4sendEhh+0x3c>
    digitalWrite(_rw_pin, LOW);
    1562:	89 81       	ldd	r24, Y+1	; 0x01
    1564:	9a 81       	ldd	r25, Y+2	; 0x02
    1566:	fc 01       	movw	r30, r24
    1568:	85 81       	ldd	r24, Z+5	; 0x05
    156a:	60 e0       	ldi	r22, 0x00	; 0
    156c:	0e 94 fc 28 	call	0x51f8	; 0x51f8 <digitalWrite>
  }
  
  if (_displayfunction & LCD_8BITMODE) {
    1570:	89 81       	ldd	r24, Y+1	; 0x01
    1572:	9a 81       	ldd	r25, Y+2	; 0x02
    1574:	fc 01       	movw	r30, r24
    1576:	87 85       	ldd	r24, Z+15	; 0x0f
    1578:	88 2f       	mov	r24, r24
    157a:	90 e0       	ldi	r25, 0x00	; 0
    157c:	80 71       	andi	r24, 0x10	; 16
    157e:	99 27       	eor	r25, r25
    1580:	89 2b       	or	r24, r25
    1582:	29 f0       	breq	.+10     	; 0x158e <_ZN13LiquidCrystal4sendEhh+0x5a>
    write8bits(value); 
    1584:	89 81       	ldd	r24, Y+1	; 0x01
    1586:	9a 81       	ldd	r25, Y+2	; 0x02
    1588:	6b 81       	ldd	r22, Y+3	; 0x03
    158a:	85 d0       	rcall	.+266    	; 0x1696 <_ZN13LiquidCrystal10write8bitsEh>
    158c:	14 c0       	rjmp	.+40     	; 0x15b6 <_ZN13LiquidCrystal4sendEhh+0x82>
  } else {
    write4bits(value>>4);
    158e:	8b 81       	ldd	r24, Y+3	; 0x03
    1590:	88 2f       	mov	r24, r24
    1592:	90 e0       	ldi	r25, 0x00	; 0
    1594:	95 95       	asr	r25
    1596:	87 95       	ror	r24
    1598:	95 95       	asr	r25
    159a:	87 95       	ror	r24
    159c:	95 95       	asr	r25
    159e:	87 95       	ror	r24
    15a0:	95 95       	asr	r25
    15a2:	87 95       	ror	r24
    15a4:	28 2f       	mov	r18, r24
    15a6:	89 81       	ldd	r24, Y+1	; 0x01
    15a8:	9a 81       	ldd	r25, Y+2	; 0x02
    15aa:	62 2f       	mov	r22, r18
    15ac:	35 d0       	rcall	.+106    	; 0x1618 <_ZN13LiquidCrystal10write4bitsEh>
    write4bits(value);
    15ae:	89 81       	ldd	r24, Y+1	; 0x01
    15b0:	9a 81       	ldd	r25, Y+2	; 0x02
    15b2:	6b 81       	ldd	r22, Y+3	; 0x03
    15b4:	31 d0       	rcall	.+98     	; 0x1618 <_ZN13LiquidCrystal10write4bitsEh>
  }
}
    15b6:	24 96       	adiw	r28, 0x04	; 4
    15b8:	e2 e0       	ldi	r30, 0x02	; 2
    15ba:	0c 94 b2 2c 	jmp	0x5964	; 0x5964 <__epilogue_restores__+0x20>

000015be <_ZN13LiquidCrystal11pulseEnableEv>:

void LiquidCrystal::pulseEnable(void) {
    15be:	a2 e0       	ldi	r26, 0x02	; 2
    15c0:	b0 e0       	ldi	r27, 0x00	; 0
    15c2:	e5 ee       	ldi	r30, 0xE5	; 229
    15c4:	fa e0       	ldi	r31, 0x0A	; 10
    15c6:	0c 94 96 2c 	jmp	0x592c	; 0x592c <__prologue_saves__+0x20>
    15ca:	9a 83       	std	Y+2, r25	; 0x02
    15cc:	89 83       	std	Y+1, r24	; 0x01
  digitalWrite(_enable_pin, LOW);
    15ce:	89 81       	ldd	r24, Y+1	; 0x01
    15d0:	9a 81       	ldd	r25, Y+2	; 0x02
    15d2:	fc 01       	movw	r30, r24
    15d4:	86 81       	ldd	r24, Z+6	; 0x06
    15d6:	60 e0       	ldi	r22, 0x00	; 0
    15d8:	0e 94 fc 28 	call	0x51f8	; 0x51f8 <digitalWrite>
  delayMicroseconds(1);    
    15dc:	81 e0       	ldi	r24, 0x01	; 1
    15de:	90 e0       	ldi	r25, 0x00	; 0
    15e0:	0e 94 34 28 	call	0x5068	; 0x5068 <delayMicroseconds>
  digitalWrite(_enable_pin, HIGH);
    15e4:	89 81       	ldd	r24, Y+1	; 0x01
    15e6:	9a 81       	ldd	r25, Y+2	; 0x02
    15e8:	fc 01       	movw	r30, r24
    15ea:	86 81       	ldd	r24, Z+6	; 0x06
    15ec:	61 e0       	ldi	r22, 0x01	; 1
    15ee:	0e 94 fc 28 	call	0x51f8	; 0x51f8 <digitalWrite>
  delayMicroseconds(1);    // enable pulse must be >450ns
    15f2:	81 e0       	ldi	r24, 0x01	; 1
    15f4:	90 e0       	ldi	r25, 0x00	; 0
    15f6:	0e 94 34 28 	call	0x5068	; 0x5068 <delayMicroseconds>
  digitalWrite(_enable_pin, LOW);
    15fa:	89 81       	ldd	r24, Y+1	; 0x01
    15fc:	9a 81       	ldd	r25, Y+2	; 0x02
    15fe:	fc 01       	movw	r30, r24
    1600:	86 81       	ldd	r24, Z+6	; 0x06
    1602:	60 e0       	ldi	r22, 0x00	; 0
    1604:	0e 94 fc 28 	call	0x51f8	; 0x51f8 <digitalWrite>
  delayMicroseconds(100);   // commands need > 37us to settle
    1608:	84 e6       	ldi	r24, 0x64	; 100
    160a:	90 e0       	ldi	r25, 0x00	; 0
    160c:	0e 94 34 28 	call	0x5068	; 0x5068 <delayMicroseconds>
}
    1610:	22 96       	adiw	r28, 0x02	; 2
    1612:	e2 e0       	ldi	r30, 0x02	; 2
    1614:	0c 94 b2 2c 	jmp	0x5964	; 0x5964 <__epilogue_restores__+0x20>

00001618 <_ZN13LiquidCrystal10write4bitsEh>:

void LiquidCrystal::write4bits(uint8_t value) {
    1618:	a5 e0       	ldi	r26, 0x05	; 5
    161a:	b0 e0       	ldi	r27, 0x00	; 0
    161c:	e2 e1       	ldi	r30, 0x12	; 18
    161e:	fb e0       	ldi	r31, 0x0B	; 11
    1620:	0c 94 96 2c 	jmp	0x592c	; 0x592c <__prologue_saves__+0x20>
    1624:	9c 83       	std	Y+4, r25	; 0x04
    1626:	8b 83       	std	Y+3, r24	; 0x03
    1628:	6d 83       	std	Y+5, r22	; 0x05
  for (int i = 0; i < 4; i++) {
    162a:	1a 82       	std	Y+2, r1	; 0x02
    162c:	19 82       	std	Y+1, r1	; 0x01
    162e:	28 c0       	rjmp	.+80     	; 0x1680 <_ZN13LiquidCrystal10write4bitsEh+0x68>
    pinMode(_data_pins[i], OUTPUT);
    1630:	2b 81       	ldd	r18, Y+3	; 0x03
    1632:	3c 81       	ldd	r19, Y+4	; 0x04
    1634:	89 81       	ldd	r24, Y+1	; 0x01
    1636:	9a 81       	ldd	r25, Y+2	; 0x02
    1638:	82 0f       	add	r24, r18
    163a:	93 1f       	adc	r25, r19
    163c:	07 96       	adiw	r24, 0x07	; 7
    163e:	fc 01       	movw	r30, r24
    1640:	80 81       	ld	r24, Z
    1642:	61 e0       	ldi	r22, 0x01	; 1
    1644:	0e 94 c0 28 	call	0x5180	; 0x5180 <pinMode>
    digitalWrite(_data_pins[i], (value >> i) & 0x01);
    1648:	8d 81       	ldd	r24, Y+5	; 0x05
    164a:	88 2f       	mov	r24, r24
    164c:	90 e0       	ldi	r25, 0x00	; 0
    164e:	09 80       	ldd	r0, Y+1	; 0x01
    1650:	02 c0       	rjmp	.+4      	; 0x1656 <_ZN13LiquidCrystal10write4bitsEh+0x3e>
    1652:	95 95       	asr	r25
    1654:	87 95       	ror	r24
    1656:	0a 94       	dec	r0
    1658:	e2 f7       	brpl	.-8      	; 0x1652 <_ZN13LiquidCrystal10write4bitsEh+0x3a>
    165a:	48 2f       	mov	r20, r24
    165c:	41 70       	andi	r20, 0x01	; 1
    165e:	2b 81       	ldd	r18, Y+3	; 0x03
    1660:	3c 81       	ldd	r19, Y+4	; 0x04
    1662:	89 81       	ldd	r24, Y+1	; 0x01
    1664:	9a 81       	ldd	r25, Y+2	; 0x02
    1666:	82 0f       	add	r24, r18
    1668:	93 1f       	adc	r25, r19
    166a:	07 96       	adiw	r24, 0x07	; 7
    166c:	fc 01       	movw	r30, r24
    166e:	80 81       	ld	r24, Z
    1670:	64 2f       	mov	r22, r20
    1672:	0e 94 fc 28 	call	0x51f8	; 0x51f8 <digitalWrite>
  digitalWrite(_enable_pin, LOW);
  delayMicroseconds(100);   // commands need > 37us to settle
}

void LiquidCrystal::write4bits(uint8_t value) {
  for (int i = 0; i < 4; i++) {
    1676:	89 81       	ldd	r24, Y+1	; 0x01
    1678:	9a 81       	ldd	r25, Y+2	; 0x02
    167a:	01 96       	adiw	r24, 0x01	; 1
    167c:	9a 83       	std	Y+2, r25	; 0x02
    167e:	89 83       	std	Y+1, r24	; 0x01
    1680:	89 81       	ldd	r24, Y+1	; 0x01
    1682:	9a 81       	ldd	r25, Y+2	; 0x02
    1684:	04 97       	sbiw	r24, 0x04	; 4
    1686:	a4 f2       	brlt	.-88     	; 0x1630 <_ZN13LiquidCrystal10write4bitsEh+0x18>
    pinMode(_data_pins[i], OUTPUT);
    digitalWrite(_data_pins[i], (value >> i) & 0x01);
  }

  pulseEnable();
    1688:	8b 81       	ldd	r24, Y+3	; 0x03
    168a:	9c 81       	ldd	r25, Y+4	; 0x04
    168c:	98 df       	rcall	.-208    	; 0x15be <_ZN13LiquidCrystal11pulseEnableEv>
}
    168e:	25 96       	adiw	r28, 0x05	; 5
    1690:	e2 e0       	ldi	r30, 0x02	; 2
    1692:	0c 94 b2 2c 	jmp	0x5964	; 0x5964 <__epilogue_restores__+0x20>

00001696 <_ZN13LiquidCrystal10write8bitsEh>:

void LiquidCrystal::write8bits(uint8_t value) {
    1696:	a5 e0       	ldi	r26, 0x05	; 5
    1698:	b0 e0       	ldi	r27, 0x00	; 0
    169a:	e1 e5       	ldi	r30, 0x51	; 81
    169c:	fb e0       	ldi	r31, 0x0B	; 11
    169e:	0c 94 96 2c 	jmp	0x592c	; 0x592c <__prologue_saves__+0x20>
    16a2:	9c 83       	std	Y+4, r25	; 0x04
    16a4:	8b 83       	std	Y+3, r24	; 0x03
    16a6:	6d 83       	std	Y+5, r22	; 0x05
  for (int i = 0; i < 8; i++) {
    16a8:	1a 82       	std	Y+2, r1	; 0x02
    16aa:	19 82       	std	Y+1, r1	; 0x01
    16ac:	28 c0       	rjmp	.+80     	; 0x16fe <_ZN13LiquidCrystal10write8bitsEh+0x68>
    pinMode(_data_pins[i], OUTPUT);
    16ae:	2b 81       	ldd	r18, Y+3	; 0x03
    16b0:	3c 81       	ldd	r19, Y+4	; 0x04
    16b2:	89 81       	ldd	r24, Y+1	; 0x01
    16b4:	9a 81       	ldd	r25, Y+2	; 0x02
    16b6:	82 0f       	add	r24, r18
    16b8:	93 1f       	adc	r25, r19
    16ba:	07 96       	adiw	r24, 0x07	; 7
    16bc:	fc 01       	movw	r30, r24
    16be:	80 81       	ld	r24, Z
    16c0:	61 e0       	ldi	r22, 0x01	; 1
    16c2:	0e 94 c0 28 	call	0x5180	; 0x5180 <pinMode>
    digitalWrite(_data_pins[i], (value >> i) & 0x01);
    16c6:	8d 81       	ldd	r24, Y+5	; 0x05
    16c8:	88 2f       	mov	r24, r24
    16ca:	90 e0       	ldi	r25, 0x00	; 0
    16cc:	09 80       	ldd	r0, Y+1	; 0x01
    16ce:	02 c0       	rjmp	.+4      	; 0x16d4 <_ZN13LiquidCrystal10write8bitsEh+0x3e>
    16d0:	95 95       	asr	r25
    16d2:	87 95       	ror	r24
    16d4:	0a 94       	dec	r0
    16d6:	e2 f7       	brpl	.-8      	; 0x16d0 <_ZN13LiquidCrystal10write8bitsEh+0x3a>
    16d8:	48 2f       	mov	r20, r24
    16da:	41 70       	andi	r20, 0x01	; 1
    16dc:	2b 81       	ldd	r18, Y+3	; 0x03
    16de:	3c 81       	ldd	r19, Y+4	; 0x04
    16e0:	89 81       	ldd	r24, Y+1	; 0x01
    16e2:	9a 81       	ldd	r25, Y+2	; 0x02
    16e4:	82 0f       	add	r24, r18
    16e6:	93 1f       	adc	r25, r19
    16e8:	07 96       	adiw	r24, 0x07	; 7
    16ea:	fc 01       	movw	r30, r24
    16ec:	80 81       	ld	r24, Z
    16ee:	64 2f       	mov	r22, r20
    16f0:	0e 94 fc 28 	call	0x51f8	; 0x51f8 <digitalWrite>

  pulseEnable();
}

void LiquidCrystal::write8bits(uint8_t value) {
  for (int i = 0; i < 8; i++) {
    16f4:	89 81       	ldd	r24, Y+1	; 0x01
    16f6:	9a 81       	ldd	r25, Y+2	; 0x02
    16f8:	01 96       	adiw	r24, 0x01	; 1
    16fa:	9a 83       	std	Y+2, r25	; 0x02
    16fc:	89 83       	std	Y+1, r24	; 0x01
    16fe:	89 81       	ldd	r24, Y+1	; 0x01
    1700:	9a 81       	ldd	r25, Y+2	; 0x02
    1702:	08 97       	sbiw	r24, 0x08	; 8
    1704:	a4 f2       	brlt	.-88     	; 0x16ae <_ZN13LiquidCrystal10write8bitsEh+0x18>
    pinMode(_data_pins[i], OUTPUT);
    digitalWrite(_data_pins[i], (value >> i) & 0x01);
  }
  
  pulseEnable();
    1706:	8b 81       	ldd	r24, Y+3	; 0x03
    1708:	9c 81       	ldd	r25, Y+4	; 0x04
    170a:	59 df       	rcall	.-334    	; 0x15be <_ZN13LiquidCrystal11pulseEnableEv>
}
    170c:	25 96       	adiw	r28, 0x05	; 5
    170e:	e2 e0       	ldi	r30, 0x02	; 2
    1710:	0c 94 b2 2c 	jmp	0x5964	; 0x5964 <__epilogue_restores__+0x20>

00001714 <_ZN4erom6Access8instanceEv>:

// -=-=-=-=-=-=-=-=-=-=-=-=-=-=-=-=-=-=-=-=-=-=-=-=-=-=-=-=-=-=-=-=-=-=-=-=- //
// EEPROM storage management, inherits the 'Storage' class and is used to
// verify whether data currently stored in EEPROM is valid and can be used by
// the running application/sketch.
class VerifiedStorage : public Storage {
    1714:	a0 e0       	ldi	r26, 0x00	; 0
    1716:	b0 e0       	ldi	r27, 0x00	; 0
    1718:	e0 e9       	ldi	r30, 0x90	; 144
    171a:	fb e0       	ldi	r31, 0x0B	; 11
    171c:	0c 94 96 2c 	jmp	0x592c	; 0x592c <__prologue_saves__+0x20>
    1720:	8f ed       	ldi	r24, 0xDF	; 223
    1722:	92 e0       	ldi	r25, 0x02	; 2
    1724:	fc 01       	movw	r30, r24
    1726:	80 81       	ld	r24, Z
    1728:	88 23       	and	r24, r24
    172a:	51 f4       	brne	.+20     	; 0x1740 <_ZN4erom6Access8instanceEv+0x2c>
    172c:	60 e0       	ldi	r22, 0x00	; 0
    172e:	70 e0       	ldi	r23, 0x00	; 0
    1730:	89 ee       	ldi	r24, 0xE9	; 233
    1732:	92 e0       	ldi	r25, 0x02	; 2
    1734:	0a d0       	rcall	.+20     	; 0x174a <_ZN4erom6AccessC1Ej>
    1736:	8f ed       	ldi	r24, 0xDF	; 223
    1738:	92 e0       	ldi	r25, 0x02	; 2
    173a:	21 e0       	ldi	r18, 0x01	; 1
    173c:	fc 01       	movw	r30, r24
    173e:	20 83       	st	Z, r18
    1740:	89 ee       	ldi	r24, 0xE9	; 233
    1742:	92 e0       	ldi	r25, 0x02	; 2
    1744:	e2 e0       	ldi	r30, 0x02	; 2
    1746:	0c 94 b2 2c 	jmp	0x5964	; 0x5964 <__epilogue_restores__+0x20>

0000174a <_ZN4erom6AccessC1Ej>:
    174a:	a4 e0       	ldi	r26, 0x04	; 4
    174c:	b0 e0       	ldi	r27, 0x00	; 0
    174e:	eb ea       	ldi	r30, 0xAB	; 171
    1750:	fb e0       	ldi	r31, 0x0B	; 11
    1752:	0c 94 96 2c 	jmp	0x592c	; 0x592c <__prologue_saves__+0x20>
    1756:	9a 83       	std	Y+2, r25	; 0x02
    1758:	89 83       	std	Y+1, r24	; 0x01
    175a:	7c 83       	std	Y+4, r23	; 0x04
    175c:	6b 83       	std	Y+3, r22	; 0x03
    175e:	89 81       	ldd	r24, Y+1	; 0x01
    1760:	9a 81       	ldd	r25, Y+2	; 0x02
    1762:	2b 81       	ldd	r18, Y+3	; 0x03
    1764:	3c 81       	ldd	r19, Y+4	; 0x04
    1766:	fc 01       	movw	r30, r24
    1768:	31 83       	std	Z+1, r19	; 0x01
    176a:	20 83       	st	Z, r18
    176c:	0a d0       	rcall	.+20     	; 0x1782 <_ZN4erom6Access18device_memory_sizeEv>
    176e:	9c 01       	movw	r18, r24
    1770:	89 81       	ldd	r24, Y+1	; 0x01
    1772:	9a 81       	ldd	r25, Y+2	; 0x02
    1774:	fc 01       	movw	r30, r24
    1776:	33 83       	std	Z+3, r19	; 0x03
    1778:	22 83       	std	Z+2, r18	; 0x02
    177a:	24 96       	adiw	r28, 0x04	; 4
    177c:	e2 e0       	ldi	r30, 0x02	; 2
    177e:	0c 94 b2 2c 	jmp	0x5964	; 0x5964 <__epilogue_restores__+0x20>

00001782 <_ZN4erom6Access18device_memory_sizeEv>:
    1782:	a0 e0       	ldi	r26, 0x00	; 0
    1784:	b0 e0       	ldi	r27, 0x00	; 0
    1786:	e7 ec       	ldi	r30, 0xC7	; 199
    1788:	fb e0       	ldi	r31, 0x0B	; 11
    178a:	0c 94 96 2c 	jmp	0x592c	; 0x592c <__prologue_saves__+0x20>
    178e:	80 e0       	ldi	r24, 0x00	; 0
    1790:	94 e0       	ldi	r25, 0x04	; 4
    1792:	e2 e0       	ldi	r30, 0x02	; 2
    1794:	0c 94 b2 2c 	jmp	0x5964	; 0x5964 <__epilogue_restores__+0x20>

00001798 <_Z41__static_initialization_and_destruction_0ii>:
  return __ok;
}

// -=-=-=-=-=-=-=-=-=-=-=-=-=-=-=-=-=-=-=-=-=-=-=-=-=-=-=-=-=-=-=-=-=-=-=-=- //

} // namespace erom
    1798:	a4 e0       	ldi	r26, 0x04	; 4
    179a:	b0 e0       	ldi	r27, 0x00	; 0
    179c:	e2 ed       	ldi	r30, 0xD2	; 210
    179e:	fb e0       	ldi	r31, 0x0B	; 11
    17a0:	0c 94 96 2c 	jmp	0x592c	; 0x592c <__prologue_saves__+0x20>
    17a4:	9a 83       	std	Y+2, r25	; 0x02
    17a6:	89 83       	std	Y+1, r24	; 0x01
    17a8:	7c 83       	std	Y+4, r23	; 0x04
    17aa:	6b 83       	std	Y+3, r22	; 0x03
    17ac:	89 81       	ldd	r24, Y+1	; 0x01
    17ae:	9a 81       	ldd	r25, Y+2	; 0x02
    17b0:	01 97       	sbiw	r24, 0x01	; 1
    17b2:	49 f4       	brne	.+18     	; 0x17c6 <_Z41__static_initialization_and_destruction_0ii+0x2e>
    17b4:	8b 81       	ldd	r24, Y+3	; 0x03
    17b6:	9c 81       	ldd	r25, Y+4	; 0x04
    17b8:	01 96       	adiw	r24, 0x01	; 1
    17ba:	29 f4       	brne	.+10     	; 0x17c6 <_Z41__static_initialization_and_destruction_0ii+0x2e>

namespace erom {

// -=-=-=-=-=-=-=-=-=-=-=-=-=-=-=-=-=-=-=-=-=-=-=-=-=-=-=-=-=-=-=-=-=-=-=-=- //

erom::Access &access = Access::instance();
    17bc:	ab df       	rcall	.-170    	; 0x1714 <_ZN4erom6Access8instanceEv>
    17be:	90 93 e8 02 	sts	0x02E8, r25	; 0x8002e8 <_ZN4erom6accessE+0x1>
    17c2:	80 93 e7 02 	sts	0x02E7, r24	; 0x8002e7 <_ZN4erom6accessE>
  return __ok;
}

// -=-=-=-=-=-=-=-=-=-=-=-=-=-=-=-=-=-=-=-=-=-=-=-=-=-=-=-=-=-=-=-=-=-=-=-=- //

} // namespace erom
    17c6:	24 96       	adiw	r28, 0x04	; 4
    17c8:	e2 e0       	ldi	r30, 0x02	; 2
    17ca:	0c 94 b2 2c 	jmp	0x5964	; 0x5964 <__epilogue_restores__+0x20>

000017ce <_GLOBAL__sub_I__ZN4erom6accessE>:
    17ce:	a0 e0       	ldi	r26, 0x00	; 0
    17d0:	b0 e0       	ldi	r27, 0x00	; 0
    17d2:	ed ee       	ldi	r30, 0xED	; 237
    17d4:	fb e0       	ldi	r31, 0x0B	; 11
    17d6:	0c 94 96 2c 	jmp	0x592c	; 0x592c <__prologue_saves__+0x20>
    17da:	6f ef       	ldi	r22, 0xFF	; 255
    17dc:	7f ef       	ldi	r23, 0xFF	; 255
    17de:	81 e0       	ldi	r24, 0x01	; 1
    17e0:	90 e0       	ldi	r25, 0x00	; 0
    17e2:	da df       	rcall	.-76     	; 0x1798 <_Z41__static_initialization_and_destruction_0ii>
    17e4:	e2 e0       	ldi	r30, 0x02	; 2
    17e6:	0c 94 b2 2c 	jmp	0x5964	; 0x5964 <__epilogue_restores__+0x20>

000017ea <_ZL7elapsedv>:
#include "SimpleTimer.h"


// Select time function:
//static inline unsigned long elapsed() { return micros(); }
static inline unsigned long elapsed() { return millis(); }
    17ea:	a0 e0       	ldi	r26, 0x00	; 0
    17ec:	b0 e0       	ldi	r27, 0x00	; 0
    17ee:	eb ef       	ldi	r30, 0xFB	; 251
    17f0:	fb e0       	ldi	r31, 0x0B	; 11
    17f2:	0c 94 96 2c 	jmp	0x592c	; 0x592c <__prologue_saves__+0x20>
    17f6:	0e 94 ca 27 	call	0x4f94	; 0x4f94 <millis>
    17fa:	dc 01       	movw	r26, r24
    17fc:	cb 01       	movw	r24, r22
    17fe:	bc 01       	movw	r22, r24
    1800:	cd 01       	movw	r24, r26
    1802:	e2 e0       	ldi	r30, 0x02	; 2
    1804:	0c 94 b2 2c 	jmp	0x5964	; 0x5964 <__epilogue_restores__+0x20>

00001808 <_ZN11SimpleTimerC1Ev>:


SimpleTimer::SimpleTimer() {
    1808:	a8 e0       	ldi	r26, 0x08	; 8
    180a:	b0 e0       	ldi	r27, 0x00	; 0
    180c:	ea e0       	ldi	r30, 0x0A	; 10
    180e:	fc e0       	ldi	r31, 0x0C	; 12
    1810:	0c 94 96 2c 	jmp	0x592c	; 0x592c <__prologue_saves__+0x20>
    1814:	98 87       	std	Y+8, r25	; 0x08
    1816:	8f 83       	std	Y+7, r24	; 0x07
    1818:	8f 81       	ldd	r24, Y+7	; 0x07
    181a:	98 85       	ldd	r25, Y+8	; 0x08
    181c:	2d e8       	ldi	r18, 0x8D	; 141
    181e:	31 e0       	ldi	r19, 0x01	; 1
    1820:	fc 01       	movw	r30, r24
    1822:	31 83       	std	Z+1, r19	; 0x01
    1824:	20 83       	st	Z, r18
    unsigned long current_millis = elapsed();
    1826:	e1 df       	rcall	.-62     	; 0x17ea <_ZL7elapsedv>
    1828:	dc 01       	movw	r26, r24
    182a:	cb 01       	movw	r24, r22
    182c:	8b 83       	std	Y+3, r24	; 0x03
    182e:	9c 83       	std	Y+4, r25	; 0x04
    1830:	ad 83       	std	Y+5, r26	; 0x05
    1832:	be 83       	std	Y+6, r27	; 0x06

    for (int i = 0; i < MAX_TIMERS; i++) {
    1834:	1a 82       	std	Y+2, r1	; 0x02
    1836:	19 82       	std	Y+1, r1	; 0x01
    1838:	3d c0       	rjmp	.+122    	; 0x18b4 <_ZN11SimpleTimerC1Ev+0xac>
        enabled[i] = false;
    183a:	2f 81       	ldd	r18, Y+7	; 0x07
    183c:	38 85       	ldd	r19, Y+8	; 0x08
    183e:	89 81       	ldd	r24, Y+1	; 0x01
    1840:	9a 81       	ldd	r25, Y+2	; 0x02
    1842:	82 0f       	add	r24, r18
    1844:	93 1f       	adc	r25, r19
    1846:	82 57       	subi	r24, 0x72	; 114
    1848:	9f 4f       	sbci	r25, 0xFF	; 255
    184a:	fc 01       	movw	r30, r24
    184c:	10 82       	st	Z, r1
        callbacks[i] = 0;                   // if the callback pointer is zero, the slot is free, i.e. doesn't "contain" any timer
    184e:	2f 81       	ldd	r18, Y+7	; 0x07
    1850:	38 85       	ldd	r19, Y+8	; 0x08
    1852:	89 81       	ldd	r24, Y+1	; 0x01
    1854:	9a 81       	ldd	r25, Y+2	; 0x02
    1856:	45 96       	adiw	r24, 0x15	; 21
    1858:	88 0f       	add	r24, r24
    185a:	99 1f       	adc	r25, r25
    185c:	82 0f       	add	r24, r18
    185e:	93 1f       	adc	r25, r19
    1860:	fc 01       	movw	r30, r24
    1862:	11 82       	std	Z+1, r1	; 0x01
    1864:	10 82       	st	Z, r1
        prev_millis[i] = current_millis;
    1866:	2f 81       	ldd	r18, Y+7	; 0x07
    1868:	38 85       	ldd	r19, Y+8	; 0x08
    186a:	89 81       	ldd	r24, Y+1	; 0x01
    186c:	9a 81       	ldd	r25, Y+2	; 0x02
    186e:	88 0f       	add	r24, r24
    1870:	99 1f       	adc	r25, r25
    1872:	88 0f       	add	r24, r24
    1874:	99 1f       	adc	r25, r25
    1876:	82 0f       	add	r24, r18
    1878:	93 1f       	adc	r25, r19
    187a:	9c 01       	movw	r18, r24
    187c:	2e 5f       	subi	r18, 0xFE	; 254
    187e:	3f 4f       	sbci	r19, 0xFF	; 255
    1880:	8b 81       	ldd	r24, Y+3	; 0x03
    1882:	9c 81       	ldd	r25, Y+4	; 0x04
    1884:	ad 81       	ldd	r26, Y+5	; 0x05
    1886:	be 81       	ldd	r27, Y+6	; 0x06
    1888:	f9 01       	movw	r30, r18
    188a:	80 83       	st	Z, r24
    188c:	91 83       	std	Z+1, r25	; 0x01
    188e:	a2 83       	std	Z+2, r26	; 0x02
    1890:	b3 83       	std	Z+3, r27	; 0x03
        numRuns[i] = 0;
    1892:	2f 81       	ldd	r18, Y+7	; 0x07
    1894:	38 85       	ldd	r19, Y+8	; 0x08
    1896:	89 81       	ldd	r24, Y+1	; 0x01
    1898:	9a 81       	ldd	r25, Y+2	; 0x02
    189a:	cd 96       	adiw	r24, 0x3d	; 61
    189c:	88 0f       	add	r24, r24
    189e:	99 1f       	adc	r25, r25
    18a0:	82 0f       	add	r24, r18
    18a2:	93 1f       	adc	r25, r19
    18a4:	fc 01       	movw	r30, r24
    18a6:	11 82       	std	Z+1, r1	; 0x01
    18a8:	10 82       	st	Z, r1


SimpleTimer::SimpleTimer() {
    unsigned long current_millis = elapsed();

    for (int i = 0; i < MAX_TIMERS; i++) {
    18aa:	89 81       	ldd	r24, Y+1	; 0x01
    18ac:	9a 81       	ldd	r25, Y+2	; 0x02
    18ae:	01 96       	adiw	r24, 0x01	; 1
    18b0:	9a 83       	std	Y+2, r25	; 0x02
    18b2:	89 83       	std	Y+1, r24	; 0x01
    18b4:	89 81       	ldd	r24, Y+1	; 0x01
    18b6:	9a 81       	ldd	r25, Y+2	; 0x02
    18b8:	0a 97       	sbiw	r24, 0x0a	; 10
    18ba:	0c f4       	brge	.+2      	; 0x18be <_ZN11SimpleTimerC1Ev+0xb6>
    18bc:	be cf       	rjmp	.-132    	; 0x183a <_ZN11SimpleTimerC1Ev+0x32>
        callbacks[i] = 0;                   // if the callback pointer is zero, the slot is free, i.e. doesn't "contain" any timer
        prev_millis[i] = current_millis;
        numRuns[i] = 0;
    }

    numTimers = 0;
    18be:	8f 81       	ldd	r24, Y+7	; 0x07
    18c0:	98 85       	ldd	r25, Y+8	; 0x08
    18c2:	84 55       	subi	r24, 0x54	; 84
    18c4:	9f 4f       	sbci	r25, 0xFF	; 255
    18c6:	fc 01       	movw	r30, r24
    18c8:	11 82       	std	Z+1, r1	; 0x01
    18ca:	10 82       	st	Z, r1
}
    18cc:	28 96       	adiw	r28, 0x08	; 8
    18ce:	e2 e0       	ldi	r30, 0x02	; 2
    18d0:	0c 94 b2 2c 	jmp	0x5964	; 0x5964 <__epilogue_restores__+0x20>

000018d4 <_ZN11SimpleTimer3runEv>:


void SimpleTimer::run() {
    18d4:	a8 e0       	ldi	r26, 0x08	; 8
    18d6:	b0 e0       	ldi	r27, 0x00	; 0
    18d8:	e0 e7       	ldi	r30, 0x70	; 112
    18da:	fc e0       	ldi	r31, 0x0C	; 12
    18dc:	0c 94 92 2c 	jmp	0x5924	; 0x5924 <__prologue_saves__+0x18>
    18e0:	98 87       	std	Y+8, r25	; 0x08
    18e2:	8f 83       	std	Y+7, r24	; 0x07
    int i;
    unsigned long current_millis;

    // get current time
    current_millis = elapsed();
    18e4:	82 df       	rcall	.-252    	; 0x17ea <_ZL7elapsedv>
    18e6:	dc 01       	movw	r26, r24
    18e8:	cb 01       	movw	r24, r22
    18ea:	8b 83       	std	Y+3, r24	; 0x03
    18ec:	9c 83       	std	Y+4, r25	; 0x04
    18ee:	ad 83       	std	Y+5, r26	; 0x05
    18f0:	be 83       	std	Y+6, r27	; 0x06

    for (i = 0; i < MAX_TIMERS; i++) {
    18f2:	1a 82       	std	Y+2, r1	; 0x02
    18f4:	19 82       	std	Y+1, r1	; 0x01
    18f6:	25 c1       	rjmp	.+586    	; 0x1b42 <_ZN11SimpleTimer3runEv+0x26e>

        toBeCalled[i] = DEFCALL_DONTRUN;
    18f8:	2f 81       	ldd	r18, Y+7	; 0x07
    18fa:	38 85       	ldd	r19, Y+8	; 0x08
    18fc:	89 81       	ldd	r24, Y+1	; 0x01
    18fe:	9a 81       	ldd	r25, Y+2	; 0x02
    1900:	84 5b       	subi	r24, 0xB4	; 180
    1902:	9f 4f       	sbci	r25, 0xFF	; 255
    1904:	88 0f       	add	r24, r24
    1906:	99 1f       	adc	r25, r25
    1908:	82 0f       	add	r24, r18
    190a:	93 1f       	adc	r25, r19
    190c:	fc 01       	movw	r30, r24
    190e:	11 82       	std	Z+1, r1	; 0x01
    1910:	10 82       	st	Z, r1

        // no callback == no timer, i.e. jump over empty slots
        if (callbacks[i]) {
    1912:	2f 81       	ldd	r18, Y+7	; 0x07
    1914:	38 85       	ldd	r19, Y+8	; 0x08
    1916:	89 81       	ldd	r24, Y+1	; 0x01
    1918:	9a 81       	ldd	r25, Y+2	; 0x02
    191a:	45 96       	adiw	r24, 0x15	; 21
    191c:	88 0f       	add	r24, r24
    191e:	99 1f       	adc	r25, r25
    1920:	82 0f       	add	r24, r18
    1922:	93 1f       	adc	r25, r19
    1924:	fc 01       	movw	r30, r24
    1926:	80 81       	ld	r24, Z
    1928:	91 81       	ldd	r25, Z+1	; 0x01
    192a:	89 2b       	or	r24, r25
    192c:	09 f4       	brne	.+2      	; 0x1930 <_ZN11SimpleTimer3runEv+0x5c>
    192e:	04 c1       	rjmp	.+520    	; 0x1b38 <_ZN11SimpleTimer3runEv+0x264>

            // is it time to process this timer ?
            // see http://arduino.cc/forum/index.php/topic,124048.msg932592.html#msg932592

            if (current_millis - prev_millis[i] >= delays[i]) {
    1930:	2f 81       	ldd	r18, Y+7	; 0x07
    1932:	38 85       	ldd	r19, Y+8	; 0x08
    1934:	89 81       	ldd	r24, Y+1	; 0x01
    1936:	9a 81       	ldd	r25, Y+2	; 0x02
    1938:	88 0f       	add	r24, r24
    193a:	99 1f       	adc	r25, r25
    193c:	88 0f       	add	r24, r24
    193e:	99 1f       	adc	r25, r25
    1940:	82 0f       	add	r24, r18
    1942:	93 1f       	adc	r25, r19
    1944:	02 96       	adiw	r24, 0x02	; 2
    1946:	fc 01       	movw	r30, r24
    1948:	80 81       	ld	r24, Z
    194a:	91 81       	ldd	r25, Z+1	; 0x01
    194c:	a2 81       	ldd	r26, Z+2	; 0x02
    194e:	b3 81       	ldd	r27, Z+3	; 0x03
    1950:	2b 81       	ldd	r18, Y+3	; 0x03
    1952:	3c 81       	ldd	r19, Y+4	; 0x04
    1954:	4d 81       	ldd	r20, Y+5	; 0x05
    1956:	5e 81       	ldd	r21, Y+6	; 0x06
    1958:	79 01       	movw	r14, r18
    195a:	8a 01       	movw	r16, r20
    195c:	e8 1a       	sub	r14, r24
    195e:	f9 0a       	sbc	r15, r25
    1960:	0a 0b       	sbc	r16, r26
    1962:	1b 0b       	sbc	r17, r27
    1964:	d8 01       	movw	r26, r16
    1966:	c7 01       	movw	r24, r14
    1968:	4f 81       	ldd	r20, Y+7	; 0x07
    196a:	58 85       	ldd	r21, Y+8	; 0x08
    196c:	29 81       	ldd	r18, Y+1	; 0x01
    196e:	3a 81       	ldd	r19, Y+2	; 0x02
    1970:	22 0f       	add	r18, r18
    1972:	33 1f       	adc	r19, r19
    1974:	22 0f       	add	r18, r18
    1976:	33 1f       	adc	r19, r19
    1978:	24 0f       	add	r18, r20
    197a:	35 1f       	adc	r19, r21
    197c:	22 5c       	subi	r18, 0xC2	; 194
    197e:	3f 4f       	sbci	r19, 0xFF	; 255
    1980:	f9 01       	movw	r30, r18
    1982:	20 81       	ld	r18, Z
    1984:	31 81       	ldd	r19, Z+1	; 0x01
    1986:	42 81       	ldd	r20, Z+2	; 0x02
    1988:	53 81       	ldd	r21, Z+3	; 0x03
    198a:	82 17       	cp	r24, r18
    198c:	93 07       	cpc	r25, r19
    198e:	a4 07       	cpc	r26, r20
    1990:	b5 07       	cpc	r27, r21
    1992:	08 f4       	brcc	.+2      	; 0x1996 <_ZN11SimpleTimer3runEv+0xc2>
    1994:	d1 c0       	rjmp	.+418    	; 0x1b38 <_ZN11SimpleTimer3runEv+0x264>

                // update time
                //prev_millis[i] = current_millis;
                prev_millis[i] += delays[i];
    1996:	2f 81       	ldd	r18, Y+7	; 0x07
    1998:	38 85       	ldd	r19, Y+8	; 0x08
    199a:	89 81       	ldd	r24, Y+1	; 0x01
    199c:	9a 81       	ldd	r25, Y+2	; 0x02
    199e:	88 0f       	add	r24, r24
    19a0:	99 1f       	adc	r25, r25
    19a2:	88 0f       	add	r24, r24
    19a4:	99 1f       	adc	r25, r25
    19a6:	82 0f       	add	r24, r18
    19a8:	93 1f       	adc	r25, r19
    19aa:	02 96       	adiw	r24, 0x02	; 2
    19ac:	fc 01       	movw	r30, r24
    19ae:	80 81       	ld	r24, Z
    19b0:	91 81       	ldd	r25, Z+1	; 0x01
    19b2:	a2 81       	ldd	r26, Z+2	; 0x02
    19b4:	b3 81       	ldd	r27, Z+3	; 0x03
    19b6:	4f 81       	ldd	r20, Y+7	; 0x07
    19b8:	58 85       	ldd	r21, Y+8	; 0x08
    19ba:	29 81       	ldd	r18, Y+1	; 0x01
    19bc:	3a 81       	ldd	r19, Y+2	; 0x02
    19be:	22 0f       	add	r18, r18
    19c0:	33 1f       	adc	r19, r19
    19c2:	22 0f       	add	r18, r18
    19c4:	33 1f       	adc	r19, r19
    19c6:	24 0f       	add	r18, r20
    19c8:	35 1f       	adc	r19, r21
    19ca:	22 5c       	subi	r18, 0xC2	; 194
    19cc:	3f 4f       	sbci	r19, 0xFF	; 255
    19ce:	f9 01       	movw	r30, r18
    19d0:	20 81       	ld	r18, Z
    19d2:	31 81       	ldd	r19, Z+1	; 0x01
    19d4:	42 81       	ldd	r20, Z+2	; 0x02
    19d6:	53 81       	ldd	r21, Z+3	; 0x03
    19d8:	82 0f       	add	r24, r18
    19da:	93 1f       	adc	r25, r19
    19dc:	a4 1f       	adc	r26, r20
    19de:	b5 1f       	adc	r27, r21
    19e0:	4f 81       	ldd	r20, Y+7	; 0x07
    19e2:	58 85       	ldd	r21, Y+8	; 0x08
    19e4:	29 81       	ldd	r18, Y+1	; 0x01
    19e6:	3a 81       	ldd	r19, Y+2	; 0x02
    19e8:	22 0f       	add	r18, r18
    19ea:	33 1f       	adc	r19, r19
    19ec:	22 0f       	add	r18, r18
    19ee:	33 1f       	adc	r19, r19
    19f0:	24 0f       	add	r18, r20
    19f2:	35 1f       	adc	r19, r21
    19f4:	2e 5f       	subi	r18, 0xFE	; 254
    19f6:	3f 4f       	sbci	r19, 0xFF	; 255
    19f8:	f9 01       	movw	r30, r18
    19fa:	80 83       	st	Z, r24
    19fc:	91 83       	std	Z+1, r25	; 0x01
    19fe:	a2 83       	std	Z+2, r26	; 0x02
    1a00:	b3 83       	std	Z+3, r27	; 0x03

                // check if the timer callback has to be executed
                if (enabled[i]) {
    1a02:	2f 81       	ldd	r18, Y+7	; 0x07
    1a04:	38 85       	ldd	r19, Y+8	; 0x08
    1a06:	89 81       	ldd	r24, Y+1	; 0x01
    1a08:	9a 81       	ldd	r25, Y+2	; 0x02
    1a0a:	82 0f       	add	r24, r18
    1a0c:	93 1f       	adc	r25, r19
    1a0e:	82 57       	subi	r24, 0x72	; 114
    1a10:	9f 4f       	sbci	r25, 0xFF	; 255
    1a12:	fc 01       	movw	r30, r24
    1a14:	80 81       	ld	r24, Z
    1a16:	88 23       	and	r24, r24
    1a18:	09 f4       	brne	.+2      	; 0x1a1c <_ZN11SimpleTimer3runEv+0x148>
    1a1a:	8e c0       	rjmp	.+284    	; 0x1b38 <_ZN11SimpleTimer3runEv+0x264>

                    // "run forever" timers must always be executed
                    if (maxNumRuns[i] == RUN_FOREVER) {
    1a1c:	2f 81       	ldd	r18, Y+7	; 0x07
    1a1e:	38 85       	ldd	r19, Y+8	; 0x08
    1a20:	89 81       	ldd	r24, Y+1	; 0x01
    1a22:	9a 81       	ldd	r25, Y+2	; 0x02
    1a24:	c3 96       	adiw	r24, 0x33	; 51
    1a26:	88 0f       	add	r24, r24
    1a28:	99 1f       	adc	r25, r25
    1a2a:	82 0f       	add	r24, r18
    1a2c:	93 1f       	adc	r25, r19
    1a2e:	fc 01       	movw	r30, r24
    1a30:	80 81       	ld	r24, Z
    1a32:	91 81       	ldd	r25, Z+1	; 0x01
    1a34:	89 2b       	or	r24, r25
    1a36:	81 f4       	brne	.+32     	; 0x1a58 <_ZN11SimpleTimer3runEv+0x184>
                        toBeCalled[i] = DEFCALL_RUNONLY;
    1a38:	2f 81       	ldd	r18, Y+7	; 0x07
    1a3a:	38 85       	ldd	r19, Y+8	; 0x08
    1a3c:	89 81       	ldd	r24, Y+1	; 0x01
    1a3e:	9a 81       	ldd	r25, Y+2	; 0x02
    1a40:	84 5b       	subi	r24, 0xB4	; 180
    1a42:	9f 4f       	sbci	r25, 0xFF	; 255
    1a44:	88 0f       	add	r24, r24
    1a46:	99 1f       	adc	r25, r25
    1a48:	82 0f       	add	r24, r18
    1a4a:	93 1f       	adc	r25, r19
    1a4c:	21 e0       	ldi	r18, 0x01	; 1
    1a4e:	30 e0       	ldi	r19, 0x00	; 0
    1a50:	fc 01       	movw	r30, r24
    1a52:	31 83       	std	Z+1, r19	; 0x01
    1a54:	20 83       	st	Z, r18
    1a56:	70 c0       	rjmp	.+224    	; 0x1b38 <_ZN11SimpleTimer3runEv+0x264>
                    }
                    // other timers get executed the specified number of times
                    else if (numRuns[i] < maxNumRuns[i]) {
    1a58:	2f 81       	ldd	r18, Y+7	; 0x07
    1a5a:	38 85       	ldd	r19, Y+8	; 0x08
    1a5c:	89 81       	ldd	r24, Y+1	; 0x01
    1a5e:	9a 81       	ldd	r25, Y+2	; 0x02
    1a60:	cd 96       	adiw	r24, 0x3d	; 61
    1a62:	88 0f       	add	r24, r24
    1a64:	99 1f       	adc	r25, r25
    1a66:	82 0f       	add	r24, r18
    1a68:	93 1f       	adc	r25, r19
    1a6a:	fc 01       	movw	r30, r24
    1a6c:	20 81       	ld	r18, Z
    1a6e:	31 81       	ldd	r19, Z+1	; 0x01
    1a70:	4f 81       	ldd	r20, Y+7	; 0x07
    1a72:	58 85       	ldd	r21, Y+8	; 0x08
    1a74:	89 81       	ldd	r24, Y+1	; 0x01
    1a76:	9a 81       	ldd	r25, Y+2	; 0x02
    1a78:	c3 96       	adiw	r24, 0x33	; 51
    1a7a:	88 0f       	add	r24, r24
    1a7c:	99 1f       	adc	r25, r25
    1a7e:	84 0f       	add	r24, r20
    1a80:	95 1f       	adc	r25, r21
    1a82:	fc 01       	movw	r30, r24
    1a84:	80 81       	ld	r24, Z
    1a86:	91 81       	ldd	r25, Z+1	; 0x01
    1a88:	28 17       	cp	r18, r24
    1a8a:	39 07       	cpc	r19, r25
    1a8c:	0c f0       	brlt	.+2      	; 0x1a90 <_ZN11SimpleTimer3runEv+0x1bc>
    1a8e:	54 c0       	rjmp	.+168    	; 0x1b38 <_ZN11SimpleTimer3runEv+0x264>
                        toBeCalled[i] = DEFCALL_RUNONLY;
    1a90:	2f 81       	ldd	r18, Y+7	; 0x07
    1a92:	38 85       	ldd	r19, Y+8	; 0x08
    1a94:	89 81       	ldd	r24, Y+1	; 0x01
    1a96:	9a 81       	ldd	r25, Y+2	; 0x02
    1a98:	84 5b       	subi	r24, 0xB4	; 180
    1a9a:	9f 4f       	sbci	r25, 0xFF	; 255
    1a9c:	88 0f       	add	r24, r24
    1a9e:	99 1f       	adc	r25, r25
    1aa0:	82 0f       	add	r24, r18
    1aa2:	93 1f       	adc	r25, r19
    1aa4:	21 e0       	ldi	r18, 0x01	; 1
    1aa6:	30 e0       	ldi	r19, 0x00	; 0
    1aa8:	fc 01       	movw	r30, r24
    1aaa:	31 83       	std	Z+1, r19	; 0x01
    1aac:	20 83       	st	Z, r18
                        numRuns[i]++;
    1aae:	2f 81       	ldd	r18, Y+7	; 0x07
    1ab0:	38 85       	ldd	r19, Y+8	; 0x08
    1ab2:	89 81       	ldd	r24, Y+1	; 0x01
    1ab4:	9a 81       	ldd	r25, Y+2	; 0x02
    1ab6:	cd 96       	adiw	r24, 0x3d	; 61
    1ab8:	88 0f       	add	r24, r24
    1aba:	99 1f       	adc	r25, r25
    1abc:	82 0f       	add	r24, r18
    1abe:	93 1f       	adc	r25, r19
    1ac0:	fc 01       	movw	r30, r24
    1ac2:	80 81       	ld	r24, Z
    1ac4:	91 81       	ldd	r25, Z+1	; 0x01
    1ac6:	9c 01       	movw	r18, r24
    1ac8:	2f 5f       	subi	r18, 0xFF	; 255
    1aca:	3f 4f       	sbci	r19, 0xFF	; 255
    1acc:	4f 81       	ldd	r20, Y+7	; 0x07
    1ace:	58 85       	ldd	r21, Y+8	; 0x08
    1ad0:	89 81       	ldd	r24, Y+1	; 0x01
    1ad2:	9a 81       	ldd	r25, Y+2	; 0x02
    1ad4:	cd 96       	adiw	r24, 0x3d	; 61
    1ad6:	88 0f       	add	r24, r24
    1ad8:	99 1f       	adc	r25, r25
    1ada:	84 0f       	add	r24, r20
    1adc:	95 1f       	adc	r25, r21
    1ade:	fc 01       	movw	r30, r24
    1ae0:	31 83       	std	Z+1, r19	; 0x01
    1ae2:	20 83       	st	Z, r18

                        // after the last run, delete the timer
                        if (numRuns[i] >= maxNumRuns[i]) {
    1ae4:	2f 81       	ldd	r18, Y+7	; 0x07
    1ae6:	38 85       	ldd	r19, Y+8	; 0x08
    1ae8:	89 81       	ldd	r24, Y+1	; 0x01
    1aea:	9a 81       	ldd	r25, Y+2	; 0x02
    1aec:	cd 96       	adiw	r24, 0x3d	; 61
    1aee:	88 0f       	add	r24, r24
    1af0:	99 1f       	adc	r25, r25
    1af2:	82 0f       	add	r24, r18
    1af4:	93 1f       	adc	r25, r19
    1af6:	fc 01       	movw	r30, r24
    1af8:	20 81       	ld	r18, Z
    1afa:	31 81       	ldd	r19, Z+1	; 0x01
    1afc:	4f 81       	ldd	r20, Y+7	; 0x07
    1afe:	58 85       	ldd	r21, Y+8	; 0x08
    1b00:	89 81       	ldd	r24, Y+1	; 0x01
    1b02:	9a 81       	ldd	r25, Y+2	; 0x02
    1b04:	c3 96       	adiw	r24, 0x33	; 51
    1b06:	88 0f       	add	r24, r24
    1b08:	99 1f       	adc	r25, r25
    1b0a:	84 0f       	add	r24, r20
    1b0c:	95 1f       	adc	r25, r21
    1b0e:	fc 01       	movw	r30, r24
    1b10:	80 81       	ld	r24, Z
    1b12:	91 81       	ldd	r25, Z+1	; 0x01
    1b14:	28 17       	cp	r18, r24
    1b16:	39 07       	cpc	r19, r25
    1b18:	7c f0       	brlt	.+30     	; 0x1b38 <_ZN11SimpleTimer3runEv+0x264>
                            toBeCalled[i] = DEFCALL_RUNANDDEL;
    1b1a:	2f 81       	ldd	r18, Y+7	; 0x07
    1b1c:	38 85       	ldd	r19, Y+8	; 0x08
    1b1e:	89 81       	ldd	r24, Y+1	; 0x01
    1b20:	9a 81       	ldd	r25, Y+2	; 0x02
    1b22:	84 5b       	subi	r24, 0xB4	; 180
    1b24:	9f 4f       	sbci	r25, 0xFF	; 255
    1b26:	88 0f       	add	r24, r24
    1b28:	99 1f       	adc	r25, r25
    1b2a:	82 0f       	add	r24, r18
    1b2c:	93 1f       	adc	r25, r19
    1b2e:	22 e0       	ldi	r18, 0x02	; 2
    1b30:	30 e0       	ldi	r19, 0x00	; 0
    1b32:	fc 01       	movw	r30, r24
    1b34:	31 83       	std	Z+1, r19	; 0x01
    1b36:	20 83       	st	Z, r18
    unsigned long current_millis;

    // get current time
    current_millis = elapsed();

    for (i = 0; i < MAX_TIMERS; i++) {
    1b38:	89 81       	ldd	r24, Y+1	; 0x01
    1b3a:	9a 81       	ldd	r25, Y+2	; 0x02
    1b3c:	01 96       	adiw	r24, 0x01	; 1
    1b3e:	9a 83       	std	Y+2, r25	; 0x02
    1b40:	89 83       	std	Y+1, r24	; 0x01
    1b42:	89 81       	ldd	r24, Y+1	; 0x01
    1b44:	9a 81       	ldd	r25, Y+2	; 0x02
    1b46:	0a 97       	sbiw	r24, 0x0a	; 10
    1b48:	0c f4       	brge	.+2      	; 0x1b4c <_ZN11SimpleTimer3runEv+0x278>
    1b4a:	d6 ce       	rjmp	.-596    	; 0x18f8 <_ZN11SimpleTimer3runEv+0x24>
                }
            }
        }
    }

    for (i = 0; i < MAX_TIMERS; i++) {
    1b4c:	1a 82       	std	Y+2, r1	; 0x02
    1b4e:	19 82       	std	Y+1, r1	; 0x01
    1b50:	46 c0       	rjmp	.+140    	; 0x1bde <_ZN11SimpleTimer3runEv+0x30a>
        switch(toBeCalled[i]) {
    1b52:	2f 81       	ldd	r18, Y+7	; 0x07
    1b54:	38 85       	ldd	r19, Y+8	; 0x08
    1b56:	89 81       	ldd	r24, Y+1	; 0x01
    1b58:	9a 81       	ldd	r25, Y+2	; 0x02
    1b5a:	84 5b       	subi	r24, 0xB4	; 180
    1b5c:	9f 4f       	sbci	r25, 0xFF	; 255
    1b5e:	88 0f       	add	r24, r24
    1b60:	99 1f       	adc	r25, r25
    1b62:	82 0f       	add	r24, r18
    1b64:	93 1f       	adc	r25, r19
    1b66:	fc 01       	movw	r30, r24
    1b68:	80 81       	ld	r24, Z
    1b6a:	91 81       	ldd	r25, Z+1	; 0x01
    1b6c:	81 30       	cpi	r24, 0x01	; 1
    1b6e:	91 05       	cpc	r25, r1
    1b70:	19 f0       	breq	.+6      	; 0x1b78 <_ZN11SimpleTimer3runEv+0x2a4>
    1b72:	02 97       	sbiw	r24, 0x02	; 2
    1b74:	81 f0       	breq	.+32     	; 0x1b96 <_ZN11SimpleTimer3runEv+0x2c2>
            case DEFCALL_DONTRUN:
                break;
    1b76:	2e c0       	rjmp	.+92     	; 0x1bd4 <_ZN11SimpleTimer3runEv+0x300>

            case DEFCALL_RUNONLY:
                (*callbacks[i])();
    1b78:	2f 81       	ldd	r18, Y+7	; 0x07
    1b7a:	38 85       	ldd	r19, Y+8	; 0x08
    1b7c:	89 81       	ldd	r24, Y+1	; 0x01
    1b7e:	9a 81       	ldd	r25, Y+2	; 0x02
    1b80:	45 96       	adiw	r24, 0x15	; 21
    1b82:	88 0f       	add	r24, r24
    1b84:	99 1f       	adc	r25, r25
    1b86:	82 0f       	add	r24, r18
    1b88:	93 1f       	adc	r25, r19
    1b8a:	fc 01       	movw	r30, r24
    1b8c:	80 81       	ld	r24, Z
    1b8e:	91 81       	ldd	r25, Z+1	; 0x01
    1b90:	fc 01       	movw	r30, r24
    1b92:	09 95       	icall
                break;
    1b94:	1f c0       	rjmp	.+62     	; 0x1bd4 <_ZN11SimpleTimer3runEv+0x300>

            case DEFCALL_RUNANDDEL:
                (*callbacks[i])();
    1b96:	2f 81       	ldd	r18, Y+7	; 0x07
    1b98:	38 85       	ldd	r19, Y+8	; 0x08
    1b9a:	89 81       	ldd	r24, Y+1	; 0x01
    1b9c:	9a 81       	ldd	r25, Y+2	; 0x02
    1b9e:	45 96       	adiw	r24, 0x15	; 21
    1ba0:	88 0f       	add	r24, r24
    1ba2:	99 1f       	adc	r25, r25
    1ba4:	82 0f       	add	r24, r18
    1ba6:	93 1f       	adc	r25, r19
    1ba8:	fc 01       	movw	r30, r24
    1baa:	80 81       	ld	r24, Z
    1bac:	91 81       	ldd	r25, Z+1	; 0x01
    1bae:	fc 01       	movw	r30, r24
    1bb0:	09 95       	icall
                deleteTimer(i);
    1bb2:	8f 81       	ldd	r24, Y+7	; 0x07
    1bb4:	98 85       	ldd	r25, Y+8	; 0x08
    1bb6:	fc 01       	movw	r30, r24
    1bb8:	80 81       	ld	r24, Z
    1bba:	91 81       	ldd	r25, Z+1	; 0x01
    1bbc:	08 96       	adiw	r24, 0x08	; 8
    1bbe:	fc 01       	movw	r30, r24
    1bc0:	20 81       	ld	r18, Z
    1bc2:	31 81       	ldd	r19, Z+1	; 0x01
    1bc4:	49 81       	ldd	r20, Y+1	; 0x01
    1bc6:	5a 81       	ldd	r21, Y+2	; 0x02
    1bc8:	8f 81       	ldd	r24, Y+7	; 0x07
    1bca:	98 85       	ldd	r25, Y+8	; 0x08
    1bcc:	ba 01       	movw	r22, r20
    1bce:	f9 01       	movw	r30, r18
    1bd0:	09 95       	icall
                break;
    1bd2:	00 00       	nop
                }
            }
        }
    }

    for (i = 0; i < MAX_TIMERS; i++) {
    1bd4:	89 81       	ldd	r24, Y+1	; 0x01
    1bd6:	9a 81       	ldd	r25, Y+2	; 0x02
    1bd8:	01 96       	adiw	r24, 0x01	; 1
    1bda:	9a 83       	std	Y+2, r25	; 0x02
    1bdc:	89 83       	std	Y+1, r24	; 0x01
    1bde:	89 81       	ldd	r24, Y+1	; 0x01
    1be0:	9a 81       	ldd	r25, Y+2	; 0x02
    1be2:	0a 97       	sbiw	r24, 0x0a	; 10
    1be4:	0c f4       	brge	.+2      	; 0x1be8 <_ZN11SimpleTimer3runEv+0x314>
    1be6:	b5 cf       	rjmp	.-150    	; 0x1b52 <_ZN11SimpleTimer3runEv+0x27e>
                (*callbacks[i])();
                deleteTimer(i);
                break;
        }
    }
}
    1be8:	28 96       	adiw	r28, 0x08	; 8
    1bea:	e6 e0       	ldi	r30, 0x06	; 6
    1bec:	0c 94 ae 2c 	jmp	0x595c	; 0x595c <__epilogue_restores__+0x18>

00001bf0 <_ZN11SimpleTimer17findFirstFreeSlotEv>:


// find the first available slot
// return -1 if none found
int SimpleTimer::findFirstFreeSlot() {
    1bf0:	a4 e0       	ldi	r26, 0x04	; 4
    1bf2:	b0 e0       	ldi	r27, 0x00	; 0
    1bf4:	ee ef       	ldi	r30, 0xFE	; 254
    1bf6:	fd e0       	ldi	r31, 0x0D	; 13
    1bf8:	0c 94 96 2c 	jmp	0x592c	; 0x592c <__prologue_saves__+0x20>
    1bfc:	9c 83       	std	Y+4, r25	; 0x04
    1bfe:	8b 83       	std	Y+3, r24	; 0x03
    int i;

    // all slots are used
    if (numTimers >= MAX_TIMERS) {
    1c00:	8b 81       	ldd	r24, Y+3	; 0x03
    1c02:	9c 81       	ldd	r25, Y+4	; 0x04
    1c04:	84 55       	subi	r24, 0x54	; 84
    1c06:	9f 4f       	sbci	r25, 0xFF	; 255
    1c08:	fc 01       	movw	r30, r24
    1c0a:	80 81       	ld	r24, Z
    1c0c:	91 81       	ldd	r25, Z+1	; 0x01
    1c0e:	0a 97       	sbiw	r24, 0x0a	; 10
    1c10:	1c f0       	brlt	.+6      	; 0x1c18 <_ZN11SimpleTimer17findFirstFreeSlotEv+0x28>
        return -1;
    1c12:	8f ef       	ldi	r24, 0xFF	; 255
    1c14:	9f ef       	ldi	r25, 0xFF	; 255
    1c16:	1f c0       	rjmp	.+62     	; 0x1c56 <_ZN11SimpleTimer17findFirstFreeSlotEv+0x66>
    }

    // return the first slot with no callback (i.e. free)
    for (i = 0; i < MAX_TIMERS; i++) {
    1c18:	1a 82       	std	Y+2, r1	; 0x02
    1c1a:	19 82       	std	Y+1, r1	; 0x01
    1c1c:	16 c0       	rjmp	.+44     	; 0x1c4a <_ZN11SimpleTimer17findFirstFreeSlotEv+0x5a>
        if (callbacks[i] == 0) {
    1c1e:	2b 81       	ldd	r18, Y+3	; 0x03
    1c20:	3c 81       	ldd	r19, Y+4	; 0x04
    1c22:	89 81       	ldd	r24, Y+1	; 0x01
    1c24:	9a 81       	ldd	r25, Y+2	; 0x02
    1c26:	45 96       	adiw	r24, 0x15	; 21
    1c28:	88 0f       	add	r24, r24
    1c2a:	99 1f       	adc	r25, r25
    1c2c:	82 0f       	add	r24, r18
    1c2e:	93 1f       	adc	r25, r19
    1c30:	fc 01       	movw	r30, r24
    1c32:	80 81       	ld	r24, Z
    1c34:	91 81       	ldd	r25, Z+1	; 0x01
    1c36:	89 2b       	or	r24, r25
    1c38:	19 f4       	brne	.+6      	; 0x1c40 <_ZN11SimpleTimer17findFirstFreeSlotEv+0x50>
            return i;
    1c3a:	89 81       	ldd	r24, Y+1	; 0x01
    1c3c:	9a 81       	ldd	r25, Y+2	; 0x02
    1c3e:	0b c0       	rjmp	.+22     	; 0x1c56 <_ZN11SimpleTimer17findFirstFreeSlotEv+0x66>
    if (numTimers >= MAX_TIMERS) {
        return -1;
    }

    // return the first slot with no callback (i.e. free)
    for (i = 0; i < MAX_TIMERS; i++) {
    1c40:	89 81       	ldd	r24, Y+1	; 0x01
    1c42:	9a 81       	ldd	r25, Y+2	; 0x02
    1c44:	01 96       	adiw	r24, 0x01	; 1
    1c46:	9a 83       	std	Y+2, r25	; 0x02
    1c48:	89 83       	std	Y+1, r24	; 0x01
    1c4a:	89 81       	ldd	r24, Y+1	; 0x01
    1c4c:	9a 81       	ldd	r25, Y+2	; 0x02
    1c4e:	0a 97       	sbiw	r24, 0x0a	; 10
    1c50:	34 f3       	brlt	.-52     	; 0x1c1e <_ZN11SimpleTimer17findFirstFreeSlotEv+0x2e>
            return i;
        }
    }

    // no free slots found
    return -1;
    1c52:	8f ef       	ldi	r24, 0xFF	; 255
    1c54:	9f ef       	ldi	r25, 0xFF	; 255
}
    1c56:	24 96       	adiw	r28, 0x04	; 4
    1c58:	e2 e0       	ldi	r30, 0x02	; 2
    1c5a:	0c 94 b2 2c 	jmp	0x5964	; 0x5964 <__epilogue_restores__+0x20>

00001c5e <_ZN11SimpleTimer8setTimerElPFvvEi>:


int SimpleTimer::setTimer(long d, timer_callback f, int n) {
    1c5e:	ac e0       	ldi	r26, 0x0C	; 12
    1c60:	b0 e0       	ldi	r27, 0x00	; 0
    1c62:	e5 e3       	ldi	r30, 0x35	; 53
    1c64:	fe e0       	ldi	r31, 0x0E	; 14
    1c66:	0c 94 94 2c 	jmp	0x5928	; 0x5928 <__prologue_saves__+0x1c>
    1c6a:	9c 83       	std	Y+4, r25	; 0x04
    1c6c:	8b 83       	std	Y+3, r24	; 0x03
    1c6e:	4d 83       	std	Y+5, r20	; 0x05
    1c70:	5e 83       	std	Y+6, r21	; 0x06
    1c72:	6f 83       	std	Y+7, r22	; 0x07
    1c74:	78 87       	std	Y+8, r23	; 0x08
    1c76:	3a 87       	std	Y+10, r19	; 0x0a
    1c78:	29 87       	std	Y+9, r18	; 0x09
    1c7a:	1c 87       	std	Y+12, r17	; 0x0c
    1c7c:	0b 87       	std	Y+11, r16	; 0x0b
    int freeTimer;

    freeTimer = findFirstFreeSlot();
    1c7e:	8b 81       	ldd	r24, Y+3	; 0x03
    1c80:	9c 81       	ldd	r25, Y+4	; 0x04
    1c82:	b6 df       	rcall	.-148    	; 0x1bf0 <_ZN11SimpleTimer17findFirstFreeSlotEv>
    1c84:	9a 83       	std	Y+2, r25	; 0x02
    1c86:	89 83       	std	Y+1, r24	; 0x01
    if (freeTimer < 0) {
    1c88:	89 81       	ldd	r24, Y+1	; 0x01
    1c8a:	9a 81       	ldd	r25, Y+2	; 0x02
    1c8c:	99 23       	and	r25, r25
    1c8e:	1c f4       	brge	.+6      	; 0x1c96 <_ZN11SimpleTimer8setTimerElPFvvEi+0x38>
        return -1;
    1c90:	8f ef       	ldi	r24, 0xFF	; 255
    1c92:	9f ef       	ldi	r25, 0xFF	; 255
    1c94:	6b c0       	rjmp	.+214    	; 0x1d6c <_ZN11SimpleTimer8setTimerElPFvvEi+0x10e>
    }

    if (f == NULL) {
    1c96:	89 85       	ldd	r24, Y+9	; 0x09
    1c98:	9a 85       	ldd	r25, Y+10	; 0x0a
    1c9a:	89 2b       	or	r24, r25
    1c9c:	19 f4       	brne	.+6      	; 0x1ca4 <_ZN11SimpleTimer8setTimerElPFvvEi+0x46>
        return -1;
    1c9e:	8f ef       	ldi	r24, 0xFF	; 255
    1ca0:	9f ef       	ldi	r25, 0xFF	; 255
    1ca2:	64 c0       	rjmp	.+200    	; 0x1d6c <_ZN11SimpleTimer8setTimerElPFvvEi+0x10e>
    }

    delays[freeTimer] = d;
    1ca4:	2b 81       	ldd	r18, Y+3	; 0x03
    1ca6:	3c 81       	ldd	r19, Y+4	; 0x04
    1ca8:	89 81       	ldd	r24, Y+1	; 0x01
    1caa:	9a 81       	ldd	r25, Y+2	; 0x02
    1cac:	88 0f       	add	r24, r24
    1cae:	99 1f       	adc	r25, r25
    1cb0:	88 0f       	add	r24, r24
    1cb2:	99 1f       	adc	r25, r25
    1cb4:	82 0f       	add	r24, r18
    1cb6:	93 1f       	adc	r25, r19
    1cb8:	9c 01       	movw	r18, r24
    1cba:	22 5c       	subi	r18, 0xC2	; 194
    1cbc:	3f 4f       	sbci	r19, 0xFF	; 255
    1cbe:	8d 81       	ldd	r24, Y+5	; 0x05
    1cc0:	9e 81       	ldd	r25, Y+6	; 0x06
    1cc2:	af 81       	ldd	r26, Y+7	; 0x07
    1cc4:	b8 85       	ldd	r27, Y+8	; 0x08
    1cc6:	f9 01       	movw	r30, r18
    1cc8:	80 83       	st	Z, r24
    1cca:	91 83       	std	Z+1, r25	; 0x01
    1ccc:	a2 83       	std	Z+2, r26	; 0x02
    1cce:	b3 83       	std	Z+3, r27	; 0x03
    callbacks[freeTimer] = f;
    1cd0:	2b 81       	ldd	r18, Y+3	; 0x03
    1cd2:	3c 81       	ldd	r19, Y+4	; 0x04
    1cd4:	89 81       	ldd	r24, Y+1	; 0x01
    1cd6:	9a 81       	ldd	r25, Y+2	; 0x02
    1cd8:	45 96       	adiw	r24, 0x15	; 21
    1cda:	88 0f       	add	r24, r24
    1cdc:	99 1f       	adc	r25, r25
    1cde:	82 0f       	add	r24, r18
    1ce0:	93 1f       	adc	r25, r19
    1ce2:	29 85       	ldd	r18, Y+9	; 0x09
    1ce4:	3a 85       	ldd	r19, Y+10	; 0x0a
    1ce6:	fc 01       	movw	r30, r24
    1ce8:	31 83       	std	Z+1, r19	; 0x01
    1cea:	20 83       	st	Z, r18
    maxNumRuns[freeTimer] = n;
    1cec:	2b 81       	ldd	r18, Y+3	; 0x03
    1cee:	3c 81       	ldd	r19, Y+4	; 0x04
    1cf0:	89 81       	ldd	r24, Y+1	; 0x01
    1cf2:	9a 81       	ldd	r25, Y+2	; 0x02
    1cf4:	c3 96       	adiw	r24, 0x33	; 51
    1cf6:	88 0f       	add	r24, r24
    1cf8:	99 1f       	adc	r25, r25
    1cfa:	82 0f       	add	r24, r18
    1cfc:	93 1f       	adc	r25, r19
    1cfe:	2b 85       	ldd	r18, Y+11	; 0x0b
    1d00:	3c 85       	ldd	r19, Y+12	; 0x0c
    1d02:	fc 01       	movw	r30, r24
    1d04:	31 83       	std	Z+1, r19	; 0x01
    1d06:	20 83       	st	Z, r18
    enabled[freeTimer] = true;
    1d08:	2b 81       	ldd	r18, Y+3	; 0x03
    1d0a:	3c 81       	ldd	r19, Y+4	; 0x04
    1d0c:	89 81       	ldd	r24, Y+1	; 0x01
    1d0e:	9a 81       	ldd	r25, Y+2	; 0x02
    1d10:	82 0f       	add	r24, r18
    1d12:	93 1f       	adc	r25, r19
    1d14:	82 57       	subi	r24, 0x72	; 114
    1d16:	9f 4f       	sbci	r25, 0xFF	; 255
    1d18:	21 e0       	ldi	r18, 0x01	; 1
    1d1a:	fc 01       	movw	r30, r24
    1d1c:	20 83       	st	Z, r18
    prev_millis[freeTimer] = elapsed();
    1d1e:	65 dd       	rcall	.-1334   	; 0x17ea <_ZL7elapsedv>
    1d20:	dc 01       	movw	r26, r24
    1d22:	cb 01       	movw	r24, r22
    1d24:	4b 81       	ldd	r20, Y+3	; 0x03
    1d26:	5c 81       	ldd	r21, Y+4	; 0x04
    1d28:	29 81       	ldd	r18, Y+1	; 0x01
    1d2a:	3a 81       	ldd	r19, Y+2	; 0x02
    1d2c:	22 0f       	add	r18, r18
    1d2e:	33 1f       	adc	r19, r19
    1d30:	22 0f       	add	r18, r18
    1d32:	33 1f       	adc	r19, r19
    1d34:	24 0f       	add	r18, r20
    1d36:	35 1f       	adc	r19, r21
    1d38:	2e 5f       	subi	r18, 0xFE	; 254
    1d3a:	3f 4f       	sbci	r19, 0xFF	; 255
    1d3c:	f9 01       	movw	r30, r18
    1d3e:	80 83       	st	Z, r24
    1d40:	91 83       	std	Z+1, r25	; 0x01
    1d42:	a2 83       	std	Z+2, r26	; 0x02
    1d44:	b3 83       	std	Z+3, r27	; 0x03

    numTimers++;
    1d46:	8b 81       	ldd	r24, Y+3	; 0x03
    1d48:	9c 81       	ldd	r25, Y+4	; 0x04
    1d4a:	84 55       	subi	r24, 0x54	; 84
    1d4c:	9f 4f       	sbci	r25, 0xFF	; 255
    1d4e:	fc 01       	movw	r30, r24
    1d50:	80 81       	ld	r24, Z
    1d52:	91 81       	ldd	r25, Z+1	; 0x01
    1d54:	9c 01       	movw	r18, r24
    1d56:	2f 5f       	subi	r18, 0xFF	; 255
    1d58:	3f 4f       	sbci	r19, 0xFF	; 255
    1d5a:	8b 81       	ldd	r24, Y+3	; 0x03
    1d5c:	9c 81       	ldd	r25, Y+4	; 0x04
    1d5e:	84 55       	subi	r24, 0x54	; 84
    1d60:	9f 4f       	sbci	r25, 0xFF	; 255
    1d62:	fc 01       	movw	r30, r24
    1d64:	31 83       	std	Z+1, r19	; 0x01
    1d66:	20 83       	st	Z, r18

    return freeTimer;
    1d68:	89 81       	ldd	r24, Y+1	; 0x01
    1d6a:	9a 81       	ldd	r25, Y+2	; 0x02
}
    1d6c:	2c 96       	adiw	r28, 0x0c	; 12
    1d6e:	e4 e0       	ldi	r30, 0x04	; 4
    1d70:	0c 94 b0 2c 	jmp	0x5960	; 0x5960 <__epilogue_restores__+0x1c>

00001d74 <_ZN11SimpleTimer11setIntervalElPFvvE>:


int SimpleTimer::setInterval(long d, timer_callback f) {
    1d74:	a8 e0       	ldi	r26, 0x08	; 8
    1d76:	b0 e0       	ldi	r27, 0x00	; 0
    1d78:	e0 ec       	ldi	r30, 0xC0	; 192
    1d7a:	fe e0       	ldi	r31, 0x0E	; 14
    1d7c:	0c 94 92 2c 	jmp	0x5924	; 0x5924 <__prologue_saves__+0x18>
    1d80:	9a 83       	std	Y+2, r25	; 0x02
    1d82:	89 83       	std	Y+1, r24	; 0x01
    1d84:	4b 83       	std	Y+3, r20	; 0x03
    1d86:	5c 83       	std	Y+4, r21	; 0x04
    1d88:	6d 83       	std	Y+5, r22	; 0x05
    1d8a:	7e 83       	std	Y+6, r23	; 0x06
    1d8c:	38 87       	std	Y+8, r19	; 0x08
    1d8e:	2f 83       	std	Y+7, r18	; 0x07
    return setTimer(d, f, RUN_FOREVER);
    1d90:	89 81       	ldd	r24, Y+1	; 0x01
    1d92:	9a 81       	ldd	r25, Y+2	; 0x02
    1d94:	dc 01       	movw	r26, r24
    1d96:	8d 91       	ld	r24, X+
    1d98:	9c 91       	ld	r25, X
    1d9a:	06 96       	adiw	r24, 0x06	; 6
    1d9c:	dc 01       	movw	r26, r24
    1d9e:	ed 91       	ld	r30, X+
    1da0:	fc 91       	ld	r31, X
    1da2:	2f 81       	ldd	r18, Y+7	; 0x07
    1da4:	38 85       	ldd	r19, Y+8	; 0x08
    1da6:	8b 81       	ldd	r24, Y+3	; 0x03
    1da8:	9c 81       	ldd	r25, Y+4	; 0x04
    1daa:	ad 81       	ldd	r26, Y+5	; 0x05
    1dac:	be 81       	ldd	r27, Y+6	; 0x06
    1dae:	e9 80       	ldd	r14, Y+1	; 0x01
    1db0:	fa 80       	ldd	r15, Y+2	; 0x02
    1db2:	00 e0       	ldi	r16, 0x00	; 0
    1db4:	10 e0       	ldi	r17, 0x00	; 0
    1db6:	ac 01       	movw	r20, r24
    1db8:	bd 01       	movw	r22, r26
    1dba:	c7 01       	movw	r24, r14
    1dbc:	09 95       	icall
}
    1dbe:	28 96       	adiw	r28, 0x08	; 8
    1dc0:	e6 e0       	ldi	r30, 0x06	; 6
    1dc2:	0c 94 ae 2c 	jmp	0x595c	; 0x595c <__epilogue_restores__+0x18>

00001dc6 <_ZN11SimpleTimer10setTimeoutElPFvvE>:


int SimpleTimer::setTimeout(long d, timer_callback f) {
    1dc6:	a8 e0       	ldi	r26, 0x08	; 8
    1dc8:	b0 e0       	ldi	r27, 0x00	; 0
    1dca:	e9 ee       	ldi	r30, 0xE9	; 233
    1dcc:	fe e0       	ldi	r31, 0x0E	; 14
    1dce:	0c 94 92 2c 	jmp	0x5924	; 0x5924 <__prologue_saves__+0x18>
    1dd2:	9a 83       	std	Y+2, r25	; 0x02
    1dd4:	89 83       	std	Y+1, r24	; 0x01
    1dd6:	4b 83       	std	Y+3, r20	; 0x03
    1dd8:	5c 83       	std	Y+4, r21	; 0x04
    1dda:	6d 83       	std	Y+5, r22	; 0x05
    1ddc:	7e 83       	std	Y+6, r23	; 0x06
    1dde:	38 87       	std	Y+8, r19	; 0x08
    1de0:	2f 83       	std	Y+7, r18	; 0x07
    return setTimer(d, f, RUN_ONCE);
    1de2:	89 81       	ldd	r24, Y+1	; 0x01
    1de4:	9a 81       	ldd	r25, Y+2	; 0x02
    1de6:	dc 01       	movw	r26, r24
    1de8:	8d 91       	ld	r24, X+
    1dea:	9c 91       	ld	r25, X
    1dec:	06 96       	adiw	r24, 0x06	; 6
    1dee:	dc 01       	movw	r26, r24
    1df0:	ed 91       	ld	r30, X+
    1df2:	fc 91       	ld	r31, X
    1df4:	2f 81       	ldd	r18, Y+7	; 0x07
    1df6:	38 85       	ldd	r19, Y+8	; 0x08
    1df8:	8b 81       	ldd	r24, Y+3	; 0x03
    1dfa:	9c 81       	ldd	r25, Y+4	; 0x04
    1dfc:	ad 81       	ldd	r26, Y+5	; 0x05
    1dfe:	be 81       	ldd	r27, Y+6	; 0x06
    1e00:	e9 80       	ldd	r14, Y+1	; 0x01
    1e02:	fa 80       	ldd	r15, Y+2	; 0x02
    1e04:	01 e0       	ldi	r16, 0x01	; 1
    1e06:	10 e0       	ldi	r17, 0x00	; 0
    1e08:	ac 01       	movw	r20, r24
    1e0a:	bd 01       	movw	r22, r26
    1e0c:	c7 01       	movw	r24, r14
    1e0e:	09 95       	icall
}
    1e10:	28 96       	adiw	r28, 0x08	; 8
    1e12:	e6 e0       	ldi	r30, 0x06	; 6
    1e14:	0c 94 ae 2c 	jmp	0x595c	; 0x595c <__epilogue_restores__+0x18>

00001e18 <_ZN11SimpleTimer11deleteTimerEi>:


void SimpleTimer::deleteTimer(int timerId) {
    1e18:	a4 e0       	ldi	r26, 0x04	; 4
    1e1a:	b0 e0       	ldi	r27, 0x00	; 0
    1e1c:	e2 e1       	ldi	r30, 0x12	; 18
    1e1e:	ff e0       	ldi	r31, 0x0F	; 15
    1e20:	0c 94 96 2c 	jmp	0x592c	; 0x592c <__prologue_saves__+0x20>
    1e24:	9a 83       	std	Y+2, r25	; 0x02
    1e26:	89 83       	std	Y+1, r24	; 0x01
    1e28:	7c 83       	std	Y+4, r23	; 0x04
    1e2a:	6b 83       	std	Y+3, r22	; 0x03
    if (timerId >= MAX_TIMERS) {
    1e2c:	8b 81       	ldd	r24, Y+3	; 0x03
    1e2e:	9c 81       	ldd	r25, Y+4	; 0x04
    1e30:	0a 97       	sbiw	r24, 0x0a	; 10
    1e32:	0c f0       	brlt	.+2      	; 0x1e36 <_ZN11SimpleTimer11deleteTimerEi+0x1e>
        return;
    1e34:	69 c0       	rjmp	.+210    	; 0x1f08 <_ZN11SimpleTimer11deleteTimerEi+0xf0>
    }

    // nothing to delete if no timers are in use
    if (numTimers == 0) {
    1e36:	89 81       	ldd	r24, Y+1	; 0x01
    1e38:	9a 81       	ldd	r25, Y+2	; 0x02
    1e3a:	84 55       	subi	r24, 0x54	; 84
    1e3c:	9f 4f       	sbci	r25, 0xFF	; 255
    1e3e:	fc 01       	movw	r30, r24
    1e40:	80 81       	ld	r24, Z
    1e42:	91 81       	ldd	r25, Z+1	; 0x01
    1e44:	89 2b       	or	r24, r25
    1e46:	09 f4       	brne	.+2      	; 0x1e4a <_ZN11SimpleTimer11deleteTimerEi+0x32>
        return;
    1e48:	5f c0       	rjmp	.+190    	; 0x1f08 <_ZN11SimpleTimer11deleteTimerEi+0xf0>
    }

    // don't decrease the number of timers if the
    // specified slot is already empty
    if (callbacks[timerId] != NULL) {
    1e4a:	29 81       	ldd	r18, Y+1	; 0x01
    1e4c:	3a 81       	ldd	r19, Y+2	; 0x02
    1e4e:	8b 81       	ldd	r24, Y+3	; 0x03
    1e50:	9c 81       	ldd	r25, Y+4	; 0x04
    1e52:	45 96       	adiw	r24, 0x15	; 21
    1e54:	88 0f       	add	r24, r24
    1e56:	99 1f       	adc	r25, r25
    1e58:	82 0f       	add	r24, r18
    1e5a:	93 1f       	adc	r25, r19
    1e5c:	fc 01       	movw	r30, r24
    1e5e:	80 81       	ld	r24, Z
    1e60:	91 81       	ldd	r25, Z+1	; 0x01
    1e62:	89 2b       	or	r24, r25
    1e64:	09 f4       	brne	.+2      	; 0x1e68 <_ZN11SimpleTimer11deleteTimerEi+0x50>
    1e66:	50 c0       	rjmp	.+160    	; 0x1f08 <_ZN11SimpleTimer11deleteTimerEi+0xf0>
        callbacks[timerId] = 0;
    1e68:	29 81       	ldd	r18, Y+1	; 0x01
    1e6a:	3a 81       	ldd	r19, Y+2	; 0x02
    1e6c:	8b 81       	ldd	r24, Y+3	; 0x03
    1e6e:	9c 81       	ldd	r25, Y+4	; 0x04
    1e70:	45 96       	adiw	r24, 0x15	; 21
    1e72:	88 0f       	add	r24, r24
    1e74:	99 1f       	adc	r25, r25
    1e76:	82 0f       	add	r24, r18
    1e78:	93 1f       	adc	r25, r19
    1e7a:	fc 01       	movw	r30, r24
    1e7c:	11 82       	std	Z+1, r1	; 0x01
    1e7e:	10 82       	st	Z, r1
        enabled[timerId] = false;
    1e80:	29 81       	ldd	r18, Y+1	; 0x01
    1e82:	3a 81       	ldd	r19, Y+2	; 0x02
    1e84:	8b 81       	ldd	r24, Y+3	; 0x03
    1e86:	9c 81       	ldd	r25, Y+4	; 0x04
    1e88:	82 0f       	add	r24, r18
    1e8a:	93 1f       	adc	r25, r19
    1e8c:	82 57       	subi	r24, 0x72	; 114
    1e8e:	9f 4f       	sbci	r25, 0xFF	; 255
    1e90:	fc 01       	movw	r30, r24
    1e92:	10 82       	st	Z, r1
        toBeCalled[timerId] = DEFCALL_DONTRUN;
    1e94:	29 81       	ldd	r18, Y+1	; 0x01
    1e96:	3a 81       	ldd	r19, Y+2	; 0x02
    1e98:	8b 81       	ldd	r24, Y+3	; 0x03
    1e9a:	9c 81       	ldd	r25, Y+4	; 0x04
    1e9c:	84 5b       	subi	r24, 0xB4	; 180
    1e9e:	9f 4f       	sbci	r25, 0xFF	; 255
    1ea0:	88 0f       	add	r24, r24
    1ea2:	99 1f       	adc	r25, r25
    1ea4:	82 0f       	add	r24, r18
    1ea6:	93 1f       	adc	r25, r19
    1ea8:	fc 01       	movw	r30, r24
    1eaa:	11 82       	std	Z+1, r1	; 0x01
    1eac:	10 82       	st	Z, r1
        delays[timerId] = 0;
    1eae:	29 81       	ldd	r18, Y+1	; 0x01
    1eb0:	3a 81       	ldd	r19, Y+2	; 0x02
    1eb2:	8b 81       	ldd	r24, Y+3	; 0x03
    1eb4:	9c 81       	ldd	r25, Y+4	; 0x04
    1eb6:	88 0f       	add	r24, r24
    1eb8:	99 1f       	adc	r25, r25
    1eba:	88 0f       	add	r24, r24
    1ebc:	99 1f       	adc	r25, r25
    1ebe:	82 0f       	add	r24, r18
    1ec0:	93 1f       	adc	r25, r19
    1ec2:	ce 96       	adiw	r24, 0x3e	; 62
    1ec4:	fc 01       	movw	r30, r24
    1ec6:	10 82       	st	Z, r1
    1ec8:	11 82       	std	Z+1, r1	; 0x01
    1eca:	12 82       	std	Z+2, r1	; 0x02
    1ecc:	13 82       	std	Z+3, r1	; 0x03
        numRuns[timerId] = 0;
    1ece:	29 81       	ldd	r18, Y+1	; 0x01
    1ed0:	3a 81       	ldd	r19, Y+2	; 0x02
    1ed2:	8b 81       	ldd	r24, Y+3	; 0x03
    1ed4:	9c 81       	ldd	r25, Y+4	; 0x04
    1ed6:	cd 96       	adiw	r24, 0x3d	; 61
    1ed8:	88 0f       	add	r24, r24
    1eda:	99 1f       	adc	r25, r25
    1edc:	82 0f       	add	r24, r18
    1ede:	93 1f       	adc	r25, r19
    1ee0:	fc 01       	movw	r30, r24
    1ee2:	11 82       	std	Z+1, r1	; 0x01
    1ee4:	10 82       	st	Z, r1

        // update number of timers
        numTimers--;
    1ee6:	89 81       	ldd	r24, Y+1	; 0x01
    1ee8:	9a 81       	ldd	r25, Y+2	; 0x02
    1eea:	84 55       	subi	r24, 0x54	; 84
    1eec:	9f 4f       	sbci	r25, 0xFF	; 255
    1eee:	fc 01       	movw	r30, r24
    1ef0:	80 81       	ld	r24, Z
    1ef2:	91 81       	ldd	r25, Z+1	; 0x01
    1ef4:	9c 01       	movw	r18, r24
    1ef6:	21 50       	subi	r18, 0x01	; 1
    1ef8:	31 09       	sbc	r19, r1
    1efa:	89 81       	ldd	r24, Y+1	; 0x01
    1efc:	9a 81       	ldd	r25, Y+2	; 0x02
    1efe:	84 55       	subi	r24, 0x54	; 84
    1f00:	9f 4f       	sbci	r25, 0xFF	; 255
    1f02:	fc 01       	movw	r30, r24
    1f04:	31 83       	std	Z+1, r19	; 0x01
    1f06:	20 83       	st	Z, r18
    }
}
    1f08:	24 96       	adiw	r28, 0x04	; 4
    1f0a:	e2 e0       	ldi	r30, 0x02	; 2
    1f0c:	0c 94 b2 2c 	jmp	0x5964	; 0x5964 <__epilogue_restores__+0x20>

00001f10 <_ZN11SimpleTimer12restartTimerEi>:


// function contributed by code@rowansimms.com
void SimpleTimer::restartTimer(int numTimer) {
    1f10:	a4 e0       	ldi	r26, 0x04	; 4
    1f12:	b0 e0       	ldi	r27, 0x00	; 0
    1f14:	ee e8       	ldi	r30, 0x8E	; 142
    1f16:	ff e0       	ldi	r31, 0x0F	; 15
    1f18:	0c 94 96 2c 	jmp	0x592c	; 0x592c <__prologue_saves__+0x20>
    1f1c:	9a 83       	std	Y+2, r25	; 0x02
    1f1e:	89 83       	std	Y+1, r24	; 0x01
    1f20:	7c 83       	std	Y+4, r23	; 0x04
    1f22:	6b 83       	std	Y+3, r22	; 0x03
    if (numTimer >= MAX_TIMERS) {
    1f24:	8b 81       	ldd	r24, Y+3	; 0x03
    1f26:	9c 81       	ldd	r25, Y+4	; 0x04
    1f28:	0a 97       	sbiw	r24, 0x0a	; 10
    1f2a:	0c f0       	brlt	.+2      	; 0x1f2e <_ZN11SimpleTimer12restartTimerEi+0x1e>
        return;
    1f2c:	14 c0       	rjmp	.+40     	; 0x1f56 <_ZN11SimpleTimer12restartTimerEi+0x46>
    }

    prev_millis[numTimer] = elapsed();
    1f2e:	5d dc       	rcall	.-1862   	; 0x17ea <_ZL7elapsedv>
    1f30:	dc 01       	movw	r26, r24
    1f32:	cb 01       	movw	r24, r22
    1f34:	49 81       	ldd	r20, Y+1	; 0x01
    1f36:	5a 81       	ldd	r21, Y+2	; 0x02
    1f38:	2b 81       	ldd	r18, Y+3	; 0x03
    1f3a:	3c 81       	ldd	r19, Y+4	; 0x04
    1f3c:	22 0f       	add	r18, r18
    1f3e:	33 1f       	adc	r19, r19
    1f40:	22 0f       	add	r18, r18
    1f42:	33 1f       	adc	r19, r19
    1f44:	24 0f       	add	r18, r20
    1f46:	35 1f       	adc	r19, r21
    1f48:	2e 5f       	subi	r18, 0xFE	; 254
    1f4a:	3f 4f       	sbci	r19, 0xFF	; 255
    1f4c:	f9 01       	movw	r30, r18
    1f4e:	80 83       	st	Z, r24
    1f50:	91 83       	std	Z+1, r25	; 0x01
    1f52:	a2 83       	std	Z+2, r26	; 0x02
    1f54:	b3 83       	std	Z+3, r27	; 0x03
}
    1f56:	24 96       	adiw	r28, 0x04	; 4
    1f58:	e2 e0       	ldi	r30, 0x02	; 2
    1f5a:	0c 94 b2 2c 	jmp	0x5964	; 0x5964 <__epilogue_restores__+0x20>

00001f5e <_ZN11SimpleTimer9isEnabledEi>:


boolean SimpleTimer::isEnabled(int numTimer) {
    1f5e:	a4 e0       	ldi	r26, 0x04	; 4
    1f60:	b0 e0       	ldi	r27, 0x00	; 0
    1f62:	e5 eb       	ldi	r30, 0xB5	; 181
    1f64:	ff e0       	ldi	r31, 0x0F	; 15
    1f66:	0c 94 96 2c 	jmp	0x592c	; 0x592c <__prologue_saves__+0x20>
    1f6a:	9a 83       	std	Y+2, r25	; 0x02
    1f6c:	89 83       	std	Y+1, r24	; 0x01
    1f6e:	7c 83       	std	Y+4, r23	; 0x04
    1f70:	6b 83       	std	Y+3, r22	; 0x03
    if (numTimer >= MAX_TIMERS) {
    1f72:	8b 81       	ldd	r24, Y+3	; 0x03
    1f74:	9c 81       	ldd	r25, Y+4	; 0x04
    1f76:	0a 97       	sbiw	r24, 0x0a	; 10
    1f78:	14 f0       	brlt	.+4      	; 0x1f7e <_ZN11SimpleTimer9isEnabledEi+0x20>
        return false;
    1f7a:	80 e0       	ldi	r24, 0x00	; 0
    1f7c:	0a c0       	rjmp	.+20     	; 0x1f92 <_ZN11SimpleTimer9isEnabledEi+0x34>
    }

    return enabled[numTimer];
    1f7e:	29 81       	ldd	r18, Y+1	; 0x01
    1f80:	3a 81       	ldd	r19, Y+2	; 0x02
    1f82:	8b 81       	ldd	r24, Y+3	; 0x03
    1f84:	9c 81       	ldd	r25, Y+4	; 0x04
    1f86:	82 0f       	add	r24, r18
    1f88:	93 1f       	adc	r25, r19
    1f8a:	82 57       	subi	r24, 0x72	; 114
    1f8c:	9f 4f       	sbci	r25, 0xFF	; 255
    1f8e:	fc 01       	movw	r30, r24
    1f90:	80 81       	ld	r24, Z
}
    1f92:	24 96       	adiw	r28, 0x04	; 4
    1f94:	e2 e0       	ldi	r30, 0x02	; 2
    1f96:	0c 94 b2 2c 	jmp	0x5964	; 0x5964 <__epilogue_restores__+0x20>

00001f9a <_ZN11SimpleTimer6enableEi>:


void SimpleTimer::enable(int numTimer) {
    1f9a:	a4 e0       	ldi	r26, 0x04	; 4
    1f9c:	b0 e0       	ldi	r27, 0x00	; 0
    1f9e:	e3 ed       	ldi	r30, 0xD3	; 211
    1fa0:	ff e0       	ldi	r31, 0x0F	; 15
    1fa2:	0c 94 96 2c 	jmp	0x592c	; 0x592c <__prologue_saves__+0x20>
    1fa6:	9a 83       	std	Y+2, r25	; 0x02
    1fa8:	89 83       	std	Y+1, r24	; 0x01
    1faa:	7c 83       	std	Y+4, r23	; 0x04
    1fac:	6b 83       	std	Y+3, r22	; 0x03
    if (numTimer >= MAX_TIMERS) {
    1fae:	8b 81       	ldd	r24, Y+3	; 0x03
    1fb0:	9c 81       	ldd	r25, Y+4	; 0x04
    1fb2:	0a 97       	sbiw	r24, 0x0a	; 10
    1fb4:	0c f0       	brlt	.+2      	; 0x1fb8 <_ZN11SimpleTimer6enableEi+0x1e>
        return;
    1fb6:	0b c0       	rjmp	.+22     	; 0x1fce <_ZN11SimpleTimer6enableEi+0x34>
    }

    enabled[numTimer] = true;
    1fb8:	29 81       	ldd	r18, Y+1	; 0x01
    1fba:	3a 81       	ldd	r19, Y+2	; 0x02
    1fbc:	8b 81       	ldd	r24, Y+3	; 0x03
    1fbe:	9c 81       	ldd	r25, Y+4	; 0x04
    1fc0:	82 0f       	add	r24, r18
    1fc2:	93 1f       	adc	r25, r19
    1fc4:	82 57       	subi	r24, 0x72	; 114
    1fc6:	9f 4f       	sbci	r25, 0xFF	; 255
    1fc8:	21 e0       	ldi	r18, 0x01	; 1
    1fca:	fc 01       	movw	r30, r24
    1fcc:	20 83       	st	Z, r18
}
    1fce:	24 96       	adiw	r28, 0x04	; 4
    1fd0:	e2 e0       	ldi	r30, 0x02	; 2
    1fd2:	0c 94 b2 2c 	jmp	0x5964	; 0x5964 <__epilogue_restores__+0x20>

00001fd6 <_ZN11SimpleTimer7disableEi>:


void SimpleTimer::disable(int numTimer) {
    1fd6:	a4 e0       	ldi	r26, 0x04	; 4
    1fd8:	b0 e0       	ldi	r27, 0x00	; 0
    1fda:	e1 ef       	ldi	r30, 0xF1	; 241
    1fdc:	ff e0       	ldi	r31, 0x0F	; 15
    1fde:	0c 94 96 2c 	jmp	0x592c	; 0x592c <__prologue_saves__+0x20>
    1fe2:	9a 83       	std	Y+2, r25	; 0x02
    1fe4:	89 83       	std	Y+1, r24	; 0x01
    1fe6:	7c 83       	std	Y+4, r23	; 0x04
    1fe8:	6b 83       	std	Y+3, r22	; 0x03
    if (numTimer >= MAX_TIMERS) {
    1fea:	8b 81       	ldd	r24, Y+3	; 0x03
    1fec:	9c 81       	ldd	r25, Y+4	; 0x04
    1fee:	0a 97       	sbiw	r24, 0x0a	; 10
    1ff0:	0c f0       	brlt	.+2      	; 0x1ff4 <_ZN11SimpleTimer7disableEi+0x1e>
        return;
    1ff2:	0a c0       	rjmp	.+20     	; 0x2008 <_ZN11SimpleTimer7disableEi+0x32>
    }

    enabled[numTimer] = false;
    1ff4:	29 81       	ldd	r18, Y+1	; 0x01
    1ff6:	3a 81       	ldd	r19, Y+2	; 0x02
    1ff8:	8b 81       	ldd	r24, Y+3	; 0x03
    1ffa:	9c 81       	ldd	r25, Y+4	; 0x04
    1ffc:	82 0f       	add	r24, r18
    1ffe:	93 1f       	adc	r25, r19
    2000:	82 57       	subi	r24, 0x72	; 114
    2002:	9f 4f       	sbci	r25, 0xFF	; 255
    2004:	fc 01       	movw	r30, r24
    2006:	10 82       	st	Z, r1
}
    2008:	24 96       	adiw	r28, 0x04	; 4
    200a:	e2 e0       	ldi	r30, 0x02	; 2
    200c:	0c 94 b2 2c 	jmp	0x5964	; 0x5964 <__epilogue_restores__+0x20>

00002010 <_ZN7LCDBaseC1Ev>:

//LCDBase::LCDBase(): _lcd(8, 9, 4, 5, 6, 7) {
//Init();
//}

LCDBase::LCDBase(): LiquidCrystal(8, 9, 4, 5, 6, 7) {
    2010:	cf 92       	push	r12
    2012:	ef 92       	push	r14
    2014:	0f 93       	push	r16
    2016:	cf 93       	push	r28
    2018:	df 93       	push	r29
    201a:	00 d0       	rcall	.+0      	; 0x201c <_ZN7LCDBaseC1Ev+0xc>
    201c:	cd b7       	in	r28, 0x3d	; 61
    201e:	de b7       	in	r29, 0x3e	; 62
    2020:	9a 83       	std	Y+2, r25	; 0x02
    2022:	89 83       	std	Y+1, r24	; 0x01
    2024:	89 81       	ldd	r24, Y+1	; 0x01
    2026:	9a 81       	ldd	r25, Y+2	; 0x02
    2028:	0f 2e       	mov	r0, r31
    202a:	f7 e0       	ldi	r31, 0x07	; 7
    202c:	cf 2e       	mov	r12, r31
    202e:	f0 2d       	mov	r31, r0
    2030:	0f 2e       	mov	r0, r31
    2032:	f6 e0       	ldi	r31, 0x06	; 6
    2034:	ef 2e       	mov	r14, r31
    2036:	f0 2d       	mov	r31, r0
    2038:	05 e0       	ldi	r16, 0x05	; 5
    203a:	24 e0       	ldi	r18, 0x04	; 4
    203c:	49 e0       	ldi	r20, 0x09	; 9
    203e:	68 e0       	ldi	r22, 0x08	; 8
    2040:	21 d8       	rcall	.-4030   	; 0x1084 <_ZN13LiquidCrystalC1Ehhhhhh>
    2042:	89 81       	ldd	r24, Y+1	; 0x01
    2044:	9a 81       	ldd	r25, Y+2	; 0x02
    2046:	23 ea       	ldi	r18, 0xA3	; 163
    2048:	31 e0       	ldi	r19, 0x01	; 1
    204a:	fc 01       	movw	r30, r24
    204c:	31 83       	std	Z+1, r19	; 0x01
    204e:	20 83       	st	Z, r18
    2050:	89 81       	ldd	r24, Y+1	; 0x01
    2052:	9a 81       	ldd	r25, Y+2	; 0x02
    2054:	2a e0       	ldi	r18, 0x0A	; 10
    2056:	e5 e1       	ldi	r30, 0x15	; 21
    2058:	f1 e0       	ldi	r31, 0x01	; 1
    205a:	dc 01       	movw	r26, r24
    205c:	58 96       	adiw	r26, 0x18	; 24
    205e:	01 90       	ld	r0, Z+
    2060:	0d 92       	st	X+, r0
    2062:	2a 95       	dec	r18
    2064:	e1 f7       	brne	.-8      	; 0x205e <_ZN7LCDBaseC1Ev+0x4e>
    2066:	89 81       	ldd	r24, Y+1	; 0x01
    2068:	9a 81       	ldd	r25, Y+2	; 0x02
    206a:	25 e0       	ldi	r18, 0x05	; 5
    206c:	30 e0       	ldi	r19, 0x00	; 0
    206e:	fc 01       	movw	r30, r24
    2070:	33 a3       	std	Z+35, r19	; 0x23
    2072:	22 a3       	std	Z+34, r18	; 0x22
    Init();
    2074:	89 81       	ldd	r24, Y+1	; 0x01
    2076:	9a 81       	ldd	r25, Y+2	; 0x02
    2078:	08 d0       	rcall	.+16     	; 0x208a <_ZN7LCDBase4InitEv>
}
    207a:	0f 90       	pop	r0
    207c:	0f 90       	pop	r0
    207e:	df 91       	pop	r29
    2080:	cf 91       	pop	r28
    2082:	0f 91       	pop	r16
    2084:	ef 90       	pop	r14
    2086:	cf 90       	pop	r12
    2088:	08 95       	ret

0000208a <_ZN7LCDBase4InitEv>:

void LCDBase::Init() {
    208a:	a2 e0       	ldi	r26, 0x02	; 2
    208c:	b0 e0       	ldi	r27, 0x00	; 0
    208e:	eb e4       	ldi	r30, 0x4B	; 75
    2090:	f0 e1       	ldi	r31, 0x10	; 16
    2092:	0c 94 96 2c 	jmp	0x592c	; 0x592c <__prologue_saves__+0x20>
    2096:	9a 83       	std	Y+2, r25	; 0x02
    2098:	89 83       	std	Y+1, r24	; 0x01
    begin(16, 2);
    209a:	89 81       	ldd	r24, Y+1	; 0x01
    209c:	9a 81       	ldd	r25, Y+2	; 0x02
    209e:	20 e0       	ldi	r18, 0x00	; 0
    20a0:	42 e0       	ldi	r20, 0x02	; 2
    20a2:	60 e1       	ldi	r22, 0x10	; 16
    20a4:	bd d8       	rcall	.-3718   	; 0x1220 <_ZN13LiquidCrystal5beginEhhh>
    clear();
    20a6:	89 81       	ldd	r24, Y+1	; 0x01
    20a8:	9a 81       	ldd	r25, Y+2	; 0x02
    20aa:	b4 d9       	rcall	.-3224   	; 0x1414 <_ZN13LiquidCrystal5clearEv>
    setCursor(0, 0);
    20ac:	89 81       	ldd	r24, Y+1	; 0x01
    20ae:	9a 81       	ldd	r25, Y+2	; 0x02
    20b0:	40 e0       	ldi	r20, 0x00	; 0
    20b2:	60 e0       	ldi	r22, 0x00	; 0
    20b4:	c3 d9       	rcall	.-3194   	; 0x143c <_ZN13LiquidCrystal9setCursorEhh>

}
    20b6:	22 96       	adiw	r28, 0x02	; 2
    20b8:	e2 e0       	ldi	r30, 0x02	; 2
    20ba:	0c 94 b2 2c 	jmp	0x5964	; 0x5964 <__epilogue_restores__+0x20>

000020be <_ZN7LCDBase9ClearLineEs>:
void LCDBase::ClearLine(short lineNum) {
    20be:	a4 e0       	ldi	r26, 0x04	; 4
    20c0:	b0 e0       	ldi	r27, 0x00	; 0
    20c2:	e5 e6       	ldi	r30, 0x65	; 101
    20c4:	f0 e1       	ldi	r31, 0x10	; 16
    20c6:	0c 94 96 2c 	jmp	0x592c	; 0x592c <__prologue_saves__+0x20>
    20ca:	9a 83       	std	Y+2, r25	; 0x02
    20cc:	89 83       	std	Y+1, r24	; 0x01
    20ce:	7c 83       	std	Y+4, r23	; 0x04
    20d0:	6b 83       	std	Y+3, r22	; 0x03
    setCursor(0, lineNum);
    20d2:	2b 81       	ldd	r18, Y+3	; 0x03
    20d4:	89 81       	ldd	r24, Y+1	; 0x01
    20d6:	9a 81       	ldd	r25, Y+2	; 0x02
    20d8:	42 2f       	mov	r20, r18
    20da:	60 e0       	ldi	r22, 0x00	; 0
    20dc:	af d9       	rcall	.-3234   	; 0x143c <_ZN13LiquidCrystal9setCursorEhh>
    print(F("                "));
    20de:	2f e8       	ldi	r18, 0x8F	; 143
    20e0:	33 e0       	ldi	r19, 0x03	; 3
    20e2:	89 81       	ldd	r24, Y+1	; 0x01
    20e4:	9a 81       	ldd	r25, Y+2	; 0x02
    20e6:	b9 01       	movw	r22, r18
    20e8:	0e 94 55 26 	call	0x4caa	; 0x4caa <_ZN5Print5printEPK19__FlashStringHelper>
}
    20ec:	24 96       	adiw	r28, 0x04	; 4
    20ee:	e2 e0       	ldi	r30, 0x02	; 2
    20f0:	0c 94 b2 2c 	jmp	0x5964	; 0x5964 <__epilogue_restores__+0x20>

000020f4 <_ZN7LCDBase9PrintLineEs6String>:
void LCDBase::PrintLine(short lineNum, String text) {
    20f4:	a6 e0       	ldi	r26, 0x06	; 6
    20f6:	b0 e0       	ldi	r27, 0x00	; 0
    20f8:	e0 e8       	ldi	r30, 0x80	; 128
    20fa:	f0 e1       	ldi	r31, 0x10	; 16
    20fc:	0c 94 96 2c 	jmp	0x592c	; 0x592c <__prologue_saves__+0x20>
    2100:	9a 83       	std	Y+2, r25	; 0x02
    2102:	89 83       	std	Y+1, r24	; 0x01
    2104:	7c 83       	std	Y+4, r23	; 0x04
    2106:	6b 83       	std	Y+3, r22	; 0x03
    2108:	5e 83       	std	Y+6, r21	; 0x06
    210a:	4d 83       	std	Y+5, r20	; 0x05
    ClearLine(lineNum);
    210c:	2b 81       	ldd	r18, Y+3	; 0x03
    210e:	3c 81       	ldd	r19, Y+4	; 0x04
    2110:	89 81       	ldd	r24, Y+1	; 0x01
    2112:	9a 81       	ldd	r25, Y+2	; 0x02
    2114:	b9 01       	movw	r22, r18
    2116:	d3 df       	rcall	.-90     	; 0x20be <_ZN7LCDBase9ClearLineEs>
    setCursor(0, lineNum);
    2118:	2b 81       	ldd	r18, Y+3	; 0x03
    211a:	89 81       	ldd	r24, Y+1	; 0x01
    211c:	9a 81       	ldd	r25, Y+2	; 0x02
    211e:	42 2f       	mov	r20, r18
    2120:	60 e0       	ldi	r22, 0x00	; 0
    2122:	8c d9       	rcall	.-3304   	; 0x143c <_ZN13LiquidCrystal9setCursorEhh>
    print(text);
    2124:	89 81       	ldd	r24, Y+1	; 0x01
    2126:	9a 81       	ldd	r25, Y+2	; 0x02
    2128:	2d 81       	ldd	r18, Y+5	; 0x05
    212a:	3e 81       	ldd	r19, Y+6	; 0x06
    212c:	b9 01       	movw	r22, r18
    212e:	0e 94 79 26 	call	0x4cf2	; 0x4cf2 <_ZN5Print5printERK6String>
}
    2132:	26 96       	adiw	r28, 0x06	; 6
    2134:	e2 e0       	ldi	r30, 0x02	; 2
    2136:	0c 94 b2 2c 	jmp	0x5964	; 0x5964 <__epilogue_restores__+0x20>

0000213a <_ZN7LCDBase14DetectKeyPressEv>:
//void LCDBase::Print(short lineNum, T&& text) {
//_lcd.setCursor(0, lineNum);
//_lcd.print(text);
//}

LcdKeyPress LCDBase::DetectKeyPress() {
    213a:	a4 e0       	ldi	r26, 0x04	; 4
    213c:	b0 e0       	ldi	r27, 0x00	; 0
    213e:	e3 ea       	ldi	r30, 0xA3	; 163
    2140:	f0 e1       	ldi	r31, 0x10	; 16
    2142:	0c 94 96 2c 	jmp	0x592c	; 0x592c <__prologue_saves__+0x20>
    2146:	9c 83       	std	Y+4, r25	; 0x04
    2148:	8b 83       	std	Y+3, r24	; 0x03
    int key = getKey();
    214a:	8b 81       	ldd	r24, Y+3	; 0x03
    214c:	9c 81       	ldd	r25, Y+4	; 0x04
    214e:	69 d0       	rcall	.+210    	; 0x2222 <_ZN7LCDBase6getKeyEv>
    2150:	9a 83       	std	Y+2, r25	; 0x02
    2152:	89 83       	std	Y+1, r24	; 0x01
    if(key == 0 || key == 1 || key == 2 || key == 3 || key == 4) {
        //_optionChanged = true;
    }


    switch(key) {
    2154:	89 81       	ldd	r24, Y+1	; 0x01
    2156:	9a 81       	ldd	r25, Y+2	; 0x02
    2158:	82 30       	cpi	r24, 0x02	; 2
    215a:	91 05       	cpc	r25, r1
    215c:	91 f0       	breq	.+36     	; 0x2182 <_ZN7LCDBase14DetectKeyPressEv+0x48>
    215e:	83 30       	cpi	r24, 0x03	; 3
    2160:	91 05       	cpc	r25, r1
    2162:	2c f4       	brge	.+10     	; 0x216e <_ZN7LCDBase14DetectKeyPressEv+0x34>
    2164:	00 97       	sbiw	r24, 0x00	; 0
    2166:	49 f0       	breq	.+18     	; 0x217a <_ZN7LCDBase14DetectKeyPressEv+0x40>
    2168:	01 97       	sbiw	r24, 0x01	; 1
    216a:	49 f0       	breq	.+18     	; 0x217e <_ZN7LCDBase14DetectKeyPressEv+0x44>
    216c:	10 c0       	rjmp	.+32     	; 0x218e <_ZN7LCDBase14DetectKeyPressEv+0x54>
    216e:	83 30       	cpi	r24, 0x03	; 3
    2170:	91 05       	cpc	r25, r1
    2172:	49 f0       	breq	.+18     	; 0x2186 <_ZN7LCDBase14DetectKeyPressEv+0x4c>
    2174:	04 97       	sbiw	r24, 0x04	; 4
    2176:	49 f0       	breq	.+18     	; 0x218a <_ZN7LCDBase14DetectKeyPressEv+0x50>
    2178:	0a c0       	rjmp	.+20     	; 0x218e <_ZN7LCDBase14DetectKeyPressEv+0x54>
        case 0: //right
            return LcdKeyPress::Right;
    217a:	80 e0       	ldi	r24, 0x00	; 0
    217c:	09 c0       	rjmp	.+18     	; 0x2190 <_ZN7LCDBase14DetectKeyPressEv+0x56>
        case 1: //up
            return LcdKeyPress::Up;
    217e:	81 e0       	ldi	r24, 0x01	; 1
    2180:	07 c0       	rjmp	.+14     	; 0x2190 <_ZN7LCDBase14DetectKeyPressEv+0x56>
        case 2: //down
            return LcdKeyPress::Down;
    2182:	82 e0       	ldi	r24, 0x02	; 2
    2184:	05 c0       	rjmp	.+10     	; 0x2190 <_ZN7LCDBase14DetectKeyPressEv+0x56>
        case 3: //left
            return LcdKeyPress::Left;
    2186:	83 e0       	ldi	r24, 0x03	; 3
    2188:	03 c0       	rjmp	.+6      	; 0x2190 <_ZN7LCDBase14DetectKeyPressEv+0x56>
        case 4: //select
            return LcdKeyPress::Select;
    218a:	84 e0       	ldi	r24, 0x04	; 4
    218c:	01 c0       	rjmp	.+2      	; 0x2190 <_ZN7LCDBase14DetectKeyPressEv+0x56>
        default:
            return LcdKeyPress::None;
    218e:	85 e0       	ldi	r24, 0x05	; 5

    }
}
    2190:	24 96       	adiw	r28, 0x04	; 4
    2192:	e2 e0       	ldi	r30, 0x02	; 2
    2194:	0c 94 b2 2c 	jmp	0x5964	; 0x5964 <__epilogue_restores__+0x20>

00002198 <_ZN7LCDBase13getKeyFromValEj>:

//--key press
int LCDBase::getKeyFromVal(unsigned int input) {
    2198:	a6 e0       	ldi	r26, 0x06	; 6
    219a:	b0 e0       	ldi	r27, 0x00	; 0
    219c:	e2 ed       	ldi	r30, 0xD2	; 210
    219e:	f0 e1       	ldi	r31, 0x10	; 16
    21a0:	0c 94 96 2c 	jmp	0x592c	; 0x592c <__prologue_saves__+0x20>
    21a4:	9c 83       	std	Y+4, r25	; 0x04
    21a6:	8b 83       	std	Y+3, r24	; 0x03
    21a8:	7e 83       	std	Y+6, r23	; 0x06
    21aa:	6d 83       	std	Y+5, r22	; 0x05
    int k;
    for(k = 0; k < _numOfKeys; k++) {
    21ac:	1a 82       	std	Y+2, r1	; 0x02
    21ae:	19 82       	std	Y+1, r1	; 0x01
    21b0:	1a c0       	rjmp	.+52     	; 0x21e6 <_ZN7LCDBase13getKeyFromValEj+0x4e>
        if(input < _keyValues[k]) {
    21b2:	2b 81       	ldd	r18, Y+3	; 0x03
    21b4:	3c 81       	ldd	r19, Y+4	; 0x04
    21b6:	89 81       	ldd	r24, Y+1	; 0x01
    21b8:	9a 81       	ldd	r25, Y+2	; 0x02
    21ba:	0c 96       	adiw	r24, 0x0c	; 12
    21bc:	88 0f       	add	r24, r24
    21be:	99 1f       	adc	r25, r25
    21c0:	82 0f       	add	r24, r18
    21c2:	93 1f       	adc	r25, r19
    21c4:	fc 01       	movw	r30, r24
    21c6:	80 81       	ld	r24, Z
    21c8:	91 81       	ldd	r25, Z+1	; 0x01
    21ca:	9c 01       	movw	r18, r24
    21cc:	8d 81       	ldd	r24, Y+5	; 0x05
    21ce:	9e 81       	ldd	r25, Y+6	; 0x06
    21d0:	82 17       	cp	r24, r18
    21d2:	93 07       	cpc	r25, r19
    21d4:	18 f4       	brcc	.+6      	; 0x21dc <_ZN7LCDBase13getKeyFromValEj+0x44>
            return k;
    21d6:	89 81       	ldd	r24, Y+1	; 0x01
    21d8:	9a 81       	ldd	r25, Y+2	; 0x02
    21da:	1f c0       	rjmp	.+62     	; 0x221a <_ZN7LCDBase13getKeyFromValEj+0x82>
}

//--key press
int LCDBase::getKeyFromVal(unsigned int input) {
    int k;
    for(k = 0; k < _numOfKeys; k++) {
    21dc:	89 81       	ldd	r24, Y+1	; 0x01
    21de:	9a 81       	ldd	r25, Y+2	; 0x02
    21e0:	01 96       	adiw	r24, 0x01	; 1
    21e2:	9a 83       	std	Y+2, r25	; 0x02
    21e4:	89 83       	std	Y+1, r24	; 0x01
    21e6:	8b 81       	ldd	r24, Y+3	; 0x03
    21e8:	9c 81       	ldd	r25, Y+4	; 0x04
    21ea:	fc 01       	movw	r30, r24
    21ec:	22 a1       	ldd	r18, Z+34	; 0x22
    21ee:	33 a1       	ldd	r19, Z+35	; 0x23
    21f0:	89 81       	ldd	r24, Y+1	; 0x01
    21f2:	9a 81       	ldd	r25, Y+2	; 0x02
    21f4:	82 17       	cp	r24, r18
    21f6:	93 07       	cpc	r25, r19
    21f8:	e4 f2       	brlt	.-72     	; 0x21b2 <_ZN7LCDBase13getKeyFromValEj+0x1a>
        if(input < _keyValues[k]) {
            return k;
        }
    }
    if(k >= _numOfKeys) {
    21fa:	8b 81       	ldd	r24, Y+3	; 0x03
    21fc:	9c 81       	ldd	r25, Y+4	; 0x04
    21fe:	fc 01       	movw	r30, r24
    2200:	22 a1       	ldd	r18, Z+34	; 0x22
    2202:	33 a1       	ldd	r19, Z+35	; 0x23
    2204:	89 81       	ldd	r24, Y+1	; 0x01
    2206:	9a 81       	ldd	r25, Y+2	; 0x02
    2208:	82 17       	cp	r24, r18
    220a:	93 07       	cpc	r25, r19
    220c:	24 f0       	brlt	.+8      	; 0x2216 <_ZN7LCDBase13getKeyFromValEj+0x7e>
        k = -1;
    220e:	8f ef       	ldi	r24, 0xFF	; 255
    2210:	9f ef       	ldi	r25, 0xFF	; 255
    2212:	9a 83       	std	Y+2, r25	; 0x02
    2214:	89 83       	std	Y+1, r24	; 0x01
    }
    return k;
    2216:	89 81       	ldd	r24, Y+1	; 0x01
    2218:	9a 81       	ldd	r25, Y+2	; 0x02
}
    221a:	26 96       	adiw	r28, 0x06	; 6
    221c:	e2 e0       	ldi	r30, 0x02	; 2
    221e:	0c 94 b2 2c 	jmp	0x5964	; 0x5964 <__epilogue_restores__+0x20>

00002222 <_ZN7LCDBase6getKeyEv>:

int LCDBase::getKey() {
    2222:	a6 e0       	ldi	r26, 0x06	; 6
    2224:	b0 e0       	ldi	r27, 0x00	; 0
    2226:	e7 e1       	ldi	r30, 0x17	; 23
    2228:	f1 e1       	ldi	r31, 0x11	; 17
    222a:	0c 94 96 2c 	jmp	0x592c	; 0x592c <__prologue_saves__+0x20>
    222e:	9e 83       	std	Y+6, r25	; 0x06
    2230:	8d 83       	std	Y+5, r24	; 0x05
    int keyVal = analogRead(0);
    2232:	80 e0       	ldi	r24, 0x00	; 0
    2234:	0e 94 7a 28 	call	0x50f4	; 0x50f4 <analogRead>
    2238:	9a 83       	std	Y+2, r25	; 0x02
    223a:	89 83       	std	Y+1, r24	; 0x01
    //SerialExt::Debug(F("keyVal"), keyVal);
    int key = getKeyFromVal(keyVal);
    223c:	29 81       	ldd	r18, Y+1	; 0x01
    223e:	3a 81       	ldd	r19, Y+2	; 0x02
    2240:	8d 81       	ldd	r24, Y+5	; 0x05
    2242:	9e 81       	ldd	r25, Y+6	; 0x06
    2244:	b9 01       	movw	r22, r18
    2246:	a8 df       	rcall	.-176    	; 0x2198 <_ZN7LCDBase13getKeyFromValEj>
    2248:	9c 83       	std	Y+4, r25	; 0x04
    224a:	8b 83       	std	Y+3, r24	; 0x03
    //SerialExt::Debug(F("key"), key);
    //_lastKey = key;
    return key;
    224c:	8b 81       	ldd	r24, Y+3	; 0x03
    224e:	9c 81       	ldd	r25, Y+4	; 0x04
}
    2250:	26 96       	adiw	r28, 0x06	; 6
    2252:	e2 e0       	ldi	r30, 0x02	; 2
    2254:	0c 94 b2 2c 	jmp	0x5964	; 0x5964 <__epilogue_restores__+0x20>

00002258 <_ZN7MathExt16CalculateAverageEPii>:
                       std::bind2nd(std::minus<double>(), mean));
        double sq_sum = std::inner_product(diff.begin(), diff.end(), diff.begin(), 0.0);
        double stdev = sqrt(sq_sum / vec.size());
        return stdev;
    }
    double CalculateAverage(int* arr, int number) {
    2258:	cf 92       	push	r12
    225a:	df 92       	push	r13
    225c:	ef 92       	push	r14
    225e:	ff 92       	push	r15
    2260:	cf 93       	push	r28
    2262:	df 93       	push	r29
    2264:	cd b7       	in	r28, 0x3d	; 61
    2266:	de b7       	in	r29, 0x3e	; 62
    2268:	66 97       	sbiw	r28, 0x16	; 22
    226a:	0f b6       	in	r0, 0x3f	; 63
    226c:	f8 94       	cli
    226e:	de bf       	out	0x3e, r29	; 62
    2270:	0f be       	out	0x3f, r0	; 63
    2272:	cd bf       	out	0x3d, r28	; 61
    2274:	98 8b       	std	Y+16, r25	; 0x10
    2276:	8f 87       	std	Y+15, r24	; 0x0f
    2278:	7a 8b       	std	Y+18, r23	; 0x12
    227a:	69 8b       	std	Y+17, r22	; 0x11
        int i;
        int max, min;
        double avg;
        long amount = 0;
    227c:	1f 82       	std	Y+7, r1	; 0x07
    227e:	18 86       	std	Y+8, r1	; 0x08
    2280:	19 86       	std	Y+9, r1	; 0x09
    2282:	1a 86       	std	Y+10, r1	; 0x0a
        if(number <= 0) {
    2284:	89 89       	ldd	r24, Y+17	; 0x11
    2286:	9a 89       	ldd	r25, Y+18	; 0x12
    2288:	18 16       	cp	r1, r24
    228a:	19 06       	cpc	r1, r25
    228c:	5c f0       	brlt	.+22     	; 0x22a4 <_ZN7MathExt16CalculateAverageEPii+0x4c>
            Serial.println(F("Error number for the array to avraging!/n"));
    228e:	80 ea       	ldi	r24, 0xA0	; 160
    2290:	93 e0       	ldi	r25, 0x03	; 3
    2292:	bc 01       	movw	r22, r24
    2294:	85 e1       	ldi	r24, 0x15	; 21
    2296:	95 e0       	ldi	r25, 0x05	; 5
    2298:	0e 94 91 26 	call	0x4d22	; 0x4d22 <_ZN5Print7printlnEPK19__FlashStringHelper>
            return 0;
    229c:	80 e0       	ldi	r24, 0x00	; 0
    229e:	90 e0       	ldi	r25, 0x00	; 0
    22a0:	dc 01       	movw	r26, r24
    22a2:	2b c1       	rjmp	.+598    	; 0x24fa <_ZN7MathExt16CalculateAverageEPii+0x2a2>
        }
        if(number < 5) { //less than 5, calculated directly statistics
    22a4:	89 89       	ldd	r24, Y+17	; 0x11
    22a6:	9a 89       	ldd	r25, Y+18	; 0x12
    22a8:	05 97       	sbiw	r24, 0x05	; 5
    22aa:	0c f0       	brlt	.+2      	; 0x22ae <_ZN7MathExt16CalculateAverageEPii+0x56>
    22ac:	49 c0       	rjmp	.+146    	; 0x2340 <_ZN7MathExt16CalculateAverageEPii+0xe8>
            for(i = 0; i < number; i++) {
    22ae:	1a 82       	std	Y+2, r1	; 0x02
    22b0:	19 82       	std	Y+1, r1	; 0x01
    22b2:	20 c0       	rjmp	.+64     	; 0x22f4 <_ZN7MathExt16CalculateAverageEPii+0x9c>
                amount += arr[i];
    22b4:	89 81       	ldd	r24, Y+1	; 0x01
    22b6:	9a 81       	ldd	r25, Y+2	; 0x02
    22b8:	88 0f       	add	r24, r24
    22ba:	99 1f       	adc	r25, r25
    22bc:	2f 85       	ldd	r18, Y+15	; 0x0f
    22be:	38 89       	ldd	r19, Y+16	; 0x10
    22c0:	82 0f       	add	r24, r18
    22c2:	93 1f       	adc	r25, r19
    22c4:	fc 01       	movw	r30, r24
    22c6:	80 81       	ld	r24, Z
    22c8:	91 81       	ldd	r25, Z+1	; 0x01
    22ca:	09 2e       	mov	r0, r25
    22cc:	00 0c       	add	r0, r0
    22ce:	aa 0b       	sbc	r26, r26
    22d0:	bb 0b       	sbc	r27, r27
    22d2:	2f 81       	ldd	r18, Y+7	; 0x07
    22d4:	38 85       	ldd	r19, Y+8	; 0x08
    22d6:	49 85       	ldd	r20, Y+9	; 0x09
    22d8:	5a 85       	ldd	r21, Y+10	; 0x0a
    22da:	82 0f       	add	r24, r18
    22dc:	93 1f       	adc	r25, r19
    22de:	a4 1f       	adc	r26, r20
    22e0:	b5 1f       	adc	r27, r21
    22e2:	8f 83       	std	Y+7, r24	; 0x07
    22e4:	98 87       	std	Y+8, r25	; 0x08
    22e6:	a9 87       	std	Y+9, r26	; 0x09
    22e8:	ba 87       	std	Y+10, r27	; 0x0a
        if(number <= 0) {
            Serial.println(F("Error number for the array to avraging!/n"));
            return 0;
        }
        if(number < 5) { //less than 5, calculated directly statistics
            for(i = 0; i < number; i++) {
    22ea:	89 81       	ldd	r24, Y+1	; 0x01
    22ec:	9a 81       	ldd	r25, Y+2	; 0x02
    22ee:	01 96       	adiw	r24, 0x01	; 1
    22f0:	9a 83       	std	Y+2, r25	; 0x02
    22f2:	89 83       	std	Y+1, r24	; 0x01
    22f4:	29 81       	ldd	r18, Y+1	; 0x01
    22f6:	3a 81       	ldd	r19, Y+2	; 0x02
    22f8:	89 89       	ldd	r24, Y+17	; 0x11
    22fa:	9a 89       	ldd	r25, Y+18	; 0x12
    22fc:	28 17       	cp	r18, r24
    22fe:	39 07       	cpc	r19, r25
    2300:	cc f2       	brlt	.-78     	; 0x22b4 <_ZN7MathExt16CalculateAverageEPii+0x5c>
                amount += arr[i];
            }
            avg = amount / number;
    2302:	89 89       	ldd	r24, Y+17	; 0x11
    2304:	9a 89       	ldd	r25, Y+18	; 0x12
    2306:	9c 01       	movw	r18, r24
    2308:	99 0f       	add	r25, r25
    230a:	44 0b       	sbc	r20, r20
    230c:	55 0b       	sbc	r21, r21
    230e:	8f 81       	ldd	r24, Y+7	; 0x07
    2310:	98 85       	ldd	r25, Y+8	; 0x08
    2312:	a9 85       	ldd	r26, Y+9	; 0x09
    2314:	ba 85       	ldd	r27, Y+10	; 0x0a
    2316:	bc 01       	movw	r22, r24
    2318:	cd 01       	movw	r24, r26
    231a:	0e 94 5a 2c 	call	0x58b4	; 0x58b4 <__divmodsi4>
    231e:	da 01       	movw	r26, r20
    2320:	c9 01       	movw	r24, r18
    2322:	bc 01       	movw	r22, r24
    2324:	cd 01       	movw	r24, r26
    2326:	0e 94 3e 23 	call	0x467c	; 0x467c <__floatsisf>
    232a:	dc 01       	movw	r26, r24
    232c:	cb 01       	movw	r24, r22
    232e:	8b 87       	std	Y+11, r24	; 0x0b
    2330:	9c 87       	std	Y+12, r25	; 0x0c
    2332:	ad 87       	std	Y+13, r26	; 0x0d
    2334:	be 87       	std	Y+14, r27	; 0x0e
            return avg;
    2336:	8b 85       	ldd	r24, Y+11	; 0x0b
    2338:	9c 85       	ldd	r25, Y+12	; 0x0c
    233a:	ad 85       	ldd	r26, Y+13	; 0x0d
    233c:	be 85       	ldd	r27, Y+14	; 0x0e
    233e:	dd c0       	rjmp	.+442    	; 0x24fa <_ZN7MathExt16CalculateAverageEPii+0x2a2>
        }
        else {
            if(arr[0] < arr[1]) {
    2340:	8f 85       	ldd	r24, Y+15	; 0x0f
    2342:	98 89       	ldd	r25, Y+16	; 0x10
    2344:	fc 01       	movw	r30, r24
    2346:	20 81       	ld	r18, Z
    2348:	31 81       	ldd	r19, Z+1	; 0x01
    234a:	8f 85       	ldd	r24, Y+15	; 0x0f
    234c:	98 89       	ldd	r25, Y+16	; 0x10
    234e:	02 96       	adiw	r24, 0x02	; 2
    2350:	fc 01       	movw	r30, r24
    2352:	80 81       	ld	r24, Z
    2354:	91 81       	ldd	r25, Z+1	; 0x01
    2356:	28 17       	cp	r18, r24
    2358:	39 07       	cpc	r19, r25
    235a:	7c f4       	brge	.+30     	; 0x237a <_ZN7MathExt16CalculateAverageEPii+0x122>
                min = arr[0];
    235c:	8f 85       	ldd	r24, Y+15	; 0x0f
    235e:	98 89       	ldd	r25, Y+16	; 0x10
    2360:	fc 01       	movw	r30, r24
    2362:	80 81       	ld	r24, Z
    2364:	91 81       	ldd	r25, Z+1	; 0x01
    2366:	9e 83       	std	Y+6, r25	; 0x06
    2368:	8d 83       	std	Y+5, r24	; 0x05
                max = arr[1];
    236a:	8f 85       	ldd	r24, Y+15	; 0x0f
    236c:	98 89       	ldd	r25, Y+16	; 0x10
    236e:	fc 01       	movw	r30, r24
    2370:	82 81       	ldd	r24, Z+2	; 0x02
    2372:	93 81       	ldd	r25, Z+3	; 0x03
    2374:	9c 83       	std	Y+4, r25	; 0x04
    2376:	8b 83       	std	Y+3, r24	; 0x03
    2378:	0e c0       	rjmp	.+28     	; 0x2396 <_ZN7MathExt16CalculateAverageEPii+0x13e>
            }
            else {
                min = arr[1];
    237a:	8f 85       	ldd	r24, Y+15	; 0x0f
    237c:	98 89       	ldd	r25, Y+16	; 0x10
    237e:	fc 01       	movw	r30, r24
    2380:	82 81       	ldd	r24, Z+2	; 0x02
    2382:	93 81       	ldd	r25, Z+3	; 0x03
    2384:	9e 83       	std	Y+6, r25	; 0x06
    2386:	8d 83       	std	Y+5, r24	; 0x05
                max = arr[0];
    2388:	8f 85       	ldd	r24, Y+15	; 0x0f
    238a:	98 89       	ldd	r25, Y+16	; 0x10
    238c:	fc 01       	movw	r30, r24
    238e:	80 81       	ld	r24, Z
    2390:	91 81       	ldd	r25, Z+1	; 0x01
    2392:	9c 83       	std	Y+4, r25	; 0x04
    2394:	8b 83       	std	Y+3, r24	; 0x03
            }
            for(i = 2; i < number; i++) {
    2396:	82 e0       	ldi	r24, 0x02	; 2
    2398:	90 e0       	ldi	r25, 0x00	; 0
    239a:	9a 83       	std	Y+2, r25	; 0x02
    239c:	89 83       	std	Y+1, r24	; 0x01
    239e:	80 c0       	rjmp	.+256    	; 0x24a0 <_ZN7MathExt16CalculateAverageEPii+0x248>
                if(arr[i] < min) {
    23a0:	89 81       	ldd	r24, Y+1	; 0x01
    23a2:	9a 81       	ldd	r25, Y+2	; 0x02
    23a4:	88 0f       	add	r24, r24
    23a6:	99 1f       	adc	r25, r25
    23a8:	2f 85       	ldd	r18, Y+15	; 0x0f
    23aa:	38 89       	ldd	r19, Y+16	; 0x10
    23ac:	82 0f       	add	r24, r18
    23ae:	93 1f       	adc	r25, r19
    23b0:	fc 01       	movw	r30, r24
    23b2:	20 81       	ld	r18, Z
    23b4:	31 81       	ldd	r19, Z+1	; 0x01
    23b6:	8d 81       	ldd	r24, Y+5	; 0x05
    23b8:	9e 81       	ldd	r25, Y+6	; 0x06
    23ba:	28 17       	cp	r18, r24
    23bc:	39 07       	cpc	r19, r25
    23be:	04 f5       	brge	.+64     	; 0x2400 <_ZN7MathExt16CalculateAverageEPii+0x1a8>
                    amount += min;      //arr<min
    23c0:	8d 81       	ldd	r24, Y+5	; 0x05
    23c2:	9e 81       	ldd	r25, Y+6	; 0x06
    23c4:	09 2e       	mov	r0, r25
    23c6:	00 0c       	add	r0, r0
    23c8:	aa 0b       	sbc	r26, r26
    23ca:	bb 0b       	sbc	r27, r27
    23cc:	2f 81       	ldd	r18, Y+7	; 0x07
    23ce:	38 85       	ldd	r19, Y+8	; 0x08
    23d0:	49 85       	ldd	r20, Y+9	; 0x09
    23d2:	5a 85       	ldd	r21, Y+10	; 0x0a
    23d4:	82 0f       	add	r24, r18
    23d6:	93 1f       	adc	r25, r19
    23d8:	a4 1f       	adc	r26, r20
    23da:	b5 1f       	adc	r27, r21
    23dc:	8f 83       	std	Y+7, r24	; 0x07
    23de:	98 87       	std	Y+8, r25	; 0x08
    23e0:	a9 87       	std	Y+9, r26	; 0x09
    23e2:	ba 87       	std	Y+10, r27	; 0x0a
                    min = arr[i];
    23e4:	89 81       	ldd	r24, Y+1	; 0x01
    23e6:	9a 81       	ldd	r25, Y+2	; 0x02
    23e8:	88 0f       	add	r24, r24
    23ea:	99 1f       	adc	r25, r25
    23ec:	2f 85       	ldd	r18, Y+15	; 0x0f
    23ee:	38 89       	ldd	r19, Y+16	; 0x10
    23f0:	82 0f       	add	r24, r18
    23f2:	93 1f       	adc	r25, r19
    23f4:	fc 01       	movw	r30, r24
    23f6:	80 81       	ld	r24, Z
    23f8:	91 81       	ldd	r25, Z+1	; 0x01
    23fa:	9e 83       	std	Y+6, r25	; 0x06
    23fc:	8d 83       	std	Y+5, r24	; 0x05
    23fe:	4b c0       	rjmp	.+150    	; 0x2496 <_ZN7MathExt16CalculateAverageEPii+0x23e>
                }
                else {
                    if(arr[i] > max) {
    2400:	89 81       	ldd	r24, Y+1	; 0x01
    2402:	9a 81       	ldd	r25, Y+2	; 0x02
    2404:	88 0f       	add	r24, r24
    2406:	99 1f       	adc	r25, r25
    2408:	2f 85       	ldd	r18, Y+15	; 0x0f
    240a:	38 89       	ldd	r19, Y+16	; 0x10
    240c:	82 0f       	add	r24, r18
    240e:	93 1f       	adc	r25, r19
    2410:	fc 01       	movw	r30, r24
    2412:	20 81       	ld	r18, Z
    2414:	31 81       	ldd	r19, Z+1	; 0x01
    2416:	8b 81       	ldd	r24, Y+3	; 0x03
    2418:	9c 81       	ldd	r25, Y+4	; 0x04
    241a:	82 17       	cp	r24, r18
    241c:	93 07       	cpc	r25, r19
    241e:	04 f5       	brge	.+64     	; 0x2460 <_ZN7MathExt16CalculateAverageEPii+0x208>
                        amount += max;  //arr>max
    2420:	8b 81       	ldd	r24, Y+3	; 0x03
    2422:	9c 81       	ldd	r25, Y+4	; 0x04
    2424:	09 2e       	mov	r0, r25
    2426:	00 0c       	add	r0, r0
    2428:	aa 0b       	sbc	r26, r26
    242a:	bb 0b       	sbc	r27, r27
    242c:	2f 81       	ldd	r18, Y+7	; 0x07
    242e:	38 85       	ldd	r19, Y+8	; 0x08
    2430:	49 85       	ldd	r20, Y+9	; 0x09
    2432:	5a 85       	ldd	r21, Y+10	; 0x0a
    2434:	82 0f       	add	r24, r18
    2436:	93 1f       	adc	r25, r19
    2438:	a4 1f       	adc	r26, r20
    243a:	b5 1f       	adc	r27, r21
    243c:	8f 83       	std	Y+7, r24	; 0x07
    243e:	98 87       	std	Y+8, r25	; 0x08
    2440:	a9 87       	std	Y+9, r26	; 0x09
    2442:	ba 87       	std	Y+10, r27	; 0x0a
                        max = arr[i];
    2444:	89 81       	ldd	r24, Y+1	; 0x01
    2446:	9a 81       	ldd	r25, Y+2	; 0x02
    2448:	88 0f       	add	r24, r24
    244a:	99 1f       	adc	r25, r25
    244c:	2f 85       	ldd	r18, Y+15	; 0x0f
    244e:	38 89       	ldd	r19, Y+16	; 0x10
    2450:	82 0f       	add	r24, r18
    2452:	93 1f       	adc	r25, r19
    2454:	fc 01       	movw	r30, r24
    2456:	80 81       	ld	r24, Z
    2458:	91 81       	ldd	r25, Z+1	; 0x01
    245a:	9c 83       	std	Y+4, r25	; 0x04
    245c:	8b 83       	std	Y+3, r24	; 0x03
    245e:	1b c0       	rjmp	.+54     	; 0x2496 <_ZN7MathExt16CalculateAverageEPii+0x23e>
                    }
                    else {
                        amount += arr[i]; //min<=arr<=max
    2460:	89 81       	ldd	r24, Y+1	; 0x01
    2462:	9a 81       	ldd	r25, Y+2	; 0x02
    2464:	88 0f       	add	r24, r24
    2466:	99 1f       	adc	r25, r25
    2468:	2f 85       	ldd	r18, Y+15	; 0x0f
    246a:	38 89       	ldd	r19, Y+16	; 0x10
    246c:	82 0f       	add	r24, r18
    246e:	93 1f       	adc	r25, r19
    2470:	fc 01       	movw	r30, r24
    2472:	80 81       	ld	r24, Z
    2474:	91 81       	ldd	r25, Z+1	; 0x01
    2476:	09 2e       	mov	r0, r25
    2478:	00 0c       	add	r0, r0
    247a:	aa 0b       	sbc	r26, r26
    247c:	bb 0b       	sbc	r27, r27
    247e:	2f 81       	ldd	r18, Y+7	; 0x07
    2480:	38 85       	ldd	r19, Y+8	; 0x08
    2482:	49 85       	ldd	r20, Y+9	; 0x09
    2484:	5a 85       	ldd	r21, Y+10	; 0x0a
    2486:	82 0f       	add	r24, r18
    2488:	93 1f       	adc	r25, r19
    248a:	a4 1f       	adc	r26, r20
    248c:	b5 1f       	adc	r27, r21
    248e:	8f 83       	std	Y+7, r24	; 0x07
    2490:	98 87       	std	Y+8, r25	; 0x08
    2492:	a9 87       	std	Y+9, r26	; 0x09
    2494:	ba 87       	std	Y+10, r27	; 0x0a
            }
            else {
                min = arr[1];
                max = arr[0];
            }
            for(i = 2; i < number; i++) {
    2496:	89 81       	ldd	r24, Y+1	; 0x01
    2498:	9a 81       	ldd	r25, Y+2	; 0x02
    249a:	01 96       	adiw	r24, 0x01	; 1
    249c:	9a 83       	std	Y+2, r25	; 0x02
    249e:	89 83       	std	Y+1, r24	; 0x01
    24a0:	29 81       	ldd	r18, Y+1	; 0x01
    24a2:	3a 81       	ldd	r19, Y+2	; 0x02
    24a4:	89 89       	ldd	r24, Y+17	; 0x11
    24a6:	9a 89       	ldd	r25, Y+18	; 0x12
    24a8:	28 17       	cp	r18, r24
    24aa:	39 07       	cpc	r19, r25
    24ac:	0c f4       	brge	.+2      	; 0x24b0 <_ZN7MathExt16CalculateAverageEPii+0x258>
    24ae:	78 cf       	rjmp	.-272    	; 0x23a0 <_ZN7MathExt16CalculateAverageEPii+0x148>
                    else {
                        amount += arr[i]; //min<=arr<=max
                    }
                }//if
            }//for
            avg = (double)amount / (number - 2);
    24b0:	6f 81       	ldd	r22, Y+7	; 0x07
    24b2:	78 85       	ldd	r23, Y+8	; 0x08
    24b4:	89 85       	ldd	r24, Y+9	; 0x09
    24b6:	9a 85       	ldd	r25, Y+10	; 0x0a
    24b8:	0e 94 3e 23 	call	0x467c	; 0x467c <__floatsisf>
    24bc:	6b 01       	movw	r12, r22
    24be:	7c 01       	movw	r14, r24
    24c0:	89 89       	ldd	r24, Y+17	; 0x11
    24c2:	9a 89       	ldd	r25, Y+18	; 0x12
    24c4:	02 97       	sbiw	r24, 0x02	; 2
    24c6:	09 2e       	mov	r0, r25
    24c8:	00 0c       	add	r0, r0
    24ca:	aa 0b       	sbc	r26, r26
    24cc:	bb 0b       	sbc	r27, r27
    24ce:	bc 01       	movw	r22, r24
    24d0:	cd 01       	movw	r24, r26
    24d2:	0e 94 3e 23 	call	0x467c	; 0x467c <__floatsisf>
    24d6:	dc 01       	movw	r26, r24
    24d8:	cb 01       	movw	r24, r22
    24da:	9c 01       	movw	r18, r24
    24dc:	ad 01       	movw	r20, r26
    24de:	c7 01       	movw	r24, r14
    24e0:	b6 01       	movw	r22, r12
    24e2:	0e 94 a3 22 	call	0x4546	; 0x4546 <__divsf3>
    24e6:	dc 01       	movw	r26, r24
    24e8:	cb 01       	movw	r24, r22
    24ea:	8b 87       	std	Y+11, r24	; 0x0b
    24ec:	9c 87       	std	Y+12, r25	; 0x0c
    24ee:	ad 87       	std	Y+13, r26	; 0x0d
    24f0:	be 87       	std	Y+14, r27	; 0x0e
        }//if
        return avg;
    24f2:	8b 85       	ldd	r24, Y+11	; 0x0b
    24f4:	9c 85       	ldd	r25, Y+12	; 0x0c
    24f6:	ad 85       	ldd	r26, Y+13	; 0x0d
    24f8:	be 85       	ldd	r27, Y+14	; 0x0e
    }
    24fa:	bc 01       	movw	r22, r24
    24fc:	cd 01       	movw	r24, r26
    24fe:	66 96       	adiw	r28, 0x16	; 22
    2500:	0f b6       	in	r0, 0x3f	; 63
    2502:	f8 94       	cli
    2504:	de bf       	out	0x3e, r29	; 62
    2506:	0f be       	out	0x3f, r0	; 63
    2508:	cd bf       	out	0x3d, r28	; 61
    250a:	df 91       	pop	r29
    250c:	cf 91       	pop	r28
    250e:	ff 90       	pop	r15
    2510:	ef 90       	pop	r14
    2512:	df 90       	pop	r13
    2514:	cf 90       	pop	r12
    2516:	08 95       	ret

00002518 <_ZNK6String5c_strEv>:
        Serial.println(tankPH, 2);
        //}
        digitalWrite(13, digitalRead(13) ^ 1);
        printTime = millis();
    }
}
    2518:	a2 e0       	ldi	r26, 0x02	; 2
    251a:	b0 e0       	ldi	r27, 0x00	; 0
    251c:	e2 e9       	ldi	r30, 0x92	; 146
    251e:	f2 e1       	ldi	r31, 0x12	; 18
    2520:	0c 94 96 2c 	jmp	0x592c	; 0x592c <__prologue_saves__+0x20>
    2524:	9a 83       	std	Y+2, r25	; 0x02
    2526:	89 83       	std	Y+1, r24	; 0x01
    2528:	89 81       	ldd	r24, Y+1	; 0x01
    252a:	9a 81       	ldd	r25, Y+2	; 0x02
    252c:	fc 01       	movw	r30, r24
    252e:	80 81       	ld	r24, Z
    2530:	91 81       	ldd	r25, Z+1	; 0x01
    2532:	22 96       	adiw	r28, 0x02	; 2
    2534:	e2 e0       	ldi	r30, 0x02	; 2
    2536:	0c 94 b2 2c 	jmp	0x5964	; 0x5964 <__epilogue_restores__+0x20>

0000253a <_ZN15StringSumHelperC1EPKc>:
    253a:	a4 e0       	ldi	r26, 0x04	; 4
    253c:	b0 e0       	ldi	r27, 0x00	; 0
    253e:	e3 ea       	ldi	r30, 0xA3	; 163
    2540:	f2 e1       	ldi	r31, 0x12	; 18
    2542:	0c 94 96 2c 	jmp	0x592c	; 0x592c <__prologue_saves__+0x20>
    2546:	9a 83       	std	Y+2, r25	; 0x02
    2548:	89 83       	std	Y+1, r24	; 0x01
    254a:	7c 83       	std	Y+4, r23	; 0x04
    254c:	6b 83       	std	Y+3, r22	; 0x03
    254e:	89 81       	ldd	r24, Y+1	; 0x01
    2550:	9a 81       	ldd	r25, Y+2	; 0x02
    2552:	2b 81       	ldd	r18, Y+3	; 0x03
    2554:	3c 81       	ldd	r19, Y+4	; 0x04
    2556:	b9 01       	movw	r22, r18
    2558:	0e 94 ba 29 	call	0x5374	; 0x5374 <_ZN6StringC1EPKc>
    255c:	24 96       	adiw	r28, 0x04	; 4
    255e:	e2 e0       	ldi	r30, 0x02	; 2
    2560:	0c 94 b2 2c 	jmp	0x5964	; 0x5964 <__epilogue_restores__+0x20>

00002564 <_ZN5EERefC1Ei>:
    2564:	a4 e0       	ldi	r26, 0x04	; 4
    2566:	b0 e0       	ldi	r27, 0x00	; 0
    2568:	e8 eb       	ldi	r30, 0xB8	; 184
    256a:	f2 e1       	ldi	r31, 0x12	; 18
    256c:	0c 94 96 2c 	jmp	0x592c	; 0x592c <__prologue_saves__+0x20>
    2570:	9a 83       	std	Y+2, r25	; 0x02
    2572:	89 83       	std	Y+1, r24	; 0x01
    2574:	7c 83       	std	Y+4, r23	; 0x04
    2576:	6b 83       	std	Y+3, r22	; 0x03
    2578:	89 81       	ldd	r24, Y+1	; 0x01
    257a:	9a 81       	ldd	r25, Y+2	; 0x02
    257c:	2b 81       	ldd	r18, Y+3	; 0x03
    257e:	3c 81       	ldd	r19, Y+4	; 0x04
    2580:	fc 01       	movw	r30, r24
    2582:	31 83       	std	Z+1, r19	; 0x01
    2584:	20 83       	st	Z, r18
    2586:	24 96       	adiw	r28, 0x04	; 4
    2588:	e2 e0       	ldi	r30, 0x02	; 2
    258a:	0c 94 b2 2c 	jmp	0x5964	; 0x5964 <__epilogue_restores__+0x20>

0000258e <_ZNK5EERefdeEv>:
    258e:	a2 e0       	ldi	r26, 0x02	; 2
    2590:	b0 e0       	ldi	r27, 0x00	; 0
    2592:	ed ec       	ldi	r30, 0xCD	; 205
    2594:	f2 e1       	ldi	r31, 0x12	; 18
    2596:	0c 94 96 2c 	jmp	0x592c	; 0x592c <__prologue_saves__+0x20>
    259a:	9a 83       	std	Y+2, r25	; 0x02
    259c:	89 83       	std	Y+1, r24	; 0x01
    259e:	89 81       	ldd	r24, Y+1	; 0x01
    25a0:	9a 81       	ldd	r25, Y+2	; 0x02
    25a2:	fc 01       	movw	r30, r24
    25a4:	80 81       	ld	r24, Z
    25a6:	91 81       	ldd	r25, Z+1	; 0x01
    25a8:	0e 94 98 33 	call	0x6730	; 0x6730 <eeprom_read_byte>
    25ac:	22 96       	adiw	r28, 0x02	; 2
    25ae:	e2 e0       	ldi	r30, 0x02	; 2
    25b0:	0c 94 b2 2c 	jmp	0x5964	; 0x5964 <__epilogue_restores__+0x20>

000025b4 <_ZNK5EERefcvKhEv>:
    25b4:	a2 e0       	ldi	r26, 0x02	; 2
    25b6:	b0 e0       	ldi	r27, 0x00	; 0
    25b8:	e0 ee       	ldi	r30, 0xE0	; 224
    25ba:	f2 e1       	ldi	r31, 0x12	; 18
    25bc:	0c 94 96 2c 	jmp	0x592c	; 0x592c <__prologue_saves__+0x20>
    25c0:	9a 83       	std	Y+2, r25	; 0x02
    25c2:	89 83       	std	Y+1, r24	; 0x01
    25c4:	89 81       	ldd	r24, Y+1	; 0x01
    25c6:	9a 81       	ldd	r25, Y+2	; 0x02
    25c8:	e2 df       	rcall	.-60     	; 0x258e <_ZNK5EERefdeEv>
    25ca:	22 96       	adiw	r28, 0x02	; 2
    25cc:	e2 e0       	ldi	r30, 0x02	; 2
    25ce:	0c 94 b2 2c 	jmp	0x5964	; 0x5964 <__epilogue_restores__+0x20>

000025d2 <_ZN5EERefaSEh>:
    25d2:	a3 e0       	ldi	r26, 0x03	; 3
    25d4:	b0 e0       	ldi	r27, 0x00	; 0
    25d6:	ef ee       	ldi	r30, 0xEF	; 239
    25d8:	f2 e1       	ldi	r31, 0x12	; 18
    25da:	0c 94 96 2c 	jmp	0x592c	; 0x592c <__prologue_saves__+0x20>
    25de:	9a 83       	std	Y+2, r25	; 0x02
    25e0:	89 83       	std	Y+1, r24	; 0x01
    25e2:	6b 83       	std	Y+3, r22	; 0x03
    25e4:	89 81       	ldd	r24, Y+1	; 0x01
    25e6:	9a 81       	ldd	r25, Y+2	; 0x02
    25e8:	fc 01       	movw	r30, r24
    25ea:	80 81       	ld	r24, Z
    25ec:	91 81       	ldd	r25, Z+1	; 0x01
    25ee:	6b 81       	ldd	r22, Y+3	; 0x03
    25f0:	0e 94 a0 33 	call	0x6740	; 0x6740 <eeprom_write_byte>
    25f4:	89 81       	ldd	r24, Y+1	; 0x01
    25f6:	9a 81       	ldd	r25, Y+2	; 0x02
    25f8:	23 96       	adiw	r28, 0x03	; 3
    25fa:	e2 e0       	ldi	r30, 0x02	; 2
    25fc:	0c 94 b2 2c 	jmp	0x5964	; 0x5964 <__epilogue_restores__+0x20>

00002600 <_ZN5EERef6updateEh>:
    2600:	a3 e0       	ldi	r26, 0x03	; 3
    2602:	b0 e0       	ldi	r27, 0x00	; 0
    2604:	e6 e0       	ldi	r30, 0x06	; 6
    2606:	f3 e1       	ldi	r31, 0x13	; 19
    2608:	0c 94 96 2c 	jmp	0x592c	; 0x592c <__prologue_saves__+0x20>
    260c:	9a 83       	std	Y+2, r25	; 0x02
    260e:	89 83       	std	Y+1, r24	; 0x01
    2610:	6b 83       	std	Y+3, r22	; 0x03
    2612:	89 81       	ldd	r24, Y+1	; 0x01
    2614:	9a 81       	ldd	r25, Y+2	; 0x02
    2616:	ce df       	rcall	.-100    	; 0x25b4 <_ZNK5EERefcvKhEv>
    2618:	98 2f       	mov	r25, r24
    261a:	8b 81       	ldd	r24, Y+3	; 0x03
    261c:	98 17       	cp	r25, r24
    261e:	29 f0       	breq	.+10     	; 0x262a <_ZN5EERef6updateEh+0x2a>
    2620:	89 81       	ldd	r24, Y+1	; 0x01
    2622:	9a 81       	ldd	r25, Y+2	; 0x02
    2624:	6b 81       	ldd	r22, Y+3	; 0x03
    2626:	d5 df       	rcall	.-86     	; 0x25d2 <_ZN5EERefaSEh>
    2628:	02 c0       	rjmp	.+4      	; 0x262e <_ZN5EERef6updateEh+0x2e>
    262a:	89 81       	ldd	r24, Y+1	; 0x01
    262c:	9a 81       	ldd	r25, Y+2	; 0x02
    262e:	23 96       	adiw	r28, 0x03	; 3
    2630:	e2 e0       	ldi	r30, 0x02	; 2
    2632:	0c 94 b2 2c 	jmp	0x5964	; 0x5964 <__epilogue_restores__+0x20>

00002636 <_ZN11EEPROMClassixEi>:
    2636:	a6 e0       	ldi	r26, 0x06	; 6
    2638:	b0 e0       	ldi	r27, 0x00	; 0
    263a:	e1 e2       	ldi	r30, 0x21	; 33
    263c:	f3 e1       	ldi	r31, 0x13	; 19
    263e:	0c 94 96 2c 	jmp	0x592c	; 0x592c <__prologue_saves__+0x20>
    2642:	9c 83       	std	Y+4, r25	; 0x04
    2644:	8b 83       	std	Y+3, r24	; 0x03
    2646:	7e 83       	std	Y+6, r23	; 0x06
    2648:	6d 83       	std	Y+5, r22	; 0x05
    264a:	8d 81       	ldd	r24, Y+5	; 0x05
    264c:	9e 81       	ldd	r25, Y+6	; 0x06
    264e:	bc 01       	movw	r22, r24
    2650:	ce 01       	movw	r24, r28
    2652:	01 96       	adiw	r24, 0x01	; 1
    2654:	87 df       	rcall	.-242    	; 0x2564 <_ZN5EERefC1Ei>
    2656:	89 81       	ldd	r24, Y+1	; 0x01
    2658:	9a 81       	ldd	r25, Y+2	; 0x02
    265a:	26 96       	adiw	r28, 0x06	; 6
    265c:	e2 e0       	ldi	r30, 0x02	; 2
    265e:	0c 94 b2 2c 	jmp	0x5964	; 0x5964 <__epilogue_restores__+0x20>

00002662 <_ZN2ee5tools18EEReadBlockElementEPcPhj>:
    2662:	aa e0       	ldi	r26, 0x0A	; 10
    2664:	b0 e0       	ldi	r27, 0x00	; 0
    2666:	e7 e3       	ldi	r30, 0x37	; 55
    2668:	f3 e1       	ldi	r31, 0x13	; 19
    266a:	0c 94 94 2c 	jmp	0x5928	; 0x5928 <__prologue_saves__+0x1c>
    266e:	9e 83       	std	Y+6, r25	; 0x06
    2670:	8d 83       	std	Y+5, r24	; 0x05
    2672:	78 87       	std	Y+8, r23	; 0x08
    2674:	6f 83       	std	Y+7, r22	; 0x07
    2676:	5a 87       	std	Y+10, r21	; 0x0a
    2678:	49 87       	std	Y+9, r20	; 0x09
    267a:	1a 82       	std	Y+2, r1	; 0x02
    267c:	19 82       	std	Y+1, r1	; 0x01
    267e:	1d c0       	rjmp	.+58     	; 0x26ba <_ZN2ee5tools18EEReadBlockElementEPcPhj+0x58>
    2680:	0d 81       	ldd	r16, Y+5	; 0x05
    2682:	1e 81       	ldd	r17, Y+6	; 0x06
    2684:	c8 01       	movw	r24, r16
    2686:	01 97       	sbiw	r24, 0x01	; 1
    2688:	9e 83       	std	Y+6, r25	; 0x06
    268a:	8d 83       	std	Y+5, r24	; 0x05
    268c:	8f 81       	ldd	r24, Y+7	; 0x07
    268e:	98 85       	ldd	r25, Y+8	; 0x08
    2690:	9c 01       	movw	r18, r24
    2692:	2f 5f       	subi	r18, 0xFF	; 255
    2694:	3f 4f       	sbci	r19, 0xFF	; 255
    2696:	38 87       	std	Y+8, r19	; 0x08
    2698:	2f 83       	std	Y+7, r18	; 0x07
    269a:	bc 01       	movw	r22, r24
    269c:	8d ee       	ldi	r24, 0xED	; 237
    269e:	92 e0       	ldi	r25, 0x02	; 2
    26a0:	ca df       	rcall	.-108    	; 0x2636 <_ZN11EEPROMClassixEi>
    26a2:	9c 83       	std	Y+4, r25	; 0x04
    26a4:	8b 83       	std	Y+3, r24	; 0x03
    26a6:	ce 01       	movw	r24, r28
    26a8:	03 96       	adiw	r24, 0x03	; 3
    26aa:	84 df       	rcall	.-248    	; 0x25b4 <_ZNK5EERefcvKhEv>
    26ac:	f8 01       	movw	r30, r16
    26ae:	80 83       	st	Z, r24
    26b0:	89 81       	ldd	r24, Y+1	; 0x01
    26b2:	9a 81       	ldd	r25, Y+2	; 0x02
    26b4:	01 96       	adiw	r24, 0x01	; 1
    26b6:	9a 83       	std	Y+2, r25	; 0x02
    26b8:	89 83       	std	Y+1, r24	; 0x01
    26ba:	29 81       	ldd	r18, Y+1	; 0x01
    26bc:	3a 81       	ldd	r19, Y+2	; 0x02
    26be:	89 85       	ldd	r24, Y+9	; 0x09
    26c0:	9a 85       	ldd	r25, Y+10	; 0x0a
    26c2:	28 17       	cp	r18, r24
    26c4:	39 07       	cpc	r19, r25
    26c6:	e0 f2       	brcs	.-72     	; 0x2680 <_ZN2ee5tools18EEReadBlockElementEPcPhj+0x1e>
    26c8:	2a 96       	adiw	r28, 0x0a	; 10
    26ca:	e4 e0       	ldi	r30, 0x04	; 4
    26cc:	0c 94 b0 2c 	jmp	0x5960	; 0x5960 <__epilogue_restores__+0x1c>

000026d0 <_ZN2ee5tools19EEWriteBlockElementEPKcPhj>:
    26d0:	ab e0       	ldi	r26, 0x0B	; 11
    26d2:	b0 e0       	ldi	r27, 0x00	; 0
    26d4:	ee e6       	ldi	r30, 0x6E	; 110
    26d6:	f3 e1       	ldi	r31, 0x13	; 19
    26d8:	0c 94 96 2c 	jmp	0x592c	; 0x592c <__prologue_saves__+0x20>
    26dc:	9f 83       	std	Y+7, r25	; 0x07
    26de:	8e 83       	std	Y+6, r24	; 0x06
    26e0:	79 87       	std	Y+9, r23	; 0x09
    26e2:	68 87       	std	Y+8, r22	; 0x08
    26e4:	5b 87       	std	Y+11, r21	; 0x0b
    26e6:	4a 87       	std	Y+10, r20	; 0x0a
    26e8:	1a 82       	std	Y+2, r1	; 0x02
    26ea:	19 82       	std	Y+1, r1	; 0x01
    26ec:	20 c0       	rjmp	.+64     	; 0x272e <_ZN2ee5tools19EEWriteBlockElementEPKcPhj+0x5e>
    26ee:	8e 81       	ldd	r24, Y+6	; 0x06
    26f0:	9f 81       	ldd	r25, Y+7	; 0x07
    26f2:	fc 01       	movw	r30, r24
    26f4:	80 81       	ld	r24, Z
    26f6:	8b 83       	std	Y+3, r24	; 0x03
    26f8:	88 85       	ldd	r24, Y+8	; 0x08
    26fa:	99 85       	ldd	r25, Y+9	; 0x09
    26fc:	9c 01       	movw	r18, r24
    26fe:	2f 5f       	subi	r18, 0xFF	; 255
    2700:	3f 4f       	sbci	r19, 0xFF	; 255
    2702:	39 87       	std	Y+9, r19	; 0x09
    2704:	28 87       	std	Y+8, r18	; 0x08
    2706:	bc 01       	movw	r22, r24
    2708:	8d ee       	ldi	r24, 0xED	; 237
    270a:	92 e0       	ldi	r25, 0x02	; 2
    270c:	94 df       	rcall	.-216    	; 0x2636 <_ZN11EEPROMClassixEi>
    270e:	9d 83       	std	Y+5, r25	; 0x05
    2710:	8c 83       	std	Y+4, r24	; 0x04
    2712:	ce 01       	movw	r24, r28
    2714:	04 96       	adiw	r24, 0x04	; 4
    2716:	6b 81       	ldd	r22, Y+3	; 0x03
    2718:	73 df       	rcall	.-282    	; 0x2600 <_ZN5EERef6updateEh>
    271a:	8e 81       	ldd	r24, Y+6	; 0x06
    271c:	9f 81       	ldd	r25, Y+7	; 0x07
    271e:	01 97       	sbiw	r24, 0x01	; 1
    2720:	9f 83       	std	Y+7, r25	; 0x07
    2722:	8e 83       	std	Y+6, r24	; 0x06
    2724:	89 81       	ldd	r24, Y+1	; 0x01
    2726:	9a 81       	ldd	r25, Y+2	; 0x02
    2728:	01 96       	adiw	r24, 0x01	; 1
    272a:	9a 83       	std	Y+2, r25	; 0x02
    272c:	89 83       	std	Y+1, r24	; 0x01
    272e:	29 81       	ldd	r18, Y+1	; 0x01
    2730:	3a 81       	ldd	r19, Y+2	; 0x02
    2732:	8a 85       	ldd	r24, Y+10	; 0x0a
    2734:	9b 85       	ldd	r25, Y+11	; 0x0b
    2736:	28 17       	cp	r18, r24
    2738:	39 07       	cpc	r19, r25
    273a:	c8 f2       	brcs	.-78     	; 0x26ee <_ZN2ee5tools19EEWriteBlockElementEPKcPhj+0x1e>
    273c:	2b 96       	adiw	r28, 0x0b	; 11
    273e:	e2 e0       	ldi	r30, 0x02	; 2
    2740:	0c 94 b2 2c 	jmp	0x5964	; 0x5964 <__epilogue_restores__+0x20>

00002744 <_ZN5PrintC1ERKS_>:
    2744:	a4 e0       	ldi	r26, 0x04	; 4
    2746:	b0 e0       	ldi	r27, 0x00	; 0
    2748:	e8 ea       	ldi	r30, 0xA8	; 168
    274a:	f3 e1       	ldi	r31, 0x13	; 19
    274c:	0c 94 96 2c 	jmp	0x592c	; 0x592c <__prologue_saves__+0x20>
    2750:	9a 83       	std	Y+2, r25	; 0x02
    2752:	89 83       	std	Y+1, r24	; 0x01
    2754:	7c 83       	std	Y+4, r23	; 0x04
    2756:	6b 83       	std	Y+3, r22	; 0x03
    2758:	89 81       	ldd	r24, Y+1	; 0x01
    275a:	9a 81       	ldd	r25, Y+2	; 0x02
    275c:	24 ed       	ldi	r18, 0xD4	; 212
    275e:	31 e0       	ldi	r19, 0x01	; 1
    2760:	fc 01       	movw	r30, r24
    2762:	31 83       	std	Z+1, r19	; 0x01
    2764:	20 83       	st	Z, r18
    2766:	8b 81       	ldd	r24, Y+3	; 0x03
    2768:	9c 81       	ldd	r25, Y+4	; 0x04
    276a:	fc 01       	movw	r30, r24
    276c:	22 81       	ldd	r18, Z+2	; 0x02
    276e:	33 81       	ldd	r19, Z+3	; 0x03
    2770:	89 81       	ldd	r24, Y+1	; 0x01
    2772:	9a 81       	ldd	r25, Y+2	; 0x02
    2774:	fc 01       	movw	r30, r24
    2776:	33 83       	std	Z+3, r19	; 0x03
    2778:	22 83       	std	Z+2, r18	; 0x02
    277a:	24 96       	adiw	r28, 0x04	; 4
    277c:	e2 e0       	ldi	r30, 0x02	; 2
    277e:	0c 94 b2 2c 	jmp	0x5964	; 0x5964 <__epilogue_restores__+0x20>

00002782 <_ZN13LiquidCrystalC1ERKS_>:
    2782:	a4 e0       	ldi	r26, 0x04	; 4
    2784:	b0 e0       	ldi	r27, 0x00	; 0
    2786:	e7 ec       	ldi	r30, 0xC7	; 199
    2788:	f3 e1       	ldi	r31, 0x13	; 19
    278a:	0c 94 96 2c 	jmp	0x592c	; 0x592c <__prologue_saves__+0x20>
    278e:	9a 83       	std	Y+2, r25	; 0x02
    2790:	89 83       	std	Y+1, r24	; 0x01
    2792:	7c 83       	std	Y+4, r23	; 0x04
    2794:	6b 83       	std	Y+3, r22	; 0x03
    2796:	2b 81       	ldd	r18, Y+3	; 0x03
    2798:	3c 81       	ldd	r19, Y+4	; 0x04
    279a:	89 81       	ldd	r24, Y+1	; 0x01
    279c:	9a 81       	ldd	r25, Y+2	; 0x02
    279e:	b9 01       	movw	r22, r18
    27a0:	d1 df       	rcall	.-94     	; 0x2744 <_ZN5PrintC1ERKS_>
    27a2:	89 81       	ldd	r24, Y+1	; 0x01
    27a4:	9a 81       	ldd	r25, Y+2	; 0x02
    27a6:	25 e8       	ldi	r18, 0x85	; 133
    27a8:	31 e0       	ldi	r19, 0x01	; 1
    27aa:	fc 01       	movw	r30, r24
    27ac:	31 83       	std	Z+1, r19	; 0x01
    27ae:	20 83       	st	Z, r18
    27b0:	8b 81       	ldd	r24, Y+3	; 0x03
    27b2:	9c 81       	ldd	r25, Y+4	; 0x04
    27b4:	fc 01       	movw	r30, r24
    27b6:	24 81       	ldd	r18, Z+4	; 0x04
    27b8:	89 81       	ldd	r24, Y+1	; 0x01
    27ba:	9a 81       	ldd	r25, Y+2	; 0x02
    27bc:	fc 01       	movw	r30, r24
    27be:	24 83       	std	Z+4, r18	; 0x04
    27c0:	8b 81       	ldd	r24, Y+3	; 0x03
    27c2:	9c 81       	ldd	r25, Y+4	; 0x04
    27c4:	fc 01       	movw	r30, r24
    27c6:	25 81       	ldd	r18, Z+5	; 0x05
    27c8:	89 81       	ldd	r24, Y+1	; 0x01
    27ca:	9a 81       	ldd	r25, Y+2	; 0x02
    27cc:	fc 01       	movw	r30, r24
    27ce:	25 83       	std	Z+5, r18	; 0x05
    27d0:	8b 81       	ldd	r24, Y+3	; 0x03
    27d2:	9c 81       	ldd	r25, Y+4	; 0x04
    27d4:	fc 01       	movw	r30, r24
    27d6:	26 81       	ldd	r18, Z+6	; 0x06
    27d8:	89 81       	ldd	r24, Y+1	; 0x01
    27da:	9a 81       	ldd	r25, Y+2	; 0x02
    27dc:	fc 01       	movw	r30, r24
    27de:	26 83       	std	Z+6, r18	; 0x06
    27e0:	89 81       	ldd	r24, Y+1	; 0x01
    27e2:	9a 81       	ldd	r25, Y+2	; 0x02
    27e4:	2b 81       	ldd	r18, Y+3	; 0x03
    27e6:	3c 81       	ldd	r19, Y+4	; 0x04
    27e8:	48 e0       	ldi	r20, 0x08	; 8
    27ea:	f9 01       	movw	r30, r18
    27ec:	37 96       	adiw	r30, 0x07	; 7
    27ee:	dc 01       	movw	r26, r24
    27f0:	17 96       	adiw	r26, 0x07	; 7
    27f2:	01 90       	ld	r0, Z+
    27f4:	0d 92       	st	X+, r0
    27f6:	4a 95       	dec	r20
    27f8:	e1 f7       	brne	.-8      	; 0x27f2 <_ZN13LiquidCrystalC1ERKS_+0x70>
    27fa:	8b 81       	ldd	r24, Y+3	; 0x03
    27fc:	9c 81       	ldd	r25, Y+4	; 0x04
    27fe:	fc 01       	movw	r30, r24
    2800:	27 85       	ldd	r18, Z+15	; 0x0f
    2802:	89 81       	ldd	r24, Y+1	; 0x01
    2804:	9a 81       	ldd	r25, Y+2	; 0x02
    2806:	fc 01       	movw	r30, r24
    2808:	27 87       	std	Z+15, r18	; 0x0f
    280a:	8b 81       	ldd	r24, Y+3	; 0x03
    280c:	9c 81       	ldd	r25, Y+4	; 0x04
    280e:	fc 01       	movw	r30, r24
    2810:	20 89       	ldd	r18, Z+16	; 0x10
    2812:	89 81       	ldd	r24, Y+1	; 0x01
    2814:	9a 81       	ldd	r25, Y+2	; 0x02
    2816:	fc 01       	movw	r30, r24
    2818:	20 8b       	std	Z+16, r18	; 0x10
    281a:	8b 81       	ldd	r24, Y+3	; 0x03
    281c:	9c 81       	ldd	r25, Y+4	; 0x04
    281e:	fc 01       	movw	r30, r24
    2820:	21 89       	ldd	r18, Z+17	; 0x11
    2822:	89 81       	ldd	r24, Y+1	; 0x01
    2824:	9a 81       	ldd	r25, Y+2	; 0x02
    2826:	fc 01       	movw	r30, r24
    2828:	21 8b       	std	Z+17, r18	; 0x11
    282a:	8b 81       	ldd	r24, Y+3	; 0x03
    282c:	9c 81       	ldd	r25, Y+4	; 0x04
    282e:	fc 01       	movw	r30, r24
    2830:	22 89       	ldd	r18, Z+18	; 0x12
    2832:	89 81       	ldd	r24, Y+1	; 0x01
    2834:	9a 81       	ldd	r25, Y+2	; 0x02
    2836:	fc 01       	movw	r30, r24
    2838:	22 8b       	std	Z+18, r18	; 0x12
    283a:	8b 81       	ldd	r24, Y+3	; 0x03
    283c:	9c 81       	ldd	r25, Y+4	; 0x04
    283e:	fc 01       	movw	r30, r24
    2840:	23 89       	ldd	r18, Z+19	; 0x13
    2842:	89 81       	ldd	r24, Y+1	; 0x01
    2844:	9a 81       	ldd	r25, Y+2	; 0x02
    2846:	fc 01       	movw	r30, r24
    2848:	23 8b       	std	Z+19, r18	; 0x13
    284a:	29 81       	ldd	r18, Y+1	; 0x01
    284c:	3a 81       	ldd	r19, Y+2	; 0x02
    284e:	8b 81       	ldd	r24, Y+3	; 0x03
    2850:	9c 81       	ldd	r25, Y+4	; 0x04
    2852:	fc 01       	movw	r30, r24
    2854:	84 89       	ldd	r24, Z+20	; 0x14
    2856:	95 89       	ldd	r25, Z+21	; 0x15
    2858:	a6 89       	ldd	r26, Z+22	; 0x16
    285a:	b7 89       	ldd	r27, Z+23	; 0x17
    285c:	f9 01       	movw	r30, r18
    285e:	84 8b       	std	Z+20, r24	; 0x14
    2860:	95 8b       	std	Z+21, r25	; 0x15
    2862:	a6 8b       	std	Z+22, r26	; 0x16
    2864:	b7 8b       	std	Z+23, r27	; 0x17
    2866:	24 96       	adiw	r28, 0x04	; 4
    2868:	e2 e0       	ldi	r30, 0x02	; 2
    286a:	0c 94 b2 2c 	jmp	0x5964	; 0x5964 <__epilogue_restores__+0x20>

0000286e <_ZN7LCDBaseC1ERKS_>:
    286e:	a4 e0       	ldi	r26, 0x04	; 4
    2870:	b0 e0       	ldi	r27, 0x00	; 0
    2872:	ed e3       	ldi	r30, 0x3D	; 61
    2874:	f4 e1       	ldi	r31, 0x14	; 20
    2876:	0c 94 96 2c 	jmp	0x592c	; 0x592c <__prologue_saves__+0x20>
    287a:	9a 83       	std	Y+2, r25	; 0x02
    287c:	89 83       	std	Y+1, r24	; 0x01
    287e:	7c 83       	std	Y+4, r23	; 0x04
    2880:	6b 83       	std	Y+3, r22	; 0x03
    2882:	2b 81       	ldd	r18, Y+3	; 0x03
    2884:	3c 81       	ldd	r19, Y+4	; 0x04
    2886:	89 81       	ldd	r24, Y+1	; 0x01
    2888:	9a 81       	ldd	r25, Y+2	; 0x02
    288a:	b9 01       	movw	r22, r18
    288c:	7a df       	rcall	.-268    	; 0x2782 <_ZN13LiquidCrystalC1ERKS_>
    288e:	89 81       	ldd	r24, Y+1	; 0x01
    2890:	9a 81       	ldd	r25, Y+2	; 0x02
    2892:	23 ea       	ldi	r18, 0xA3	; 163
    2894:	31 e0       	ldi	r19, 0x01	; 1
    2896:	fc 01       	movw	r30, r24
    2898:	31 83       	std	Z+1, r19	; 0x01
    289a:	20 83       	st	Z, r18
    289c:	89 81       	ldd	r24, Y+1	; 0x01
    289e:	9a 81       	ldd	r25, Y+2	; 0x02
    28a0:	2b 81       	ldd	r18, Y+3	; 0x03
    28a2:	3c 81       	ldd	r19, Y+4	; 0x04
    28a4:	4a e0       	ldi	r20, 0x0A	; 10
    28a6:	f9 01       	movw	r30, r18
    28a8:	78 96       	adiw	r30, 0x18	; 24
    28aa:	dc 01       	movw	r26, r24
    28ac:	58 96       	adiw	r26, 0x18	; 24
    28ae:	01 90       	ld	r0, Z+
    28b0:	0d 92       	st	X+, r0
    28b2:	4a 95       	dec	r20
    28b4:	e1 f7       	brne	.-8      	; 0x28ae <_ZN7LCDBaseC1ERKS_+0x40>
    28b6:	8b 81       	ldd	r24, Y+3	; 0x03
    28b8:	9c 81       	ldd	r25, Y+4	; 0x04
    28ba:	fc 01       	movw	r30, r24
    28bc:	22 a1       	ldd	r18, Z+34	; 0x22
    28be:	33 a1       	ldd	r19, Z+35	; 0x23
    28c0:	89 81       	ldd	r24, Y+1	; 0x01
    28c2:	9a 81       	ldd	r25, Y+2	; 0x02
    28c4:	fc 01       	movw	r30, r24
    28c6:	33 a3       	std	Z+35, r19	; 0x23
    28c8:	22 a3       	std	Z+34, r18	; 0x22
    28ca:	24 96       	adiw	r28, 0x04	; 4
    28cc:	e2 e0       	ldi	r30, 0x02	; 2
    28ce:	0c 94 b2 2c 	jmp	0x5964	; 0x5964 <__epilogue_restores__+0x20>

000028d2 <_ZN8PHSensorC1Eiib7LCDBasei>:
    28d2:	ab e0       	ldi	r26, 0x0B	; 11
    28d4:	b0 e0       	ldi	r27, 0x00	; 0
    28d6:	ef e6       	ldi	r30, 0x6F	; 111
    28d8:	f4 e1       	ldi	r31, 0x14	; 20
    28da:	0c 94 92 2c 	jmp	0x5924	; 0x5924 <__prologue_saves__+0x18>
    28de:	9a 83       	std	Y+2, r25	; 0x02
    28e0:	89 83       	std	Y+1, r24	; 0x01
    28e2:	7c 83       	std	Y+4, r23	; 0x04
    28e4:	6b 83       	std	Y+3, r22	; 0x03
    28e6:	5e 83       	std	Y+6, r21	; 0x06
    28e8:	4d 83       	std	Y+5, r20	; 0x05
    28ea:	2f 83       	std	Y+7, r18	; 0x07
    28ec:	19 87       	std	Y+9, r17	; 0x09
    28ee:	08 87       	std	Y+8, r16	; 0x08
    28f0:	fb 86       	std	Y+11, r15	; 0x0b
    28f2:	ea 86       	std	Y+10, r14	; 0x0a
    28f4:	89 81       	ldd	r24, Y+1	; 0x01
    28f6:	9a 81       	ldd	r25, Y+2	; 0x02
    28f8:	2b 81       	ldd	r18, Y+3	; 0x03
    28fa:	3c 81       	ldd	r19, Y+4	; 0x04
    28fc:	fc 01       	movw	r30, r24
    28fe:	31 83       	std	Z+1, r19	; 0x01
    2900:	20 83       	st	Z, r18
    2902:	89 81       	ldd	r24, Y+1	; 0x01
    2904:	9a 81       	ldd	r25, Y+2	; 0x02
    2906:	fc 01       	movw	r30, r24
    2908:	17 ae       	std	Z+63, r1	; 0x3f
    290a:	16 ae       	std	Z+62, r1	; 0x3e
    290c:	89 81       	ldd	r24, Y+1	; 0x01
    290e:	9a 81       	ldd	r25, Y+2	; 0x02
    2910:	80 5c       	subi	r24, 0xC0	; 192
    2912:	9f 4f       	sbci	r25, 0xFF	; 255
    2914:	2d 81       	ldd	r18, Y+5	; 0x05
    2916:	3e 81       	ldd	r19, Y+6	; 0x06
    2918:	fc 01       	movw	r30, r24
    291a:	31 83       	std	Z+1, r19	; 0x01
    291c:	20 83       	st	Z, r18
    291e:	89 81       	ldd	r24, Y+1	; 0x01
    2920:	9a 81       	ldd	r25, Y+2	; 0x02
    2922:	86 5b       	subi	r24, 0xB6	; 182
    2924:	9f 4f       	sbci	r25, 0xFF	; 255
    2926:	2f 81       	ldd	r18, Y+7	; 0x07
    2928:	fc 01       	movw	r30, r24
    292a:	20 83       	st	Z, r18
    292c:	89 81       	ldd	r24, Y+1	; 0x01
    292e:	9a 81       	ldd	r25, Y+2	; 0x02
    2930:	85 5b       	subi	r24, 0xB5	; 181
    2932:	9f 4f       	sbci	r25, 0xFF	; 255
    2934:	2a 85       	ldd	r18, Y+10	; 0x0a
    2936:	3b 85       	ldd	r19, Y+11	; 0x0b
    2938:	fc 01       	movw	r30, r24
    293a:	31 83       	std	Z+1, r19	; 0x01
    293c:	20 83       	st	Z, r18
    293e:	89 81       	ldd	r24, Y+1	; 0x01
    2940:	9a 81       	ldd	r25, Y+2	; 0x02
    2942:	82 5b       	subi	r24, 0xB2	; 178
    2944:	9f 4f       	sbci	r25, 0xFF	; 255
    2946:	28 85       	ldd	r18, Y+8	; 0x08
    2948:	39 85       	ldd	r19, Y+9	; 0x09
    294a:	b9 01       	movw	r22, r18
    294c:	90 df       	rcall	.-224    	; 0x286e <_ZN7LCDBaseC1ERKS_>
    294e:	89 81       	ldd	r24, Y+1	; 0x01
    2950:	9a 81       	ldd	r25, Y+2	; 0x02
    2952:	8e 58       	subi	r24, 0x8E	; 142
    2954:	9f 4f       	sbci	r25, 0xFF	; 255
    2956:	6f e1       	ldi	r22, 0x1F	; 31
    2958:	71 e0       	ldi	r23, 0x01	; 1
    295a:	0e 94 ba 29 	call	0x5374	; 0x5374 <_ZN6StringC1EPKc>
    295e:	89 81       	ldd	r24, Y+1	; 0x01
    2960:	9a 81       	ldd	r25, Y+2	; 0x02
    2962:	9c 01       	movw	r18, r24
    2964:	28 58       	subi	r18, 0x88	; 136
    2966:	3f 4f       	sbci	r19, 0xFF	; 255
    2968:	80 e0       	ldi	r24, 0x00	; 0
    296a:	90 e0       	ldi	r25, 0x00	; 0
    296c:	a0 e4       	ldi	r26, 0x40	; 64
    296e:	b0 e4       	ldi	r27, 0x40	; 64
    2970:	f9 01       	movw	r30, r18
    2972:	80 83       	st	Z, r24
    2974:	91 83       	std	Z+1, r25	; 0x01
    2976:	a2 83       	std	Z+2, r26	; 0x02
    2978:	b3 83       	std	Z+3, r27	; 0x03
    297a:	89 81       	ldd	r24, Y+1	; 0x01
    297c:	9a 81       	ldd	r25, Y+2	; 0x02
    297e:	04 d0       	rcall	.+8      	; 0x2988 <_ZN8PHSensor4initEv>
    2980:	2b 96       	adiw	r28, 0x0b	; 11
    2982:	e6 e0       	ldi	r30, 0x06	; 6
    2984:	0c 94 ae 2c 	jmp	0x595c	; 0x595c <__epilogue_restores__+0x18>

00002988 <_ZN8PHSensor4initEv>:
    2988:	a6 e0       	ldi	r26, 0x06	; 6
    298a:	b0 e0       	ldi	r27, 0x00	; 0
    298c:	ea ec       	ldi	r30, 0xCA	; 202
    298e:	f4 e1       	ldi	r31, 0x14	; 20
    2990:	0c 94 96 2c 	jmp	0x592c	; 0x592c <__prologue_saves__+0x20>
    2994:	9e 83       	std	Y+6, r25	; 0x06
    2996:	8d 83       	std	Y+5, r24	; 0x05
    2998:	61 e0       	ldi	r22, 0x01	; 1
    299a:	8d e0       	ldi	r24, 0x0D	; 13
    299c:	0e 94 c0 28 	call	0x5180	; 0x5180 <pinMode>
    29a0:	8d 81       	ldd	r24, Y+5	; 0x05
    29a2:	9e 81       	ldd	r25, Y+6	; 0x06
    29a4:	85 5b       	subi	r24, 0xB5	; 181
    29a6:	9f 4f       	sbci	r25, 0xFF	; 255
    29a8:	fc 01       	movw	r30, r24
    29aa:	80 81       	ld	r24, Z
    29ac:	91 81       	ldd	r25, Z+1	; 0x01
    29ae:	61 e0       	ldi	r22, 0x01	; 1
    29b0:	0e 94 c0 28 	call	0x5180	; 0x5180 <pinMode>
    29b4:	80 91 a7 01 	lds	r24, 0x01A7	; 0x8001a7 <_ZN6Memory13TheSensorsMemE>
    29b8:	90 91 a8 01 	lds	r25, 0x01A8	; 0x8001a8 <_ZN6Memory13TheSensorsMemE+0x1>
    29bc:	d5 d2       	rcall	.+1450   	; 0x2f68 <_ZN6EEWrapIfEcvKfEv>
    29be:	dc 01       	movw	r26, r24
    29c0:	cb 01       	movw	r24, r22
    29c2:	89 83       	std	Y+1, r24	; 0x01
    29c4:	9a 83       	std	Y+2, r25	; 0x02
    29c6:	ab 83       	std	Y+3, r26	; 0x03
    29c8:	bc 83       	std	Y+4, r27	; 0x04
    29ca:	29 81       	ldd	r18, Y+1	; 0x01
    29cc:	3a 81       	ldd	r19, Y+2	; 0x02
    29ce:	4b 81       	ldd	r20, Y+3	; 0x03
    29d0:	5c 81       	ldd	r21, Y+4	; 0x04
    29d2:	69 81       	ldd	r22, Y+1	; 0x01
    29d4:	7a 81       	ldd	r23, Y+2	; 0x02
    29d6:	8b 81       	ldd	r24, Y+3	; 0x03
    29d8:	9c 81       	ldd	r25, Y+4	; 0x04
    29da:	0e 94 51 24 	call	0x48a2	; 0x48a2 <__unordsf2>
    29de:	88 23       	and	r24, r24
    29e0:	71 f4       	brne	.+28     	; 0x29fe <_ZN8PHSensor4initEv+0x76>
    29e2:	8d 81       	ldd	r24, Y+5	; 0x05
    29e4:	9e 81       	ldd	r25, Y+6	; 0x06
    29e6:	9c 01       	movw	r18, r24
    29e8:	28 58       	subi	r18, 0x88	; 136
    29ea:	3f 4f       	sbci	r19, 0xFF	; 255
    29ec:	89 81       	ldd	r24, Y+1	; 0x01
    29ee:	9a 81       	ldd	r25, Y+2	; 0x02
    29f0:	ab 81       	ldd	r26, Y+3	; 0x03
    29f2:	bc 81       	ldd	r27, Y+4	; 0x04
    29f4:	f9 01       	movw	r30, r18
    29f6:	80 83       	st	Z, r24
    29f8:	91 83       	std	Z+1, r25	; 0x01
    29fa:	a2 83       	std	Z+2, r26	; 0x02
    29fc:	b3 83       	std	Z+3, r27	; 0x03
    29fe:	26 96       	adiw	r28, 0x06	; 6
    2a00:	e2 e0       	ldi	r30, 0x02	; 2
    2a02:	0c 94 b2 2c 	jmp	0x5964	; 0x5964 <__epilogue_restores__+0x20>

00002a06 <_ZN8PHSensor6UpdateEd>:
    2a06:	aa e0       	ldi	r26, 0x0A	; 10
    2a08:	b0 e0       	ldi	r27, 0x00	; 0
    2a0a:	e9 e0       	ldi	r30, 0x09	; 9
    2a0c:	f5 e1       	ldi	r31, 0x15	; 21
    2a0e:	0c 94 96 2c 	jmp	0x592c	; 0x592c <__prologue_saves__+0x20>
    2a12:	9e 83       	std	Y+6, r25	; 0x06
    2a14:	8d 83       	std	Y+5, r24	; 0x05
    2a16:	4f 83       	std	Y+7, r20	; 0x07
    2a18:	58 87       	std	Y+8, r21	; 0x08
    2a1a:	69 87       	std	Y+9, r22	; 0x09
    2a1c:	7a 87       	std	Y+10, r23	; 0x0a
    2a1e:	8d 81       	ldd	r24, Y+5	; 0x05
    2a20:	9e 81       	ldd	r25, Y+6	; 0x06
    2a22:	9c 01       	movw	r18, r24
    2a24:	28 58       	subi	r18, 0x88	; 136
    2a26:	3f 4f       	sbci	r19, 0xFF	; 255
    2a28:	8f 81       	ldd	r24, Y+7	; 0x07
    2a2a:	98 85       	ldd	r25, Y+8	; 0x08
    2a2c:	a9 85       	ldd	r26, Y+9	; 0x09
    2a2e:	ba 85       	ldd	r27, Y+10	; 0x0a
    2a30:	f9 01       	movw	r30, r18
    2a32:	80 83       	st	Z, r24
    2a34:	91 83       	std	Z+1, r25	; 0x01
    2a36:	a2 83       	std	Z+2, r26	; 0x02
    2a38:	b3 83       	std	Z+3, r27	; 0x03
    2a3a:	8d 81       	ldd	r24, Y+5	; 0x05
    2a3c:	9e 81       	ldd	r25, Y+6	; 0x06
    2a3e:	88 58       	subi	r24, 0x88	; 136
    2a40:	9f 4f       	sbci	r25, 0xFF	; 255
    2a42:	fc 01       	movw	r30, r24
    2a44:	80 81       	ld	r24, Z
    2a46:	91 81       	ldd	r25, Z+1	; 0x01
    2a48:	a2 81       	ldd	r26, Z+2	; 0x02
    2a4a:	b3 81       	ldd	r27, Z+3	; 0x03
    2a4c:	89 83       	std	Y+1, r24	; 0x01
    2a4e:	9a 83       	std	Y+2, r25	; 0x02
    2a50:	ab 83       	std	Y+3, r26	; 0x03
    2a52:	bc 83       	std	Y+4, r27	; 0x04
    2a54:	80 91 a7 01 	lds	r24, 0x01A7	; 0x8001a7 <_ZN6Memory13TheSensorsMemE>
    2a58:	90 91 a8 01 	lds	r25, 0x01A8	; 0x8001a8 <_ZN6Memory13TheSensorsMemE+0x1>
    2a5c:	9c 01       	movw	r18, r24
    2a5e:	ce 01       	movw	r24, r28
    2a60:	01 96       	adiw	r24, 0x01	; 1
    2a62:	bc 01       	movw	r22, r24
    2a64:	c9 01       	movw	r24, r18
    2a66:	93 d2       	rcall	.+1318   	; 0x2f8e <_ZN6EEWrapIfEaSERKf>
    2a68:	2a 96       	adiw	r28, 0x0a	; 10
    2a6a:	e2 e0       	ldi	r30, 0x02	; 2
    2a6c:	0c 94 b2 2c 	jmp	0x5964	; 0x5964 <__epilogue_restores__+0x20>

00002a70 <_ZN8PHSensor5GetPHEv>:
    2a70:	a8 e0       	ldi	r26, 0x08	; 8
    2a72:	b0 e0       	ldi	r27, 0x00	; 0
    2a74:	ee e3       	ldi	r30, 0x3E	; 62
    2a76:	f5 e1       	ldi	r31, 0x15	; 21
    2a78:	0c 94 96 2c 	jmp	0x592c	; 0x592c <__prologue_saves__+0x20>
    2a7c:	98 87       	std	Y+8, r25	; 0x08
    2a7e:	8f 83       	std	Y+7, r24	; 0x07
    2a80:	8f 81       	ldd	r24, Y+7	; 0x07
    2a82:	98 85       	ldd	r25, Y+8	; 0x08
    2a84:	8e 5b       	subi	r24, 0xBE	; 190
    2a86:	9f 4f       	sbci	r25, 0xFF	; 255
    2a88:	fc 01       	movw	r30, r24
    2a8a:	80 81       	ld	r24, Z
    2a8c:	91 81       	ldd	r25, Z+1	; 0x01
    2a8e:	a2 81       	ldd	r26, Z+2	; 0x02
    2a90:	b3 81       	ldd	r27, Z+3	; 0x03
    2a92:	22 e0       	ldi	r18, 0x02	; 2
    2a94:	ac 01       	movw	r20, r24
    2a96:	bd 01       	movw	r22, r26
    2a98:	ce 01       	movw	r24, r28
    2a9a:	01 96       	adiw	r24, 0x01	; 1
    2a9c:	0e 94 55 2a 	call	0x54aa	; 0x54aa <_ZN6StringC1Efh>
    2aa0:	ce 01       	movw	r24, r28
    2aa2:	01 96       	adiw	r24, 0x01	; 1
    2aa4:	39 dd       	rcall	.-1422   	; 0x2518 <_ZNK6String5c_strEv>
    2aa6:	9c 01       	movw	r18, r24
    2aa8:	8f 81       	ldd	r24, Y+7	; 0x07
    2aaa:	98 85       	ldd	r25, Y+8	; 0x08
    2aac:	8e 58       	subi	r24, 0x8E	; 142
    2aae:	9f 4f       	sbci	r25, 0xFF	; 255
    2ab0:	b9 01       	movw	r22, r18
    2ab2:	0e 94 eb 29 	call	0x53d6	; 0x53d6 <_ZN6StringaSEPKc>
    2ab6:	ce 01       	movw	r24, r28
    2ab8:	01 96       	adiw	r24, 0x01	; 1
    2aba:	0e 94 53 29 	call	0x52a6	; 0x52a6 <_ZN6StringD1Ev>
    2abe:	8f 81       	ldd	r24, Y+7	; 0x07
    2ac0:	98 85       	ldd	r25, Y+8	; 0x08
    2ac2:	8e 5b       	subi	r24, 0xBE	; 190
    2ac4:	9f 4f       	sbci	r25, 0xFF	; 255
    2ac6:	fc 01       	movw	r30, r24
    2ac8:	80 81       	ld	r24, Z
    2aca:	91 81       	ldd	r25, Z+1	; 0x01
    2acc:	a2 81       	ldd	r26, Z+2	; 0x02
    2ace:	b3 81       	ldd	r27, Z+3	; 0x03
    2ad0:	bc 01       	movw	r22, r24
    2ad2:	cd 01       	movw	r24, r26
    2ad4:	28 96       	adiw	r28, 0x08	; 8
    2ad6:	e2 e0       	ldi	r30, 0x02	; 2
    2ad8:	0c 94 b2 2c 	jmp	0x5964	; 0x5964 <__epilogue_restores__+0x20>

00002adc <_ZN8PHSensor11CalculatePHEv>:
    2adc:	a2 e0       	ldi	r26, 0x02	; 2
    2ade:	b0 e0       	ldi	r27, 0x00	; 0
    2ae0:	e4 e7       	ldi	r30, 0x74	; 116
    2ae2:	f5 e1       	ldi	r31, 0x15	; 21
    2ae4:	0c 94 96 2c 	jmp	0x592c	; 0x592c <__prologue_saves__+0x20>
    2ae8:	9a 83       	std	Y+2, r25	; 0x02
    2aea:	89 83       	std	Y+1, r24	; 0x01
    2aec:	89 81       	ldd	r24, Y+1	; 0x01
    2aee:	9a 81       	ldd	r25, Y+2	; 0x02
    2af0:	83 5b       	subi	r24, 0xB3	; 179
    2af2:	9f 4f       	sbci	r25, 0xFF	; 255
    2af4:	fc 01       	movw	r30, r24
    2af6:	90 81       	ld	r25, Z
    2af8:	81 e0       	ldi	r24, 0x01	; 1
    2afa:	89 27       	eor	r24, r25
    2afc:	88 23       	and	r24, r24
    2afe:	09 f0       	breq	.+2      	; 0x2b02 <_ZN8PHSensor11CalculatePHEv+0x26>
    2b00:	0e c0       	rjmp	.+28     	; 0x2b1e <_ZN8PHSensor11CalculatePHEv+0x42>
    2b02:	89 81       	ldd	r24, Y+1	; 0x01
    2b04:	9a 81       	ldd	r25, Y+2	; 0x02
    2b06:	0f d0       	rcall	.+30     	; 0x2b26 <_ZN8PHSensor10getPHValueEv>
    2b08:	dc 01       	movw	r26, r24
    2b0a:	cb 01       	movw	r24, r22
    2b0c:	29 81       	ldd	r18, Y+1	; 0x01
    2b0e:	3a 81       	ldd	r19, Y+2	; 0x02
    2b10:	2e 5b       	subi	r18, 0xBE	; 190
    2b12:	3f 4f       	sbci	r19, 0xFF	; 255
    2b14:	f9 01       	movw	r30, r18
    2b16:	80 83       	st	Z, r24
    2b18:	91 83       	std	Z+1, r25	; 0x01
    2b1a:	a2 83       	std	Z+2, r26	; 0x02
    2b1c:	b3 83       	std	Z+3, r27	; 0x03
    2b1e:	22 96       	adiw	r28, 0x02	; 2
    2b20:	e2 e0       	ldi	r30, 0x02	; 2
    2b22:	0c 94 b2 2c 	jmp	0x5964	; 0x5964 <__epilogue_restores__+0x20>

00002b26 <_ZN8PHSensor10getPHValueEv>:
    2b26:	ae e0       	ldi	r26, 0x0E	; 14
    2b28:	b0 e0       	ldi	r27, 0x00	; 0
    2b2a:	e9 e9       	ldi	r30, 0x99	; 153
    2b2c:	f5 e1       	ldi	r31, 0x15	; 21
    2b2e:	0c 94 92 2c 	jmp	0x5924	; 0x5924 <__prologue_saves__+0x18>
    2b32:	9e 87       	std	Y+14, r25	; 0x0e
    2b34:	8d 87       	std	Y+13, r24	; 0x0d
    2b36:	8e ee       	ldi	r24, 0xEE	; 238
    2b38:	92 e0       	ldi	r25, 0x02	; 2
    2b3a:	fc 01       	movw	r30, r24
    2b3c:	80 81       	ld	r24, Z
    2b3e:	88 23       	and	r24, r24
    2b40:	89 f4       	brne	.+34     	; 0x2b64 <_ZN8PHSensor10getPHValueEv+0x3e>
    2b42:	0e 94 ca 27 	call	0x4f94	; 0x4f94 <millis>
    2b46:	dc 01       	movw	r26, r24
    2b48:	cb 01       	movw	r24, r22
    2b4a:	80 93 fe 02 	sts	0x02FE, r24	; 0x8002fe <_ZZN8PHSensor10getPHValueEvE12samplingTime>
    2b4e:	90 93 ff 02 	sts	0x02FF, r25	; 0x8002ff <_ZZN8PHSensor10getPHValueEvE12samplingTime+0x1>
    2b52:	a0 93 00 03 	sts	0x0300, r26	; 0x800300 <_ZZN8PHSensor10getPHValueEvE12samplingTime+0x2>
    2b56:	b0 93 01 03 	sts	0x0301, r27	; 0x800301 <_ZZN8PHSensor10getPHValueEvE12samplingTime+0x3>
    2b5a:	8e ee       	ldi	r24, 0xEE	; 238
    2b5c:	92 e0       	ldi	r25, 0x02	; 2
    2b5e:	21 e0       	ldi	r18, 0x01	; 1
    2b60:	fc 01       	movw	r30, r24
    2b62:	20 83       	st	Z, r18
    2b64:	0e 94 ca 27 	call	0x4f94	; 0x4f94 <millis>
    2b68:	9b 01       	movw	r18, r22
    2b6a:	ac 01       	movw	r20, r24
    2b6c:	80 91 fe 02 	lds	r24, 0x02FE	; 0x8002fe <_ZZN8PHSensor10getPHValueEvE12samplingTime>
    2b70:	90 91 ff 02 	lds	r25, 0x02FF	; 0x8002ff <_ZZN8PHSensor10getPHValueEvE12samplingTime+0x1>
    2b74:	a0 91 00 03 	lds	r26, 0x0300	; 0x800300 <_ZZN8PHSensor10getPHValueEvE12samplingTime+0x2>
    2b78:	b0 91 01 03 	lds	r27, 0x0301	; 0x800301 <_ZZN8PHSensor10getPHValueEvE12samplingTime+0x3>
    2b7c:	79 01       	movw	r14, r18
    2b7e:	8a 01       	movw	r16, r20
    2b80:	e8 1a       	sub	r14, r24
    2b82:	f9 0a       	sbc	r15, r25
    2b84:	0a 0b       	sbc	r16, r26
    2b86:	1b 0b       	sbc	r17, r27
    2b88:	d8 01       	movw	r26, r16
    2b8a:	c7 01       	movw	r24, r14
    2b8c:	21 e0       	ldi	r18, 0x01	; 1
    2b8e:	89 3e       	cpi	r24, 0xE9	; 233
    2b90:	93 40       	sbci	r25, 0x03	; 3
    2b92:	a1 05       	cpc	r26, r1
    2b94:	b1 05       	cpc	r27, r1
    2b96:	08 f4       	brcc	.+2      	; 0x2b9a <_ZN8PHSensor10getPHValueEv+0x74>
    2b98:	20 e0       	ldi	r18, 0x00	; 0
    2b9a:	22 23       	and	r18, r18
    2b9c:	09 f4       	brne	.+2      	; 0x2ba0 <_ZN8PHSensor10getPHValueEv+0x7a>
    2b9e:	cf c0       	rjmp	.+414    	; 0x2d3e <_ZN8PHSensor10getPHValueEv+0x218>
    2ba0:	8e e1       	ldi	r24, 0x1E	; 30
    2ba2:	90 e0       	ldi	r25, 0x00	; 0
    2ba4:	9e 83       	std	Y+6, r25	; 0x06
    2ba6:	8d 83       	std	Y+5, r24	; 0x05
    2ba8:	8d 85       	ldd	r24, Y+13	; 0x0d
    2baa:	9e 85       	ldd	r25, Y+14	; 0x0e
    2bac:	fc 01       	movw	r30, r24
    2bae:	80 81       	ld	r24, Z
    2bb0:	91 81       	ldd	r25, Z+1	; 0x01
    2bb2:	0e 94 7a 28 	call	0x50f4	; 0x50f4 <analogRead>
    2bb6:	98 87       	std	Y+8, r25	; 0x08
    2bb8:	8f 83       	std	Y+7, r24	; 0x07
    2bba:	8a ec       	ldi	r24, 0xCA	; 202
    2bbc:	93 e0       	ldi	r25, 0x03	; 3
    2bbe:	bc 01       	movw	r22, r24
    2bc0:	85 e1       	ldi	r24, 0x15	; 21
    2bc2:	95 e0       	ldi	r25, 0x05	; 5
    2bc4:	0e 94 55 26 	call	0x4caa	; 0x4caa <_ZN5Print5printEPK19__FlashStringHelper>
    2bc8:	8f 81       	ldd	r24, Y+7	; 0x07
    2bca:	98 85       	ldd	r25, Y+8	; 0x08
    2bcc:	4a e0       	ldi	r20, 0x0A	; 10
    2bce:	50 e0       	ldi	r21, 0x00	; 0
    2bd0:	bc 01       	movw	r22, r24
    2bd2:	85 e1       	ldi	r24, 0x15	; 21
    2bd4:	95 e0       	ldi	r25, 0x05	; 5
    2bd6:	0e 94 4a 27 	call	0x4e94	; 0x4e94 <_ZN5Print7printlnEii>
    2bda:	8d 85       	ldd	r24, Y+13	; 0x0d
    2bdc:	9e 85       	ldd	r25, Y+14	; 0x0e
    2bde:	fc 01       	movw	r30, r24
    2be0:	86 ad       	ldd	r24, Z+62	; 0x3e
    2be2:	97 ad       	ldd	r25, Z+63	; 0x3f
    2be4:	ac 01       	movw	r20, r24
    2be6:	4f 5f       	subi	r20, 0xFF	; 255
    2be8:	5f 4f       	sbci	r21, 0xFF	; 255
    2bea:	2d 85       	ldd	r18, Y+13	; 0x0d
    2bec:	3e 85       	ldd	r19, Y+14	; 0x0e
    2bee:	f9 01       	movw	r30, r18
    2bf0:	57 af       	std	Z+63, r21	; 0x3f
    2bf2:	46 af       	std	Z+62, r20	; 0x3e
    2bf4:	2d 85       	ldd	r18, Y+13	; 0x0d
    2bf6:	3e 85       	ldd	r19, Y+14	; 0x0e
    2bf8:	01 96       	adiw	r24, 0x01	; 1
    2bfa:	88 0f       	add	r24, r24
    2bfc:	99 1f       	adc	r25, r25
    2bfe:	82 0f       	add	r24, r18
    2c00:	93 1f       	adc	r25, r19
    2c02:	2f 81       	ldd	r18, Y+7	; 0x07
    2c04:	38 85       	ldd	r19, Y+8	; 0x08
    2c06:	fc 01       	movw	r30, r24
    2c08:	31 83       	std	Z+1, r19	; 0x01
    2c0a:	20 83       	st	Z, r18
    2c0c:	8d 85       	ldd	r24, Y+13	; 0x0d
    2c0e:	9e 85       	ldd	r25, Y+14	; 0x0e
    2c10:	fc 01       	movw	r30, r24
    2c12:	26 ad       	ldd	r18, Z+62	; 0x3e
    2c14:	37 ad       	ldd	r19, Z+63	; 0x3f
    2c16:	8d 81       	ldd	r24, Y+5	; 0x05
    2c18:	9e 81       	ldd	r25, Y+6	; 0x06
    2c1a:	28 17       	cp	r18, r24
    2c1c:	39 07       	cpc	r19, r25
    2c1e:	29 f4       	brne	.+10     	; 0x2c2a <_ZN8PHSensor10getPHValueEv+0x104>
    2c20:	8d 85       	ldd	r24, Y+13	; 0x0d
    2c22:	9e 85       	ldd	r25, Y+14	; 0x0e
    2c24:	fc 01       	movw	r30, r24
    2c26:	17 ae       	std	Z+63, r1	; 0x3f
    2c28:	16 ae       	std	Z+62, r1	; 0x3e
    2c2a:	8d 85       	ldd	r24, Y+13	; 0x0d
    2c2c:	9e 85       	ldd	r25, Y+14	; 0x0e
    2c2e:	02 96       	adiw	r24, 0x02	; 2
    2c30:	2d 81       	ldd	r18, Y+5	; 0x05
    2c32:	3e 81       	ldd	r19, Y+6	; 0x06
    2c34:	b9 01       	movw	r22, r18
    2c36:	10 db       	rcall	.-2528   	; 0x2258 <_ZN7MathExt16CalculateAverageEPii>
    2c38:	dc 01       	movw	r26, r24
    2c3a:	cb 01       	movw	r24, r22
    2c3c:	89 87       	std	Y+9, r24	; 0x09
    2c3e:	9a 87       	std	Y+10, r25	; 0x0a
    2c40:	ab 87       	std	Y+11, r26	; 0x0b
    2c42:	bc 87       	std	Y+12, r27	; 0x0c
    2c44:	20 e0       	ldi	r18, 0x00	; 0
    2c46:	30 e0       	ldi	r19, 0x00	; 0
    2c48:	40 ea       	ldi	r20, 0xA0	; 160
    2c4a:	50 e4       	ldi	r21, 0x40	; 64
    2c4c:	69 85       	ldd	r22, Y+9	; 0x09
    2c4e:	7a 85       	ldd	r23, Y+10	; 0x0a
    2c50:	8b 85       	ldd	r24, Y+11	; 0x0b
    2c52:	9c 85       	ldd	r25, Y+12	; 0x0c
    2c54:	0e 94 ee 23 	call	0x47dc	; 0x47dc <__mulsf3>
    2c58:	dc 01       	movw	r26, r24
    2c5a:	cb 01       	movw	r24, r22
    2c5c:	20 e0       	ldi	r18, 0x00	; 0
    2c5e:	30 e0       	ldi	r19, 0x00	; 0
    2c60:	40 e8       	ldi	r20, 0x80	; 128
    2c62:	54 e4       	ldi	r21, 0x44	; 68
    2c64:	bc 01       	movw	r22, r24
    2c66:	cd 01       	movw	r24, r26
    2c68:	0e 94 a3 22 	call	0x4546	; 0x4546 <__divsf3>
    2c6c:	dc 01       	movw	r26, r24
    2c6e:	cb 01       	movw	r24, r22
    2c70:	2d 85       	ldd	r18, Y+13	; 0x0d
    2c72:	3e 85       	ldd	r19, Y+14	; 0x0e
    2c74:	2a 5b       	subi	r18, 0xBA	; 186
    2c76:	3f 4f       	sbci	r19, 0xFF	; 255
    2c78:	f9 01       	movw	r30, r18
    2c7a:	80 83       	st	Z, r24
    2c7c:	91 83       	std	Z+1, r25	; 0x01
    2c7e:	a2 83       	std	Z+2, r26	; 0x02
    2c80:	b3 83       	std	Z+3, r27	; 0x03
    2c82:	8d 85       	ldd	r24, Y+13	; 0x0d
    2c84:	9e 85       	ldd	r25, Y+14	; 0x0e
    2c86:	8a 5b       	subi	r24, 0xBA	; 186
    2c88:	9f 4f       	sbci	r25, 0xFF	; 255
    2c8a:	fc 01       	movw	r30, r24
    2c8c:	80 81       	ld	r24, Z
    2c8e:	91 81       	ldd	r25, Z+1	; 0x01
    2c90:	a2 81       	ldd	r26, Z+2	; 0x02
    2c92:	b3 81       	ldd	r27, Z+3	; 0x03
    2c94:	9c 01       	movw	r18, r24
    2c96:	ad 01       	movw	r20, r26
    2c98:	60 e0       	ldi	r22, 0x00	; 0
    2c9a:	70 e0       	ldi	r23, 0x00	; 0
    2c9c:	80 e2       	ldi	r24, 0x20	; 32
    2c9e:	90 e4       	ldi	r25, 0x40	; 64
    2ca0:	0e 94 3a 22 	call	0x4474	; 0x4474 <__subsf3>
    2ca4:	dc 01       	movw	r26, r24
    2ca6:	cb 01       	movw	r24, r22
    2ca8:	2c ee       	ldi	r18, 0xEC	; 236
    2caa:	31 e5       	ldi	r19, 0x51	; 81
    2cac:	48 e3       	ldi	r20, 0x38	; 56
    2cae:	5e e3       	ldi	r21, 0x3E	; 62
    2cb0:	bc 01       	movw	r22, r24
    2cb2:	cd 01       	movw	r24, r26
    2cb4:	0e 94 a3 22 	call	0x4546	; 0x4546 <__divsf3>
    2cb8:	dc 01       	movw	r26, r24
    2cba:	cb 01       	movw	r24, r22
    2cbc:	20 e0       	ldi	r18, 0x00	; 0
    2cbe:	30 e0       	ldi	r19, 0x00	; 0
    2cc0:	40 ee       	ldi	r20, 0xE0	; 224
    2cc2:	50 e4       	ldi	r21, 0x40	; 64
    2cc4:	bc 01       	movw	r22, r24
    2cc6:	cd 01       	movw	r24, r26
    2cc8:	0e 94 3b 22 	call	0x4476	; 0x4476 <__addsf3>
    2ccc:	dc 01       	movw	r26, r24
    2cce:	cb 01       	movw	r24, r22
    2cd0:	7c 01       	movw	r14, r24
    2cd2:	8d 01       	movw	r16, r26
    2cd4:	8d 85       	ldd	r24, Y+13	; 0x0d
    2cd6:	9e 85       	ldd	r25, Y+14	; 0x0e
    2cd8:	88 58       	subi	r24, 0x88	; 136
    2cda:	9f 4f       	sbci	r25, 0xFF	; 255
    2cdc:	fc 01       	movw	r30, r24
    2cde:	80 81       	ld	r24, Z
    2ce0:	91 81       	ldd	r25, Z+1	; 0x01
    2ce2:	a2 81       	ldd	r26, Z+2	; 0x02
    2ce4:	b3 81       	ldd	r27, Z+3	; 0x03
    2ce6:	9c 01       	movw	r18, r24
    2ce8:	ad 01       	movw	r20, r26
    2cea:	c8 01       	movw	r24, r16
    2cec:	b7 01       	movw	r22, r14
    2cee:	0e 94 3b 22 	call	0x4476	; 0x4476 <__addsf3>
    2cf2:	dc 01       	movw	r26, r24
    2cf4:	cb 01       	movw	r24, r22
    2cf6:	89 83       	std	Y+1, r24	; 0x01
    2cf8:	9a 83       	std	Y+2, r25	; 0x02
    2cfa:	ab 83       	std	Y+3, r26	; 0x03
    2cfc:	bc 83       	std	Y+4, r27	; 0x04
    2cfe:	20 e0       	ldi	r18, 0x00	; 0
    2d00:	30 e0       	ldi	r19, 0x00	; 0
    2d02:	a9 01       	movw	r20, r18
    2d04:	69 81       	ldd	r22, Y+1	; 0x01
    2d06:	7a 81       	ldd	r23, Y+2	; 0x02
    2d08:	8b 81       	ldd	r24, Y+3	; 0x03
    2d0a:	9c 81       	ldd	r25, Y+4	; 0x04
    2d0c:	0e 94 9f 22 	call	0x453e	; 0x453e <__cmpsf2>
    2d10:	88 23       	and	r24, r24
    2d12:	24 f4       	brge	.+8      	; 0x2d1c <_ZN8PHSensor10getPHValueEv+0x1f6>
    2d14:	19 82       	std	Y+1, r1	; 0x01
    2d16:	1a 82       	std	Y+2, r1	; 0x02
    2d18:	1b 82       	std	Y+3, r1	; 0x03
    2d1a:	1c 82       	std	Y+4, r1	; 0x04
    2d1c:	0e 94 ca 27 	call	0x4f94	; 0x4f94 <millis>
    2d20:	dc 01       	movw	r26, r24
    2d22:	cb 01       	movw	r24, r22
    2d24:	80 93 fe 02 	sts	0x02FE, r24	; 0x8002fe <_ZZN8PHSensor10getPHValueEvE12samplingTime>
    2d28:	90 93 ff 02 	sts	0x02FF, r25	; 0x8002ff <_ZZN8PHSensor10getPHValueEvE12samplingTime+0x1>
    2d2c:	a0 93 00 03 	sts	0x0300, r26	; 0x800300 <_ZZN8PHSensor10getPHValueEvE12samplingTime+0x2>
    2d30:	b0 93 01 03 	sts	0x0301, r27	; 0x800301 <_ZZN8PHSensor10getPHValueEvE12samplingTime+0x3>
    2d34:	89 81       	ldd	r24, Y+1	; 0x01
    2d36:	9a 81       	ldd	r25, Y+2	; 0x02
    2d38:	ab 81       	ldd	r26, Y+3	; 0x03
    2d3a:	bc 81       	ldd	r27, Y+4	; 0x04
    2d3c:	09 c0       	rjmp	.+18     	; 0x2d50 <_ZN8PHSensor10getPHValueEv+0x22a>
    2d3e:	8d 85       	ldd	r24, Y+13	; 0x0d
    2d40:	9e 85       	ldd	r25, Y+14	; 0x0e
    2d42:	8e 5b       	subi	r24, 0xBE	; 190
    2d44:	9f 4f       	sbci	r25, 0xFF	; 255
    2d46:	fc 01       	movw	r30, r24
    2d48:	80 81       	ld	r24, Z
    2d4a:	91 81       	ldd	r25, Z+1	; 0x01
    2d4c:	a2 81       	ldd	r26, Z+2	; 0x02
    2d4e:	b3 81       	ldd	r27, Z+3	; 0x03
    2d50:	bc 01       	movw	r22, r24
    2d52:	cd 01       	movw	r24, r26
    2d54:	2e 96       	adiw	r28, 0x0e	; 14
    2d56:	e6 e0       	ldi	r30, 0x06	; 6
    2d58:	0c 94 ae 2c 	jmp	0x595c	; 0x595c <__epilogue_restores__+0x18>

00002d5c <_ZN15StringSumHelperD1Ev>:
       #if __cplusplus >= 201103L || defined(__GXX_EXPERIMENTAL_CXX0X__)
	void move(String &rhs);
	#endif
};

class StringSumHelper : public String
    2d5c:	a2 e0       	ldi	r26, 0x02	; 2
    2d5e:	b0 e0       	ldi	r27, 0x00	; 0
    2d60:	e4 eb       	ldi	r30, 0xB4	; 180
    2d62:	f6 e1       	ldi	r31, 0x16	; 22
    2d64:	0c 94 96 2c 	jmp	0x592c	; 0x592c <__prologue_saves__+0x20>
    2d68:	9a 83       	std	Y+2, r25	; 0x02
    2d6a:	89 83       	std	Y+1, r24	; 0x01
    2d6c:	89 81       	ldd	r24, Y+1	; 0x01
    2d6e:	9a 81       	ldd	r25, Y+2	; 0x02
    2d70:	0e 94 53 29 	call	0x52a6	; 0x52a6 <_ZN6StringD1Ev>
    2d74:	22 96       	adiw	r28, 0x02	; 2
    2d76:	e2 e0       	ldi	r30, 0x02	; 2
    2d78:	0c 94 b2 2c 	jmp	0x5964	; 0x5964 <__epilogue_restores__+0x20>

00002d7c <_ZN8PHSensor12PrintPHToLCDEv>:
void PHSensor::PrintPHToLCD() {
    2d7c:	aa e1       	ldi	r26, 0x1A	; 26
    2d7e:	b0 e0       	ldi	r27, 0x00	; 0
    2d80:	e4 ec       	ldi	r30, 0xC4	; 196
    2d82:	f6 e1       	ldi	r31, 0x16	; 22
    2d84:	0c 94 94 2c 	jmp	0x5928	; 0x5928 <__prologue_saves__+0x1c>
    2d88:	9a 8f       	std	Y+26, r25	; 0x1a
    2d8a:	89 8f       	std	Y+25, r24	; 0x19
    GetPH();
    2d8c:	89 8d       	ldd	r24, Y+25	; 0x19
    2d8e:	9a 8d       	ldd	r25, Y+26	; 0x1a
    2d90:	6f de       	rcall	.-802    	; 0x2a70 <_ZN8PHSensor5GetPHEv>
    static unsigned long printTime = millis();
    2d92:	86 ef       	ldi	r24, 0xF6	; 246
    2d94:	92 e0       	ldi	r25, 0x02	; 2
    2d96:	fc 01       	movw	r30, r24
    2d98:	80 81       	ld	r24, Z
    2d9a:	88 23       	and	r24, r24
    2d9c:	89 f4       	brne	.+34     	; 0x2dc0 <_ZN8PHSensor12PrintPHToLCDEv+0x44>
    2d9e:	0e 94 ca 27 	call	0x4f94	; 0x4f94 <millis>
    2da2:	dc 01       	movw	r26, r24
    2da4:	cb 01       	movw	r24, r22
    2da6:	80 93 02 03 	sts	0x0302, r24	; 0x800302 <_ZZN8PHSensor12PrintPHToLCDEvE9printTime>
    2daa:	90 93 03 03 	sts	0x0303, r25	; 0x800303 <_ZZN8PHSensor12PrintPHToLCDEvE9printTime+0x1>
    2dae:	a0 93 04 03 	sts	0x0304, r26	; 0x800304 <_ZZN8PHSensor12PrintPHToLCDEvE9printTime+0x2>
    2db2:	b0 93 05 03 	sts	0x0305, r27	; 0x800305 <_ZZN8PHSensor12PrintPHToLCDEvE9printTime+0x3>
    2db6:	86 ef       	ldi	r24, 0xF6	; 246
    2db8:	92 e0       	ldi	r25, 0x02	; 2
    2dba:	21 e0       	ldi	r18, 0x01	; 1
    2dbc:	fc 01       	movw	r30, r24
    2dbe:	20 83       	st	Z, r18
    if(millis() - printTime > _printPHEvery + 400) { //Every 800 milliseconds, print a numerical, convert the state of the LED indicator
    2dc0:	0e 94 ca 27 	call	0x4f94	; 0x4f94 <millis>
    2dc4:	9b 01       	movw	r18, r22
    2dc6:	ac 01       	movw	r20, r24
    2dc8:	80 91 02 03 	lds	r24, 0x0302	; 0x800302 <_ZZN8PHSensor12PrintPHToLCDEvE9printTime>
    2dcc:	90 91 03 03 	lds	r25, 0x0303	; 0x800303 <_ZZN8PHSensor12PrintPHToLCDEvE9printTime+0x1>
    2dd0:	a0 91 04 03 	lds	r26, 0x0304	; 0x800304 <_ZZN8PHSensor12PrintPHToLCDEvE9printTime+0x2>
    2dd4:	b0 91 05 03 	lds	r27, 0x0305	; 0x800305 <_ZZN8PHSensor12PrintPHToLCDEvE9printTime+0x3>
    2dd8:	28 1b       	sub	r18, r24
    2dda:	39 0b       	sbc	r19, r25
    2ddc:	4a 0b       	sbc	r20, r26
    2dde:	5b 0b       	sbc	r21, r27
    2de0:	89 8d       	ldd	r24, Y+25	; 0x19
    2de2:	9a 8d       	ldd	r25, Y+26	; 0x1a
    2de4:	80 5c       	subi	r24, 0xC0	; 192
    2de6:	9f 4f       	sbci	r25, 0xFF	; 255
    2de8:	fc 01       	movw	r30, r24
    2dea:	80 81       	ld	r24, Z
    2dec:	91 81       	ldd	r25, Z+1	; 0x01
    2dee:	80 57       	subi	r24, 0x70	; 112
    2df0:	9e 4f       	sbci	r25, 0xFE	; 254
    2df2:	09 2e       	mov	r0, r25
    2df4:	00 0c       	add	r0, r0
    2df6:	aa 0b       	sbc	r26, r26
    2df8:	bb 0b       	sbc	r27, r27
    2dfa:	61 e0       	ldi	r22, 0x01	; 1
    2dfc:	82 17       	cp	r24, r18
    2dfe:	93 07       	cpc	r25, r19
    2e00:	a4 07       	cpc	r26, r20
    2e02:	b5 07       	cpc	r27, r21
    2e04:	08 f0       	brcs	.+2      	; 0x2e08 <_ZN8PHSensor12PrintPHToLCDEv+0x8c>
    2e06:	60 e0       	ldi	r22, 0x00	; 0
    2e08:	66 23       	and	r22, r22
    2e0a:	09 f4       	brne	.+2      	; 0x2e0e <_ZN8PHSensor12PrintPHToLCDEv+0x92>
    2e0c:	6a c0       	rjmp	.+212    	; 0x2ee2 <_ZN8PHSensor12PrintPHToLCDEv+0x166>
        if(_printToLCD) {
    2e0e:	89 8d       	ldd	r24, Y+25	; 0x19
    2e10:	9a 8d       	ldd	r25, Y+26	; 0x1a
    2e12:	86 5b       	subi	r24, 0xB6	; 182
    2e14:	9f 4f       	sbci	r25, 0xFF	; 255
    2e16:	fc 01       	movw	r30, r24
    2e18:	80 81       	ld	r24, Z
    2e1a:	88 23       	and	r24, r24
    2e1c:	09 f4       	brne	.+2      	; 0x2e20 <_ZN8PHSensor12PrintPHToLCDEv+0xa4>
    2e1e:	55 c0       	rjmp	.+170    	; 0x2eca <_ZN8PHSensor12PrintPHToLCDEv+0x14e>
            //Serial.print(F("LCD Print: "));
            //Serial.println(tankPH, 2);
            String enabled = "";
    2e20:	ce 01       	movw	r24, r28
    2e22:	0d 96       	adiw	r24, 0x0d	; 13
    2e24:	6f e1       	ldi	r22, 0x1F	; 31
    2e26:	71 e0       	ldi	r23, 0x01	; 1
    2e28:	0e 94 ba 29 	call	0x5374	; 0x5374 <_ZN6StringC1EPKc>
            if(_enabled) {
    2e2c:	89 8d       	ldd	r24, Y+25	; 0x19
    2e2e:	9a 8d       	ldd	r25, Y+26	; 0x1a
    2e30:	83 5b       	subi	r24, 0xB3	; 179
    2e32:	9f 4f       	sbci	r25, 0xFF	; 255
    2e34:	fc 01       	movw	r30, r24
    2e36:	80 81       	ld	r24, Z
    2e38:	88 23       	and	r24, r24
    2e3a:	31 f0       	breq	.+12     	; 0x2e48 <_ZN8PHSensor12PrintPHToLCDEv+0xcc>
                enabled = "<";
    2e3c:	ce 01       	movw	r24, r28
    2e3e:	0d 96       	adiw	r24, 0x0d	; 13
    2e40:	60 e2       	ldi	r22, 0x20	; 32
    2e42:	71 e0       	ldi	r23, 0x01	; 1
    2e44:	0e 94 eb 29 	call	0x53d6	; 0x53d6 <_ZN6StringaSEPKc>
            }

            String text = "PH: " + PhString + " " + enabled;
    2e48:	89 8d       	ldd	r24, Y+25	; 0x19
    2e4a:	9a 8d       	ldd	r25, Y+26	; 0x1a
    2e4c:	8c 01       	movw	r16, r24
    2e4e:	0e 58       	subi	r16, 0x8E	; 142
    2e50:	1f 4f       	sbci	r17, 0xFF	; 255
    2e52:	ce 01       	movw	r24, r28
    2e54:	07 96       	adiw	r24, 0x07	; 7
    2e56:	62 e2       	ldi	r22, 0x22	; 34
    2e58:	71 e0       	ldi	r23, 0x01	; 1
    2e5a:	6f db       	rcall	.-2338   	; 0x253a <_ZN15StringSumHelperC1EPKc>
    2e5c:	ce 01       	movw	r24, r28
    2e5e:	07 96       	adiw	r24, 0x07	; 7
    2e60:	b8 01       	movw	r22, r16
    2e62:	0e 94 fd 2a 	call	0x55fa	; 0x55fa <_ZplRK15StringSumHelperRK6String>
    2e66:	67 e2       	ldi	r22, 0x27	; 39
    2e68:	71 e0       	ldi	r23, 0x01	; 1
    2e6a:	0e 94 0e 2b 	call	0x561c	; 0x561c <_ZplRK15StringSumHelperPKc>
    2e6e:	9c 01       	movw	r18, r24
    2e70:	ce 01       	movw	r24, r28
    2e72:	0d 96       	adiw	r24, 0x0d	; 13
    2e74:	bc 01       	movw	r22, r24
    2e76:	c9 01       	movw	r24, r18
    2e78:	0e 94 fd 2a 	call	0x55fa	; 0x55fa <_ZplRK15StringSumHelperRK6String>
    2e7c:	9c 01       	movw	r18, r24
    2e7e:	ce 01       	movw	r24, r28
    2e80:	43 96       	adiw	r24, 0x13	; 19
    2e82:	b9 01       	movw	r22, r18
    2e84:	0e 94 e3 29 	call	0x53c6	; 0x53c6 <_ZN6StringC1ERKS_>
    2e88:	ce 01       	movw	r24, r28
    2e8a:	07 96       	adiw	r24, 0x07	; 7
    2e8c:	67 df       	rcall	.-306    	; 0x2d5c <_ZN15StringSumHelperD1Ev>
            _lcd.PrintLine(0, text);
    2e8e:	ce 01       	movw	r24, r28
    2e90:	43 96       	adiw	r24, 0x13	; 19
    2e92:	bc 01       	movw	r22, r24
    2e94:	ce 01       	movw	r24, r28
    2e96:	01 96       	adiw	r24, 0x01	; 1
    2e98:	0e 94 e3 29 	call	0x53c6	; 0x53c6 <_ZN6StringC1ERKS_>
    2e9c:	89 8d       	ldd	r24, Y+25	; 0x19
    2e9e:	9a 8d       	ldd	r25, Y+26	; 0x1a
    2ea0:	82 5b       	subi	r24, 0xB2	; 178
    2ea2:	9f 4f       	sbci	r25, 0xFF	; 255
    2ea4:	9e 01       	movw	r18, r28
    2ea6:	2f 5f       	subi	r18, 0xFF	; 255
    2ea8:	3f 4f       	sbci	r19, 0xFF	; 255
    2eaa:	a9 01       	movw	r20, r18
    2eac:	60 e0       	ldi	r22, 0x00	; 0
    2eae:	70 e0       	ldi	r23, 0x00	; 0
    2eb0:	21 d9       	rcall	.-3518   	; 0x20f4 <_ZN7LCDBase9PrintLineEs6String>
    2eb2:	ce 01       	movw	r24, r28
    2eb4:	01 96       	adiw	r24, 0x01	; 1
    2eb6:	0e 94 53 29 	call	0x52a6	; 0x52a6 <_ZN6StringD1Ev>
            String enabled = "";
            if(_enabled) {
                enabled = "<";
            }

            String text = "PH: " + PhString + " " + enabled;
    2eba:	ce 01       	movw	r24, r28
    2ebc:	43 96       	adiw	r24, 0x13	; 19
    2ebe:	0e 94 53 29 	call	0x52a6	; 0x52a6 <_ZN6StringD1Ev>
            _lcd.PrintLine(0, text);
    2ec2:	ce 01       	movw	r24, r28
    2ec4:	0d 96       	adiw	r24, 0x0d	; 13
    2ec6:	0e 94 53 29 	call	0x52a6	; 0x52a6 <_ZN6StringD1Ev>
        }
        //digitalWrite(13, digitalRead(13) ^ 1);
        printTime = millis();
    2eca:	0e 94 ca 27 	call	0x4f94	; 0x4f94 <millis>
    2ece:	dc 01       	movw	r26, r24
    2ed0:	cb 01       	movw	r24, r22
    2ed2:	80 93 02 03 	sts	0x0302, r24	; 0x800302 <_ZZN8PHSensor12PrintPHToLCDEvE9printTime>
    2ed6:	90 93 03 03 	sts	0x0303, r25	; 0x800303 <_ZZN8PHSensor12PrintPHToLCDEvE9printTime+0x1>
    2eda:	a0 93 04 03 	sts	0x0304, r26	; 0x800304 <_ZZN8PHSensor12PrintPHToLCDEvE9printTime+0x2>
    2ede:	b0 93 05 03 	sts	0x0305, r27	; 0x800305 <_ZZN8PHSensor12PrintPHToLCDEvE9printTime+0x3>
    }
}
    2ee2:	6a 96       	adiw	r28, 0x1a	; 26
    2ee4:	e4 e0       	ldi	r30, 0x04	; 4
    2ee6:	0c 94 b0 2c 	jmp	0x5960	; 0x5960 <__epilogue_restores__+0x1c>

00002eea <_ZN8PHSensor6TurnOnEv>:



void PHSensor::TurnOn() {
    2eea:	a2 e0       	ldi	r26, 0x02	; 2
    2eec:	b0 e0       	ldi	r27, 0x00	; 0
    2eee:	eb e7       	ldi	r30, 0x7B	; 123
    2ef0:	f7 e1       	ldi	r31, 0x17	; 23
    2ef2:	0c 94 96 2c 	jmp	0x592c	; 0x592c <__prologue_saves__+0x20>
    2ef6:	9a 83       	std	Y+2, r25	; 0x02
    2ef8:	89 83       	std	Y+1, r24	; 0x01
    _enabled = true;
    2efa:	89 81       	ldd	r24, Y+1	; 0x01
    2efc:	9a 81       	ldd	r25, Y+2	; 0x02
    2efe:	83 5b       	subi	r24, 0xB3	; 179
    2f00:	9f 4f       	sbci	r25, 0xFF	; 255
    2f02:	21 e0       	ldi	r18, 0x01	; 1
    2f04:	fc 01       	movw	r30, r24
    2f06:	20 83       	st	Z, r18
    digitalWrite(_relayPin, HIGH);
    2f08:	89 81       	ldd	r24, Y+1	; 0x01
    2f0a:	9a 81       	ldd	r25, Y+2	; 0x02
    2f0c:	85 5b       	subi	r24, 0xB5	; 181
    2f0e:	9f 4f       	sbci	r25, 0xFF	; 255
    2f10:	fc 01       	movw	r30, r24
    2f12:	80 81       	ld	r24, Z
    2f14:	91 81       	ldd	r25, Z+1	; 0x01
    2f16:	61 e0       	ldi	r22, 0x01	; 1
    2f18:	0e 94 fc 28 	call	0x51f8	; 0x51f8 <digitalWrite>
}
    2f1c:	22 96       	adiw	r28, 0x02	; 2
    2f1e:	e2 e0       	ldi	r30, 0x02	; 2
    2f20:	0c 94 b2 2c 	jmp	0x5964	; 0x5964 <__epilogue_restores__+0x20>

00002f24 <_ZN8PHSensor7TurnOffEv>:

void PHSensor::TurnOff() {
    2f24:	a2 e0       	ldi	r26, 0x02	; 2
    2f26:	b0 e0       	ldi	r27, 0x00	; 0
    2f28:	e8 e9       	ldi	r30, 0x98	; 152
    2f2a:	f7 e1       	ldi	r31, 0x17	; 23
    2f2c:	0c 94 96 2c 	jmp	0x592c	; 0x592c <__prologue_saves__+0x20>
    2f30:	9a 83       	std	Y+2, r25	; 0x02
    2f32:	89 83       	std	Y+1, r24	; 0x01
    _enabled = false;
    2f34:	89 81       	ldd	r24, Y+1	; 0x01
    2f36:	9a 81       	ldd	r25, Y+2	; 0x02
    2f38:	83 5b       	subi	r24, 0xB3	; 179
    2f3a:	9f 4f       	sbci	r25, 0xFF	; 255
    2f3c:	fc 01       	movw	r30, r24
    2f3e:	10 82       	st	Z, r1
    digitalWrite(_relayPin, LOW);
    2f40:	89 81       	ldd	r24, Y+1	; 0x01
    2f42:	9a 81       	ldd	r25, Y+2	; 0x02
    2f44:	85 5b       	subi	r24, 0xB5	; 181
    2f46:	9f 4f       	sbci	r25, 0xFF	; 255
    2f48:	fc 01       	movw	r30, r24
    2f4a:	80 81       	ld	r24, Z
    2f4c:	91 81       	ldd	r25, Z+1	; 0x01
    2f4e:	60 e0       	ldi	r22, 0x00	; 0
    2f50:	0e 94 fc 28 	call	0x51f8	; 0x51f8 <digitalWrite>
    delay(1000);
    2f54:	68 ee       	ldi	r22, 0xE8	; 232
    2f56:	73 e0       	ldi	r23, 0x03	; 3
    2f58:	80 e0       	ldi	r24, 0x00	; 0
    2f5a:	90 e0       	ldi	r25, 0x00	; 0
    2f5c:	0e 94 fb 27 	call	0x4ff6	; 0x4ff6 <delay>

}
    2f60:	22 96       	adiw	r28, 0x02	; 2
    2f62:	e2 e0       	ldi	r30, 0x02	; 2
    2f64:	0c 94 b2 2c 	jmp	0x5964	; 0x5964 <__epilogue_restores__+0x20>

00002f68 <_ZN6EEWrapIfEcvKfEv>:
            ee::EEMode<T>::Extension{

        using ee::EEMode<T>::Interface::EERead;
        using ee::EEMode<T>::Interface::EEWrite;

        operator const T() { return EERead(); }
    2f68:	a2 e0       	ldi	r26, 0x02	; 2
    2f6a:	b0 e0       	ldi	r27, 0x00	; 0
    2f6c:	ea eb       	ldi	r30, 0xBA	; 186
    2f6e:	f7 e1       	ldi	r31, 0x17	; 23
    2f70:	0c 94 96 2c 	jmp	0x592c	; 0x592c <__prologue_saves__+0x20>
    2f74:	9a 83       	std	Y+2, r25	; 0x02
    2f76:	89 83       	std	Y+1, r24	; 0x01
    2f78:	89 81       	ldd	r24, Y+1	; 0x01
    2f7a:	9a 81       	ldd	r25, Y+2	; 0x02
    2f7c:	1c d0       	rcall	.+56     	; 0x2fb6 <_ZN2ee11EEMultiByteI6EEWrapIfEfE6EEReadEv>
    2f7e:	dc 01       	movw	r26, r24
    2f80:	cb 01       	movw	r24, r22
    2f82:	bc 01       	movw	r22, r24
    2f84:	cd 01       	movw	r24, r26
    2f86:	22 96       	adiw	r28, 0x02	; 2
    2f88:	e2 e0       	ldi	r30, 0x02	; 2
    2f8a:	0c 94 b2 2c 	jmp	0x5964	; 0x5964 <__epilogue_restores__+0x20>

00002f8e <_ZN6EEWrapIfEaSERKf>:
        EEWrap &operator =( const T &in ){  return EEWrite( in ); }
    2f8e:	a4 e0       	ldi	r26, 0x04	; 4
    2f90:	b0 e0       	ldi	r27, 0x00	; 0
    2f92:	ed ec       	ldi	r30, 0xCD	; 205
    2f94:	f7 e1       	ldi	r31, 0x17	; 23
    2f96:	0c 94 96 2c 	jmp	0x592c	; 0x592c <__prologue_saves__+0x20>
    2f9a:	9a 83       	std	Y+2, r25	; 0x02
    2f9c:	89 83       	std	Y+1, r24	; 0x01
    2f9e:	7c 83       	std	Y+4, r23	; 0x04
    2fa0:	6b 83       	std	Y+3, r22	; 0x03
    2fa2:	2b 81       	ldd	r18, Y+3	; 0x03
    2fa4:	3c 81       	ldd	r19, Y+4	; 0x04
    2fa6:	89 81       	ldd	r24, Y+1	; 0x01
    2fa8:	9a 81       	ldd	r25, Y+2	; 0x02
    2faa:	b9 01       	movw	r22, r18
    2fac:	24 d0       	rcall	.+72     	; 0x2ff6 <_ZN2ee11EEMultiByteI6EEWrapIfEfE7EEWriteERKf>
    2fae:	24 96       	adiw	r28, 0x04	; 4
    2fb0:	e2 e0       	ldi	r30, 0x02	; 2
    2fb2:	0c 94 b2 2c 	jmp	0x5964	; 0x5964 <__epilogue_restores__+0x20>

00002fb6 <_ZN2ee11EEMultiByteI6EEWrapIfEfE6EEReadEv>:

    template< typename D, typename T >
    class EEMultiByte{
        public:

        T EERead( void ){
    2fb6:	a6 e0       	ldi	r26, 0x06	; 6
    2fb8:	b0 e0       	ldi	r27, 0x00	; 0
    2fba:	e1 ee       	ldi	r30, 0xE1	; 225
    2fbc:	f7 e1       	ldi	r31, 0x17	; 23
    2fbe:	0c 94 96 2c 	jmp	0x592c	; 0x592c <__prologue_saves__+0x20>
    2fc2:	9e 83       	std	Y+6, r25	; 0x06
    2fc4:	8d 83       	std	Y+5, r24	; 0x05
            T ret;
            tools::EEReadBlockElement( (char*)&ret + sizeof(T) - 1, uptr(&self()), sizeof(T) );
    2fc6:	8d 81       	ldd	r24, Y+5	; 0x05
    2fc8:	9e 81       	ldd	r25, Y+6	; 0x06
    2fca:	33 d0       	rcall	.+102    	; 0x3032 <_ZN2ee11EEMultiByteI6EEWrapIfEfE4selfEv>
    2fcc:	bc 01       	movw	r22, r24
    2fce:	83 e0       	ldi	r24, 0x03	; 3
    2fd0:	90 e0       	ldi	r25, 0x00	; 0
    2fd2:	9e 01       	movw	r18, r28
    2fd4:	2f 5f       	subi	r18, 0xFF	; 255
    2fd6:	3f 4f       	sbci	r19, 0xFF	; 255
    2fd8:	82 0f       	add	r24, r18
    2fda:	93 1f       	adc	r25, r19
    2fdc:	44 e0       	ldi	r20, 0x04	; 4
    2fde:	50 e0       	ldi	r21, 0x00	; 0
    2fe0:	40 db       	rcall	.-2432   	; 0x2662 <_ZN2ee5tools18EEReadBlockElementEPcPhj>
            return(ret);
    2fe2:	89 81       	ldd	r24, Y+1	; 0x01
    2fe4:	9a 81       	ldd	r25, Y+2	; 0x02
    2fe6:	ab 81       	ldd	r26, Y+3	; 0x03
    2fe8:	bc 81       	ldd	r27, Y+4	; 0x04
        }
    2fea:	bc 01       	movw	r22, r24
    2fec:	cd 01       	movw	r24, r26
    2fee:	26 96       	adiw	r28, 0x06	; 6
    2ff0:	e2 e0       	ldi	r30, 0x02	; 2
    2ff2:	0c 94 b2 2c 	jmp	0x5964	; 0x5964 <__epilogue_restores__+0x20>

00002ff6 <_ZN2ee11EEMultiByteI6EEWrapIfEfE7EEWriteERKf>:

        D &EEWrite( const T& v ){
    2ff6:	a4 e0       	ldi	r26, 0x04	; 4
    2ff8:	b0 e0       	ldi	r27, 0x00	; 0
    2ffa:	e1 e0       	ldi	r30, 0x01	; 1
    2ffc:	f8 e1       	ldi	r31, 0x18	; 24
    2ffe:	0c 94 96 2c 	jmp	0x592c	; 0x592c <__prologue_saves__+0x20>
    3002:	9a 83       	std	Y+2, r25	; 0x02
    3004:	89 83       	std	Y+1, r24	; 0x01
    3006:	7c 83       	std	Y+4, r23	; 0x04
    3008:	6b 83       	std	Y+3, r22	; 0x03
            tools::EEWriteBlockElement( (const char*) &v + sizeof(T) - 1, uptr(&self()), sizeof(T) );
    300a:	89 81       	ldd	r24, Y+1	; 0x01
    300c:	9a 81       	ldd	r25, Y+2	; 0x02
    300e:	11 d0       	rcall	.+34     	; 0x3032 <_ZN2ee11EEMultiByteI6EEWrapIfEfE4selfEv>
    3010:	bc 01       	movw	r22, r24
    3012:	83 e0       	ldi	r24, 0x03	; 3
    3014:	90 e0       	ldi	r25, 0x00	; 0
    3016:	2b 81       	ldd	r18, Y+3	; 0x03
    3018:	3c 81       	ldd	r19, Y+4	; 0x04
    301a:	82 0f       	add	r24, r18
    301c:	93 1f       	adc	r25, r19
    301e:	44 e0       	ldi	r20, 0x04	; 4
    3020:	50 e0       	ldi	r21, 0x00	; 0
    3022:	56 db       	rcall	.-2388   	; 0x26d0 <_ZN2ee5tools19EEWriteBlockElementEPKcPhj>
            return self();
    3024:	89 81       	ldd	r24, Y+1	; 0x01
    3026:	9a 81       	ldd	r25, Y+2	; 0x02
    3028:	04 d0       	rcall	.+8      	; 0x3032 <_ZN2ee11EEMultiByteI6EEWrapIfEfE4selfEv>
        }
    302a:	24 96       	adiw	r28, 0x04	; 4
    302c:	e2 e0       	ldi	r30, 0x02	; 2
    302e:	0c 94 b2 2c 	jmp	0x5964	; 0x5964 <__epilogue_restores__+0x20>

00003032 <_ZN2ee11EEMultiByteI6EEWrapIfEfE4selfEv>:
        protected: STATIC_ACCESS
    3032:	a2 e0       	ldi	r26, 0x02	; 2
    3034:	b0 e0       	ldi	r27, 0x00	; 0
    3036:	ef e1       	ldi	r30, 0x1F	; 31
    3038:	f8 e1       	ldi	r31, 0x18	; 24
    303a:	0c 94 96 2c 	jmp	0x592c	; 0x592c <__prologue_saves__+0x20>
    303e:	9a 83       	std	Y+2, r25	; 0x02
    3040:	89 83       	std	Y+1, r24	; 0x01
    3042:	89 81       	ldd	r24, Y+1	; 0x01
    3044:	9a 81       	ldd	r25, Y+2	; 0x02
    3046:	22 96       	adiw	r28, 0x02	; 2
    3048:	e2 e0       	ldi	r30, 0x02	; 2
    304a:	0c 94 b2 2c 	jmp	0x5964	; 0x5964 <__epilogue_restores__+0x20>

0000304e <_ZN9TDSSensorC1Eiib7LCDBasei>:


//TDSSensor::TDSSensor(int pin, int printPHEvery, LCDBase lcd) :
//TDSSensor(pin, printPHEvery, false, lcd) {}

TDSSensor::TDSSensor(int pin, int printTDSEvery, bool printToLCD, LCDBase lcd, int relayPin):
    304e:	ab e0       	ldi	r26, 0x0B	; 11
    3050:	b0 e0       	ldi	r27, 0x00	; 0
    3052:	ed e2       	ldi	r30, 0x2D	; 45
    3054:	f8 e1       	ldi	r31, 0x18	; 24
    3056:	0c 94 92 2c 	jmp	0x5924	; 0x5924 <__prologue_saves__+0x18>
    305a:	9a 83       	std	Y+2, r25	; 0x02
    305c:	89 83       	std	Y+1, r24	; 0x01
    305e:	7c 83       	std	Y+4, r23	; 0x04
    3060:	6b 83       	std	Y+3, r22	; 0x03
    3062:	5e 83       	std	Y+6, r21	; 0x06
    3064:	4d 83       	std	Y+5, r20	; 0x05
    3066:	2f 83       	std	Y+7, r18	; 0x07
    3068:	19 87       	std	Y+9, r17	; 0x09
    306a:	08 87       	std	Y+8, r16	; 0x08
    306c:	fb 86       	std	Y+11, r15	; 0x0b
    306e:	ea 86       	std	Y+10, r14	; 0x0a
    _pin(pin), _printTDSEvery(printTDSEvery), _printToLCD(printToLCD), _lcd(lcd), _relayPin(relayPin) {
    3070:	89 81       	ldd	r24, Y+1	; 0x01
    3072:	9a 81       	ldd	r25, Y+2	; 0x02
    3074:	2b 81       	ldd	r18, Y+3	; 0x03
    3076:	3c 81       	ldd	r19, Y+4	; 0x04
    3078:	fc 01       	movw	r30, r24
    307a:	31 83       	std	Z+1, r19	; 0x01
    307c:	20 83       	st	Z, r18
    307e:	89 81       	ldd	r24, Y+1	; 0x01
    3080:	9a 81       	ldd	r25, Y+2	; 0x02
    3082:	fc 01       	movw	r30, r24
    3084:	17 8a       	std	Z+23, r1	; 0x17
    3086:	16 8a       	std	Z+22, r1	; 0x16
    3088:	89 81       	ldd	r24, Y+1	; 0x01
    308a:	9a 81       	ldd	r25, Y+2	; 0x02
    308c:	2d 81       	ldd	r18, Y+5	; 0x05
    308e:	3e 81       	ldd	r19, Y+6	; 0x06
    3090:	fc 01       	movw	r30, r24
    3092:	31 8f       	std	Z+25, r19	; 0x19
    3094:	20 8f       	std	Z+24, r18	; 0x18
    3096:	89 81       	ldd	r24, Y+1	; 0x01
    3098:	9a 81       	ldd	r25, Y+2	; 0x02
    309a:	2f 81       	ldd	r18, Y+7	; 0x07
    309c:	fc 01       	movw	r30, r24
    309e:	26 8f       	std	Z+30, r18	; 0x1e
    30a0:	89 81       	ldd	r24, Y+1	; 0x01
    30a2:	9a 81       	ldd	r25, Y+2	; 0x02
    30a4:	2a 85       	ldd	r18, Y+10	; 0x0a
    30a6:	3b 85       	ldd	r19, Y+11	; 0x0b
    30a8:	fc 01       	movw	r30, r24
    30aa:	30 a3       	std	Z+32, r19	; 0x20
    30ac:	27 8f       	std	Z+31, r18	; 0x1f
    30ae:	89 81       	ldd	r24, Y+1	; 0x01
    30b0:	9a 81       	ldd	r25, Y+2	; 0x02
    30b2:	fc 01       	movw	r30, r24
    30b4:	13 a2       	std	Z+35, r1	; 0x23
    30b6:	12 a2       	std	Z+34, r1	; 0x22
    30b8:	89 81       	ldd	r24, Y+1	; 0x01
    30ba:	9a 81       	ldd	r25, Y+2	; 0x02
    30bc:	84 96       	adiw	r24, 0x24	; 36
    30be:	28 85       	ldd	r18, Y+8	; 0x08
    30c0:	39 85       	ldd	r19, Y+9	; 0x09
    30c2:	b9 01       	movw	r22, r18
    30c4:	d4 db       	rcall	.-2136   	; 0x286e <_ZN7LCDBaseC1ERKS_>
    30c6:	89 81       	ldd	r24, Y+1	; 0x01
    30c8:	9a 81       	ldd	r25, Y+2	; 0x02
    30ca:	88 5b       	subi	r24, 0xB8	; 184
    30cc:	9f 4f       	sbci	r25, 0xFF	; 255
    30ce:	69 e2       	ldi	r22, 0x29	; 41
    30d0:	71 e0       	ldi	r23, 0x01	; 1
    30d2:	0e 94 ba 29 	call	0x5374	; 0x5374 <_ZN6StringC1EPKc>
    30d6:	89 81       	ldd	r24, Y+1	; 0x01
    30d8:	9a 81       	ldd	r25, Y+2	; 0x02
    30da:	82 5b       	subi	r24, 0xB2	; 178
    30dc:	9f 4f       	sbci	r25, 0xFF	; 255
    30de:	2e e0       	ldi	r18, 0x0E	; 14
    30e0:	31 e0       	ldi	r19, 0x01	; 1
    30e2:	fc 01       	movw	r30, r24
    30e4:	31 83       	std	Z+1, r19	; 0x01
    30e6:	20 83       	st	Z, r18
    init();
    30e8:	89 81       	ldd	r24, Y+1	; 0x01
    30ea:	9a 81       	ldd	r25, Y+2	; 0x02
    30ec:	04 d0       	rcall	.+8      	; 0x30f6 <_ZN9TDSSensor4initEv>
}
    30ee:	2b 96       	adiw	r28, 0x0b	; 11
    30f0:	e6 e0       	ldi	r30, 0x06	; 6
    30f2:	0c 94 ae 2c 	jmp	0x595c	; 0x595c <__epilogue_restores__+0x18>

000030f6 <_ZN9TDSSensor4initEv>:

//PHSensor::PHSensor() :
//PHSensor(0, 0, false) {}

void TDSSensor::init() {
    30f6:	a6 e0       	ldi	r26, 0x06	; 6
    30f8:	b0 e0       	ldi	r27, 0x00	; 0
    30fa:	e1 e8       	ldi	r30, 0x81	; 129
    30fc:	f8 e1       	ldi	r31, 0x18	; 24
    30fe:	0c 94 96 2c 	jmp	0x592c	; 0x592c <__prologue_saves__+0x20>
    3102:	9e 83       	std	Y+6, r25	; 0x06
    3104:	8d 83       	std	Y+5, r24	; 0x05
    //led to show board working
    pinMode(13, OUTPUT);
    3106:	61 e0       	ldi	r22, 0x01	; 1
    3108:	8d e0       	ldi	r24, 0x0D	; 13
    310a:	0e 94 c0 28 	call	0x5180	; 0x5180 <pinMode>
    pinMode(_relayPin, OUTPUT);
    310e:	8d 81       	ldd	r24, Y+5	; 0x05
    3110:	9e 81       	ldd	r25, Y+6	; 0x06
    3112:	fc 01       	movw	r30, r24
    3114:	87 8d       	ldd	r24, Z+31	; 0x1f
    3116:	90 a1       	ldd	r25, Z+32	; 0x20
    3118:	61 e0       	ldi	r22, 0x01	; 1
    311a:	0e 94 c0 28 	call	0x5180	; 0x5180 <pinMode>
    //TdsOffset.load();
    //if(isnan(TdsOffset)) {
    //TdsOffset = 1210;
    //}

    double offset = TheSensorsMem.TdsOffset;
    311e:	80 91 a7 01 	lds	r24, 0x01A7	; 0x8001a7 <_ZN6Memory13TheSensorsMemE>
    3122:	90 91 a8 01 	lds	r25, 0x01A8	; 0x8001a8 <_ZN6Memory13TheSensorsMemE+0x1>
    3126:	04 96       	adiw	r24, 0x04	; 4
    3128:	73 d2       	rcall	.+1254   	; 0x3610 <_ZN6EEWrapIiEcvKiEv>
    312a:	09 2e       	mov	r0, r25
    312c:	00 0c       	add	r0, r0
    312e:	aa 0b       	sbc	r26, r26
    3130:	bb 0b       	sbc	r27, r27
    3132:	bc 01       	movw	r22, r24
    3134:	cd 01       	movw	r24, r26
    3136:	0e 94 3e 23 	call	0x467c	; 0x467c <__floatsisf>
    313a:	dc 01       	movw	r26, r24
    313c:	cb 01       	movw	r24, r22
    313e:	89 83       	std	Y+1, r24	; 0x01
    3140:	9a 83       	std	Y+2, r25	; 0x02
    3142:	ab 83       	std	Y+3, r26	; 0x03
    3144:	bc 83       	std	Y+4, r27	; 0x04
    if(!isnan(offset)) {
    3146:	29 81       	ldd	r18, Y+1	; 0x01
    3148:	3a 81       	ldd	r19, Y+2	; 0x02
    314a:	4b 81       	ldd	r20, Y+3	; 0x03
    314c:	5c 81       	ldd	r21, Y+4	; 0x04
    314e:	69 81       	ldd	r22, Y+1	; 0x01
    3150:	7a 81       	ldd	r23, Y+2	; 0x02
    3152:	8b 81       	ldd	r24, Y+3	; 0x03
    3154:	9c 81       	ldd	r25, Y+4	; 0x04
    3156:	0e 94 51 24 	call	0x48a2	; 0x48a2 <__unordsf2>
    315a:	88 23       	and	r24, r24
    315c:	81 f4       	brne	.+32     	; 0x317e <_ZN9TDSSensor4initEv+0x88>
        Offset = offset;
    315e:	69 81       	ldd	r22, Y+1	; 0x01
    3160:	7a 81       	ldd	r23, Y+2	; 0x02
    3162:	8b 81       	ldd	r24, Y+3	; 0x03
    3164:	9c 81       	ldd	r25, Y+4	; 0x04
    3166:	0e 94 0b 23 	call	0x4616	; 0x4616 <__fixsfsi>
    316a:	dc 01       	movw	r26, r24
    316c:	cb 01       	movw	r24, r22
    316e:	9c 01       	movw	r18, r24
    3170:	8d 81       	ldd	r24, Y+5	; 0x05
    3172:	9e 81       	ldd	r25, Y+6	; 0x06
    3174:	82 5b       	subi	r24, 0xB2	; 178
    3176:	9f 4f       	sbci	r25, 0xFF	; 255
    3178:	fc 01       	movw	r30, r24
    317a:	31 83       	std	Z+1, r19	; 0x01
    317c:	20 83       	st	Z, r18
    }
}
    317e:	26 96       	adiw	r28, 0x06	; 6
    3180:	e2 e0       	ldi	r30, 0x02	; 2
    3182:	0c 94 b2 2c 	jmp	0x5964	; 0x5964 <__epilogue_restores__+0x20>

00003186 <_ZN9TDSSensor6UpdateEi>:
void TDSSensor::Update(int offset) {
    3186:	a4 e0       	ldi	r26, 0x04	; 4
    3188:	b0 e0       	ldi	r27, 0x00	; 0
    318a:	e9 ec       	ldi	r30, 0xC9	; 201
    318c:	f8 e1       	ldi	r31, 0x18	; 24
    318e:	0c 94 96 2c 	jmp	0x592c	; 0x592c <__prologue_saves__+0x20>
    3192:	9a 83       	std	Y+2, r25	; 0x02
    3194:	89 83       	std	Y+1, r24	; 0x01
    3196:	7c 83       	std	Y+4, r23	; 0x04
    3198:	6b 83       	std	Y+3, r22	; 0x03
    Offset = offset;
    319a:	89 81       	ldd	r24, Y+1	; 0x01
    319c:	9a 81       	ldd	r25, Y+2	; 0x02
    319e:	82 5b       	subi	r24, 0xB2	; 178
    31a0:	9f 4f       	sbci	r25, 0xFF	; 255
    31a2:	2b 81       	ldd	r18, Y+3	; 0x03
    31a4:	3c 81       	ldd	r19, Y+4	; 0x04
    31a6:	fc 01       	movw	r30, r24
    31a8:	31 83       	std	Z+1, r19	; 0x01
    31aa:	20 83       	st	Z, r18
    TheSensorsMem.TdsOffset = Offset;
    31ac:	89 81       	ldd	r24, Y+1	; 0x01
    31ae:	9a 81       	ldd	r25, Y+2	; 0x02
    31b0:	9c 01       	movw	r18, r24
    31b2:	22 5b       	subi	r18, 0xB2	; 178
    31b4:	3f 4f       	sbci	r19, 0xFF	; 255
    31b6:	80 91 a7 01 	lds	r24, 0x01A7	; 0x8001a7 <_ZN6Memory13TheSensorsMemE>
    31ba:	90 91 a8 01 	lds	r25, 0x01A8	; 0x8001a8 <_ZN6Memory13TheSensorsMemE+0x1>
    31be:	04 96       	adiw	r24, 0x04	; 4
    31c0:	b9 01       	movw	r22, r18
    31c2:	35 d2       	rcall	.+1130   	; 0x362e <_ZN6EEWrapIiEaSERKi>
}
    31c4:	24 96       	adiw	r28, 0x04	; 4
    31c6:	e2 e0       	ldi	r30, 0x02	; 2
    31c8:	0c 94 b2 2c 	jmp	0x5964	; 0x5964 <__epilogue_restores__+0x20>

000031cc <_ZN9TDSSensor6GetTDSEv>:

double TDSSensor::GetTDS() {
    31cc:	a8 e0       	ldi	r26, 0x08	; 8
    31ce:	b0 e0       	ldi	r27, 0x00	; 0
    31d0:	ec ee       	ldi	r30, 0xEC	; 236
    31d2:	f8 e1       	ldi	r31, 0x18	; 24
    31d4:	0c 94 96 2c 	jmp	0x592c	; 0x592c <__prologue_saves__+0x20>
    31d8:	98 87       	std	Y+8, r25	; 0x08
    31da:	8f 83       	std	Y+7, r24	; 0x07

    TdsString = String(_tdsValue, 0).c_str();
    31dc:	8f 81       	ldd	r24, Y+7	; 0x07
    31de:	98 85       	ldd	r25, Y+8	; 0x08
    31e0:	fc 01       	movw	r30, r24
    31e2:	82 8d       	ldd	r24, Z+26	; 0x1a
    31e4:	93 8d       	ldd	r25, Z+27	; 0x1b
    31e6:	a4 8d       	ldd	r26, Z+28	; 0x1c
    31e8:	b5 8d       	ldd	r27, Z+29	; 0x1d
    31ea:	20 e0       	ldi	r18, 0x00	; 0
    31ec:	ac 01       	movw	r20, r24
    31ee:	bd 01       	movw	r22, r26
    31f0:	ce 01       	movw	r24, r28
    31f2:	01 96       	adiw	r24, 0x01	; 1
    31f4:	0e 94 55 2a 	call	0x54aa	; 0x54aa <_ZN6StringC1Efh>
    31f8:	ce 01       	movw	r24, r28
    31fa:	01 96       	adiw	r24, 0x01	; 1
    31fc:	8d d9       	rcall	.-3302   	; 0x2518 <_ZNK6String5c_strEv>
    31fe:	9c 01       	movw	r18, r24
    3200:	8f 81       	ldd	r24, Y+7	; 0x07
    3202:	98 85       	ldd	r25, Y+8	; 0x08
    3204:	88 5b       	subi	r24, 0xB8	; 184
    3206:	9f 4f       	sbci	r25, 0xFF	; 255
    3208:	b9 01       	movw	r22, r18
    320a:	0e 94 eb 29 	call	0x53d6	; 0x53d6 <_ZN6StringaSEPKc>
    320e:	ce 01       	movw	r24, r28
    3210:	01 96       	adiw	r24, 0x01	; 1
    3212:	0e 94 53 29 	call	0x52a6	; 0x52a6 <_ZN6StringD1Ev>
    //TdsAvgString = String(_tdsValueAverage, 0).c_str();
    return _tdsValue;
    3216:	8f 81       	ldd	r24, Y+7	; 0x07
    3218:	98 85       	ldd	r25, Y+8	; 0x08
    321a:	fc 01       	movw	r30, r24
    321c:	82 8d       	ldd	r24, Z+26	; 0x1a
    321e:	93 8d       	ldd	r25, Z+27	; 0x1b
    3220:	a4 8d       	ldd	r26, Z+28	; 0x1c
    3222:	b5 8d       	ldd	r27, Z+29	; 0x1d

}
    3224:	bc 01       	movw	r22, r24
    3226:	cd 01       	movw	r24, r26
    3228:	28 96       	adiw	r28, 0x08	; 8
    322a:	e2 e0       	ldi	r30, 0x02	; 2
    322c:	0c 94 b2 2c 	jmp	0x5964	; 0x5964 <__epilogue_restores__+0x20>

00003230 <_ZN9TDSSensor13PrintTDSToLCDEv>:
void TDSSensor::PrintTDSToLCD() {
    3230:	aa e1       	ldi	r26, 0x1A	; 26
    3232:	b0 e0       	ldi	r27, 0x00	; 0
    3234:	ee e1       	ldi	r30, 0x1E	; 30
    3236:	f9 e1       	ldi	r31, 0x19	; 25
    3238:	0c 94 94 2c 	jmp	0x5928	; 0x5928 <__prologue_saves__+0x1c>
    323c:	9a 8f       	std	Y+26, r25	; 0x1a
    323e:	89 8f       	std	Y+25, r24	; 0x19
    GetTDS();
    3240:	89 8d       	ldd	r24, Y+25	; 0x19
    3242:	9a 8d       	ldd	r25, Y+26	; 0x1a
    3244:	c3 df       	rcall	.-122    	; 0x31cc <_ZN9TDSSensor6GetTDSEv>
    static unsigned long printTime = millis();
    3246:	86 e0       	ldi	r24, 0x06	; 6
    3248:	93 e0       	ldi	r25, 0x03	; 3
    324a:	fc 01       	movw	r30, r24
    324c:	80 81       	ld	r24, Z
    324e:	88 23       	and	r24, r24
    3250:	89 f4       	brne	.+34     	; 0x3274 <_ZN9TDSSensor13PrintTDSToLCDEv+0x44>
    3252:	0e 94 ca 27 	call	0x4f94	; 0x4f94 <millis>
    3256:	dc 01       	movw	r26, r24
    3258:	cb 01       	movw	r24, r22
    325a:	80 93 16 03 	sts	0x0316, r24	; 0x800316 <_ZZN9TDSSensor13PrintTDSToLCDEvE9printTime>
    325e:	90 93 17 03 	sts	0x0317, r25	; 0x800317 <_ZZN9TDSSensor13PrintTDSToLCDEvE9printTime+0x1>
    3262:	a0 93 18 03 	sts	0x0318, r26	; 0x800318 <_ZZN9TDSSensor13PrintTDSToLCDEvE9printTime+0x2>
    3266:	b0 93 19 03 	sts	0x0319, r27	; 0x800319 <_ZZN9TDSSensor13PrintTDSToLCDEvE9printTime+0x3>
    326a:	86 e0       	ldi	r24, 0x06	; 6
    326c:	93 e0       	ldi	r25, 0x03	; 3
    326e:	21 e0       	ldi	r18, 0x01	; 1
    3270:	fc 01       	movw	r30, r24
    3272:	20 83       	st	Z, r18
    if(millis() - printTime > _printTDSEvery + 400) { //Every 800 milliseconds, print a numerical, convert the state of the LED indicator
    3274:	0e 94 ca 27 	call	0x4f94	; 0x4f94 <millis>
    3278:	9b 01       	movw	r18, r22
    327a:	ac 01       	movw	r20, r24
    327c:	80 91 16 03 	lds	r24, 0x0316	; 0x800316 <_ZZN9TDSSensor13PrintTDSToLCDEvE9printTime>
    3280:	90 91 17 03 	lds	r25, 0x0317	; 0x800317 <_ZZN9TDSSensor13PrintTDSToLCDEvE9printTime+0x1>
    3284:	a0 91 18 03 	lds	r26, 0x0318	; 0x800318 <_ZZN9TDSSensor13PrintTDSToLCDEvE9printTime+0x2>
    3288:	b0 91 19 03 	lds	r27, 0x0319	; 0x800319 <_ZZN9TDSSensor13PrintTDSToLCDEvE9printTime+0x3>
    328c:	28 1b       	sub	r18, r24
    328e:	39 0b       	sbc	r19, r25
    3290:	4a 0b       	sbc	r20, r26
    3292:	5b 0b       	sbc	r21, r27
    3294:	89 8d       	ldd	r24, Y+25	; 0x19
    3296:	9a 8d       	ldd	r25, Y+26	; 0x1a
    3298:	fc 01       	movw	r30, r24
    329a:	80 8d       	ldd	r24, Z+24	; 0x18
    329c:	91 8d       	ldd	r25, Z+25	; 0x19
    329e:	80 57       	subi	r24, 0x70	; 112
    32a0:	9e 4f       	sbci	r25, 0xFE	; 254
    32a2:	09 2e       	mov	r0, r25
    32a4:	00 0c       	add	r0, r0
    32a6:	aa 0b       	sbc	r26, r26
    32a8:	bb 0b       	sbc	r27, r27
    32aa:	61 e0       	ldi	r22, 0x01	; 1
    32ac:	82 17       	cp	r24, r18
    32ae:	93 07       	cpc	r25, r19
    32b0:	a4 07       	cpc	r26, r20
    32b2:	b5 07       	cpc	r27, r21
    32b4:	08 f0       	brcs	.+2      	; 0x32b8 <_ZN9TDSSensor13PrintTDSToLCDEv+0x88>
    32b6:	60 e0       	ldi	r22, 0x00	; 0
    32b8:	66 23       	and	r22, r22
    32ba:	09 f4       	brne	.+2      	; 0x32be <_ZN9TDSSensor13PrintTDSToLCDEv+0x8e>
    32bc:	70 c0       	rjmp	.+224    	; 0x339e <_ZN9TDSSensor13PrintTDSToLCDEv+0x16e>
        if(_printToLCD) {
    32be:	89 8d       	ldd	r24, Y+25	; 0x19
    32c0:	9a 8d       	ldd	r25, Y+26	; 0x1a
    32c2:	fc 01       	movw	r30, r24
    32c4:	86 8d       	ldd	r24, Z+30	; 0x1e
    32c6:	88 23       	and	r24, r24
    32c8:	09 f4       	brne	.+2      	; 0x32cc <_ZN9TDSSensor13PrintTDSToLCDEv+0x9c>
    32ca:	53 c0       	rjmp	.+166    	; 0x3372 <_ZN9TDSSensor13PrintTDSToLCDEv+0x142>
            String enabled = "";
    32cc:	ce 01       	movw	r24, r28
    32ce:	0d 96       	adiw	r24, 0x0d	; 13
    32d0:	69 e2       	ldi	r22, 0x29	; 41
    32d2:	71 e0       	ldi	r23, 0x01	; 1
    32d4:	0e 94 ba 29 	call	0x5374	; 0x5374 <_ZN6StringC1EPKc>
            if(_enabled) {
    32d8:	89 8d       	ldd	r24, Y+25	; 0x19
    32da:	9a 8d       	ldd	r25, Y+26	; 0x1a
    32dc:	fc 01       	movw	r30, r24
    32de:	81 a1       	ldd	r24, Z+33	; 0x21
    32e0:	88 23       	and	r24, r24
    32e2:	31 f0       	breq	.+12     	; 0x32f0 <_ZN9TDSSensor13PrintTDSToLCDEv+0xc0>
                enabled = "<";
    32e4:	ce 01       	movw	r24, r28
    32e6:	0d 96       	adiw	r24, 0x0d	; 13
    32e8:	6a e2       	ldi	r22, 0x2A	; 42
    32ea:	71 e0       	ldi	r23, 0x01	; 1
    32ec:	0e 94 eb 29 	call	0x53d6	; 0x53d6 <_ZN6StringaSEPKc>
            }
            String text = "TDS: " + TdsString + " " + enabled;
    32f0:	89 8d       	ldd	r24, Y+25	; 0x19
    32f2:	9a 8d       	ldd	r25, Y+26	; 0x1a
    32f4:	8c 01       	movw	r16, r24
    32f6:	08 5b       	subi	r16, 0xB8	; 184
    32f8:	1f 4f       	sbci	r17, 0xFF	; 255
    32fa:	ce 01       	movw	r24, r28
    32fc:	07 96       	adiw	r24, 0x07	; 7
    32fe:	6c e2       	ldi	r22, 0x2C	; 44
    3300:	71 e0       	ldi	r23, 0x01	; 1
    3302:	1b d9       	rcall	.-3530   	; 0x253a <_ZN15StringSumHelperC1EPKc>
    3304:	ce 01       	movw	r24, r28
    3306:	07 96       	adiw	r24, 0x07	; 7
    3308:	b8 01       	movw	r22, r16
    330a:	0e 94 fd 2a 	call	0x55fa	; 0x55fa <_ZplRK15StringSumHelperRK6String>
    330e:	62 e3       	ldi	r22, 0x32	; 50
    3310:	71 e0       	ldi	r23, 0x01	; 1
    3312:	0e 94 0e 2b 	call	0x561c	; 0x561c <_ZplRK15StringSumHelperPKc>
    3316:	9c 01       	movw	r18, r24
    3318:	ce 01       	movw	r24, r28
    331a:	0d 96       	adiw	r24, 0x0d	; 13
    331c:	bc 01       	movw	r22, r24
    331e:	c9 01       	movw	r24, r18
    3320:	0e 94 fd 2a 	call	0x55fa	; 0x55fa <_ZplRK15StringSumHelperRK6String>
    3324:	9c 01       	movw	r18, r24
    3326:	ce 01       	movw	r24, r28
    3328:	43 96       	adiw	r24, 0x13	; 19
    332a:	b9 01       	movw	r22, r18
    332c:	0e 94 e3 29 	call	0x53c6	; 0x53c6 <_ZN6StringC1ERKS_>
    3330:	ce 01       	movw	r24, r28
    3332:	07 96       	adiw	r24, 0x07	; 7
    3334:	13 dd       	rcall	.-1498   	; 0x2d5c <_ZN15StringSumHelperD1Ev>
            _lcd.PrintLine(1, text);
    3336:	ce 01       	movw	r24, r28
    3338:	43 96       	adiw	r24, 0x13	; 19
    333a:	bc 01       	movw	r22, r24
    333c:	ce 01       	movw	r24, r28
    333e:	01 96       	adiw	r24, 0x01	; 1
    3340:	0e 94 e3 29 	call	0x53c6	; 0x53c6 <_ZN6StringC1ERKS_>
    3344:	89 8d       	ldd	r24, Y+25	; 0x19
    3346:	9a 8d       	ldd	r25, Y+26	; 0x1a
    3348:	84 96       	adiw	r24, 0x24	; 36
    334a:	9e 01       	movw	r18, r28
    334c:	2f 5f       	subi	r18, 0xFF	; 255
    334e:	3f 4f       	sbci	r19, 0xFF	; 255
    3350:	a9 01       	movw	r20, r18
    3352:	61 e0       	ldi	r22, 0x01	; 1
    3354:	70 e0       	ldi	r23, 0x00	; 0
    3356:	0e 94 7a 10 	call	0x20f4	; 0x20f4 <_ZN7LCDBase9PrintLineEs6String>
    335a:	ce 01       	movw	r24, r28
    335c:	01 96       	adiw	r24, 0x01	; 1
    335e:	0e 94 53 29 	call	0x52a6	; 0x52a6 <_ZN6StringD1Ev>
        if(_printToLCD) {
            String enabled = "";
            if(_enabled) {
                enabled = "<";
            }
            String text = "TDS: " + TdsString + " " + enabled;
    3362:	ce 01       	movw	r24, r28
    3364:	43 96       	adiw	r24, 0x13	; 19
    3366:	0e 94 53 29 	call	0x52a6	; 0x52a6 <_ZN6StringD1Ev>
            _lcd.PrintLine(1, text);
    336a:	ce 01       	movw	r24, r28
    336c:	0d 96       	adiw	r24, 0x0d	; 13
    336e:	0e 94 53 29 	call	0x52a6	; 0x52a6 <_ZN6StringD1Ev>

        }
        digitalWrite(13, digitalRead(13) ^ 1);
    3372:	8d e0       	ldi	r24, 0x0D	; 13
    3374:	0e 94 2b 29 	call	0x5256	; 0x5256 <digitalRead>
    3378:	98 2f       	mov	r25, r24
    337a:	81 e0       	ldi	r24, 0x01	; 1
    337c:	89 27       	eor	r24, r25
    337e:	68 2f       	mov	r22, r24
    3380:	8d e0       	ldi	r24, 0x0D	; 13
    3382:	0e 94 fc 28 	call	0x51f8	; 0x51f8 <digitalWrite>
        printTime = millis();
    3386:	0e 94 ca 27 	call	0x4f94	; 0x4f94 <millis>
    338a:	dc 01       	movw	r26, r24
    338c:	cb 01       	movw	r24, r22
    338e:	80 93 16 03 	sts	0x0316, r24	; 0x800316 <_ZZN9TDSSensor13PrintTDSToLCDEvE9printTime>
    3392:	90 93 17 03 	sts	0x0317, r25	; 0x800317 <_ZZN9TDSSensor13PrintTDSToLCDEvE9printTime+0x1>
    3396:	a0 93 18 03 	sts	0x0318, r26	; 0x800318 <_ZZN9TDSSensor13PrintTDSToLCDEvE9printTime+0x2>
    339a:	b0 93 19 03 	sts	0x0319, r27	; 0x800319 <_ZZN9TDSSensor13PrintTDSToLCDEvE9printTime+0x3>
    }
}
    339e:	6a 96       	adiw	r28, 0x1a	; 26
    33a0:	e4 e0       	ldi	r30, 0x04	; 4
    33a2:	0c 94 b0 2c 	jmp	0x5960	; 0x5960 <__epilogue_restores__+0x1c>

000033a6 <_ZN9TDSSensor12CalculateTDSEv>:
void TDSSensor::CalculateTDS() {
    33a6:	a2 e0       	ldi	r26, 0x02	; 2
    33a8:	b0 e0       	ldi	r27, 0x00	; 0
    33aa:	e9 ed       	ldi	r30, 0xD9	; 217
    33ac:	f9 e1       	ldi	r31, 0x19	; 25
    33ae:	0c 94 96 2c 	jmp	0x592c	; 0x592c <__prologue_saves__+0x20>
    33b2:	9a 83       	std	Y+2, r25	; 0x02
    33b4:	89 83       	std	Y+1, r24	; 0x01

    if(!_enabled) {
    33b6:	89 81       	ldd	r24, Y+1	; 0x01
    33b8:	9a 81       	ldd	r25, Y+2	; 0x02
    33ba:	fc 01       	movw	r30, r24
    33bc:	91 a1       	ldd	r25, Z+33	; 0x21
    33be:	81 e0       	ldi	r24, 0x01	; 1
    33c0:	89 27       	eor	r24, r25
    33c2:	88 23       	and	r24, r24
    33c4:	09 f0       	breq	.+2      	; 0x33c8 <_ZN9TDSSensor12CalculateTDSEv+0x22>
        return;
    33c6:	0c c0       	rjmp	.+24     	; 0x33e0 <_ZN9TDSSensor12CalculateTDSEv+0x3a>
    }

    _tdsValue = getTDSValue();
    33c8:	89 81       	ldd	r24, Y+1	; 0x01
    33ca:	9a 81       	ldd	r25, Y+2	; 0x02
    33cc:	0d d0       	rcall	.+26     	; 0x33e8 <_ZN9TDSSensor11getTDSValueEv>
    33ce:	dc 01       	movw	r26, r24
    33d0:	cb 01       	movw	r24, r22
    33d2:	29 81       	ldd	r18, Y+1	; 0x01
    33d4:	3a 81       	ldd	r19, Y+2	; 0x02
    33d6:	f9 01       	movw	r30, r18
    33d8:	82 8f       	std	Z+26, r24	; 0x1a
    33da:	93 8f       	std	Z+27, r25	; 0x1b
    33dc:	a4 8f       	std	Z+28, r26	; 0x1c
    33de:	b5 8f       	std	Z+29, r27	; 0x1d
    //
    //if(_numOfSamples > 10) {
    //_numOfSamples = 1;
    //}

}
    33e0:	22 96       	adiw	r28, 0x02	; 2
    33e2:	e2 e0       	ldi	r30, 0x02	; 2
    33e4:	0c 94 b2 2c 	jmp	0x5964	; 0x5964 <__epilogue_restores__+0x20>

000033e8 <_ZN9TDSSensor11getTDSValueEv>:

double TDSSensor::getTDSValue() {
    33e8:	a2 e1       	ldi	r26, 0x12	; 18
    33ea:	b0 e0       	ldi	r27, 0x00	; 0
    33ec:	ea ef       	ldi	r30, 0xFA	; 250
    33ee:	f9 e1       	ldi	r31, 0x19	; 25
    33f0:	0c 94 92 2c 	jmp	0x5924	; 0x5924 <__prologue_saves__+0x18>
    33f4:	9a 8b       	std	Y+18, r25	; 0x12
    33f6:	89 8b       	std	Y+17, r24	; 0x11
    static unsigned long samplingTime = millis();
    33f8:	8e e0       	ldi	r24, 0x0E	; 14
    33fa:	93 e0       	ldi	r25, 0x03	; 3
    33fc:	fc 01       	movw	r30, r24
    33fe:	80 81       	ld	r24, Z
    3400:	88 23       	and	r24, r24
    3402:	89 f4       	brne	.+34     	; 0x3426 <_ZN9TDSSensor11getTDSValueEv+0x3e>
    3404:	0e 94 ca 27 	call	0x4f94	; 0x4f94 <millis>
    3408:	dc 01       	movw	r26, r24
    340a:	cb 01       	movw	r24, r22
    340c:	80 93 1a 03 	sts	0x031A, r24	; 0x80031a <_ZZN9TDSSensor11getTDSValueEvE12samplingTime>
    3410:	90 93 1b 03 	sts	0x031B, r25	; 0x80031b <_ZZN9TDSSensor11getTDSValueEvE12samplingTime+0x1>
    3414:	a0 93 1c 03 	sts	0x031C, r26	; 0x80031c <_ZZN9TDSSensor11getTDSValueEvE12samplingTime+0x2>
    3418:	b0 93 1d 03 	sts	0x031D, r27	; 0x80031d <_ZZN9TDSSensor11getTDSValueEvE12samplingTime+0x3>
    341c:	8e e0       	ldi	r24, 0x0E	; 14
    341e:	93 e0       	ldi	r25, 0x03	; 3
    3420:	21 e0       	ldi	r18, 0x01	; 1
    3422:	fc 01       	movw	r30, r24
    3424:	20 83       	st	Z, r18
    if(millis() - samplingTime > 1000) {//wait .5 sec between readings, according to spec
    3426:	0e 94 ca 27 	call	0x4f94	; 0x4f94 <millis>
    342a:	9b 01       	movw	r18, r22
    342c:	ac 01       	movw	r20, r24
    342e:	80 91 1a 03 	lds	r24, 0x031A	; 0x80031a <_ZZN9TDSSensor11getTDSValueEvE12samplingTime>
    3432:	90 91 1b 03 	lds	r25, 0x031B	; 0x80031b <_ZZN9TDSSensor11getTDSValueEvE12samplingTime+0x1>
    3436:	a0 91 1c 03 	lds	r26, 0x031C	; 0x80031c <_ZZN9TDSSensor11getTDSValueEvE12samplingTime+0x2>
    343a:	b0 91 1d 03 	lds	r27, 0x031D	; 0x80031d <_ZZN9TDSSensor11getTDSValueEvE12samplingTime+0x3>
    343e:	79 01       	movw	r14, r18
    3440:	8a 01       	movw	r16, r20
    3442:	e8 1a       	sub	r14, r24
    3444:	f9 0a       	sbc	r15, r25
    3446:	0a 0b       	sbc	r16, r26
    3448:	1b 0b       	sbc	r17, r27
    344a:	d8 01       	movw	r26, r16
    344c:	c7 01       	movw	r24, r14
    344e:	21 e0       	ldi	r18, 0x01	; 1
    3450:	89 3e       	cpi	r24, 0xE9	; 233
    3452:	93 40       	sbci	r25, 0x03	; 3
    3454:	a1 05       	cpc	r26, r1
    3456:	b1 05       	cpc	r27, r1
    3458:	08 f4       	brcc	.+2      	; 0x345c <_ZN9TDSSensor11getTDSValueEv+0x74>
    345a:	20 e0       	ldi	r18, 0x00	; 0
    345c:	22 23       	and	r18, r18
    345e:	09 f4       	brne	.+2      	; 0x3462 <_ZN9TDSSensor11getTDSValueEv+0x7a>
    3460:	93 c0       	rjmp	.+294    	; 0x3588 <_ZN9TDSSensor11getTDSValueEv+0x1a0>
        int numOfSamples = 10;
    3462:	8a e0       	ldi	r24, 0x0A	; 10
    3464:	90 e0       	ldi	r25, 0x00	; 0
    3466:	9a 83       	std	Y+2, r25	; 0x02
    3468:	89 83       	std	Y+1, r24	; 0x01
        int reading = analogRead(_pin);
    346a:	89 89       	ldd	r24, Y+17	; 0x11
    346c:	9a 89       	ldd	r25, Y+18	; 0x12
    346e:	fc 01       	movw	r30, r24
    3470:	80 81       	ld	r24, Z
    3472:	91 81       	ldd	r25, Z+1	; 0x01
    3474:	0e 94 7a 28 	call	0x50f4	; 0x50f4 <analogRead>
    3478:	9c 83       	std	Y+4, r25	; 0x04
    347a:	8b 83       	std	Y+3, r24	; 0x03

        Serial.print(F("TDS Raw Reading: "));
    347c:	8b ed       	ldi	r24, 0xDB	; 219
    347e:	93 e0       	ldi	r25, 0x03	; 3
    3480:	bc 01       	movw	r22, r24
    3482:	85 e1       	ldi	r24, 0x15	; 21
    3484:	95 e0       	ldi	r25, 0x05	; 5
    3486:	0e 94 55 26 	call	0x4caa	; 0x4caa <_ZN5Print5printEPK19__FlashStringHelper>
        Serial.println(reading);
    348a:	8b 81       	ldd	r24, Y+3	; 0x03
    348c:	9c 81       	ldd	r25, Y+4	; 0x04
    348e:	4a e0       	ldi	r20, 0x0A	; 10
    3490:	50 e0       	ldi	r21, 0x00	; 0
    3492:	bc 01       	movw	r22, r24
    3494:	85 e1       	ldi	r24, 0x15	; 21
    3496:	95 e0       	ldi	r25, 0x05	; 5
    3498:	0e 94 4a 27 	call	0x4e94	; 0x4e94 <_ZN5Print7printlnEii>

        _tdsAverage[_tdsArrayIndex++] = reading;
    349c:	89 89       	ldd	r24, Y+17	; 0x11
    349e:	9a 89       	ldd	r25, Y+18	; 0x12
    34a0:	fc 01       	movw	r30, r24
    34a2:	86 89       	ldd	r24, Z+22	; 0x16
    34a4:	97 89       	ldd	r25, Z+23	; 0x17
    34a6:	ac 01       	movw	r20, r24
    34a8:	4f 5f       	subi	r20, 0xFF	; 255
    34aa:	5f 4f       	sbci	r21, 0xFF	; 255
    34ac:	29 89       	ldd	r18, Y+17	; 0x11
    34ae:	3a 89       	ldd	r19, Y+18	; 0x12
    34b0:	f9 01       	movw	r30, r18
    34b2:	57 8b       	std	Z+23, r21	; 0x17
    34b4:	46 8b       	std	Z+22, r20	; 0x16
    34b6:	29 89       	ldd	r18, Y+17	; 0x11
    34b8:	3a 89       	ldd	r19, Y+18	; 0x12
    34ba:	01 96       	adiw	r24, 0x01	; 1
    34bc:	88 0f       	add	r24, r24
    34be:	99 1f       	adc	r25, r25
    34c0:	82 0f       	add	r24, r18
    34c2:	93 1f       	adc	r25, r19
    34c4:	2b 81       	ldd	r18, Y+3	; 0x03
    34c6:	3c 81       	ldd	r19, Y+4	; 0x04
    34c8:	fc 01       	movw	r30, r24
    34ca:	31 83       	std	Z+1, r19	; 0x01
    34cc:	20 83       	st	Z, r18
        if(_tdsArrayIndex == numOfSamples) {
    34ce:	89 89       	ldd	r24, Y+17	; 0x11
    34d0:	9a 89       	ldd	r25, Y+18	; 0x12
    34d2:	fc 01       	movw	r30, r24
    34d4:	26 89       	ldd	r18, Z+22	; 0x16
    34d6:	37 89       	ldd	r19, Z+23	; 0x17
    34d8:	89 81       	ldd	r24, Y+1	; 0x01
    34da:	9a 81       	ldd	r25, Y+2	; 0x02
    34dc:	28 17       	cp	r18, r24
    34de:	39 07       	cpc	r19, r25
    34e0:	29 f4       	brne	.+10     	; 0x34ec <_ZN9TDSSensor11getTDSValueEv+0x104>
            _tdsArrayIndex = 0;
    34e2:	89 89       	ldd	r24, Y+17	; 0x11
    34e4:	9a 89       	ldd	r25, Y+18	; 0x12
    34e6:	fc 01       	movw	r30, r24
    34e8:	17 8a       	std	Z+23, r1	; 0x17
    34ea:	16 8a       	std	Z+22, r1	; 0x16
        }
        double tdsAvg = MathExt::CalculateAverage(_tdsAverage, numOfSamples);
    34ec:	89 89       	ldd	r24, Y+17	; 0x11
    34ee:	9a 89       	ldd	r25, Y+18	; 0x12
    34f0:	02 96       	adiw	r24, 0x02	; 2
    34f2:	29 81       	ldd	r18, Y+1	; 0x01
    34f4:	3a 81       	ldd	r19, Y+2	; 0x02
    34f6:	b9 01       	movw	r22, r18
    34f8:	0e 94 2c 11 	call	0x2258	; 0x2258 <_ZN7MathExt16CalculateAverageEPii>
    34fc:	dc 01       	movw	r26, r24
    34fe:	cb 01       	movw	r24, r22
    3500:	8d 83       	std	Y+5, r24	; 0x05
    3502:	9e 83       	std	Y+6, r25	; 0x06
    3504:	af 83       	std	Y+7, r26	; 0x07
    3506:	b8 87       	std	Y+8, r27	; 0x08
        double voltage = tdsAvg * (5.0 / 1024);
    3508:	20 e0       	ldi	r18, 0x00	; 0
    350a:	30 e0       	ldi	r19, 0x00	; 0
    350c:	40 ea       	ldi	r20, 0xA0	; 160
    350e:	5b e3       	ldi	r21, 0x3B	; 59
    3510:	6d 81       	ldd	r22, Y+5	; 0x05
    3512:	7e 81       	ldd	r23, Y+6	; 0x06
    3514:	8f 81       	ldd	r24, Y+7	; 0x07
    3516:	98 85       	ldd	r25, Y+8	; 0x08
    3518:	0e 94 ee 23 	call	0x47dc	; 0x47dc <__mulsf3>
    351c:	dc 01       	movw	r26, r24
    351e:	cb 01       	movw	r24, r22
    3520:	89 87       	std	Y+9, r24	; 0x09
    3522:	9a 87       	std	Y+10, r25	; 0x0a
    3524:	ab 87       	std	Y+11, r26	; 0x0b
    3526:	bc 87       	std	Y+12, r27	; 0x0c
        double tankTDS = voltage * Offset;
    3528:	89 89       	ldd	r24, Y+17	; 0x11
    352a:	9a 89       	ldd	r25, Y+18	; 0x12
    352c:	82 5b       	subi	r24, 0xB2	; 178
    352e:	9f 4f       	sbci	r25, 0xFF	; 255
    3530:	fc 01       	movw	r30, r24
    3532:	80 81       	ld	r24, Z
    3534:	91 81       	ldd	r25, Z+1	; 0x01
    3536:	09 2e       	mov	r0, r25
    3538:	00 0c       	add	r0, r0
    353a:	aa 0b       	sbc	r26, r26
    353c:	bb 0b       	sbc	r27, r27
    353e:	bc 01       	movw	r22, r24
    3540:	cd 01       	movw	r24, r26
    3542:	0e 94 3e 23 	call	0x467c	; 0x467c <__floatsisf>
    3546:	dc 01       	movw	r26, r24
    3548:	cb 01       	movw	r24, r22
    354a:	29 85       	ldd	r18, Y+9	; 0x09
    354c:	3a 85       	ldd	r19, Y+10	; 0x0a
    354e:	4b 85       	ldd	r20, Y+11	; 0x0b
    3550:	5c 85       	ldd	r21, Y+12	; 0x0c
    3552:	bc 01       	movw	r22, r24
    3554:	cd 01       	movw	r24, r26
    3556:	0e 94 ee 23 	call	0x47dc	; 0x47dc <__mulsf3>
    355a:	dc 01       	movw	r26, r24
    355c:	cb 01       	movw	r24, r22
    355e:	8d 87       	std	Y+13, r24	; 0x0d
    3560:	9e 87       	std	Y+14, r25	; 0x0e
    3562:	af 87       	std	Y+15, r26	; 0x0f
    3564:	b8 8b       	std	Y+16, r27	; 0x10

        samplingTime = millis();
    3566:	0e 94 ca 27 	call	0x4f94	; 0x4f94 <millis>
    356a:	dc 01       	movw	r26, r24
    356c:	cb 01       	movw	r24, r22
    356e:	80 93 1a 03 	sts	0x031A, r24	; 0x80031a <_ZZN9TDSSensor11getTDSValueEvE12samplingTime>
    3572:	90 93 1b 03 	sts	0x031B, r25	; 0x80031b <_ZZN9TDSSensor11getTDSValueEvE12samplingTime+0x1>
    3576:	a0 93 1c 03 	sts	0x031C, r26	; 0x80031c <_ZZN9TDSSensor11getTDSValueEvE12samplingTime+0x2>
    357a:	b0 93 1d 03 	sts	0x031D, r27	; 0x80031d <_ZZN9TDSSensor11getTDSValueEvE12samplingTime+0x3>
        return tankTDS;
    357e:	8d 85       	ldd	r24, Y+13	; 0x0d
    3580:	9e 85       	ldd	r25, Y+14	; 0x0e
    3582:	af 85       	ldd	r26, Y+15	; 0x0f
    3584:	b8 89       	ldd	r27, Y+16	; 0x10
    3586:	07 c0       	rjmp	.+14     	; 0x3596 <_ZN9TDSSensor11getTDSValueEv+0x1ae>
    }
    return _tdsValue;
    3588:	89 89       	ldd	r24, Y+17	; 0x11
    358a:	9a 89       	ldd	r25, Y+18	; 0x12
    358c:	fc 01       	movw	r30, r24
    358e:	82 8d       	ldd	r24, Z+26	; 0x1a
    3590:	93 8d       	ldd	r25, Z+27	; 0x1b
    3592:	a4 8d       	ldd	r26, Z+28	; 0x1c
    3594:	b5 8d       	ldd	r27, Z+29	; 0x1d

}
    3596:	bc 01       	movw	r22, r24
    3598:	cd 01       	movw	r24, r26
    359a:	62 96       	adiw	r28, 0x12	; 18
    359c:	e6 e0       	ldi	r30, 0x06	; 6
    359e:	0c 94 ae 2c 	jmp	0x595c	; 0x595c <__epilogue_restores__+0x18>

000035a2 <_ZN9TDSSensor6TurnOnEv>:


void TDSSensor::TurnOn() {
    35a2:	a2 e0       	ldi	r26, 0x02	; 2
    35a4:	b0 e0       	ldi	r27, 0x00	; 0
    35a6:	e7 ed       	ldi	r30, 0xD7	; 215
    35a8:	fa e1       	ldi	r31, 0x1A	; 26
    35aa:	0c 94 96 2c 	jmp	0x592c	; 0x592c <__prologue_saves__+0x20>
    35ae:	9a 83       	std	Y+2, r25	; 0x02
    35b0:	89 83       	std	Y+1, r24	; 0x01
    _enabled = true;
    35b2:	89 81       	ldd	r24, Y+1	; 0x01
    35b4:	9a 81       	ldd	r25, Y+2	; 0x02
    35b6:	21 e0       	ldi	r18, 0x01	; 1
    35b8:	fc 01       	movw	r30, r24
    35ba:	21 a3       	std	Z+33, r18	; 0x21
    digitalWrite(_relayPin, HIGH);
    35bc:	89 81       	ldd	r24, Y+1	; 0x01
    35be:	9a 81       	ldd	r25, Y+2	; 0x02
    35c0:	fc 01       	movw	r30, r24
    35c2:	87 8d       	ldd	r24, Z+31	; 0x1f
    35c4:	90 a1       	ldd	r25, Z+32	; 0x20
    35c6:	61 e0       	ldi	r22, 0x01	; 1
    35c8:	0e 94 fc 28 	call	0x51f8	; 0x51f8 <digitalWrite>
}
    35cc:	22 96       	adiw	r28, 0x02	; 2
    35ce:	e2 e0       	ldi	r30, 0x02	; 2
    35d0:	0c 94 b2 2c 	jmp	0x5964	; 0x5964 <__epilogue_restores__+0x20>

000035d4 <_ZN9TDSSensor7TurnOffEv>:

void TDSSensor::TurnOff() {
    35d4:	a2 e0       	ldi	r26, 0x02	; 2
    35d6:	b0 e0       	ldi	r27, 0x00	; 0
    35d8:	e0 ef       	ldi	r30, 0xF0	; 240
    35da:	fa e1       	ldi	r31, 0x1A	; 26
    35dc:	0c 94 96 2c 	jmp	0x592c	; 0x592c <__prologue_saves__+0x20>
    35e0:	9a 83       	std	Y+2, r25	; 0x02
    35e2:	89 83       	std	Y+1, r24	; 0x01
    _enabled = false;
    35e4:	89 81       	ldd	r24, Y+1	; 0x01
    35e6:	9a 81       	ldd	r25, Y+2	; 0x02
    35e8:	fc 01       	movw	r30, r24
    35ea:	11 a2       	std	Z+33, r1	; 0x21
    digitalWrite(_relayPin, LOW);
    35ec:	89 81       	ldd	r24, Y+1	; 0x01
    35ee:	9a 81       	ldd	r25, Y+2	; 0x02
    35f0:	fc 01       	movw	r30, r24
    35f2:	87 8d       	ldd	r24, Z+31	; 0x1f
    35f4:	90 a1       	ldd	r25, Z+32	; 0x20
    35f6:	60 e0       	ldi	r22, 0x00	; 0
    35f8:	0e 94 fc 28 	call	0x51f8	; 0x51f8 <digitalWrite>
    delay(1000);
    35fc:	68 ee       	ldi	r22, 0xE8	; 232
    35fe:	73 e0       	ldi	r23, 0x03	; 3
    3600:	80 e0       	ldi	r24, 0x00	; 0
    3602:	90 e0       	ldi	r25, 0x00	; 0
    3604:	0e 94 fb 27 	call	0x4ff6	; 0x4ff6 <delay>

}
    3608:	22 96       	adiw	r28, 0x02	; 2
    360a:	e2 e0       	ldi	r30, 0x02	; 2
    360c:	0c 94 b2 2c 	jmp	0x5964	; 0x5964 <__epilogue_restores__+0x20>

00003610 <_ZN6EEWrapIiEcvKiEv>:
            ee::EEMode<T>::Extension{

        using ee::EEMode<T>::Interface::EERead;
        using ee::EEMode<T>::Interface::EEWrite;

        operator const T() { return EERead(); }
    3610:	a2 e0       	ldi	r26, 0x02	; 2
    3612:	b0 e0       	ldi	r27, 0x00	; 0
    3614:	ee e0       	ldi	r30, 0x0E	; 14
    3616:	fb e1       	ldi	r31, 0x1B	; 27
    3618:	0c 94 96 2c 	jmp	0x592c	; 0x592c <__prologue_saves__+0x20>
    361c:	9a 83       	std	Y+2, r25	; 0x02
    361e:	89 83       	std	Y+1, r24	; 0x01
    3620:	89 81       	ldd	r24, Y+1	; 0x01
    3622:	9a 81       	ldd	r25, Y+2	; 0x02
    3624:	18 d0       	rcall	.+48     	; 0x3656 <_ZN2ee11EEMultiByteI6EEWrapIiEiE6EEReadEv>
    3626:	22 96       	adiw	r28, 0x02	; 2
    3628:	e2 e0       	ldi	r30, 0x02	; 2
    362a:	0c 94 b2 2c 	jmp	0x5964	; 0x5964 <__epilogue_restores__+0x20>

0000362e <_ZN6EEWrapIiEaSERKi>:
        EEWrap &operator =( const T &in ){  return EEWrite( in ); }
    362e:	a4 e0       	ldi	r26, 0x04	; 4
    3630:	b0 e0       	ldi	r27, 0x00	; 0
    3632:	ed e1       	ldi	r30, 0x1D	; 29
    3634:	fb e1       	ldi	r31, 0x1B	; 27
    3636:	0c 94 96 2c 	jmp	0x592c	; 0x592c <__prologue_saves__+0x20>
    363a:	9a 83       	std	Y+2, r25	; 0x02
    363c:	89 83       	std	Y+1, r24	; 0x01
    363e:	7c 83       	std	Y+4, r23	; 0x04
    3640:	6b 83       	std	Y+3, r22	; 0x03
    3642:	2b 81       	ldd	r18, Y+3	; 0x03
    3644:	3c 81       	ldd	r19, Y+4	; 0x04
    3646:	89 81       	ldd	r24, Y+1	; 0x01
    3648:	9a 81       	ldd	r25, Y+2	; 0x02
    364a:	b9 01       	movw	r22, r18
    364c:	21 d0       	rcall	.+66     	; 0x3690 <_ZN2ee11EEMultiByteI6EEWrapIiEiE7EEWriteERKi>
    364e:	24 96       	adiw	r28, 0x04	; 4
    3650:	e2 e0       	ldi	r30, 0x02	; 2
    3652:	0c 94 b2 2c 	jmp	0x5964	; 0x5964 <__epilogue_restores__+0x20>

00003656 <_ZN2ee11EEMultiByteI6EEWrapIiEiE6EEReadEv>:

    template< typename D, typename T >
    class EEMultiByte{
        public:

        T EERead( void ){
    3656:	a4 e0       	ldi	r26, 0x04	; 4
    3658:	b0 e0       	ldi	r27, 0x00	; 0
    365a:	e1 e3       	ldi	r30, 0x31	; 49
    365c:	fb e1       	ldi	r31, 0x1B	; 27
    365e:	0c 94 96 2c 	jmp	0x592c	; 0x592c <__prologue_saves__+0x20>
    3662:	9c 83       	std	Y+4, r25	; 0x04
    3664:	8b 83       	std	Y+3, r24	; 0x03
            T ret;
            tools::EEReadBlockElement( (char*)&ret + sizeof(T) - 1, uptr(&self()), sizeof(T) );
    3666:	8b 81       	ldd	r24, Y+3	; 0x03
    3668:	9c 81       	ldd	r25, Y+4	; 0x04
    366a:	30 d0       	rcall	.+96     	; 0x36cc <_ZN2ee11EEMultiByteI6EEWrapIiEiE4selfEv>
    366c:	bc 01       	movw	r22, r24
    366e:	81 e0       	ldi	r24, 0x01	; 1
    3670:	90 e0       	ldi	r25, 0x00	; 0
    3672:	9e 01       	movw	r18, r28
    3674:	2f 5f       	subi	r18, 0xFF	; 255
    3676:	3f 4f       	sbci	r19, 0xFF	; 255
    3678:	82 0f       	add	r24, r18
    367a:	93 1f       	adc	r25, r19
    367c:	42 e0       	ldi	r20, 0x02	; 2
    367e:	50 e0       	ldi	r21, 0x00	; 0
    3680:	0e 94 31 13 	call	0x2662	; 0x2662 <_ZN2ee5tools18EEReadBlockElementEPcPhj>
            return(ret);
    3684:	89 81       	ldd	r24, Y+1	; 0x01
    3686:	9a 81       	ldd	r25, Y+2	; 0x02
        }
    3688:	24 96       	adiw	r28, 0x04	; 4
    368a:	e2 e0       	ldi	r30, 0x02	; 2
    368c:	0c 94 b2 2c 	jmp	0x5964	; 0x5964 <__epilogue_restores__+0x20>

00003690 <_ZN2ee11EEMultiByteI6EEWrapIiEiE7EEWriteERKi>:

        D &EEWrite( const T& v ){
    3690:	a4 e0       	ldi	r26, 0x04	; 4
    3692:	b0 e0       	ldi	r27, 0x00	; 0
    3694:	ee e4       	ldi	r30, 0x4E	; 78
    3696:	fb e1       	ldi	r31, 0x1B	; 27
    3698:	0c 94 96 2c 	jmp	0x592c	; 0x592c <__prologue_saves__+0x20>
    369c:	9a 83       	std	Y+2, r25	; 0x02
    369e:	89 83       	std	Y+1, r24	; 0x01
    36a0:	7c 83       	std	Y+4, r23	; 0x04
    36a2:	6b 83       	std	Y+3, r22	; 0x03
            tools::EEWriteBlockElement( (const char*) &v + sizeof(T) - 1, uptr(&self()), sizeof(T) );
    36a4:	89 81       	ldd	r24, Y+1	; 0x01
    36a6:	9a 81       	ldd	r25, Y+2	; 0x02
    36a8:	11 d0       	rcall	.+34     	; 0x36cc <_ZN2ee11EEMultiByteI6EEWrapIiEiE4selfEv>
    36aa:	bc 01       	movw	r22, r24
    36ac:	81 e0       	ldi	r24, 0x01	; 1
    36ae:	90 e0       	ldi	r25, 0x00	; 0
    36b0:	2b 81       	ldd	r18, Y+3	; 0x03
    36b2:	3c 81       	ldd	r19, Y+4	; 0x04
    36b4:	82 0f       	add	r24, r18
    36b6:	93 1f       	adc	r25, r19
    36b8:	42 e0       	ldi	r20, 0x02	; 2
    36ba:	50 e0       	ldi	r21, 0x00	; 0
    36bc:	09 d8       	rcall	.-4078   	; 0x26d0 <_ZN2ee5tools19EEWriteBlockElementEPKcPhj>
            return self();
    36be:	89 81       	ldd	r24, Y+1	; 0x01
    36c0:	9a 81       	ldd	r25, Y+2	; 0x02
    36c2:	04 d0       	rcall	.+8      	; 0x36cc <_ZN2ee11EEMultiByteI6EEWrapIiEiE4selfEv>
        }
    36c4:	24 96       	adiw	r28, 0x04	; 4
    36c6:	e2 e0       	ldi	r30, 0x02	; 2
    36c8:	0c 94 b2 2c 	jmp	0x5964	; 0x5964 <__epilogue_restores__+0x20>

000036cc <_ZN2ee11EEMultiByteI6EEWrapIiEiE4selfEv>:
        protected: STATIC_ACCESS
    36cc:	a2 e0       	ldi	r26, 0x02	; 2
    36ce:	b0 e0       	ldi	r27, 0x00	; 0
    36d0:	ec e6       	ldi	r30, 0x6C	; 108
    36d2:	fb e1       	ldi	r31, 0x1B	; 27
    36d4:	0c 94 96 2c 	jmp	0x592c	; 0x592c <__prologue_saves__+0x20>
    36d8:	9a 83       	std	Y+2, r25	; 0x02
    36da:	89 83       	std	Y+1, r24	; 0x01
    36dc:	89 81       	ldd	r24, Y+1	; 0x01
    36de:	9a 81       	ldd	r25, Y+2	; 0x02
    36e0:	22 96       	adiw	r28, 0x02	; 2
    36e2:	e2 e0       	ldi	r30, 0x02	; 2
    36e4:	0c 94 b2 2c 	jmp	0x5964	; 0x5964 <__epilogue_restores__+0x20>

000036e8 <_ZNK6String6lengthEv>:
    pinMode(SDA, INPUT_PULLUP); // and make SDA high i.e. send I2C STOP control.
    delayMicroseconds(10); // x. wait >5uS
    pinMode(SDA, INPUT); // and reset pins as tri-state inputs which is the default state on reset
    pinMode(SCL, INPUT);
    return 0; // all ok
    36e8:	a2 e0       	ldi	r26, 0x02	; 2
    36ea:	b0 e0       	ldi	r27, 0x00	; 0
    36ec:	ea e7       	ldi	r30, 0x7A	; 122
    36ee:	fb e1       	ldi	r31, 0x1B	; 27
    36f0:	0c 94 96 2c 	jmp	0x592c	; 0x592c <__prologue_saves__+0x20>
    36f4:	9a 83       	std	Y+2, r25	; 0x02
    36f6:	89 83       	std	Y+1, r24	; 0x01
    36f8:	89 81       	ldd	r24, Y+1	; 0x01
    36fa:	9a 81       	ldd	r25, Y+2	; 0x02
    36fc:	fc 01       	movw	r30, r24
    36fe:	84 81       	ldd	r24, Z+4	; 0x04
    3700:	95 81       	ldd	r25, Z+5	; 0x05
    3702:	22 96       	adiw	r28, 0x02	; 2
    3704:	e2 e0       	ldi	r30, 0x02	; 2
    3706:	0c 94 b2 2c 	jmp	0x5964	; 0x5964 <__epilogue_restores__+0x20>

0000370a <_ZN6StringpLEPKc>:
    370a:	a4 e0       	ldi	r26, 0x04	; 4
    370c:	b0 e0       	ldi	r27, 0x00	; 0
    370e:	eb e8       	ldi	r30, 0x8B	; 139
    3710:	fb e1       	ldi	r31, 0x1B	; 27
    3712:	0c 94 96 2c 	jmp	0x592c	; 0x592c <__prologue_saves__+0x20>
    3716:	9a 83       	std	Y+2, r25	; 0x02
    3718:	89 83       	std	Y+1, r24	; 0x01
    371a:	7c 83       	std	Y+4, r23	; 0x04
    371c:	6b 83       	std	Y+3, r22	; 0x03
    371e:	2b 81       	ldd	r18, Y+3	; 0x03
    3720:	3c 81       	ldd	r19, Y+4	; 0x04
    3722:	89 81       	ldd	r24, Y+1	; 0x01
    3724:	9a 81       	ldd	r25, Y+2	; 0x02
    3726:	b9 01       	movw	r22, r18
    3728:	0e 94 dd 2a 	call	0x55ba	; 0x55ba <_ZN6String6concatEPKc>
    372c:	89 81       	ldd	r24, Y+1	; 0x01
    372e:	9a 81       	ldd	r25, Y+2	; 0x02
    3730:	24 96       	adiw	r28, 0x04	; 4
    3732:	e2 e0       	ldi	r30, 0x02	; 2
    3734:	0c 94 b2 2c 	jmp	0x5964	; 0x5964 <__epilogue_restores__+0x20>

00003738 <_ZNK6StringeqEPKc>:
    3738:	a4 e0       	ldi	r26, 0x04	; 4
    373a:	b0 e0       	ldi	r27, 0x00	; 0
    373c:	e2 ea       	ldi	r30, 0xA2	; 162
    373e:	fb e1       	ldi	r31, 0x1B	; 27
    3740:	0c 94 96 2c 	jmp	0x592c	; 0x592c <__prologue_saves__+0x20>
    3744:	9a 83       	std	Y+2, r25	; 0x02
    3746:	89 83       	std	Y+1, r24	; 0x01
    3748:	7c 83       	std	Y+4, r23	; 0x04
    374a:	6b 83       	std	Y+3, r22	; 0x03
    374c:	2b 81       	ldd	r18, Y+3	; 0x03
    374e:	3c 81       	ldd	r19, Y+4	; 0x04
    3750:	89 81       	ldd	r24, Y+1	; 0x01
    3752:	9a 81       	ldd	r25, Y+2	; 0x02
    3754:	b9 01       	movw	r22, r18
    3756:	0e 94 25 2b 	call	0x564a	; 0x564a <_ZNK6String6equalsEPKc>
    375a:	24 96       	adiw	r28, 0x04	; 4
    375c:	e2 e0       	ldi	r30, 0x02	; 2
    375e:	0c 94 b2 2c 	jmp	0x5964	; 0x5964 <__epilogue_restores__+0x20>

00003762 <_ZN15StringSumHelperC1ERK6String>:
    3762:	a4 e0       	ldi	r26, 0x04	; 4
    3764:	b0 e0       	ldi	r27, 0x00	; 0
    3766:	e7 eb       	ldi	r30, 0xB7	; 183
    3768:	fb e1       	ldi	r31, 0x1B	; 27
    376a:	0c 94 96 2c 	jmp	0x592c	; 0x592c <__prologue_saves__+0x20>
    376e:	9a 83       	std	Y+2, r25	; 0x02
    3770:	89 83       	std	Y+1, r24	; 0x01
    3772:	7c 83       	std	Y+4, r23	; 0x04
    3774:	6b 83       	std	Y+3, r22	; 0x03
    3776:	89 81       	ldd	r24, Y+1	; 0x01
    3778:	9a 81       	ldd	r25, Y+2	; 0x02
    377a:	2b 81       	ldd	r18, Y+3	; 0x03
    377c:	3c 81       	ldd	r19, Y+4	; 0x04
    377e:	b9 01       	movw	r22, r18
    3780:	0e 94 e3 29 	call	0x53c6	; 0x53c6 <_ZN6StringC1ERKS_>
    3784:	24 96       	adiw	r28, 0x04	; 4
    3786:	e2 e0       	ldi	r30, 0x02	; 2
    3788:	0c 94 b2 2c 	jmp	0x5964	; 0x5964 <__epilogue_restores__+0x20>

0000378c <_ZN15WaterSensorWire5SetupEv>:
    378c:	a0 e0       	ldi	r26, 0x00	; 0
    378e:	b0 e0       	ldi	r27, 0x00	; 0
    3790:	ec ec       	ldi	r30, 0xCC	; 204
    3792:	fb e1       	ldi	r31, 0x1B	; 27
    3794:	0c 94 96 2c 	jmp	0x592c	; 0x592c <__prologue_saves__+0x20>
    3798:	8d ee       	ldi	r24, 0xED	; 237
    379a:	93 e0       	ldi	r25, 0x03	; 3
    379c:	bc 01       	movw	r22, r24
    379e:	85 e1       	ldi	r24, 0x15	; 21
    37a0:	95 e0       	ldi	r25, 0x05	; 5
    37a2:	0e 94 55 26 	call	0x4caa	; 0x4caa <_ZN5Print5printEPK19__FlashStringHelper>
    37a6:	4a e0       	ldi	r20, 0x0A	; 10
    37a8:	50 e0       	ldi	r21, 0x00	; 0
    37aa:	68 e0       	ldi	r22, 0x08	; 8
    37ac:	85 e1       	ldi	r24, 0x15	; 21
    37ae:	95 e0       	ldi	r25, 0x05	; 5
    37b0:	0e 94 6b 27 	call	0x4ed6	; 0x4ed6 <_ZN5Print7printlnEhi>
    37b4:	68 e0       	ldi	r22, 0x08	; 8
    37b6:	8f e8       	ldi	r24, 0x8F	; 143
    37b8:	92 e0       	ldi	r25, 0x02	; 2
    37ba:	0e 94 2c 05 	call	0xa58	; 0xa58 <_ZN7TwoWire5beginEh>
    37be:	61 ed       	ldi	r22, 0xD1	; 209
    37c0:	7d e1       	ldi	r23, 0x1D	; 29
    37c2:	8f e8       	ldi	r24, 0x8F	; 143
    37c4:	92 e0       	ldi	r25, 0x02	; 2
    37c6:	0e 94 9f 06 	call	0xd3e	; 0xd3e <_ZN7TwoWire9onRequestEPFvvE>
    37ca:	67 ed       	ldi	r22, 0xD7	; 215
    37cc:	7c e1       	ldi	r23, 0x1C	; 28
    37ce:	8f e8       	ldi	r24, 0x8F	; 143
    37d0:	92 e0       	ldi	r25, 0x02	; 2
    37d2:	0e 94 8b 06 	call	0xd16	; 0xd16 <_ZN7TwoWire9onReceiveEPFviE>
    37d6:	e2 e0       	ldi	r30, 0x02	; 2
    37d8:	0c 94 b2 2c 	jmp	0x5964	; 0x5964 <__epilogue_restores__+0x20>

000037dc <_ZN15WaterSensorWire4LoopEv>:
    37dc:	a4 e3       	ldi	r26, 0x34	; 52
    37de:	b0 e0       	ldi	r27, 0x00	; 0
    37e0:	e4 ef       	ldi	r30, 0xF4	; 244
    37e2:	fb e1       	ldi	r31, 0x1B	; 27
    37e4:	0c 94 96 2c 	jmp	0x592c	; 0x592c <__prologue_saves__+0x20>
    37e8:	80 91 ab 01 	lds	r24, 0x01AB	; 0x8001ab <_ZN7Globals11ThePHSensorE>
    37ec:	90 91 ac 01 	lds	r25, 0x01AC	; 0x8001ac <_ZN7Globals11ThePHSensorE+0x1>
    37f0:	8e 58       	subi	r24, 0x8E	; 142
    37f2:	9f 4f       	sbci	r25, 0xFF	; 255
    37f4:	0e 94 8c 12 	call	0x2518	; 0x2518 <_ZNK6String5c_strEv>
    37f8:	bc 01       	movw	r22, r24
    37fa:	8c e3       	ldi	r24, 0x3C	; 60
    37fc:	93 e0       	ldi	r25, 0x03	; 3
    37fe:	0e 94 eb 29 	call	0x53d6	; 0x53d6 <_ZN6StringaSEPKc>
    3802:	80 91 ad 01 	lds	r24, 0x01AD	; 0x8001ad <_ZN7Globals12TheTDSSensorE>
    3806:	90 91 ae 01 	lds	r25, 0x01AE	; 0x8001ae <_ZN7Globals12TheTDSSensorE+0x1>
    380a:	88 5b       	subi	r24, 0xB8	; 184
    380c:	9f 4f       	sbci	r25, 0xFF	; 255
    380e:	0e 94 8c 12 	call	0x2518	; 0x2518 <_ZNK6String5c_strEv>
    3812:	bc 01       	movw	r22, r24
    3814:	82 e4       	ldi	r24, 0x42	; 66
    3816:	93 e0       	ldi	r25, 0x03	; 3
    3818:	0e 94 eb 29 	call	0x53d6	; 0x53d6 <_ZN6StringaSEPKc>
    381c:	80 91 ab 01 	lds	r24, 0x01AB	; 0x8001ab <_ZN7Globals11ThePHSensorE>
    3820:	90 91 ac 01 	lds	r25, 0x01AC	; 0x8001ac <_ZN7Globals11ThePHSensorE+0x1>
    3824:	88 58       	subi	r24, 0x88	; 136
    3826:	9f 4f       	sbci	r25, 0xFF	; 255
    3828:	fc 01       	movw	r30, r24
    382a:	80 81       	ld	r24, Z
    382c:	91 81       	ldd	r25, Z+1	; 0x01
    382e:	a2 81       	ldd	r26, Z+2	; 0x02
    3830:	b3 81       	ldd	r27, Z+3	; 0x03
    3832:	fe 01       	movw	r30, r28
    3834:	b7 96       	adiw	r30, 0x27	; 39
    3836:	22 e0       	ldi	r18, 0x02	; 2
    3838:	ac 01       	movw	r20, r24
    383a:	bd 01       	movw	r22, r26
    383c:	cf 01       	movw	r24, r30
    383e:	0e 94 83 2a 	call	0x5506	; 0x5506 <_ZN6StringC1Edh>
    3842:	ce 01       	movw	r24, r28
    3844:	87 96       	adiw	r24, 0x27	; 39
    3846:	0e 94 8c 12 	call	0x2518	; 0x2518 <_ZNK6String5c_strEv>
    384a:	bc 01       	movw	r22, r24
    384c:	8a e5       	ldi	r24, 0x5A	; 90
    384e:	93 e0       	ldi	r25, 0x03	; 3
    3850:	0e 94 eb 29 	call	0x53d6	; 0x53d6 <_ZN6StringaSEPKc>
    3854:	ce 01       	movw	r24, r28
    3856:	87 96       	adiw	r24, 0x27	; 39
    3858:	0e 94 53 29 	call	0x52a6	; 0x52a6 <_ZN6StringD1Ev>
    385c:	80 91 ad 01 	lds	r24, 0x01AD	; 0x8001ad <_ZN7Globals12TheTDSSensorE>
    3860:	90 91 ae 01 	lds	r25, 0x01AE	; 0x8001ae <_ZN7Globals12TheTDSSensorE+0x1>
    3864:	82 5b       	subi	r24, 0xB2	; 178
    3866:	9f 4f       	sbci	r25, 0xFF	; 255
    3868:	fc 01       	movw	r30, r24
    386a:	20 81       	ld	r18, Z
    386c:	31 81       	ldd	r19, Z+1	; 0x01
    386e:	ce 01       	movw	r24, r28
    3870:	81 96       	adiw	r24, 0x21	; 33
    3872:	4a e0       	ldi	r20, 0x0A	; 10
    3874:	b9 01       	movw	r22, r18
    3876:	0e 94 00 2a 	call	0x5400	; 0x5400 <_ZN6StringC1Eih>
    387a:	ce 01       	movw	r24, r28
    387c:	81 96       	adiw	r24, 0x21	; 33
    387e:	0e 94 8c 12 	call	0x2518	; 0x2518 <_ZNK6String5c_strEv>
    3882:	bc 01       	movw	r22, r24
    3884:	80 e6       	ldi	r24, 0x60	; 96
    3886:	93 e0       	ldi	r25, 0x03	; 3
    3888:	0e 94 eb 29 	call	0x53d6	; 0x53d6 <_ZN6StringaSEPKc>
    388c:	ce 01       	movw	r24, r28
    388e:	81 96       	adiw	r24, 0x21	; 33
    3890:	0e 94 53 29 	call	0x52a6	; 0x52a6 <_ZN6StringD1Ev>
    3894:	90 91 66 03 	lds	r25, 0x0366	; 0x800366 <_ZN7Globals10ReadingTDSE>
    3898:	81 e0       	ldi	r24, 0x01	; 1
    389a:	89 27       	eor	r24, r25
    389c:	88 23       	and	r24, r24
    389e:	39 f0       	breq	.+14     	; 0x38ae <_ZN15WaterSensorWire4LoopEv+0xd2>
    38a0:	64 e3       	ldi	r22, 0x34	; 52
    38a2:	71 e0       	ldi	r23, 0x01	; 1
    38a4:	84 e5       	ldi	r24, 0x54	; 84
    38a6:	93 e0       	ldi	r25, 0x03	; 3
    38a8:	0e 94 eb 29 	call	0x53d6	; 0x53d6 <_ZN6StringaSEPKc>
    38ac:	06 c0       	rjmp	.+12     	; 0x38ba <_ZN15WaterSensorWire4LoopEv+0xde>
    38ae:	67 e3       	ldi	r22, 0x37	; 55
    38b0:	71 e0       	ldi	r23, 0x01	; 1
    38b2:	84 e5       	ldi	r24, 0x54	; 84
    38b4:	93 e0       	ldi	r25, 0x03	; 3
    38b6:	0e 94 eb 29 	call	0x53d6	; 0x53d6 <_ZN6StringaSEPKc>
    38ba:	80 91 67 03 	lds	r24, 0x0367	; 0x800367 <_ZN7Globals18SensorReadDurationE>
    38be:	90 91 68 03 	lds	r25, 0x0368	; 0x800368 <_ZN7Globals18SensorReadDurationE+0x1>
    38c2:	a0 91 69 03 	lds	r26, 0x0369	; 0x800369 <_ZN7Globals18SensorReadDurationE+0x2>
    38c6:	b0 91 6a 03 	lds	r27, 0x036A	; 0x80036a <_ZN7Globals18SensorReadDurationE+0x3>
    38ca:	28 ee       	ldi	r18, 0xE8	; 232
    38cc:	33 e0       	ldi	r19, 0x03	; 3
    38ce:	40 e0       	ldi	r20, 0x00	; 0
    38d0:	50 e0       	ldi	r21, 0x00	; 0
    38d2:	bc 01       	movw	r22, r24
    38d4:	cd 01       	movw	r24, r26
    38d6:	0e 94 5a 2c 	call	0x58b4	; 0x58b4 <__divmodsi4>
    38da:	da 01       	movw	r26, r20
    38dc:	c9 01       	movw	r24, r18
    38de:	89 83       	std	Y+1, r24	; 0x01
    38e0:	9a 83       	std	Y+2, r25	; 0x02
    38e2:	ab 83       	std	Y+3, r26	; 0x03
    38e4:	bc 83       	std	Y+4, r27	; 0x04
    38e6:	89 81       	ldd	r24, Y+1	; 0x01
    38e8:	9a 81       	ldd	r25, Y+2	; 0x02
    38ea:	ab 81       	ldd	r26, Y+3	; 0x03
    38ec:	bc 81       	ldd	r27, Y+4	; 0x04
    38ee:	fe 01       	movw	r30, r28
    38f0:	75 96       	adiw	r30, 0x15	; 21
    38f2:	2a e0       	ldi	r18, 0x0A	; 10
    38f4:	ac 01       	movw	r20, r24
    38f6:	bd 01       	movw	r22, r26
    38f8:	cf 01       	movw	r24, r30
    38fa:	0e 94 2a 2a 	call	0x5454	; 0x5454 <_ZN6StringC1Elh>
    38fe:	9e 01       	movw	r18, r28
    3900:	2b 5e       	subi	r18, 0xEB	; 235
    3902:	3f 4f       	sbci	r19, 0xFF	; 255
    3904:	ce 01       	movw	r24, r28
    3906:	4b 96       	adiw	r24, 0x1b	; 27
    3908:	b9 01       	movw	r22, r18
    390a:	2b df       	rcall	.-426    	; 0x3762 <_ZN15StringSumHelperC1ERK6String>
    390c:	ce 01       	movw	r24, r28
    390e:	4b 96       	adiw	r24, 0x1b	; 27
    3910:	6b e3       	ldi	r22, 0x3B	; 59
    3912:	71 e0       	ldi	r23, 0x01	; 1
    3914:	0e 94 0e 2b 	call	0x561c	; 0x561c <_ZplRK15StringSumHelperPKc>
    3918:	bc 01       	movw	r22, r24
    391a:	8e e4       	ldi	r24, 0x4E	; 78
    391c:	93 e0       	ldi	r25, 0x03	; 3
    391e:	0e 94 ce 29 	call	0x539c	; 0x539c <_ZN6StringaSERKS_>
    3922:	ce 01       	movw	r24, r28
    3924:	4b 96       	adiw	r24, 0x1b	; 27
    3926:	1a da       	rcall	.-3020   	; 0x2d5c <_ZN15StringSumHelperD1Ev>
    3928:	ce 01       	movw	r24, r28
    392a:	45 96       	adiw	r24, 0x15	; 21
    392c:	0e 94 53 29 	call	0x52a6	; 0x52a6 <_ZN6StringD1Ev>
    3930:	80 91 10 01 	lds	r24, 0x0110	; 0x800110 <_ZN7Globals18SensorReadIntervalE>
    3934:	90 91 11 01 	lds	r25, 0x0111	; 0x800111 <_ZN7Globals18SensorReadIntervalE+0x1>
    3938:	a0 91 12 01 	lds	r26, 0x0112	; 0x800112 <_ZN7Globals18SensorReadIntervalE+0x2>
    393c:	b0 91 13 01 	lds	r27, 0x0113	; 0x800113 <_ZN7Globals18SensorReadIntervalE+0x3>
    3940:	28 ee       	ldi	r18, 0xE8	; 232
    3942:	33 e0       	ldi	r19, 0x03	; 3
    3944:	40 e0       	ldi	r20, 0x00	; 0
    3946:	50 e0       	ldi	r21, 0x00	; 0
    3948:	bc 01       	movw	r22, r24
    394a:	cd 01       	movw	r24, r26
    394c:	0e 94 5a 2c 	call	0x58b4	; 0x58b4 <__divmodsi4>
    3950:	da 01       	movw	r26, r20
    3952:	c9 01       	movw	r24, r18
    3954:	8d 83       	std	Y+5, r24	; 0x05
    3956:	9e 83       	std	Y+6, r25	; 0x06
    3958:	af 83       	std	Y+7, r26	; 0x07
    395a:	b8 87       	std	Y+8, r27	; 0x08
    395c:	8d 81       	ldd	r24, Y+5	; 0x05
    395e:	9e 81       	ldd	r25, Y+6	; 0x06
    3960:	af 81       	ldd	r26, Y+7	; 0x07
    3962:	b8 85       	ldd	r27, Y+8	; 0x08
    3964:	fe 01       	movw	r30, r28
    3966:	39 96       	adiw	r30, 0x09	; 9
    3968:	2a e0       	ldi	r18, 0x0A	; 10
    396a:	ac 01       	movw	r20, r24
    396c:	bd 01       	movw	r22, r26
    396e:	cf 01       	movw	r24, r30
    3970:	0e 94 2a 2a 	call	0x5454	; 0x5454 <_ZN6StringC1Elh>
    3974:	9e 01       	movw	r18, r28
    3976:	27 5f       	subi	r18, 0xF7	; 247
    3978:	3f 4f       	sbci	r19, 0xFF	; 255
    397a:	ce 01       	movw	r24, r28
    397c:	0f 96       	adiw	r24, 0x0f	; 15
    397e:	b9 01       	movw	r22, r18
    3980:	f0 de       	rcall	.-544    	; 0x3762 <_ZN15StringSumHelperC1ERK6String>
    3982:	ce 01       	movw	r24, r28
    3984:	0f 96       	adiw	r24, 0x0f	; 15
    3986:	6b e3       	ldi	r22, 0x3B	; 59
    3988:	71 e0       	ldi	r23, 0x01	; 1
    398a:	0e 94 0e 2b 	call	0x561c	; 0x561c <_ZplRK15StringSumHelperPKc>
    398e:	bc 01       	movw	r22, r24
    3990:	88 e4       	ldi	r24, 0x48	; 72
    3992:	93 e0       	ldi	r25, 0x03	; 3
    3994:	0e 94 ce 29 	call	0x539c	; 0x539c <_ZN6StringaSERKS_>
    3998:	ce 01       	movw	r24, r28
    399a:	0f 96       	adiw	r24, 0x0f	; 15
    399c:	df d9       	rcall	.-3138   	; 0x2d5c <_ZN15StringSumHelperD1Ev>
    399e:	ce 01       	movw	r24, r28
    39a0:	09 96       	adiw	r24, 0x09	; 9
    39a2:	0e 94 53 29 	call	0x52a6	; 0x52a6 <_ZN6StringD1Ev>
    39a6:	e4 96       	adiw	r28, 0x34	; 52
    39a8:	e2 e0       	ldi	r30, 0x02	; 2
    39aa:	0c 94 b2 2c 	jmp	0x5964	; 0x5964 <__epilogue_restores__+0x20>

000039ae <_ZN15WaterSensorWire7ReceiveEi>:
    39ae:	a7 e2       	ldi	r26, 0x27	; 39
    39b0:	b0 e0       	ldi	r27, 0x00	; 0
    39b2:	ed ed       	ldi	r30, 0xDD	; 221
    39b4:	fc e1       	ldi	r31, 0x1C	; 28
    39b6:	0c 94 95 2c 	jmp	0x592a	; 0x592a <__prologue_saves__+0x1e>
    39ba:	9f a3       	std	Y+39, r25	; 0x27
    39bc:	8e a3       	std	Y+38, r24	; 0x26
    39be:	6d e3       	ldi	r22, 0x3D	; 61
    39c0:	71 e0       	ldi	r23, 0x01	; 1
    39c2:	8e e1       	ldi	r24, 0x1E	; 30
    39c4:	93 e0       	ldi	r25, 0x03	; 3
    39c6:	0e 94 eb 29 	call	0x53d6	; 0x53d6 <_ZN6StringaSEPKc>
    39ca:	6d e3       	ldi	r22, 0x3D	; 61
    39cc:	71 e0       	ldi	r23, 0x01	; 1
    39ce:	8a e2       	ldi	r24, 0x2A	; 42
    39d0:	93 e0       	ldi	r25, 0x03	; 3
    39d2:	0e 94 eb 29 	call	0x53d6	; 0x53d6 <_ZN6StringaSEPKc>
    39d6:	6d e3       	ldi	r22, 0x3D	; 61
    39d8:	71 e0       	ldi	r23, 0x01	; 1
    39da:	80 e3       	ldi	r24, 0x30	; 48
    39dc:	93 e0       	ldi	r25, 0x03	; 3
    39de:	0e 94 eb 29 	call	0x53d6	; 0x53d6 <_ZN6StringaSEPKc>
    39e2:	8e a1       	ldd	r24, Y+38	; 0x26
    39e4:	9f a1       	ldd	r25, Y+39	; 0x27
    39e6:	44 97       	sbiw	r24, 0x14	; 20
    39e8:	09 f0       	breq	.+2      	; 0x39ec <_ZN15WaterSensorWire7ReceiveEi+0x3e>
    39ea:	c7 c0       	rjmp	.+398    	; 0x3b7a <_ZN15WaterSensorWire7ReceiveEi+0x1cc>
    39ec:	0a c0       	rjmp	.+20     	; 0x3a02 <_ZN15WaterSensorWire7ReceiveEi+0x54>
    39ee:	8f e8       	ldi	r24, 0x8F	; 143
    39f0:	92 e0       	ldi	r25, 0x02	; 2
    39f2:	0e 94 d2 05 	call	0xba4	; 0xba4 <_ZN7TwoWire4readEv>
    39f6:	89 83       	std	Y+1, r24	; 0x01
    39f8:	69 81       	ldd	r22, Y+1	; 0x01
    39fa:	8e e1       	ldi	r24, 0x1E	; 30
    39fc:	93 e0       	ldi	r25, 0x03	; 3
    39fe:	0e 94 eb 2a 	call	0x55d6	; 0x55d6 <_ZN6String6concatEc>
    3a02:	8f e8       	ldi	r24, 0x8F	; 143
    3a04:	92 e0       	ldi	r25, 0x02	; 2
    3a06:	0e 94 ba 05 	call	0xb74	; 0xb74 <_ZN7TwoWire9availableEv>
    3a0a:	21 e0       	ldi	r18, 0x01	; 1
    3a0c:	18 16       	cp	r1, r24
    3a0e:	19 06       	cpc	r1, r25
    3a10:	0c f0       	brlt	.+2      	; 0x3a14 <_ZN15WaterSensorWire7ReceiveEi+0x66>
    3a12:	20 e0       	ldi	r18, 0x00	; 0
    3a14:	22 23       	and	r18, r18
    3a16:	59 f7       	brne	.-42     	; 0x39ee <_ZN15WaterSensorWire7ReceiveEi+0x40>
    3a18:	8e e1       	ldi	r24, 0x1E	; 30
    3a1a:	93 e0       	ldi	r25, 0x03	; 3
    3a1c:	0e 94 cc 2b 	call	0x5798	; 0x5798 <_ZN6String4trimEv>
    3a20:	ce 01       	movw	r24, r28
    3a22:	44 96       	adiw	r24, 0x14	; 20
    3a24:	6e e3       	ldi	r22, 0x3E	; 62
    3a26:	71 e0       	ldi	r23, 0x01	; 1
    3a28:	0e 94 ba 29 	call	0x5374	; 0x5374 <_ZN6StringC1EPKc>
    3a2c:	ce 01       	movw	r24, r28
    3a2e:	44 96       	adiw	r24, 0x14	; 20
    3a30:	bc 01       	movw	r22, r24
    3a32:	8e e1       	ldi	r24, 0x1E	; 30
    3a34:	93 e0       	ldi	r25, 0x03	; 3
    3a36:	0e 94 68 2b 	call	0x56d0	; 0x56d0 <_ZNK6String10startsWithERKS_>
    3a3a:	11 e0       	ldi	r17, 0x01	; 1
    3a3c:	88 23       	and	r24, r24
    3a3e:	09 f4       	brne	.+2      	; 0x3a42 <_ZN15WaterSensorWire7ReceiveEi+0x94>
    3a40:	10 e0       	ldi	r17, 0x00	; 0
    3a42:	ce 01       	movw	r24, r28
    3a44:	44 96       	adiw	r24, 0x14	; 20
    3a46:	0e 94 53 29 	call	0x52a6	; 0x52a6 <_ZN6StringD1Ev>
    3a4a:	11 23       	and	r17, r17
    3a4c:	a1 f0       	breq	.+40     	; 0x3a76 <_ZN15WaterSensorWire7ReceiveEi+0xc8>
    3a4e:	6e e1       	ldi	r22, 0x1E	; 30
    3a50:	73 e0       	ldi	r23, 0x03	; 3
    3a52:	8a e2       	ldi	r24, 0x2A	; 42
    3a54:	93 e0       	ldi	r25, 0x03	; 3
    3a56:	0e 94 ce 29 	call	0x539c	; 0x539c <_ZN6StringaSERKS_>
    3a5a:	86 ef       	ldi	r24, 0xF6	; 246
    3a5c:	93 e0       	ldi	r25, 0x03	; 3
    3a5e:	bc 01       	movw	r22, r24
    3a60:	85 e1       	ldi	r24, 0x15	; 21
    3a62:	95 e0       	ldi	r25, 0x05	; 5
    3a64:	0e 94 55 26 	call	0x4caa	; 0x4caa <_ZN5Print5printEPK19__FlashStringHelper>
    3a68:	6a e2       	ldi	r22, 0x2A	; 42
    3a6a:	73 e0       	ldi	r23, 0x03	; 3
    3a6c:	85 e1       	ldi	r24, 0x15	; 21
    3a6e:	95 e0       	ldi	r25, 0x05	; 5
    3a70:	0e 94 a1 26 	call	0x4d42	; 0x4d42 <_ZN5Print7printlnERK6String>
    3a74:	92 c0       	rjmp	.+292    	; 0x3b9a <_ZN15WaterSensorWire7ReceiveEi+0x1ec>
    3a76:	6e e1       	ldi	r22, 0x1E	; 30
    3a78:	73 e0       	ldi	r23, 0x03	; 3
    3a7a:	80 e3       	ldi	r24, 0x30	; 48
    3a7c:	93 e0       	ldi	r25, 0x03	; 3
    3a7e:	0e 94 ce 29 	call	0x539c	; 0x539c <_ZN6StringaSERKS_>
    3a82:	8c ef       	ldi	r24, 0xFC	; 252
    3a84:	93 e0       	ldi	r25, 0x03	; 3
    3a86:	bc 01       	movw	r22, r24
    3a88:	85 e1       	ldi	r24, 0x15	; 21
    3a8a:	95 e0       	ldi	r25, 0x05	; 5
    3a8c:	0e 94 55 26 	call	0x4caa	; 0x4caa <_ZN5Print5printEPK19__FlashStringHelper>
    3a90:	60 e3       	ldi	r22, 0x30	; 48
    3a92:	73 e0       	ldi	r23, 0x03	; 3
    3a94:	85 e1       	ldi	r24, 0x15	; 21
    3a96:	95 e0       	ldi	r25, 0x05	; 5
    3a98:	0e 94 a1 26 	call	0x4d42	; 0x4d42 <_ZN5Print7printlnERK6String>
    3a9c:	ce 01       	movw	r24, r28
    3a9e:	0e 96       	adiw	r24, 0x0e	; 14
    3aa0:	60 e3       	ldi	r22, 0x30	; 48
    3aa2:	73 e0       	ldi	r23, 0x03	; 3
    3aa4:	0e 94 e3 29 	call	0x53c6	; 0x53c6 <_ZN6StringC1ERKS_>
    3aa8:	ce 01       	movw	r24, r28
    3aaa:	4a 96       	adiw	r24, 0x1a	; 26
    3aac:	be 01       	movw	r22, r28
    3aae:	62 5f       	subi	r22, 0xF2	; 242
    3ab0:	7f 4f       	sbci	r23, 0xFF	; 255
    3ab2:	20 e0       	ldi	r18, 0x00	; 0
    3ab4:	30 e0       	ldi	r19, 0x00	; 0
    3ab6:	4d e3       	ldi	r20, 0x3D	; 61
    3ab8:	94 d1       	rcall	.+808    	; 0x3de2 <_ZN15WaterSensorWire11SplitStringE6Stringci>
    3aba:	ce 01       	movw	r24, r28
    3abc:	0e 96       	adiw	r24, 0x0e	; 14
    3abe:	0e 94 53 29 	call	0x52a6	; 0x52a6 <_ZN6StringD1Ev>
    3ac2:	ce 01       	movw	r24, r28
    3ac4:	08 96       	adiw	r24, 0x08	; 8
    3ac6:	60 e3       	ldi	r22, 0x30	; 48
    3ac8:	73 e0       	ldi	r23, 0x03	; 3
    3aca:	0e 94 e3 29 	call	0x53c6	; 0x53c6 <_ZN6StringC1ERKS_>
    3ace:	ce 01       	movw	r24, r28
    3ad0:	80 96       	adiw	r24, 0x20	; 32
    3ad2:	be 01       	movw	r22, r28
    3ad4:	68 5f       	subi	r22, 0xF8	; 248
    3ad6:	7f 4f       	sbci	r23, 0xFF	; 255
    3ad8:	21 e0       	ldi	r18, 0x01	; 1
    3ada:	30 e0       	ldi	r19, 0x00	; 0
    3adc:	4d e3       	ldi	r20, 0x3D	; 61
    3ade:	81 d1       	rcall	.+770    	; 0x3de2 <_ZN15WaterSensorWire11SplitStringE6Stringci>
    3ae0:	ce 01       	movw	r24, r28
    3ae2:	08 96       	adiw	r24, 0x08	; 8
    3ae4:	0e 94 53 29 	call	0x52a6	; 0x52a6 <_ZN6StringD1Ev>
    3ae8:	ce 01       	movw	r24, r28
    3aea:	4a 96       	adiw	r24, 0x1a	; 26
    3aec:	60 e4       	ldi	r22, 0x40	; 64
    3aee:	71 e0       	ldi	r23, 0x01	; 1
    3af0:	23 de       	rcall	.-954    	; 0x3738 <_ZNK6StringeqEPKc>
    3af2:	98 2f       	mov	r25, r24
    3af4:	81 e0       	ldi	r24, 0x01	; 1
    3af6:	99 23       	and	r25, r25
    3af8:	09 f4       	brne	.+2      	; 0x3afc <_ZN15WaterSensorWire7ReceiveEi+0x14e>
    3afa:	80 e0       	ldi	r24, 0x00	; 0
    3afc:	88 23       	and	r24, r24
    3afe:	89 f0       	breq	.+34     	; 0x3b22 <_ZN15WaterSensorWire7ReceiveEi+0x174>
    3b00:	ce 01       	movw	r24, r28
    3b02:	80 96       	adiw	r24, 0x20	; 32
    3b04:	0e 94 23 2c 	call	0x5846	; 0x5846 <_ZNK6String5toIntEv>
    3b08:	dc 01       	movw	r26, r24
    3b0a:	cb 01       	movw	r24, r22
    3b0c:	9b 83       	std	Y+3, r25	; 0x03
    3b0e:	8a 83       	std	Y+2, r24	; 0x02
    3b10:	80 91 ad 01 	lds	r24, 0x01AD	; 0x8001ad <_ZN7Globals12TheTDSSensorE>
    3b14:	90 91 ae 01 	lds	r25, 0x01AE	; 0x8001ae <_ZN7Globals12TheTDSSensorE+0x1>
    3b18:	2a 81       	ldd	r18, Y+2	; 0x02
    3b1a:	3b 81       	ldd	r19, Y+3	; 0x03
    3b1c:	b9 01       	movw	r22, r18
    3b1e:	33 db       	rcall	.-2458   	; 0x3186 <_ZN9TDSSensor6UpdateEi>
    3b20:	23 c0       	rjmp	.+70     	; 0x3b68 <_ZN15WaterSensorWire7ReceiveEi+0x1ba>
    3b22:	ce 01       	movw	r24, r28
    3b24:	4a 96       	adiw	r24, 0x1a	; 26
    3b26:	6a e4       	ldi	r22, 0x4A	; 74
    3b28:	71 e0       	ldi	r23, 0x01	; 1
    3b2a:	06 de       	rcall	.-1012   	; 0x3738 <_ZNK6StringeqEPKc>
    3b2c:	98 2f       	mov	r25, r24
    3b2e:	81 e0       	ldi	r24, 0x01	; 1
    3b30:	99 23       	and	r25, r25
    3b32:	09 f4       	brne	.+2      	; 0x3b36 <_ZN15WaterSensorWire7ReceiveEi+0x188>
    3b34:	80 e0       	ldi	r24, 0x00	; 0
    3b36:	88 23       	and	r24, r24
    3b38:	b9 f0       	breq	.+46     	; 0x3b68 <_ZN15WaterSensorWire7ReceiveEi+0x1ba>
    3b3a:	ce 01       	movw	r24, r28
    3b3c:	80 96       	adiw	r24, 0x20	; 32
    3b3e:	0e 94 2d 2c 	call	0x585a	; 0x585a <_ZNK6String7toFloatEv>
    3b42:	dc 01       	movw	r26, r24
    3b44:	cb 01       	movw	r24, r22
    3b46:	8c 83       	std	Y+4, r24	; 0x04
    3b48:	9d 83       	std	Y+5, r25	; 0x05
    3b4a:	ae 83       	std	Y+6, r26	; 0x06
    3b4c:	bf 83       	std	Y+7, r27	; 0x07
    3b4e:	20 91 ab 01 	lds	r18, 0x01AB	; 0x8001ab <_ZN7Globals11ThePHSensorE>
    3b52:	30 91 ac 01 	lds	r19, 0x01AC	; 0x8001ac <_ZN7Globals11ThePHSensorE+0x1>
    3b56:	8c 81       	ldd	r24, Y+4	; 0x04
    3b58:	9d 81       	ldd	r25, Y+5	; 0x05
    3b5a:	ae 81       	ldd	r26, Y+6	; 0x06
    3b5c:	bf 81       	ldd	r27, Y+7	; 0x07
    3b5e:	ac 01       	movw	r20, r24
    3b60:	bd 01       	movw	r22, r26
    3b62:	c9 01       	movw	r24, r18
    3b64:	0e 94 03 15 	call	0x2a06	; 0x2a06 <_ZN8PHSensor6UpdateEd>
    3b68:	ce 01       	movw	r24, r28
    3b6a:	80 96       	adiw	r24, 0x20	; 32
    3b6c:	0e 94 53 29 	call	0x52a6	; 0x52a6 <_ZN6StringD1Ev>
    3b70:	ce 01       	movw	r24, r28
    3b72:	4a 96       	adiw	r24, 0x1a	; 26
    3b74:	0e 94 53 29 	call	0x52a6	; 0x52a6 <_ZN6StringD1Ev>
    3b78:	10 c0       	rjmp	.+32     	; 0x3b9a <_ZN15WaterSensorWire7ReceiveEi+0x1ec>
    3b7a:	86 e0       	ldi	r24, 0x06	; 6
    3b7c:	94 e0       	ldi	r25, 0x04	; 4
    3b7e:	bc 01       	movw	r22, r24
    3b80:	85 e1       	ldi	r24, 0x15	; 21
    3b82:	95 e0       	ldi	r25, 0x05	; 5
    3b84:	0e 94 55 26 	call	0x4caa	; 0x4caa <_ZN5Print5printEPK19__FlashStringHelper>
    3b88:	8e a1       	ldd	r24, Y+38	; 0x26
    3b8a:	9f a1       	ldd	r25, Y+39	; 0x27
    3b8c:	4a e0       	ldi	r20, 0x0A	; 10
    3b8e:	50 e0       	ldi	r21, 0x00	; 0
    3b90:	bc 01       	movw	r22, r24
    3b92:	85 e1       	ldi	r24, 0x15	; 21
    3b94:	95 e0       	ldi	r25, 0x05	; 5
    3b96:	0e 94 4a 27 	call	0x4e94	; 0x4e94 <_ZN5Print7printlnEii>
    3b9a:	a7 96       	adiw	r28, 0x27	; 39
    3b9c:	e3 e0       	ldi	r30, 0x03	; 3
    3b9e:	0c 94 b1 2c 	jmp	0x5962	; 0x5962 <__epilogue_restores__+0x1e>

00003ba2 <_ZN15WaterSensorWire7RequestEv>:
    3ba2:	a2 e1       	ldi	r26, 0x12	; 18
    3ba4:	b0 e0       	ldi	r27, 0x00	; 0
    3ba6:	e7 ed       	ldi	r30, 0xD7	; 215
    3ba8:	fd e1       	ldi	r31, 0x1D	; 29
    3baa:	0c 94 94 2c 	jmp	0x5928	; 0x5928 <__prologue_saves__+0x1c>
    3bae:	ce 01       	movw	r24, r28
    3bb0:	0d 96       	adiw	r24, 0x0d	; 13
    3bb2:	6d e3       	ldi	r22, 0x3D	; 61
    3bb4:	71 e0       	ldi	r23, 0x01	; 1
    3bb6:	0e 94 ba 29 	call	0x5374	; 0x5374 <_ZN6StringC1EPKc>
    3bba:	6e e3       	ldi	r22, 0x3E	; 62
    3bbc:	71 e0       	ldi	r23, 0x01	; 1
    3bbe:	8a e2       	ldi	r24, 0x2A	; 42
    3bc0:	93 e0       	ldi	r25, 0x03	; 3
    3bc2:	ba dd       	rcall	.-1164   	; 0x3738 <_ZNK6StringeqEPKc>
    3bc4:	98 2f       	mov	r25, r24
    3bc6:	81 e0       	ldi	r24, 0x01	; 1
    3bc8:	99 23       	and	r25, r25
    3bca:	09 f4       	brne	.+2      	; 0x3bce <_ZN15WaterSensorWire7RequestEv+0x2c>
    3bcc:	80 e0       	ldi	r24, 0x00	; 0
    3bce:	88 23       	and	r24, r24
    3bd0:	c1 f0       	breq	.+48     	; 0x3c02 <_ZN15WaterSensorWire7RequestEv+0x60>
    3bd2:	ce 01       	movw	r24, r28
    3bd4:	0d 96       	adiw	r24, 0x0d	; 13
    3bd6:	63 e5       	ldi	r22, 0x53	; 83
    3bd8:	71 e0       	ldi	r23, 0x01	; 1
    3bda:	0e 94 eb 29 	call	0x53d6	; 0x53d6 <_ZN6StringaSEPKc>
    3bde:	9e 01       	movw	r18, r28
    3be0:	23 5f       	subi	r18, 0xF3	; 243
    3be2:	3f 4f       	sbci	r19, 0xFF	; 255
    3be4:	ce 01       	movw	r24, r28
    3be6:	07 96       	adiw	r24, 0x07	; 7
    3be8:	b9 01       	movw	r22, r18
    3bea:	0e 94 e3 29 	call	0x53c6	; 0x53c6 <_ZN6StringC1ERKS_>
    3bee:	ce 01       	movw	r24, r28
    3bf0:	07 96       	adiw	r24, 0x07	; 7
    3bf2:	a7 d0       	rcall	.+334    	; 0x3d42 <_ZN15WaterSensorWire8TransmitE6String>
    3bf4:	ce 01       	movw	r24, r28
    3bf6:	07 96       	adiw	r24, 0x07	; 7
    3bf8:	0e 94 53 29 	call	0x52a6	; 0x52a6 <_ZN6StringD1Ev>
    3bfc:	00 e0       	ldi	r16, 0x00	; 0
    3bfe:	10 e0       	ldi	r17, 0x00	; 0
    3c00:	94 c0       	rjmp	.+296    	; 0x3d2a <_ZN15WaterSensorWire7RequestEv+0x188>
    3c02:	80 91 06 01 	lds	r24, 0x0106	; 0x800106 <_ZL14_responseIndex>
    3c06:	90 91 07 01 	lds	r25, 0x0107	; 0x800107 <_ZL14_responseIndex+0x1>
    3c0a:	01 96       	adiw	r24, 0x01	; 1
    3c0c:	90 93 07 01 	sts	0x0107, r25	; 0x800107 <_ZL14_responseIndex+0x1>
    3c10:	80 93 06 01 	sts	0x0106, r24	; 0x800106 <_ZL14_responseIndex>
    3c14:	80 91 06 01 	lds	r24, 0x0106	; 0x800106 <_ZL14_responseIndex>
    3c18:	90 91 07 01 	lds	r25, 0x0107	; 0x800107 <_ZL14_responseIndex+0x1>
    3c1c:	89 2b       	or	r24, r25
    3c1e:	39 f4       	brne	.+14     	; 0x3c2e <_ZN15WaterSensorWire7RequestEv+0x8c>
    3c20:	ce 01       	movw	r24, r28
    3c22:	0d 96       	adiw	r24, 0x0d	; 13
    3c24:	6c e3       	ldi	r22, 0x3C	; 60
    3c26:	73 e0       	ldi	r23, 0x03	; 3
    3c28:	0e 94 ce 29 	call	0x539c	; 0x539c <_ZN6StringaSERKS_>
    3c2c:	6e c0       	rjmp	.+220    	; 0x3d0a <_ZN15WaterSensorWire7RequestEv+0x168>
    3c2e:	80 91 06 01 	lds	r24, 0x0106	; 0x800106 <_ZL14_responseIndex>
    3c32:	90 91 07 01 	lds	r25, 0x0107	; 0x800107 <_ZL14_responseIndex+0x1>
    3c36:	01 97       	sbiw	r24, 0x01	; 1
    3c38:	39 f4       	brne	.+14     	; 0x3c48 <_ZN15WaterSensorWire7RequestEv+0xa6>
    3c3a:	ce 01       	movw	r24, r28
    3c3c:	0d 96       	adiw	r24, 0x0d	; 13
    3c3e:	62 e4       	ldi	r22, 0x42	; 66
    3c40:	73 e0       	ldi	r23, 0x03	; 3
    3c42:	0e 94 ce 29 	call	0x539c	; 0x539c <_ZN6StringaSERKS_>
    3c46:	61 c0       	rjmp	.+194    	; 0x3d0a <_ZN15WaterSensorWire7RequestEv+0x168>
    3c48:	80 91 06 01 	lds	r24, 0x0106	; 0x800106 <_ZL14_responseIndex>
    3c4c:	90 91 07 01 	lds	r25, 0x0107	; 0x800107 <_ZL14_responseIndex+0x1>
    3c50:	02 97       	sbiw	r24, 0x02	; 2
    3c52:	39 f4       	brne	.+14     	; 0x3c62 <_ZN15WaterSensorWire7RequestEv+0xc0>
    3c54:	ce 01       	movw	r24, r28
    3c56:	0d 96       	adiw	r24, 0x0d	; 13
    3c58:	6a e5       	ldi	r22, 0x5A	; 90
    3c5a:	73 e0       	ldi	r23, 0x03	; 3
    3c5c:	0e 94 ce 29 	call	0x539c	; 0x539c <_ZN6StringaSERKS_>
    3c60:	54 c0       	rjmp	.+168    	; 0x3d0a <_ZN15WaterSensorWire7RequestEv+0x168>
    3c62:	80 91 06 01 	lds	r24, 0x0106	; 0x800106 <_ZL14_responseIndex>
    3c66:	90 91 07 01 	lds	r25, 0x0107	; 0x800107 <_ZL14_responseIndex+0x1>
    3c6a:	03 97       	sbiw	r24, 0x03	; 3
    3c6c:	39 f4       	brne	.+14     	; 0x3c7c <_ZN15WaterSensorWire7RequestEv+0xda>
    3c6e:	ce 01       	movw	r24, r28
    3c70:	0d 96       	adiw	r24, 0x0d	; 13
    3c72:	60 e6       	ldi	r22, 0x60	; 96
    3c74:	73 e0       	ldi	r23, 0x03	; 3
    3c76:	0e 94 ce 29 	call	0x539c	; 0x539c <_ZN6StringaSERKS_>
    3c7a:	47 c0       	rjmp	.+142    	; 0x3d0a <_ZN15WaterSensorWire7RequestEv+0x168>
    3c7c:	80 91 06 01 	lds	r24, 0x0106	; 0x800106 <_ZL14_responseIndex>
    3c80:	90 91 07 01 	lds	r25, 0x0107	; 0x800107 <_ZL14_responseIndex+0x1>
    3c84:	04 97       	sbiw	r24, 0x04	; 4
    3c86:	39 f4       	brne	.+14     	; 0x3c96 <_ZN15WaterSensorWire7RequestEv+0xf4>
    3c88:	ce 01       	movw	r24, r28
    3c8a:	0d 96       	adiw	r24, 0x0d	; 13
    3c8c:	64 e5       	ldi	r22, 0x54	; 84
    3c8e:	73 e0       	ldi	r23, 0x03	; 3
    3c90:	0e 94 ce 29 	call	0x539c	; 0x539c <_ZN6StringaSERKS_>
    3c94:	3a c0       	rjmp	.+116    	; 0x3d0a <_ZN15WaterSensorWire7RequestEv+0x168>
    3c96:	80 91 06 01 	lds	r24, 0x0106	; 0x800106 <_ZL14_responseIndex>
    3c9a:	90 91 07 01 	lds	r25, 0x0107	; 0x800107 <_ZL14_responseIndex+0x1>
    3c9e:	05 97       	sbiw	r24, 0x05	; 5
    3ca0:	39 f4       	brne	.+14     	; 0x3cb0 <_ZN15WaterSensorWire7RequestEv+0x10e>
    3ca2:	ce 01       	movw	r24, r28
    3ca4:	0d 96       	adiw	r24, 0x0d	; 13
    3ca6:	6e e4       	ldi	r22, 0x4E	; 78
    3ca8:	73 e0       	ldi	r23, 0x03	; 3
    3caa:	0e 94 ce 29 	call	0x539c	; 0x539c <_ZN6StringaSERKS_>
    3cae:	2d c0       	rjmp	.+90     	; 0x3d0a <_ZN15WaterSensorWire7RequestEv+0x168>
    3cb0:	80 91 06 01 	lds	r24, 0x0106	; 0x800106 <_ZL14_responseIndex>
    3cb4:	90 91 07 01 	lds	r25, 0x0107	; 0x800107 <_ZL14_responseIndex+0x1>
    3cb8:	06 97       	sbiw	r24, 0x06	; 6
    3cba:	69 f4       	brne	.+26     	; 0x3cd6 <_ZN15WaterSensorWire7RequestEv+0x134>
    3cbc:	ce 01       	movw	r24, r28
    3cbe:	0d 96       	adiw	r24, 0x0d	; 13
    3cc0:	68 e4       	ldi	r22, 0x48	; 72
    3cc2:	73 e0       	ldi	r23, 0x03	; 3
    3cc4:	0e 94 ce 29 	call	0x539c	; 0x539c <_ZN6StringaSERKS_>
    3cc8:	8f ef       	ldi	r24, 0xFF	; 255
    3cca:	9f ef       	ldi	r25, 0xFF	; 255
    3ccc:	90 93 07 01 	sts	0x0107, r25	; 0x800107 <_ZL14_responseIndex+0x1>
    3cd0:	80 93 06 01 	sts	0x0106, r24	; 0x800106 <_ZL14_responseIndex>
    3cd4:	1a c0       	rjmp	.+52     	; 0x3d0a <_ZN15WaterSensorWire7RequestEv+0x168>
    3cd6:	8c e2       	ldi	r24, 0x2C	; 44
    3cd8:	94 e0       	ldi	r25, 0x04	; 4
    3cda:	bc 01       	movw	r22, r24
    3cdc:	85 e1       	ldi	r24, 0x15	; 21
    3cde:	95 e0       	ldi	r25, 0x05	; 5
    3ce0:	e4 d7       	rcall	.+4040   	; 0x4caa <_ZN5Print5printEPK19__FlashStringHelper>
    3ce2:	80 91 06 01 	lds	r24, 0x0106	; 0x800106 <_ZL14_responseIndex>
    3ce6:	90 91 07 01 	lds	r25, 0x0107	; 0x800107 <_ZL14_responseIndex+0x1>
    3cea:	4a e0       	ldi	r20, 0x0A	; 10
    3cec:	50 e0       	ldi	r21, 0x00	; 0
    3cee:	bc 01       	movw	r22, r24
    3cf0:	85 e1       	ldi	r24, 0x15	; 21
    3cf2:	95 e0       	ldi	r25, 0x05	; 5
    3cf4:	0e 94 4a 27 	call	0x4e94	; 0x4e94 <_ZN5Print7printlnEii>
    3cf8:	8f ef       	ldi	r24, 0xFF	; 255
    3cfa:	9f ef       	ldi	r25, 0xFF	; 255
    3cfc:	90 93 07 01 	sts	0x0107, r25	; 0x800107 <_ZL14_responseIndex+0x1>
    3d00:	80 93 06 01 	sts	0x0106, r24	; 0x800106 <_ZL14_responseIndex>
    3d04:	00 e0       	ldi	r16, 0x00	; 0
    3d06:	10 e0       	ldi	r17, 0x00	; 0
    3d08:	10 c0       	rjmp	.+32     	; 0x3d2a <_ZN15WaterSensorWire7RequestEv+0x188>
    3d0a:	ce 01       	movw	r24, r28
    3d0c:	0d 96       	adiw	r24, 0x0d	; 13
    3d0e:	bc 01       	movw	r22, r24
    3d10:	ce 01       	movw	r24, r28
    3d12:	01 96       	adiw	r24, 0x01	; 1
    3d14:	0e 94 e3 29 	call	0x53c6	; 0x53c6 <_ZN6StringC1ERKS_>
    3d18:	ce 01       	movw	r24, r28
    3d1a:	01 96       	adiw	r24, 0x01	; 1
    3d1c:	12 d0       	rcall	.+36     	; 0x3d42 <_ZN15WaterSensorWire8TransmitE6String>
    3d1e:	ce 01       	movw	r24, r28
    3d20:	01 96       	adiw	r24, 0x01	; 1
    3d22:	0e 94 53 29 	call	0x52a6	; 0x52a6 <_ZN6StringD1Ev>
    3d26:	01 e0       	ldi	r16, 0x01	; 1
    3d28:	10 e0       	ldi	r17, 0x00	; 0
    3d2a:	ce 01       	movw	r24, r28
    3d2c:	0d 96       	adiw	r24, 0x0d	; 13
    3d2e:	0e 94 53 29 	call	0x52a6	; 0x52a6 <_ZN6StringD1Ev>
    3d32:	01 30       	cpi	r16, 0x01	; 1
    3d34:	11 05       	cpc	r17, r1
    3d36:	09 f4       	brne	.+2      	; 0x3d3a <_ZN15WaterSensorWire7RequestEv+0x198>
    3d38:	00 00       	nop
    3d3a:	62 96       	adiw	r28, 0x12	; 18
    3d3c:	e4 e0       	ldi	r30, 0x04	; 4
    3d3e:	0c 94 b0 2c 	jmp	0x5960	; 0x5960 <__epilogue_restores__+0x1c>

00003d42 <_ZN15WaterSensorWire8TransmitE6String>:
    3d42:	a2 e1       	ldi	r26, 0x12	; 18
    3d44:	b0 e0       	ldi	r27, 0x00	; 0
    3d46:	e7 ea       	ldi	r30, 0xA7	; 167
    3d48:	fe e1       	ldi	r31, 0x1E	; 30
    3d4a:	0c 94 96 2c 	jmp	0x592c	; 0x592c <__prologue_saves__+0x20>
    3d4e:	9a 8b       	std	Y+18, r25	; 0x12
    3d50:	89 8b       	std	Y+17, r24	; 0x11
    3d52:	89 89       	ldd	r24, Y+17	; 0x11
    3d54:	9a 89       	ldd	r25, Y+18	; 0x12
    3d56:	c8 dc       	rcall	.-1648   	; 0x36e8 <_ZNK6String6lengthEv>
    3d58:	9c 01       	movw	r18, r24
    3d5a:	8a e0       	ldi	r24, 0x0A	; 10
    3d5c:	90 e0       	ldi	r25, 0x00	; 0
    3d5e:	82 1b       	sub	r24, r18
    3d60:	93 0b       	sbc	r25, r19
    3d62:	9e 83       	std	Y+6, r25	; 0x06
    3d64:	8d 83       	std	Y+5, r24	; 0x05
    3d66:	1a 82       	std	Y+2, r1	; 0x02
    3d68:	19 82       	std	Y+1, r1	; 0x01
    3d6a:	0a c0       	rjmp	.+20     	; 0x3d80 <_ZN15WaterSensorWire8TransmitE6String+0x3e>
    3d6c:	89 89       	ldd	r24, Y+17	; 0x11
    3d6e:	9a 89       	ldd	r25, Y+18	; 0x12
    3d70:	69 e5       	ldi	r22, 0x59	; 89
    3d72:	71 e0       	ldi	r23, 0x01	; 1
    3d74:	ca dc       	rcall	.-1644   	; 0x370a <_ZN6StringpLEPKc>
    3d76:	89 81       	ldd	r24, Y+1	; 0x01
    3d78:	9a 81       	ldd	r25, Y+2	; 0x02
    3d7a:	01 96       	adiw	r24, 0x01	; 1
    3d7c:	9a 83       	std	Y+2, r25	; 0x02
    3d7e:	89 83       	std	Y+1, r24	; 0x01
    3d80:	29 81       	ldd	r18, Y+1	; 0x01
    3d82:	3a 81       	ldd	r19, Y+2	; 0x02
    3d84:	8d 81       	ldd	r24, Y+5	; 0x05
    3d86:	9e 81       	ldd	r25, Y+6	; 0x06
    3d88:	28 17       	cp	r18, r24
    3d8a:	39 07       	cpc	r19, r25
    3d8c:	7c f3       	brlt	.-34     	; 0x3d6c <_ZN15WaterSensorWire8TransmitE6String+0x2a>
    3d8e:	1c 82       	std	Y+4, r1	; 0x04
    3d90:	1b 82       	std	Y+3, r1	; 0x03
    3d92:	16 c0       	rjmp	.+44     	; 0x3dc0 <_ZN15WaterSensorWire8TransmitE6String+0x7e>
    3d94:	2b 81       	ldd	r18, Y+3	; 0x03
    3d96:	3c 81       	ldd	r19, Y+4	; 0x04
    3d98:	89 89       	ldd	r24, Y+17	; 0x11
    3d9a:	9a 89       	ldd	r25, Y+18	; 0x12
    3d9c:	b9 01       	movw	r22, r18
    3d9e:	0e 94 87 2b 	call	0x570e	; 0x570e <_ZNK6String6charAtEj>
    3da2:	48 2f       	mov	r20, r24
    3da4:	9e 01       	movw	r18, r28
    3da6:	29 5f       	subi	r18, 0xF9	; 249
    3da8:	3f 4f       	sbci	r19, 0xFF	; 255
    3daa:	8b 81       	ldd	r24, Y+3	; 0x03
    3dac:	9c 81       	ldd	r25, Y+4	; 0x04
    3dae:	82 0f       	add	r24, r18
    3db0:	93 1f       	adc	r25, r19
    3db2:	fc 01       	movw	r30, r24
    3db4:	40 83       	st	Z, r20
    3db6:	8b 81       	ldd	r24, Y+3	; 0x03
    3db8:	9c 81       	ldd	r25, Y+4	; 0x04
    3dba:	01 96       	adiw	r24, 0x01	; 1
    3dbc:	9c 83       	std	Y+4, r25	; 0x04
    3dbe:	8b 83       	std	Y+3, r24	; 0x03
    3dc0:	8b 81       	ldd	r24, Y+3	; 0x03
    3dc2:	9c 81       	ldd	r25, Y+4	; 0x04
    3dc4:	0a 97       	sbiw	r24, 0x0a	; 10
    3dc6:	34 f3       	brlt	.-52     	; 0x3d94 <_ZN15WaterSensorWire8TransmitE6String+0x52>
    3dc8:	ce 01       	movw	r24, r28
    3dca:	07 96       	adiw	r24, 0x07	; 7
    3dcc:	4a e0       	ldi	r20, 0x0A	; 10
    3dce:	50 e0       	ldi	r21, 0x00	; 0
    3dd0:	bc 01       	movw	r22, r24
    3dd2:	8f e8       	ldi	r24, 0x8F	; 143
    3dd4:	92 e0       	ldi	r25, 0x02	; 2
    3dd6:	0e 94 7a 05 	call	0xaf4	; 0xaf4 <_ZN7TwoWire5writeEPKhj>
    3dda:	62 96       	adiw	r28, 0x12	; 18
    3ddc:	e2 e0       	ldi	r30, 0x02	; 2
    3dde:	0c 94 b2 2c 	jmp	0x5964	; 0x5964 <__epilogue_restores__+0x20>

00003de2 <_ZN15WaterSensorWire11SplitStringE6Stringci>:
    3de2:	a1 e1       	ldi	r26, 0x11	; 17
    3de4:	b0 e0       	ldi	r27, 0x00	; 0
    3de6:	e7 ef       	ldi	r30, 0xF7	; 247
    3de8:	fe e1       	ldi	r31, 0x1E	; 30
    3dea:	0c 94 96 2c 	jmp	0x592c	; 0x592c <__prologue_saves__+0x20>
    3dee:	9c 87       	std	Y+12, r25	; 0x0c
    3df0:	8b 87       	std	Y+11, r24	; 0x0b
    3df2:	7e 87       	std	Y+14, r23	; 0x0e
    3df4:	6d 87       	std	Y+13, r22	; 0x0d
    3df6:	4f 87       	std	Y+15, r20	; 0x0f
    3df8:	39 8b       	std	Y+17, r19	; 0x11
    3dfa:	28 8b       	std	Y+16, r18	; 0x10
    3dfc:	1a 82       	std	Y+2, r1	; 0x02
    3dfe:	19 82       	std	Y+1, r1	; 0x01
    3e00:	18 86       	std	Y+8, r1	; 0x08
    3e02:	1f 82       	std	Y+7, r1	; 0x07
    3e04:	8f ef       	ldi	r24, 0xFF	; 255
    3e06:	9f ef       	ldi	r25, 0xFF	; 255
    3e08:	9a 87       	std	Y+10, r25	; 0x0a
    3e0a:	89 87       	std	Y+9, r24	; 0x09
    3e0c:	8d 85       	ldd	r24, Y+13	; 0x0d
    3e0e:	9e 85       	ldd	r25, Y+14	; 0x0e
    3e10:	6b dc       	rcall	.-1834   	; 0x36e8 <_ZNK6String6lengthEv>
    3e12:	01 97       	sbiw	r24, 0x01	; 1
    3e14:	9e 83       	std	Y+6, r25	; 0x06
    3e16:	8d 83       	std	Y+5, r24	; 0x05
    3e18:	1c 82       	std	Y+4, r1	; 0x04
    3e1a:	1b 82       	std	Y+3, r1	; 0x03
    3e1c:	35 c0       	rjmp	.+106    	; 0x3e88 <_ZN15WaterSensorWire11SplitStringE6Stringci+0xa6>
    3e1e:	2b 81       	ldd	r18, Y+3	; 0x03
    3e20:	3c 81       	ldd	r19, Y+4	; 0x04
    3e22:	8d 85       	ldd	r24, Y+13	; 0x0d
    3e24:	9e 85       	ldd	r25, Y+14	; 0x0e
    3e26:	b9 01       	movw	r22, r18
    3e28:	0e 94 87 2b 	call	0x570e	; 0x570e <_ZNK6String6charAtEj>
    3e2c:	98 2f       	mov	r25, r24
    3e2e:	8f 85       	ldd	r24, Y+15	; 0x0f
    3e30:	98 17       	cp	r25, r24
    3e32:	39 f0       	breq	.+14     	; 0x3e42 <_ZN15WaterSensorWire11SplitStringE6Stringci+0x60>
    3e34:	2b 81       	ldd	r18, Y+3	; 0x03
    3e36:	3c 81       	ldd	r19, Y+4	; 0x04
    3e38:	8d 81       	ldd	r24, Y+5	; 0x05
    3e3a:	9e 81       	ldd	r25, Y+6	; 0x06
    3e3c:	28 17       	cp	r18, r24
    3e3e:	39 07       	cpc	r19, r25
    3e40:	11 f4       	brne	.+4      	; 0x3e46 <_ZN15WaterSensorWire11SplitStringE6Stringci+0x64>
    3e42:	81 e0       	ldi	r24, 0x01	; 1
    3e44:	01 c0       	rjmp	.+2      	; 0x3e48 <_ZN15WaterSensorWire11SplitStringE6Stringci+0x66>
    3e46:	80 e0       	ldi	r24, 0x00	; 0
    3e48:	88 23       	and	r24, r24
    3e4a:	c9 f0       	breq	.+50     	; 0x3e7e <_ZN15WaterSensorWire11SplitStringE6Stringci+0x9c>
    3e4c:	89 81       	ldd	r24, Y+1	; 0x01
    3e4e:	9a 81       	ldd	r25, Y+2	; 0x02
    3e50:	01 96       	adiw	r24, 0x01	; 1
    3e52:	9a 83       	std	Y+2, r25	; 0x02
    3e54:	89 83       	std	Y+1, r24	; 0x01
    3e56:	89 85       	ldd	r24, Y+9	; 0x09
    3e58:	9a 85       	ldd	r25, Y+10	; 0x0a
    3e5a:	01 96       	adiw	r24, 0x01	; 1
    3e5c:	98 87       	std	Y+8, r25	; 0x08
    3e5e:	8f 83       	std	Y+7, r24	; 0x07
    3e60:	2b 81       	ldd	r18, Y+3	; 0x03
    3e62:	3c 81       	ldd	r19, Y+4	; 0x04
    3e64:	8d 81       	ldd	r24, Y+5	; 0x05
    3e66:	9e 81       	ldd	r25, Y+6	; 0x06
    3e68:	28 17       	cp	r18, r24
    3e6a:	39 07       	cpc	r19, r25
    3e6c:	21 f4       	brne	.+8      	; 0x3e76 <_ZN15WaterSensorWire11SplitStringE6Stringci+0x94>
    3e6e:	8b 81       	ldd	r24, Y+3	; 0x03
    3e70:	9c 81       	ldd	r25, Y+4	; 0x04
    3e72:	01 96       	adiw	r24, 0x01	; 1
    3e74:	02 c0       	rjmp	.+4      	; 0x3e7a <_ZN15WaterSensorWire11SplitStringE6Stringci+0x98>
    3e76:	8b 81       	ldd	r24, Y+3	; 0x03
    3e78:	9c 81       	ldd	r25, Y+4	; 0x04
    3e7a:	9a 87       	std	Y+10, r25	; 0x0a
    3e7c:	89 87       	std	Y+9, r24	; 0x09
    3e7e:	8b 81       	ldd	r24, Y+3	; 0x03
    3e80:	9c 81       	ldd	r25, Y+4	; 0x04
    3e82:	01 96       	adiw	r24, 0x01	; 1
    3e84:	9c 83       	std	Y+4, r25	; 0x04
    3e86:	8b 83       	std	Y+3, r24	; 0x03
    3e88:	2b 81       	ldd	r18, Y+3	; 0x03
    3e8a:	3c 81       	ldd	r19, Y+4	; 0x04
    3e8c:	8d 81       	ldd	r24, Y+5	; 0x05
    3e8e:	9e 81       	ldd	r25, Y+6	; 0x06
    3e90:	82 17       	cp	r24, r18
    3e92:	93 07       	cpc	r25, r19
    3e94:	44 f0       	brlt	.+16     	; 0x3ea6 <_ZN15WaterSensorWire11SplitStringE6Stringci+0xc4>
    3e96:	29 81       	ldd	r18, Y+1	; 0x01
    3e98:	3a 81       	ldd	r19, Y+2	; 0x02
    3e9a:	88 89       	ldd	r24, Y+16	; 0x10
    3e9c:	99 89       	ldd	r25, Y+17	; 0x11
    3e9e:	82 17       	cp	r24, r18
    3ea0:	93 07       	cpc	r25, r19
    3ea2:	0c f0       	brlt	.+2      	; 0x3ea6 <_ZN15WaterSensorWire11SplitStringE6Stringci+0xc4>
    3ea4:	bc cf       	rjmp	.-136    	; 0x3e1e <_ZN15WaterSensorWire11SplitStringE6Stringci+0x3c>
    3ea6:	29 81       	ldd	r18, Y+1	; 0x01
    3ea8:	3a 81       	ldd	r19, Y+2	; 0x02
    3eaa:	88 89       	ldd	r24, Y+16	; 0x10
    3eac:	99 89       	ldd	r25, Y+17	; 0x11
    3eae:	82 17       	cp	r24, r18
    3eb0:	93 07       	cpc	r25, r19
    3eb2:	6c f4       	brge	.+26     	; 0x3ece <_ZN15WaterSensorWire11SplitStringE6Stringci+0xec>
    3eb4:	89 85       	ldd	r24, Y+9	; 0x09
    3eb6:	9a 85       	ldd	r25, Y+10	; 0x0a
    3eb8:	9c 01       	movw	r18, r24
    3eba:	8f 81       	ldd	r24, Y+7	; 0x07
    3ebc:	98 85       	ldd	r25, Y+8	; 0x08
    3ebe:	ac 01       	movw	r20, r24
    3ec0:	8b 85       	ldd	r24, Y+11	; 0x0b
    3ec2:	9c 85       	ldd	r25, Y+12	; 0x0c
    3ec4:	6d 85       	ldd	r22, Y+13	; 0x0d
    3ec6:	7e 85       	ldd	r23, Y+14	; 0x0e
    3ec8:	0e 94 88 2b 	call	0x5710	; 0x5710 <_ZNK6String9substringEjj>
    3ecc:	06 c0       	rjmp	.+12     	; 0x3eda <_ZN15WaterSensorWire11SplitStringE6Stringci+0xf8>
    3ece:	8b 85       	ldd	r24, Y+11	; 0x0b
    3ed0:	9c 85       	ldd	r25, Y+12	; 0x0c
    3ed2:	6d e3       	ldi	r22, 0x3D	; 61
    3ed4:	71 e0       	ldi	r23, 0x01	; 1
    3ed6:	0e 94 ba 29 	call	0x5374	; 0x5374 <_ZN6StringC1EPKc>
    3eda:	00 00       	nop
    3edc:	8b 85       	ldd	r24, Y+11	; 0x0b
    3ede:	9c 85       	ldd	r25, Y+12	; 0x0c
    3ee0:	61 96       	adiw	r28, 0x11	; 17
    3ee2:	e2 e0       	ldi	r30, 0x02	; 2
    3ee4:	0c 94 b2 2c 	jmp	0x5964	; 0x5964 <__epilogue_restores__+0x20>

00003ee8 <_Z41__static_initialization_and_destruction_0ii>:
    3ee8:	a4 e0       	ldi	r26, 0x04	; 4
    3eea:	b0 e0       	ldi	r27, 0x00	; 0
    3eec:	ea e7       	ldi	r30, 0x7A	; 122
    3eee:	ff e1       	ldi	r31, 0x1F	; 31
    3ef0:	0c 94 96 2c 	jmp	0x592c	; 0x592c <__prologue_saves__+0x20>
    3ef4:	9a 83       	std	Y+2, r25	; 0x02
    3ef6:	89 83       	std	Y+1, r24	; 0x01
    3ef8:	7c 83       	std	Y+4, r23	; 0x04
    3efa:	6b 83       	std	Y+3, r22	; 0x03
    3efc:	89 81       	ldd	r24, Y+1	; 0x01
    3efe:	9a 81       	ldd	r25, Y+2	; 0x02
    3f00:	01 97       	sbiw	r24, 0x01	; 1
    3f02:	09 f0       	breq	.+2      	; 0x3f06 <_Z41__static_initialization_and_destruction_0ii+0x1e>
    3f04:	4d c0       	rjmp	.+154    	; 0x3fa0 <_Z41__static_initialization_and_destruction_0ii+0xb8>
    3f06:	8b 81       	ldd	r24, Y+3	; 0x03
    3f08:	9c 81       	ldd	r25, Y+4	; 0x04
    3f0a:	01 96       	adiw	r24, 0x01	; 1
    3f0c:	09 f0       	breq	.+2      	; 0x3f10 <_Z41__static_initialization_and_destruction_0ii+0x28>
    3f0e:	48 c0       	rjmp	.+144    	; 0x3fa0 <_Z41__static_initialization_and_destruction_0ii+0xb8>
#include "WaterSensorWire.h"

const byte _slave = 8; //has to be greater than 8
static const uint8_t _wireReqLength = 20;
static const uint8_t _wireRespLength = 10;
static String _wireRequest = "";
    3f10:	6d e3       	ldi	r22, 0x3D	; 61
    3f12:	71 e0       	ldi	r23, 0x01	; 1
    3f14:	8e e1       	ldi	r24, 0x1E	; 30
    3f16:	93 e0       	ldi	r25, 0x03	; 3
    3f18:	0e 94 ba 29 	call	0x5374	; 0x5374 <_ZN6StringC1EPKc>
static String _wireResponse = "";
    3f1c:	6d e3       	ldi	r22, 0x3D	; 61
    3f1e:	71 e0       	ldi	r23, 0x01	; 1
    3f20:	84 e2       	ldi	r24, 0x24	; 36
    3f22:	93 e0       	ldi	r25, 0x03	; 3
    3f24:	0e 94 ba 29 	call	0x5374	; 0x5374 <_ZN6StringC1EPKc>
static int _responseIndex = -1;
static String _cmd = "";
    3f28:	6d e3       	ldi	r22, 0x3D	; 61
    3f2a:	71 e0       	ldi	r23, 0x01	; 1
    3f2c:	8a e2       	ldi	r24, 0x2A	; 42
    3f2e:	93 e0       	ldi	r25, 0x03	; 3
    3f30:	0e 94 ba 29 	call	0x5374	; 0x5374 <_ZN6StringC1EPKc>
static String _cmdData = "";
    3f34:	6d e3       	ldi	r22, 0x3D	; 61
    3f36:	71 e0       	ldi	r23, 0x01	; 1
    3f38:	80 e3       	ldi	r24, 0x30	; 48
    3f3a:	93 e0       	ldi	r25, 0x03	; 3
    3f3c:	0e 94 ba 29 	call	0x5374	; 0x5374 <_ZN6StringC1EPKc>
static String _response = "";
    3f40:	6d e3       	ldi	r22, 0x3D	; 61
    3f42:	71 e0       	ldi	r23, 0x01	; 1
    3f44:	86 e3       	ldi	r24, 0x36	; 54
    3f46:	93 e0       	ldi	r25, 0x03	; 3
    3f48:	0e 94 ba 29 	call	0x5374	; 0x5374 <_ZN6StringC1EPKc>
//static long _lastReqReceived = 0;
static String _ph = "";
    3f4c:	6d e3       	ldi	r22, 0x3D	; 61
    3f4e:	71 e0       	ldi	r23, 0x01	; 1
    3f50:	8c e3       	ldi	r24, 0x3C	; 60
    3f52:	93 e0       	ldi	r25, 0x03	; 3
    3f54:	0e 94 ba 29 	call	0x5374	; 0x5374 <_ZN6StringC1EPKc>
//static String _phAvg = "";
static String _tds = "";
    3f58:	6d e3       	ldi	r22, 0x3D	; 61
    3f5a:	71 e0       	ldi	r23, 0x01	; 1
    3f5c:	82 e4       	ldi	r24, 0x42	; 66
    3f5e:	93 e0       	ldi	r25, 0x03	; 3
    3f60:	0e 94 ba 29 	call	0x5374	; 0x5374 <_ZN6StringC1EPKc>
//static String _tdsAvg = "";
static String _sensorReadInter = "";
    3f64:	6d e3       	ldi	r22, 0x3D	; 61
    3f66:	71 e0       	ldi	r23, 0x01	; 1
    3f68:	88 e4       	ldi	r24, 0x48	; 72
    3f6a:	93 e0       	ldi	r25, 0x03	; 3
    3f6c:	0e 94 ba 29 	call	0x5374	; 0x5374 <_ZN6StringC1EPKc>
static String _sensorReadDur = "";
    3f70:	6d e3       	ldi	r22, 0x3D	; 61
    3f72:	71 e0       	ldi	r23, 0x01	; 1
    3f74:	8e e4       	ldi	r24, 0x4E	; 78
    3f76:	93 e0       	ldi	r25, 0x03	; 3
    3f78:	0e 94 ba 29 	call	0x5374	; 0x5374 <_ZN6StringC1EPKc>
static String _reading = "";
    3f7c:	6d e3       	ldi	r22, 0x3D	; 61
    3f7e:	71 e0       	ldi	r23, 0x01	; 1
    3f80:	84 e5       	ldi	r24, 0x54	; 84
    3f82:	93 e0       	ldi	r25, 0x03	; 3
    3f84:	0e 94 ba 29 	call	0x5374	; 0x5374 <_ZN6StringC1EPKc>
static String _phOffset = "";
    3f88:	6d e3       	ldi	r22, 0x3D	; 61
    3f8a:	71 e0       	ldi	r23, 0x01	; 1
    3f8c:	8a e5       	ldi	r24, 0x5A	; 90
    3f8e:	93 e0       	ldi	r25, 0x03	; 3
    3f90:	0e 94 ba 29 	call	0x5374	; 0x5374 <_ZN6StringC1EPKc>
static String _tdsOffset = "";
    3f94:	6d e3       	ldi	r22, 0x3D	; 61
    3f96:	71 e0       	ldi	r23, 0x01	; 1
    3f98:	80 e6       	ldi	r24, 0x60	; 96
    3f9a:	93 e0       	ldi	r25, 0x03	; 3
    3f9c:	0e 94 ba 29 	call	0x5374	; 0x5374 <_ZN6StringC1EPKc>
    3fa0:	89 81       	ldd	r24, Y+1	; 0x01
    3fa2:	9a 81       	ldd	r25, Y+2	; 0x02
    3fa4:	89 2b       	or	r24, r25
    3fa6:	a1 f5       	brne	.+104    	; 0x4010 <_Z41__static_initialization_and_destruction_0ii+0x128>
    3fa8:	8b 81       	ldd	r24, Y+3	; 0x03
    3faa:	9c 81       	ldd	r25, Y+4	; 0x04
    3fac:	01 96       	adiw	r24, 0x01	; 1
    3fae:	81 f5       	brne	.+96     	; 0x4010 <_Z41__static_initialization_and_destruction_0ii+0x128>
    3fb0:	80 e6       	ldi	r24, 0x60	; 96
    3fb2:	93 e0       	ldi	r25, 0x03	; 3
    3fb4:	0e 94 53 29 	call	0x52a6	; 0x52a6 <_ZN6StringD1Ev>
static String _tds = "";
//static String _tdsAvg = "";
static String _sensorReadInter = "";
static String _sensorReadDur = "";
static String _reading = "";
static String _phOffset = "";
    3fb8:	8a e5       	ldi	r24, 0x5A	; 90
    3fba:	93 e0       	ldi	r25, 0x03	; 3
    3fbc:	0e 94 53 29 	call	0x52a6	; 0x52a6 <_ZN6StringD1Ev>
//static String _phAvg = "";
static String _tds = "";
//static String _tdsAvg = "";
static String _sensorReadInter = "";
static String _sensorReadDur = "";
static String _reading = "";
    3fc0:	84 e5       	ldi	r24, 0x54	; 84
    3fc2:	93 e0       	ldi	r25, 0x03	; 3
    3fc4:	0e 94 53 29 	call	0x52a6	; 0x52a6 <_ZN6StringD1Ev>
static String _ph = "";
//static String _phAvg = "";
static String _tds = "";
//static String _tdsAvg = "";
static String _sensorReadInter = "";
static String _sensorReadDur = "";
    3fc8:	8e e4       	ldi	r24, 0x4E	; 78
    3fca:	93 e0       	ldi	r25, 0x03	; 3
    3fcc:	0e 94 53 29 	call	0x52a6	; 0x52a6 <_ZN6StringD1Ev>
//static long _lastReqReceived = 0;
static String _ph = "";
//static String _phAvg = "";
static String _tds = "";
//static String _tdsAvg = "";
static String _sensorReadInter = "";
    3fd0:	88 e4       	ldi	r24, 0x48	; 72
    3fd2:	93 e0       	ldi	r25, 0x03	; 3
    3fd4:	0e 94 53 29 	call	0x52a6	; 0x52a6 <_ZN6StringD1Ev>
static String _cmdData = "";
static String _response = "";
//static long _lastReqReceived = 0;
static String _ph = "";
//static String _phAvg = "";
static String _tds = "";
    3fd8:	82 e4       	ldi	r24, 0x42	; 66
    3fda:	93 e0       	ldi	r25, 0x03	; 3
    3fdc:	0e 94 53 29 	call	0x52a6	; 0x52a6 <_ZN6StringD1Ev>
static int _responseIndex = -1;
static String _cmd = "";
static String _cmdData = "";
static String _response = "";
//static long _lastReqReceived = 0;
static String _ph = "";
    3fe0:	8c e3       	ldi	r24, 0x3C	; 60
    3fe2:	93 e0       	ldi	r25, 0x03	; 3
    3fe4:	0e 94 53 29 	call	0x52a6	; 0x52a6 <_ZN6StringD1Ev>
static String _wireRequest = "";
static String _wireResponse = "";
static int _responseIndex = -1;
static String _cmd = "";
static String _cmdData = "";
static String _response = "";
    3fe8:	86 e3       	ldi	r24, 0x36	; 54
    3fea:	93 e0       	ldi	r25, 0x03	; 3
    3fec:	0e 94 53 29 	call	0x52a6	; 0x52a6 <_ZN6StringD1Ev>
static const uint8_t _wireRespLength = 10;
static String _wireRequest = "";
static String _wireResponse = "";
static int _responseIndex = -1;
static String _cmd = "";
static String _cmdData = "";
    3ff0:	80 e3       	ldi	r24, 0x30	; 48
    3ff2:	93 e0       	ldi	r25, 0x03	; 3
    3ff4:	0e 94 53 29 	call	0x52a6	; 0x52a6 <_ZN6StringD1Ev>
static const uint8_t _wireReqLength = 20;
static const uint8_t _wireRespLength = 10;
static String _wireRequest = "";
static String _wireResponse = "";
static int _responseIndex = -1;
static String _cmd = "";
    3ff8:	8a e2       	ldi	r24, 0x2A	; 42
    3ffa:	93 e0       	ldi	r25, 0x03	; 3
    3ffc:	0e 94 53 29 	call	0x52a6	; 0x52a6 <_ZN6StringD1Ev>

const byte _slave = 8; //has to be greater than 8
static const uint8_t _wireReqLength = 20;
static const uint8_t _wireRespLength = 10;
static String _wireRequest = "";
static String _wireResponse = "";
    4000:	84 e2       	ldi	r24, 0x24	; 36
    4002:	93 e0       	ldi	r25, 0x03	; 3
    4004:	0e 94 53 29 	call	0x52a6	; 0x52a6 <_ZN6StringD1Ev>
#include "WaterSensorWire.h"

const byte _slave = 8; //has to be greater than 8
static const uint8_t _wireReqLength = 20;
static const uint8_t _wireRespLength = 10;
static String _wireRequest = "";
    4008:	8e e1       	ldi	r24, 0x1E	; 30
    400a:	93 e0       	ldi	r25, 0x03	; 3
    400c:	0e 94 53 29 	call	0x52a6	; 0x52a6 <_ZN6StringD1Ev>
    pinMode(SDA, INPUT_PULLUP); // and make SDA high i.e. send I2C STOP control.
    delayMicroseconds(10); // x. wait >5uS
    pinMode(SDA, INPUT); // and reset pins as tri-state inputs which is the default state on reset
    pinMode(SCL, INPUT);
    return 0; // all ok
    4010:	24 96       	adiw	r28, 0x04	; 4
    4012:	e2 e0       	ldi	r30, 0x02	; 2
    4014:	0c 94 b2 2c 	jmp	0x5964	; 0x5964 <__epilogue_restores__+0x20>

00004018 <_GLOBAL__sub_I__ZN15WaterSensorWire5SetupEv>:
    4018:	a0 e0       	ldi	r26, 0x00	; 0
    401a:	b0 e0       	ldi	r27, 0x00	; 0
    401c:	e2 e1       	ldi	r30, 0x12	; 18
    401e:	f0 e2       	ldi	r31, 0x20	; 32
    4020:	0c 94 96 2c 	jmp	0x592c	; 0x592c <__prologue_saves__+0x20>
    4024:	6f ef       	ldi	r22, 0xFF	; 255
    4026:	7f ef       	ldi	r23, 0xFF	; 255
    4028:	81 e0       	ldi	r24, 0x01	; 1
    402a:	90 e0       	ldi	r25, 0x00	; 0
    402c:	5d df       	rcall	.-326    	; 0x3ee8 <_Z41__static_initialization_and_destruction_0ii>
    402e:	e2 e0       	ldi	r30, 0x02	; 2
    4030:	0c 94 b2 2c 	jmp	0x5964	; 0x5964 <__epilogue_restores__+0x20>

00004034 <_GLOBAL__sub_D__ZN15WaterSensorWire5SetupEv>:
    4034:	a0 e0       	ldi	r26, 0x00	; 0
    4036:	b0 e0       	ldi	r27, 0x00	; 0
    4038:	e0 e2       	ldi	r30, 0x20	; 32
    403a:	f0 e2       	ldi	r31, 0x20	; 32
    403c:	0c 94 96 2c 	jmp	0x592c	; 0x592c <__prologue_saves__+0x20>
    4040:	6f ef       	ldi	r22, 0xFF	; 255
    4042:	7f ef       	ldi	r23, 0xFF	; 255
    4044:	80 e0       	ldi	r24, 0x00	; 0
    4046:	90 e0       	ldi	r25, 0x00	; 0
    4048:	4f df       	rcall	.-354    	; 0x3ee8 <_Z41__static_initialization_and_destruction_0ii>
    404a:	e2 e0       	ldi	r30, 0x02	; 2
    404c:	0c 94 b2 2c 	jmp	0x5964	; 0x5964 <__epilogue_restores__+0x20>

00004050 <_ZN8PHSensorD1Ev>:
using namespace Memory;
#include "MathExt.h"

#include "LCDBase.h"

class PHSensor {
    4050:	a2 e0       	ldi	r26, 0x02	; 2
    4052:	b0 e0       	ldi	r27, 0x00	; 0
    4054:	ee e2       	ldi	r30, 0x2E	; 46
    4056:	f0 e2       	ldi	r31, 0x20	; 32
    4058:	0c 94 96 2c 	jmp	0x592c	; 0x592c <__prologue_saves__+0x20>
    405c:	9a 83       	std	Y+2, r25	; 0x02
    405e:	89 83       	std	Y+1, r24	; 0x01
    4060:	89 81       	ldd	r24, Y+1	; 0x01
    4062:	9a 81       	ldd	r25, Y+2	; 0x02
    4064:	8e 58       	subi	r24, 0x8E	; 142
    4066:	9f 4f       	sbci	r25, 0xFF	; 255
    4068:	0e 94 53 29 	call	0x52a6	; 0x52a6 <_ZN6StringD1Ev>
    406c:	22 96       	adiw	r28, 0x02	; 2
    406e:	e2 e0       	ldi	r30, 0x02	; 2
    4070:	0c 94 b2 2c 	jmp	0x5964	; 0x5964 <__epilogue_restores__+0x20>

00004074 <_ZN9TDSSensorD1Ev>:
#include "SensorsMem.h"
using namespace Memory;
#include "MathExt.h"
#include "LCDBase.h"

class TDSSensor {
    4074:	a2 e0       	ldi	r26, 0x02	; 2
    4076:	b0 e0       	ldi	r27, 0x00	; 0
    4078:	e0 e4       	ldi	r30, 0x40	; 64
    407a:	f0 e2       	ldi	r31, 0x20	; 32
    407c:	0c 94 96 2c 	jmp	0x592c	; 0x592c <__prologue_saves__+0x20>
    4080:	9a 83       	std	Y+2, r25	; 0x02
    4082:	89 83       	std	Y+1, r24	; 0x01
    4084:	89 81       	ldd	r24, Y+1	; 0x01
    4086:	9a 81       	ldd	r25, Y+2	; 0x02
    4088:	88 5b       	subi	r24, 0xB8	; 184
    408a:	9f 4f       	sbci	r25, 0xFF	; 255
    408c:	0e 94 53 29 	call	0x52a6	; 0x52a6 <_ZN6StringD1Ev>
    4090:	22 96       	adiw	r28, 0x02	; 2
    4092:	e2 e0       	ldi	r30, 0x02	; 2
    4094:	0c 94 b2 2c 	jmp	0x5964	; 0x5964 <__epilogue_restores__+0x20>

00004098 <_ZN7Globals13SwitchSensorsEv>:

    PHSensor& ThePHSensor = _thePHSensor;//PHSensor(_phSensorPin, 2000, true, TheLCD);

    TDSSensor& TheTDSSensor = _theTDSSensor;//TDSSensor(_tdsSensorPin, 1000, true, TheLCD);

    void SwitchSensors() {
    4098:	a0 e0       	ldi	r26, 0x00	; 0
    409a:	b0 e0       	ldi	r27, 0x00	; 0
    409c:	e2 e5       	ldi	r30, 0x52	; 82
    409e:	f0 e2       	ldi	r31, 0x20	; 32
    40a0:	0c 94 96 2c 	jmp	0x592c	; 0x592c <__prologue_saves__+0x20>
        ReadingTDS = !ReadingTDS;
    40a4:	90 91 66 03 	lds	r25, 0x0366	; 0x800366 <_ZN7Globals10ReadingTDSE>
    40a8:	81 e0       	ldi	r24, 0x01	; 1
    40aa:	89 27       	eor	r24, r25
    40ac:	80 93 66 03 	sts	0x0366, r24	; 0x800366 <_ZN7Globals10ReadingTDSE>
        if(ReadingTDS) {
    40b0:	80 91 66 03 	lds	r24, 0x0366	; 0x800366 <_ZN7Globals10ReadingTDSE>
    40b4:	88 23       	and	r24, r24
    40b6:	41 f0       	breq	.+16     	; 0x40c8 <_ZN7Globals13SwitchSensorsEv+0x30>
            ThePHSensor.TurnOff();
    40b8:	8f e8       	ldi	r24, 0x8F	; 143
    40ba:	93 e0       	ldi	r25, 0x03	; 3
    40bc:	0e 94 92 17 	call	0x2f24	; 0x2f24 <_ZN8PHSensor7TurnOffEv>
            TheTDSSensor.TurnOn(); //signal mofset
    40c0:	8b e0       	ldi	r24, 0x0B	; 11
    40c2:	94 e0       	ldi	r25, 0x04	; 4
    40c4:	6e da       	rcall	.-2852   	; 0x35a2 <_ZN9TDSSensor6TurnOnEv>
    40c6:	07 c0       	rjmp	.+14     	; 0x40d6 <_ZN7Globals13SwitchSensorsEv+0x3e>
        }
        else {
            TheTDSSensor.TurnOff();//signal mofset
    40c8:	8b e0       	ldi	r24, 0x0B	; 11
    40ca:	94 e0       	ldi	r25, 0x04	; 4
    40cc:	83 da       	rcall	.-2810   	; 0x35d4 <_ZN9TDSSensor7TurnOffEv>
            ThePHSensor.TurnOn();
    40ce:	8f e8       	ldi	r24, 0x8F	; 143
    40d0:	93 e0       	ldi	r25, 0x03	; 3
    40d2:	0e 94 75 17 	call	0x2eea	; 0x2eea <_ZN8PHSensor6TurnOnEv>
        }
    }
    40d6:	e2 e0       	ldi	r30, 0x02	; 2
    40d8:	0c 94 b2 2c 	jmp	0x5964	; 0x5964 <__epilogue_restores__+0x20>

000040dc <_Z41__static_initialization_and_destruction_0ii>:

}
    40dc:	ac e4       	ldi	r26, 0x4C	; 76
    40de:	b0 e0       	ldi	r27, 0x00	; 0
    40e0:	e4 e7       	ldi	r30, 0x74	; 116
    40e2:	f0 e2       	ldi	r31, 0x20	; 32
    40e4:	0c 94 92 2c 	jmp	0x5924	; 0x5924 <__prologue_saves__+0x18>
    40e8:	9e 01       	movw	r18, r28
    40ea:	27 5b       	subi	r18, 0xB7	; 183
    40ec:	3f 4f       	sbci	r19, 0xFF	; 255
    40ee:	f9 01       	movw	r30, r18
    40f0:	91 83       	std	Z+1, r25	; 0x01
    40f2:	80 83       	st	Z, r24
    40f4:	ce 01       	movw	r24, r28
    40f6:	85 5b       	subi	r24, 0xB5	; 181
    40f8:	9f 4f       	sbci	r25, 0xFF	; 255
    40fa:	fc 01       	movw	r30, r24
    40fc:	71 83       	std	Z+1, r23	; 0x01
    40fe:	60 83       	st	Z, r22
    4100:	ce 01       	movw	r24, r28
    4102:	87 5b       	subi	r24, 0xB7	; 183
    4104:	9f 4f       	sbci	r25, 0xFF	; 255
    4106:	fc 01       	movw	r30, r24
    4108:	80 81       	ld	r24, Z
    410a:	91 81       	ldd	r25, Z+1	; 0x01
    410c:	01 97       	sbiw	r24, 0x01	; 1
    410e:	09 f0       	breq	.+2      	; 0x4112 <_Z41__static_initialization_and_destruction_0ii+0x36>
    4110:	44 c0       	rjmp	.+136    	; 0x419a <_Z41__static_initialization_and_destruction_0ii+0xbe>
    4112:	ce 01       	movw	r24, r28
    4114:	85 5b       	subi	r24, 0xB5	; 181
    4116:	9f 4f       	sbci	r25, 0xFF	; 255
    4118:	fc 01       	movw	r30, r24
    411a:	80 81       	ld	r24, Z
    411c:	91 81       	ldd	r25, Z+1	; 0x01
    411e:	01 96       	adiw	r24, 0x01	; 1
    4120:	e1 f5       	brne	.+120    	; 0x419a <_Z41__static_initialization_and_destruction_0ii+0xbe>
    int _tdsRelayPin = 2;
    bool ReadingTDS = false;
    long SensorReadInterval = 600000;//300000;//5000; // every 5 min switch ph and tds sensor
    long SensorReadDuration = 0;

    static LCDBase _theLCD = LCDBase();
    4122:	8b e6       	ldi	r24, 0x6B	; 107
    4124:	93 e0       	ldi	r25, 0x03	; 3
    4126:	0e 94 08 10 	call	0x2010	; 0x2010 <_ZN7LCDBaseC1Ev>
    static PHSensor _thePHSensor = PHSensor(_phSensorPin, 2000, true, TheLCD, _phRelayPin);
    412a:	00 91 0c 01 	lds	r16, 0x010C	; 0x80010c <_ZN7Globals11_phRelayPinE>
    412e:	10 91 0d 01 	lds	r17, 0x010D	; 0x80010d <_ZN7Globals11_phRelayPinE+0x1>
    4132:	2b e6       	ldi	r18, 0x6B	; 107
    4134:	33 e0       	ldi	r19, 0x03	; 3
    4136:	ce 01       	movw	r24, r28
    4138:	85 96       	adiw	r24, 0x25	; 37
    413a:	b9 01       	movw	r22, r18
    413c:	0e 94 37 14 	call	0x286e	; 0x286e <_ZN7LCDBaseC1ERKS_>
    4140:	80 91 08 01 	lds	r24, 0x0108	; 0x800108 <_ZN7Globals12_phSensorPinE>
    4144:	90 91 09 01 	lds	r25, 0x0109	; 0x800109 <_ZN7Globals12_phSensorPinE+0x1>
    4148:	9e 01       	movw	r18, r28
    414a:	2b 5d       	subi	r18, 0xDB	; 219
    414c:	3f 4f       	sbci	r19, 0xFF	; 255
    414e:	78 01       	movw	r14, r16
    4150:	89 01       	movw	r16, r18
    4152:	21 e0       	ldi	r18, 0x01	; 1
    4154:	40 ed       	ldi	r20, 0xD0	; 208
    4156:	57 e0       	ldi	r21, 0x07	; 7
    4158:	bc 01       	movw	r22, r24
    415a:	8f e8       	ldi	r24, 0x8F	; 143
    415c:	93 e0       	ldi	r25, 0x03	; 3
    415e:	0e 94 69 14 	call	0x28d2	; 0x28d2 <_ZN8PHSensorC1Eiib7LCDBasei>
    static TDSSensor _theTDSSensor = TDSSensor(_tdsSensorPin, 1000, true, TheLCD, _tdsRelayPin);
    4162:	00 91 0e 01 	lds	r16, 0x010E	; 0x80010e <_ZN7Globals12_tdsRelayPinE>
    4166:	10 91 0f 01 	lds	r17, 0x010F	; 0x80010f <_ZN7Globals12_tdsRelayPinE+0x1>
    416a:	8b e6       	ldi	r24, 0x6B	; 107
    416c:	93 e0       	ldi	r25, 0x03	; 3
    416e:	bc 01       	movw	r22, r24
    4170:	ce 01       	movw	r24, r28
    4172:	01 96       	adiw	r24, 0x01	; 1
    4174:	0e 94 37 14 	call	0x286e	; 0x286e <_ZN7LCDBaseC1ERKS_>
    4178:	80 91 0a 01 	lds	r24, 0x010A	; 0x80010a <_ZN7Globals13_tdsSensorPinE>
    417c:	90 91 0b 01 	lds	r25, 0x010B	; 0x80010b <_ZN7Globals13_tdsSensorPinE+0x1>
    4180:	78 01       	movw	r14, r16
    4182:	9e 01       	movw	r18, r28
    4184:	2f 5f       	subi	r18, 0xFF	; 255
    4186:	3f 4f       	sbci	r19, 0xFF	; 255
    4188:	89 01       	movw	r16, r18
    418a:	21 e0       	ldi	r18, 0x01	; 1
    418c:	48 ee       	ldi	r20, 0xE8	; 232
    418e:	53 e0       	ldi	r21, 0x03	; 3
    4190:	bc 01       	movw	r22, r24
    4192:	8b e0       	ldi	r24, 0x0B	; 11
    4194:	94 e0       	ldi	r25, 0x04	; 4
    4196:	0e 94 27 18 	call	0x304e	; 0x304e <_ZN9TDSSensorC1Eiib7LCDBasei>
    419a:	ce 01       	movw	r24, r28
    419c:	87 5b       	subi	r24, 0xB7	; 183
    419e:	9f 4f       	sbci	r25, 0xFF	; 255
    41a0:	fc 01       	movw	r30, r24
    41a2:	80 81       	ld	r24, Z
    41a4:	91 81       	ldd	r25, Z+1	; 0x01
    41a6:	89 2b       	or	r24, r25
    41a8:	71 f4       	brne	.+28     	; 0x41c6 <_Z41__static_initialization_and_destruction_0ii+0xea>
    41aa:	ce 01       	movw	r24, r28
    41ac:	85 5b       	subi	r24, 0xB5	; 181
    41ae:	9f 4f       	sbci	r25, 0xFF	; 255
    41b0:	fc 01       	movw	r30, r24
    41b2:	80 81       	ld	r24, Z
    41b4:	91 81       	ldd	r25, Z+1	; 0x01
    41b6:	01 96       	adiw	r24, 0x01	; 1
    41b8:	31 f4       	brne	.+12     	; 0x41c6 <_Z41__static_initialization_and_destruction_0ii+0xea>
    41ba:	8b e0       	ldi	r24, 0x0B	; 11
    41bc:	94 e0       	ldi	r25, 0x04	; 4
    41be:	5a df       	rcall	.-332    	; 0x4074 <_ZN9TDSSensorD1Ev>
    bool ReadingTDS = false;
    long SensorReadInterval = 600000;//300000;//5000; // every 5 min switch ph and tds sensor
    long SensorReadDuration = 0;

    static LCDBase _theLCD = LCDBase();
    static PHSensor _thePHSensor = PHSensor(_phSensorPin, 2000, true, TheLCD, _phRelayPin);
    41c0:	8f e8       	ldi	r24, 0x8F	; 143
    41c2:	93 e0       	ldi	r25, 0x03	; 3
    41c4:	45 df       	rcall	.-374    	; 0x4050 <_ZN8PHSensorD1Ev>
            TheTDSSensor.TurnOff();//signal mofset
            ThePHSensor.TurnOn();
        }
    }

}
    41c6:	c4 5b       	subi	r28, 0xB4	; 180
    41c8:	df 4f       	sbci	r29, 0xFF	; 255
    41ca:	e6 e0       	ldi	r30, 0x06	; 6
    41cc:	0c 94 ae 2c 	jmp	0x595c	; 0x595c <__epilogue_restores__+0x18>

000041d0 <_GLOBAL__sub_I__ZN7Globals12_phSensorPinE>:
    41d0:	a0 e0       	ldi	r26, 0x00	; 0
    41d2:	b0 e0       	ldi	r27, 0x00	; 0
    41d4:	ee ee       	ldi	r30, 0xEE	; 238
    41d6:	f0 e2       	ldi	r31, 0x20	; 32
    41d8:	0c 94 96 2c 	jmp	0x592c	; 0x592c <__prologue_saves__+0x20>
    41dc:	6f ef       	ldi	r22, 0xFF	; 255
    41de:	7f ef       	ldi	r23, 0xFF	; 255
    41e0:	81 e0       	ldi	r24, 0x01	; 1
    41e2:	90 e0       	ldi	r25, 0x00	; 0
    41e4:	7b df       	rcall	.-266    	; 0x40dc <_Z41__static_initialization_and_destruction_0ii>
    41e6:	e2 e0       	ldi	r30, 0x02	; 2
    41e8:	0c 94 b2 2c 	jmp	0x5964	; 0x5964 <__epilogue_restores__+0x20>

000041ec <_GLOBAL__sub_D__ZN7Globals12_phSensorPinE>:
    41ec:	a0 e0       	ldi	r26, 0x00	; 0
    41ee:	b0 e0       	ldi	r27, 0x00	; 0
    41f0:	ec ef       	ldi	r30, 0xFC	; 252
    41f2:	f0 e2       	ldi	r31, 0x20	; 32
    41f4:	0c 94 96 2c 	jmp	0x592c	; 0x592c <__prologue_saves__+0x20>
    41f8:	6f ef       	ldi	r22, 0xFF	; 255
    41fa:	7f ef       	ldi	r23, 0xFF	; 255
    41fc:	80 e0       	ldi	r24, 0x00	; 0
    41fe:	90 e0       	ldi	r25, 0x00	; 0
    4200:	6d df       	rcall	.-294    	; 0x40dc <_Z41__static_initialization_and_destruction_0ii>
    4202:	e2 e0       	ldi	r30, 0x02	; 2
    4204:	0c 94 b2 2c 	jmp	0x5964	; 0x5964 <__epilogue_restores__+0x20>

00004208 <_ZN14HardwareSerial5beginEm>:
  public:
    inline HardwareSerial(
      volatile uint8_t *ubrrh, volatile uint8_t *ubrrl,
      volatile uint8_t *ucsra, volatile uint8_t *ucsrb,
      volatile uint8_t *ucsrc, volatile uint8_t *udr);
    void begin(unsigned long baud) { begin(baud, SERIAL_8N1); }
    4208:	a6 e0       	ldi	r26, 0x06	; 6
    420a:	b0 e0       	ldi	r27, 0x00	; 0
    420c:	ea e0       	ldi	r30, 0x0A	; 10
    420e:	f1 e2       	ldi	r31, 0x21	; 33
    4210:	0c 94 96 2c 	jmp	0x592c	; 0x592c <__prologue_saves__+0x20>
    4214:	9a 83       	std	Y+2, r25	; 0x02
    4216:	89 83       	std	Y+1, r24	; 0x01
    4218:	4b 83       	std	Y+3, r20	; 0x03
    421a:	5c 83       	std	Y+4, r21	; 0x04
    421c:	6d 83       	std	Y+5, r22	; 0x05
    421e:	7e 83       	std	Y+6, r23	; 0x06
    4220:	8b 81       	ldd	r24, Y+3	; 0x03
    4222:	9c 81       	ldd	r25, Y+4	; 0x04
    4224:	ad 81       	ldd	r26, Y+5	; 0x05
    4226:	be 81       	ldd	r27, Y+6	; 0x06
    4228:	e9 81       	ldd	r30, Y+1	; 0x01
    422a:	fa 81       	ldd	r31, Y+2	; 0x02
    422c:	26 e0       	ldi	r18, 0x06	; 6
    422e:	ac 01       	movw	r20, r24
    4230:	bd 01       	movw	r22, r26
    4232:	cf 01       	movw	r24, r30
    4234:	ff d3       	rcall	.+2046   	; 0x4a34 <_ZN14HardwareSerial5beginEmh>
    4236:	26 96       	adiw	r28, 0x06	; 6
    4238:	e2 e0       	ldi	r30, 0x02	; 2
    423a:	0c 94 b2 2c 	jmp	0x5964	; 0x5964 <__epilogue_restores__+0x20>

0000423e <_ZN14HardwareSerialcvbEv>:
    inline size_t write(unsigned long n) { return write((uint8_t)n); }
    inline size_t write(long n) { return write((uint8_t)n); }
    inline size_t write(unsigned int n) { return write((uint8_t)n); }
    inline size_t write(int n) { return write((uint8_t)n); }
    using Print::write; // pull in write(str) and write(buf, size) from Print
    operator bool() { return true; }
    423e:	a2 e0       	ldi	r26, 0x02	; 2
    4240:	b0 e0       	ldi	r27, 0x00	; 0
    4242:	e5 e2       	ldi	r30, 0x25	; 37
    4244:	f1 e2       	ldi	r31, 0x21	; 33
    4246:	0c 94 96 2c 	jmp	0x592c	; 0x592c <__prologue_saves__+0x20>
    424a:	9a 83       	std	Y+2, r25	; 0x02
    424c:	89 83       	std	Y+1, r24	; 0x01
    424e:	81 e0       	ldi	r24, 0x01	; 1
    4250:	22 96       	adiw	r28, 0x02	; 2
    4252:	e2 e0       	ldi	r30, 0x02	; 2
    4254:	0c 94 b2 2c 	jmp	0x5964	; 0x5964 <__epilogue_restores__+0x20>

00004258 <setup>:
SimpleTimer _asyncTimer;


void AsyncDoWork();

void setup(void) {
    4258:	a0 e0       	ldi	r26, 0x00	; 0
    425a:	b0 e0       	ldi	r27, 0x00	; 0
    425c:	e2 e3       	ldi	r30, 0x32	; 50
    425e:	f1 e2       	ldi	r31, 0x21	; 33
    4260:	0c 94 96 2c 	jmp	0x592c	; 0x592c <__prologue_saves__+0x20>
    // Listen on serial connection for messages from the pc
    Serial.begin(57600);
    4264:	40 e0       	ldi	r20, 0x00	; 0
    4266:	51 ee       	ldi	r21, 0xE1	; 225
    4268:	60 e0       	ldi	r22, 0x00	; 0
    426a:	70 e0       	ldi	r23, 0x00	; 0
    426c:	85 e1       	ldi	r24, 0x15	; 21
    426e:	95 e0       	ldi	r25, 0x05	; 5
    4270:	cb df       	rcall	.-106    	; 0x4208 <_ZN14HardwareSerial5beginEm>
    while(!Serial);
    4272:	00 00       	nop
    4274:	85 e1       	ldi	r24, 0x15	; 21
    4276:	95 e0       	ldi	r25, 0x05	; 5
    4278:	e2 df       	rcall	.-60     	; 0x423e <_ZN14HardwareSerialcvbEv>
    427a:	98 2f       	mov	r25, r24
    427c:	81 e0       	ldi	r24, 0x01	; 1
    427e:	89 27       	eor	r24, r25
    4280:	88 23       	and	r24, r24
    4282:	c1 f7       	brne	.-16     	; 0x4274 <setup+0x1c>
				"out __SREG__,__tmp_reg__" "\n\t"
				"sts %0, %2" "\n \t"
				: /* no outputs */
				: "n" (_SFR_MEM_ADDR(_WD_CONTROL_REG)),
				"r" ((uint8_t)(_BV(_WD_CHANGE_BIT) | _BV(WDE))),
				"r" ((uint8_t) ((value & 0x08 ? _WD_PS3_MASK : 0x00) |
    4284:	89 e0       	ldi	r24, 0x09	; 9
    4286:	90 e0       	ldi	r25, 0x00	; 0
    4288:	88 70       	andi	r24, 0x08	; 8
    428a:	99 27       	eor	r25, r25
						_BV(WDE) | (value & 0x07)) )
				: "r0"
		);
    428c:	89 2b       	or	r24, r25
    428e:	11 f0       	breq	.+4      	; 0x4294 <setup+0x3c>
    4290:	88 e2       	ldi	r24, 0x28	; 40
    4292:	01 c0       	rjmp	.+2      	; 0x4296 <setup+0x3e>
    4294:	88 e0       	ldi	r24, 0x08	; 8
    4296:	99 e0       	ldi	r25, 0x09	; 9
    4298:	97 70       	andi	r25, 0x07	; 7
    429a:	89 2b       	or	r24, r25
    429c:	98 2f       	mov	r25, r24
    429e:	88 e1       	ldi	r24, 0x18	; 24
    42a0:	0f b6       	in	r0, 0x3f	; 63
    42a2:	f8 94       	cli
    42a4:	a8 95       	wdr
    42a6:	80 93 60 00 	sts	0x0060, r24	; 0x800060 <__TEXT_REGION_LENGTH__+0x7e0060>
    42aa:	0f be       	out	0x3f, r0	; 63
    42ac:	90 93 60 00 	sts	0x0060, r25	; 0x800060 <__TEXT_REGION_LENGTH__+0x7e0060>

    wdt_enable(WDTO_8S);

    WaterSensorWire::Setup();
    42b0:	6d da       	rcall	.-2854   	; 0x378c <_ZN15WaterSensorWire5SetupEv>
    ThePHSensor.TurnOn();
    42b2:	80 91 ab 01 	lds	r24, 0x01AB	; 0x8001ab <_ZN7Globals11ThePHSensorE>
    42b6:	90 91 ac 01 	lds	r25, 0x01AC	; 0x8001ac <_ZN7Globals11ThePHSensorE+0x1>
    42ba:	0e 94 75 17 	call	0x2eea	; 0x2eea <_ZN8PHSensor6TurnOnEv>

    _asyncTimer.setInterval(1000, AsyncDoWork); //todo: set to 1000;
    42be:	25 e8       	ldi	r18, 0x85	; 133
    42c0:	31 e2       	ldi	r19, 0x21	; 33
    42c2:	48 ee       	ldi	r20, 0xE8	; 232
    42c4:	53 e0       	ldi	r21, 0x03	; 3
    42c6:	60 e0       	ldi	r22, 0x00	; 0
    42c8:	70 e0       	ldi	r23, 0x00	; 0
    42ca:	8b e5       	ldi	r24, 0x5B	; 91
    42cc:	94 e0       	ldi	r25, 0x04	; 4
    42ce:	0e 94 ba 0e 	call	0x1d74	; 0x1d74 <_ZN11SimpleTimer11setIntervalElPFvvE>

    //CmdMessengerExt::Init();
}
    42d2:	e2 e0       	ldi	r30, 0x02	; 2
    42d4:	0c 94 b2 2c 	jmp	0x5964	; 0x5964 <__epilogue_restores__+0x20>

000042d8 <loop>:

//String _request;
//String _response;
void loop(void) {
    42d8:	a0 e0       	ldi	r26, 0x00	; 0
    42da:	b0 e0       	ldi	r27, 0x00	; 0
    42dc:	e2 e7       	ldi	r30, 0x72	; 114
    42de:	f1 e2       	ldi	r31, 0x21	; 33
    42e0:	0c 94 96 2c 	jmp	0x592c	; 0x592c <__prologue_saves__+0x20>

    _asyncTimer.run();
    42e4:	8b e5       	ldi	r24, 0x5B	; 91
    42e6:	94 e0       	ldi	r25, 0x04	; 4
    42e8:	0e 94 6a 0c 	call	0x18d4	; 0x18d4 <_ZN11SimpleTimer3runEv>

    ThePHSensor.PrintPHToLCD();
    42ec:	80 91 ab 01 	lds	r24, 0x01AB	; 0x8001ab <_ZN7Globals11ThePHSensorE>
    42f0:	90 91 ac 01 	lds	r25, 0x01AC	; 0x8001ac <_ZN7Globals11ThePHSensorE+0x1>
    42f4:	0e 94 be 16 	call	0x2d7c	; 0x2d7c <_ZN8PHSensor12PrintPHToLCDEv>
    TheTDSSensor.PrintTDSToLCD(); //todo: uncomment this
    42f8:	80 91 ad 01 	lds	r24, 0x01AD	; 0x8001ad <_ZN7Globals12TheTDSSensorE>
    42fc:	90 91 ae 01 	lds	r25, 0x01AE	; 0x8001ae <_ZN7Globals12TheTDSSensorE+0x1>
    4300:	0e 94 18 19 	call	0x3230	; 0x3230 <_ZN9TDSSensor13PrintTDSToLCDEv>

    //CmdMessengerExt::Loop();
}
    4304:	e2 e0       	ldi	r30, 0x02	; 2
    4306:	0c 94 b2 2c 	jmp	0x5964	; 0x5964 <__epilogue_restores__+0x20>

0000430a <_Z11AsyncDoWorkv>:

void AsyncDoWork() {
    430a:	a0 e0       	ldi	r26, 0x00	; 0
    430c:	b0 e0       	ldi	r27, 0x00	; 0
    430e:	eb e8       	ldi	r30, 0x8B	; 139
    4310:	f1 e2       	ldi	r31, 0x21	; 33
    4312:	0c 94 92 2c 	jmp	0x5924	; 0x5924 <__prologue_saves__+0x18>

    wdt_reset();
    4316:	a8 95       	wdr

    static unsigned long lastSensorReadTime = millis();
    4318:	89 e0       	ldi	r24, 0x09	; 9
    431a:	95 e0       	ldi	r25, 0x05	; 5
    431c:	fc 01       	movw	r30, r24
    431e:	80 81       	ld	r24, Z
    4320:	88 23       	and	r24, r24
    4322:	81 f4       	brne	.+32     	; 0x4344 <_Z11AsyncDoWorkv+0x3a>
    4324:	37 d6       	rcall	.+3182   	; 0x4f94 <millis>
    4326:	dc 01       	movw	r26, r24
    4328:	cb 01       	movw	r24, r22
    432a:	80 93 11 05 	sts	0x0511, r24	; 0x800511 <_ZZ11AsyncDoWorkvE18lastSensorReadTime>
    432e:	90 93 12 05 	sts	0x0512, r25	; 0x800512 <_ZZ11AsyncDoWorkvE18lastSensorReadTime+0x1>
    4332:	a0 93 13 05 	sts	0x0513, r26	; 0x800513 <_ZZ11AsyncDoWorkvE18lastSensorReadTime+0x2>
    4336:	b0 93 14 05 	sts	0x0514, r27	; 0x800514 <_ZZ11AsyncDoWorkvE18lastSensorReadTime+0x3>
    433a:	89 e0       	ldi	r24, 0x09	; 9
    433c:	95 e0       	ldi	r25, 0x05	; 5
    433e:	21 e0       	ldi	r18, 0x01	; 1
    4340:	fc 01       	movw	r30, r24
    4342:	20 83       	st	Z, r18

    if(TheLCD.DetectKeyPress() == LcdKeyPress::Select) {
    4344:	80 91 a9 01 	lds	r24, 0x01A9	; 0x8001a9 <_ZN7Globals6TheLCDE>
    4348:	90 91 aa 01 	lds	r25, 0x01AA	; 0x8001aa <_ZN7Globals6TheLCDE+0x1>
    434c:	0e 94 9d 10 	call	0x213a	; 0x213a <_ZN7LCDBase14DetectKeyPressEv>
    4350:	98 2f       	mov	r25, r24
    4352:	81 e0       	ldi	r24, 0x01	; 1
    4354:	94 30       	cpi	r25, 0x04	; 4
    4356:	09 f0       	breq	.+2      	; 0x435a <_Z11AsyncDoWorkv+0x50>
    4358:	80 e0       	ldi	r24, 0x00	; 0
    435a:	88 23       	and	r24, r24
    435c:	91 f0       	breq	.+36     	; 0x4382 <_Z11AsyncDoWorkv+0x78>
        Serial.println(F("[Selelct] Pressed"));
    435e:	87 e4       	ldi	r24, 0x47	; 71
    4360:	94 e0       	ldi	r25, 0x04	; 4
    4362:	bc 01       	movw	r22, r24
    4364:	85 e1       	ldi	r24, 0x15	; 21
    4366:	95 e0       	ldi	r25, 0x05	; 5
    4368:	dc d4       	rcall	.+2488   	; 0x4d22 <_ZN5Print7printlnEPK19__FlashStringHelper>
        SwitchSensors();
    436a:	96 de       	rcall	.-724    	; 0x4098 <_ZN7Globals13SwitchSensorsEv>
        lastSensorReadTime = millis();
    436c:	13 d6       	rcall	.+3110   	; 0x4f94 <millis>
    436e:	dc 01       	movw	r26, r24
    4370:	cb 01       	movw	r24, r22
    4372:	80 93 11 05 	sts	0x0511, r24	; 0x800511 <_ZZ11AsyncDoWorkvE18lastSensorReadTime>
    4376:	90 93 12 05 	sts	0x0512, r25	; 0x800512 <_ZZ11AsyncDoWorkvE18lastSensorReadTime+0x1>
    437a:	a0 93 13 05 	sts	0x0513, r26	; 0x800513 <_ZZ11AsyncDoWorkvE18lastSensorReadTime+0x2>
    437e:	b0 93 14 05 	sts	0x0514, r27	; 0x800514 <_ZZ11AsyncDoWorkvE18lastSensorReadTime+0x3>
    }
    SensorReadDuration = millis() - lastSensorReadTime;
    4382:	08 d6       	rcall	.+3088   	; 0x4f94 <millis>
    4384:	9b 01       	movw	r18, r22
    4386:	ac 01       	movw	r20, r24
    4388:	80 91 11 05 	lds	r24, 0x0511	; 0x800511 <_ZZ11AsyncDoWorkvE18lastSensorReadTime>
    438c:	90 91 12 05 	lds	r25, 0x0512	; 0x800512 <_ZZ11AsyncDoWorkvE18lastSensorReadTime+0x1>
    4390:	a0 91 13 05 	lds	r26, 0x0513	; 0x800513 <_ZZ11AsyncDoWorkvE18lastSensorReadTime+0x2>
    4394:	b0 91 14 05 	lds	r27, 0x0514	; 0x800514 <_ZZ11AsyncDoWorkvE18lastSensorReadTime+0x3>
    4398:	79 01       	movw	r14, r18
    439a:	8a 01       	movw	r16, r20
    439c:	e8 1a       	sub	r14, r24
    439e:	f9 0a       	sbc	r15, r25
    43a0:	0a 0b       	sbc	r16, r26
    43a2:	1b 0b       	sbc	r17, r27
    43a4:	d8 01       	movw	r26, r16
    43a6:	c7 01       	movw	r24, r14
    43a8:	80 93 67 03 	sts	0x0367, r24	; 0x800367 <_ZN7Globals18SensorReadDurationE>
    43ac:	90 93 68 03 	sts	0x0368, r25	; 0x800368 <_ZN7Globals18SensorReadDurationE+0x1>
    43b0:	a0 93 69 03 	sts	0x0369, r26	; 0x800369 <_ZN7Globals18SensorReadDurationE+0x2>
    43b4:	b0 93 6a 03 	sts	0x036A, r27	; 0x80036a <_ZN7Globals18SensorReadDurationE+0x3>
    WaterSensorWire::Loop();
    43b8:	11 da       	rcall	.-3038   	; 0x37dc <_ZN15WaterSensorWire4LoopEv>
    if(SensorReadDuration > SensorReadInterval) {
    43ba:	20 91 67 03 	lds	r18, 0x0367	; 0x800367 <_ZN7Globals18SensorReadDurationE>
    43be:	30 91 68 03 	lds	r19, 0x0368	; 0x800368 <_ZN7Globals18SensorReadDurationE+0x1>
    43c2:	40 91 69 03 	lds	r20, 0x0369	; 0x800369 <_ZN7Globals18SensorReadDurationE+0x2>
    43c6:	50 91 6a 03 	lds	r21, 0x036A	; 0x80036a <_ZN7Globals18SensorReadDurationE+0x3>
    43ca:	80 91 10 01 	lds	r24, 0x0110	; 0x800110 <_ZN7Globals18SensorReadIntervalE>
    43ce:	90 91 11 01 	lds	r25, 0x0111	; 0x800111 <_ZN7Globals18SensorReadIntervalE+0x1>
    43d2:	a0 91 12 01 	lds	r26, 0x0112	; 0x800112 <_ZN7Globals18SensorReadIntervalE+0x2>
    43d6:	b0 91 13 01 	lds	r27, 0x0113	; 0x800113 <_ZN7Globals18SensorReadIntervalE+0x3>
    43da:	82 17       	cp	r24, r18
    43dc:	93 07       	cpc	r25, r19
    43de:	a4 07       	cpc	r26, r20
    43e0:	b5 07       	cpc	r27, r21
    43e2:	64 f4       	brge	.+24     	; 0x43fc <_Z11AsyncDoWorkv+0xf2>

        SwitchSensors();
    43e4:	59 de       	rcall	.-846    	; 0x4098 <_ZN7Globals13SwitchSensorsEv>
        lastSensorReadTime = millis();
    43e6:	d6 d5       	rcall	.+2988   	; 0x4f94 <millis>
    43e8:	dc 01       	movw	r26, r24
    43ea:	cb 01       	movw	r24, r22
    43ec:	80 93 11 05 	sts	0x0511, r24	; 0x800511 <_ZZ11AsyncDoWorkvE18lastSensorReadTime>
    43f0:	90 93 12 05 	sts	0x0512, r25	; 0x800512 <_ZZ11AsyncDoWorkvE18lastSensorReadTime+0x1>
    43f4:	a0 93 13 05 	sts	0x0513, r26	; 0x800513 <_ZZ11AsyncDoWorkvE18lastSensorReadTime+0x2>
    43f8:	b0 93 14 05 	sts	0x0514, r27	; 0x800514 <_ZZ11AsyncDoWorkvE18lastSensorReadTime+0x3>
    }
    if(ReadingTDS) {
    43fc:	80 91 66 03 	lds	r24, 0x0366	; 0x800366 <_ZN7Globals10ReadingTDSE>
    4400:	88 23       	and	r24, r24
    4402:	39 f0       	breq	.+14     	; 0x4412 <_Z11AsyncDoWorkv+0x108>
        TheTDSSensor.CalculateTDS();
    4404:	80 91 ad 01 	lds	r24, 0x01AD	; 0x8001ad <_ZN7Globals12TheTDSSensorE>
    4408:	90 91 ae 01 	lds	r25, 0x01AE	; 0x8001ae <_ZN7Globals12TheTDSSensorE+0x1>
    440c:	0e 94 d3 19 	call	0x33a6	; 0x33a6 <_ZN9TDSSensor12CalculateTDSEv>
    4410:	06 c0       	rjmp	.+12     	; 0x441e <_Z11AsyncDoWorkv+0x114>
    }
    else {
        ThePHSensor.CalculatePH();
    4412:	80 91 ab 01 	lds	r24, 0x01AB	; 0x8001ab <_ZN7Globals11ThePHSensorE>
    4416:	90 91 ac 01 	lds	r25, 0x01AC	; 0x8001ac <_ZN7Globals11ThePHSensorE+0x1>
    441a:	0e 94 6e 15 	call	0x2adc	; 0x2adc <_ZN8PHSensor11CalculatePHEv>
    }

    //WaterSensorWire::Scan();
    //WaterSensorWire::I2C_ClearBus();
}
    441e:	e6 e0       	ldi	r30, 0x06	; 6
    4420:	0c 94 ae 2c 	jmp	0x595c	; 0x595c <__epilogue_restores__+0x18>

00004424 <_Z41__static_initialization_and_destruction_0ii>:
    4424:	a4 e0       	ldi	r26, 0x04	; 4
    4426:	b0 e0       	ldi	r27, 0x00	; 0
    4428:	e8 e1       	ldi	r30, 0x18	; 24
    442a:	f2 e2       	ldi	r31, 0x22	; 34
    442c:	0c 94 96 2c 	jmp	0x592c	; 0x592c <__prologue_saves__+0x20>
    4430:	9a 83       	std	Y+2, r25	; 0x02
    4432:	89 83       	std	Y+1, r24	; 0x01
    4434:	7c 83       	std	Y+4, r23	; 0x04
    4436:	6b 83       	std	Y+3, r22	; 0x03
    4438:	89 81       	ldd	r24, Y+1	; 0x01
    443a:	9a 81       	ldd	r25, Y+2	; 0x02
    443c:	01 97       	sbiw	r24, 0x01	; 1
    443e:	41 f4       	brne	.+16     	; 0x4450 <_Z41__static_initialization_and_destruction_0ii+0x2c>
    4440:	8b 81       	ldd	r24, Y+3	; 0x03
    4442:	9c 81       	ldd	r25, Y+4	; 0x04
    4444:	01 96       	adiw	r24, 0x01	; 1
    4446:	21 f4       	brne	.+8      	; 0x4450 <_Z41__static_initialization_and_destruction_0ii+0x2c>

#include "WaterSensorWire.h"
//#include "CmdMessengerExt.h"
using namespace Globals;

SimpleTimer _asyncTimer;
    4448:	8b e5       	ldi	r24, 0x5B	; 91
    444a:	94 e0       	ldi	r25, 0x04	; 4
    444c:	0e 94 04 0c 	call	0x1808	; 0x1808 <_ZN11SimpleTimerC1Ev>
        ThePHSensor.CalculatePH();
    }

    //WaterSensorWire::Scan();
    //WaterSensorWire::I2C_ClearBus();
}
    4450:	24 96       	adiw	r28, 0x04	; 4
    4452:	e2 e0       	ldi	r30, 0x02	; 2
    4454:	0c 94 b2 2c 	jmp	0x5964	; 0x5964 <__epilogue_restores__+0x20>

00004458 <_GLOBAL__sub_I__asyncTimer>:
    4458:	a0 e0       	ldi	r26, 0x00	; 0
    445a:	b0 e0       	ldi	r27, 0x00	; 0
    445c:	e2 e3       	ldi	r30, 0x32	; 50
    445e:	f2 e2       	ldi	r31, 0x22	; 34
    4460:	0c 94 96 2c 	jmp	0x592c	; 0x592c <__prologue_saves__+0x20>
    4464:	6f ef       	ldi	r22, 0xFF	; 255
    4466:	7f ef       	ldi	r23, 0xFF	; 255
    4468:	81 e0       	ldi	r24, 0x01	; 1
    446a:	90 e0       	ldi	r25, 0x00	; 0
    446c:	db df       	rcall	.-74     	; 0x4424 <_Z41__static_initialization_and_destruction_0ii>
    446e:	e2 e0       	ldi	r30, 0x02	; 2
    4470:	0c 94 b2 2c 	jmp	0x5964	; 0x5964 <__epilogue_restores__+0x20>

00004474 <__subsf3>:
    4474:	50 58       	subi	r21, 0x80	; 128

00004476 <__addsf3>:
    4476:	bb 27       	eor	r27, r27
    4478:	aa 27       	eor	r26, r26
    447a:	0e d0       	rcall	.+28     	; 0x4498 <__addsf3x>
    447c:	75 c1       	rjmp	.+746    	; 0x4768 <__fp_round>
    447e:	66 d1       	rcall	.+716    	; 0x474c <__fp_pscA>
    4480:	30 f0       	brcs	.+12     	; 0x448e <__addsf3+0x18>
    4482:	6b d1       	rcall	.+726    	; 0x475a <__fp_pscB>
    4484:	20 f0       	brcs	.+8      	; 0x448e <__addsf3+0x18>
    4486:	31 f4       	brne	.+12     	; 0x4494 <__addsf3+0x1e>
    4488:	9f 3f       	cpi	r25, 0xFF	; 255
    448a:	11 f4       	brne	.+4      	; 0x4490 <__addsf3+0x1a>
    448c:	1e f4       	brtc	.+6      	; 0x4494 <__addsf3+0x1e>
    448e:	5b c1       	rjmp	.+694    	; 0x4746 <__fp_nan>
    4490:	0e f4       	brtc	.+2      	; 0x4494 <__addsf3+0x1e>
    4492:	e0 95       	com	r30
    4494:	e7 fb       	bst	r30, 7
    4496:	51 c1       	rjmp	.+674    	; 0x473a <__fp_inf>

00004498 <__addsf3x>:
    4498:	e9 2f       	mov	r30, r25
    449a:	77 d1       	rcall	.+750    	; 0x478a <__fp_split3>
    449c:	80 f3       	brcs	.-32     	; 0x447e <__addsf3+0x8>
    449e:	ba 17       	cp	r27, r26
    44a0:	62 07       	cpc	r22, r18
    44a2:	73 07       	cpc	r23, r19
    44a4:	84 07       	cpc	r24, r20
    44a6:	95 07       	cpc	r25, r21
    44a8:	18 f0       	brcs	.+6      	; 0x44b0 <__addsf3x+0x18>
    44aa:	71 f4       	brne	.+28     	; 0x44c8 <__addsf3x+0x30>
    44ac:	9e f5       	brtc	.+102    	; 0x4514 <__addsf3x+0x7c>
    44ae:	8f c1       	rjmp	.+798    	; 0x47ce <__fp_zero>
    44b0:	0e f4       	brtc	.+2      	; 0x44b4 <__addsf3x+0x1c>
    44b2:	e0 95       	com	r30
    44b4:	0b 2e       	mov	r0, r27
    44b6:	ba 2f       	mov	r27, r26
    44b8:	a0 2d       	mov	r26, r0
    44ba:	0b 01       	movw	r0, r22
    44bc:	b9 01       	movw	r22, r18
    44be:	90 01       	movw	r18, r0
    44c0:	0c 01       	movw	r0, r24
    44c2:	ca 01       	movw	r24, r20
    44c4:	a0 01       	movw	r20, r0
    44c6:	11 24       	eor	r1, r1
    44c8:	ff 27       	eor	r31, r31
    44ca:	59 1b       	sub	r21, r25
    44cc:	99 f0       	breq	.+38     	; 0x44f4 <__addsf3x+0x5c>
    44ce:	59 3f       	cpi	r21, 0xF9	; 249
    44d0:	50 f4       	brcc	.+20     	; 0x44e6 <__addsf3x+0x4e>
    44d2:	50 3e       	cpi	r21, 0xE0	; 224
    44d4:	68 f1       	brcs	.+90     	; 0x4530 <__addsf3x+0x98>
    44d6:	1a 16       	cp	r1, r26
    44d8:	f0 40       	sbci	r31, 0x00	; 0
    44da:	a2 2f       	mov	r26, r18
    44dc:	23 2f       	mov	r18, r19
    44de:	34 2f       	mov	r19, r20
    44e0:	44 27       	eor	r20, r20
    44e2:	58 5f       	subi	r21, 0xF8	; 248
    44e4:	f3 cf       	rjmp	.-26     	; 0x44cc <__addsf3x+0x34>
    44e6:	46 95       	lsr	r20
    44e8:	37 95       	ror	r19
    44ea:	27 95       	ror	r18
    44ec:	a7 95       	ror	r26
    44ee:	f0 40       	sbci	r31, 0x00	; 0
    44f0:	53 95       	inc	r21
    44f2:	c9 f7       	brne	.-14     	; 0x44e6 <__addsf3x+0x4e>
    44f4:	7e f4       	brtc	.+30     	; 0x4514 <__addsf3x+0x7c>
    44f6:	1f 16       	cp	r1, r31
    44f8:	ba 0b       	sbc	r27, r26
    44fa:	62 0b       	sbc	r22, r18
    44fc:	73 0b       	sbc	r23, r19
    44fe:	84 0b       	sbc	r24, r20
    4500:	ba f0       	brmi	.+46     	; 0x4530 <__addsf3x+0x98>
    4502:	91 50       	subi	r25, 0x01	; 1
    4504:	a1 f0       	breq	.+40     	; 0x452e <__addsf3x+0x96>
    4506:	ff 0f       	add	r31, r31
    4508:	bb 1f       	adc	r27, r27
    450a:	66 1f       	adc	r22, r22
    450c:	77 1f       	adc	r23, r23
    450e:	88 1f       	adc	r24, r24
    4510:	c2 f7       	brpl	.-16     	; 0x4502 <__addsf3x+0x6a>
    4512:	0e c0       	rjmp	.+28     	; 0x4530 <__addsf3x+0x98>
    4514:	ba 0f       	add	r27, r26
    4516:	62 1f       	adc	r22, r18
    4518:	73 1f       	adc	r23, r19
    451a:	84 1f       	adc	r24, r20
    451c:	48 f4       	brcc	.+18     	; 0x4530 <__addsf3x+0x98>
    451e:	87 95       	ror	r24
    4520:	77 95       	ror	r23
    4522:	67 95       	ror	r22
    4524:	b7 95       	ror	r27
    4526:	f7 95       	ror	r31
    4528:	9e 3f       	cpi	r25, 0xFE	; 254
    452a:	08 f0       	brcs	.+2      	; 0x452e <__addsf3x+0x96>
    452c:	b3 cf       	rjmp	.-154    	; 0x4494 <__addsf3+0x1e>
    452e:	93 95       	inc	r25
    4530:	88 0f       	add	r24, r24
    4532:	08 f0       	brcs	.+2      	; 0x4536 <__addsf3x+0x9e>
    4534:	99 27       	eor	r25, r25
    4536:	ee 0f       	add	r30, r30
    4538:	97 95       	ror	r25
    453a:	87 95       	ror	r24
    453c:	08 95       	ret

0000453e <__cmpsf2>:
    453e:	d9 d0       	rcall	.+434    	; 0x46f2 <__fp_cmp>
    4540:	08 f4       	brcc	.+2      	; 0x4544 <__cmpsf2+0x6>
    4542:	81 e0       	ldi	r24, 0x01	; 1
    4544:	08 95       	ret

00004546 <__divsf3>:
    4546:	0c d0       	rcall	.+24     	; 0x4560 <__divsf3x>
    4548:	0f c1       	rjmp	.+542    	; 0x4768 <__fp_round>
    454a:	07 d1       	rcall	.+526    	; 0x475a <__fp_pscB>
    454c:	40 f0       	brcs	.+16     	; 0x455e <__divsf3+0x18>
    454e:	fe d0       	rcall	.+508    	; 0x474c <__fp_pscA>
    4550:	30 f0       	brcs	.+12     	; 0x455e <__divsf3+0x18>
    4552:	21 f4       	brne	.+8      	; 0x455c <__divsf3+0x16>
    4554:	5f 3f       	cpi	r21, 0xFF	; 255
    4556:	19 f0       	breq	.+6      	; 0x455e <__divsf3+0x18>
    4558:	f0 c0       	rjmp	.+480    	; 0x473a <__fp_inf>
    455a:	51 11       	cpse	r21, r1
    455c:	39 c1       	rjmp	.+626    	; 0x47d0 <__fp_szero>
    455e:	f3 c0       	rjmp	.+486    	; 0x4746 <__fp_nan>

00004560 <__divsf3x>:
    4560:	14 d1       	rcall	.+552    	; 0x478a <__fp_split3>
    4562:	98 f3       	brcs	.-26     	; 0x454a <__divsf3+0x4>

00004564 <__divsf3_pse>:
    4564:	99 23       	and	r25, r25
    4566:	c9 f3       	breq	.-14     	; 0x455a <__divsf3+0x14>
    4568:	55 23       	and	r21, r21
    456a:	b1 f3       	breq	.-20     	; 0x4558 <__divsf3+0x12>
    456c:	95 1b       	sub	r25, r21
    456e:	55 0b       	sbc	r21, r21
    4570:	bb 27       	eor	r27, r27
    4572:	aa 27       	eor	r26, r26
    4574:	62 17       	cp	r22, r18
    4576:	73 07       	cpc	r23, r19
    4578:	84 07       	cpc	r24, r20
    457a:	38 f0       	brcs	.+14     	; 0x458a <__divsf3_pse+0x26>
    457c:	9f 5f       	subi	r25, 0xFF	; 255
    457e:	5f 4f       	sbci	r21, 0xFF	; 255
    4580:	22 0f       	add	r18, r18
    4582:	33 1f       	adc	r19, r19
    4584:	44 1f       	adc	r20, r20
    4586:	aa 1f       	adc	r26, r26
    4588:	a9 f3       	breq	.-22     	; 0x4574 <__divsf3_pse+0x10>
    458a:	33 d0       	rcall	.+102    	; 0x45f2 <__divsf3_pse+0x8e>
    458c:	0e 2e       	mov	r0, r30
    458e:	3a f0       	brmi	.+14     	; 0x459e <__divsf3_pse+0x3a>
    4590:	e0 e8       	ldi	r30, 0x80	; 128
    4592:	30 d0       	rcall	.+96     	; 0x45f4 <__divsf3_pse+0x90>
    4594:	91 50       	subi	r25, 0x01	; 1
    4596:	50 40       	sbci	r21, 0x00	; 0
    4598:	e6 95       	lsr	r30
    459a:	00 1c       	adc	r0, r0
    459c:	ca f7       	brpl	.-14     	; 0x4590 <__divsf3_pse+0x2c>
    459e:	29 d0       	rcall	.+82     	; 0x45f2 <__divsf3_pse+0x8e>
    45a0:	fe 2f       	mov	r31, r30
    45a2:	27 d0       	rcall	.+78     	; 0x45f2 <__divsf3_pse+0x8e>
    45a4:	66 0f       	add	r22, r22
    45a6:	77 1f       	adc	r23, r23
    45a8:	88 1f       	adc	r24, r24
    45aa:	bb 1f       	adc	r27, r27
    45ac:	26 17       	cp	r18, r22
    45ae:	37 07       	cpc	r19, r23
    45b0:	48 07       	cpc	r20, r24
    45b2:	ab 07       	cpc	r26, r27
    45b4:	b0 e8       	ldi	r27, 0x80	; 128
    45b6:	09 f0       	breq	.+2      	; 0x45ba <__divsf3_pse+0x56>
    45b8:	bb 0b       	sbc	r27, r27
    45ba:	80 2d       	mov	r24, r0
    45bc:	bf 01       	movw	r22, r30
    45be:	ff 27       	eor	r31, r31
    45c0:	93 58       	subi	r25, 0x83	; 131
    45c2:	5f 4f       	sbci	r21, 0xFF	; 255
    45c4:	2a f0       	brmi	.+10     	; 0x45d0 <__divsf3_pse+0x6c>
    45c6:	9e 3f       	cpi	r25, 0xFE	; 254
    45c8:	51 05       	cpc	r21, r1
    45ca:	68 f0       	brcs	.+26     	; 0x45e6 <__divsf3_pse+0x82>
    45cc:	b6 c0       	rjmp	.+364    	; 0x473a <__fp_inf>
    45ce:	00 c1       	rjmp	.+512    	; 0x47d0 <__fp_szero>
    45d0:	5f 3f       	cpi	r21, 0xFF	; 255
    45d2:	ec f3       	brlt	.-6      	; 0x45ce <__divsf3_pse+0x6a>
    45d4:	98 3e       	cpi	r25, 0xE8	; 232
    45d6:	dc f3       	brlt	.-10     	; 0x45ce <__divsf3_pse+0x6a>
    45d8:	86 95       	lsr	r24
    45da:	77 95       	ror	r23
    45dc:	67 95       	ror	r22
    45de:	b7 95       	ror	r27
    45e0:	f7 95       	ror	r31
    45e2:	9f 5f       	subi	r25, 0xFF	; 255
    45e4:	c9 f7       	brne	.-14     	; 0x45d8 <__divsf3_pse+0x74>
    45e6:	88 0f       	add	r24, r24
    45e8:	91 1d       	adc	r25, r1
    45ea:	96 95       	lsr	r25
    45ec:	87 95       	ror	r24
    45ee:	97 f9       	bld	r25, 7
    45f0:	08 95       	ret
    45f2:	e1 e0       	ldi	r30, 0x01	; 1
    45f4:	66 0f       	add	r22, r22
    45f6:	77 1f       	adc	r23, r23
    45f8:	88 1f       	adc	r24, r24
    45fa:	bb 1f       	adc	r27, r27
    45fc:	62 17       	cp	r22, r18
    45fe:	73 07       	cpc	r23, r19
    4600:	84 07       	cpc	r24, r20
    4602:	ba 07       	cpc	r27, r26
    4604:	20 f0       	brcs	.+8      	; 0x460e <__divsf3_pse+0xaa>
    4606:	62 1b       	sub	r22, r18
    4608:	73 0b       	sbc	r23, r19
    460a:	84 0b       	sbc	r24, r20
    460c:	ba 0b       	sbc	r27, r26
    460e:	ee 1f       	adc	r30, r30
    4610:	88 f7       	brcc	.-30     	; 0x45f4 <__divsf3_pse+0x90>
    4612:	e0 95       	com	r30
    4614:	08 95       	ret

00004616 <__fixsfsi>:
    4616:	04 d0       	rcall	.+8      	; 0x4620 <__fixunssfsi>
    4618:	68 94       	set
    461a:	b1 11       	cpse	r27, r1
    461c:	d9 c0       	rjmp	.+434    	; 0x47d0 <__fp_szero>
    461e:	08 95       	ret

00004620 <__fixunssfsi>:
    4620:	bc d0       	rcall	.+376    	; 0x479a <__fp_splitA>
    4622:	88 f0       	brcs	.+34     	; 0x4646 <__fixunssfsi+0x26>
    4624:	9f 57       	subi	r25, 0x7F	; 127
    4626:	90 f0       	brcs	.+36     	; 0x464c <__fixunssfsi+0x2c>
    4628:	b9 2f       	mov	r27, r25
    462a:	99 27       	eor	r25, r25
    462c:	b7 51       	subi	r27, 0x17	; 23
    462e:	a0 f0       	brcs	.+40     	; 0x4658 <__fixunssfsi+0x38>
    4630:	d1 f0       	breq	.+52     	; 0x4666 <__fixunssfsi+0x46>
    4632:	66 0f       	add	r22, r22
    4634:	77 1f       	adc	r23, r23
    4636:	88 1f       	adc	r24, r24
    4638:	99 1f       	adc	r25, r25
    463a:	1a f0       	brmi	.+6      	; 0x4642 <__fixunssfsi+0x22>
    463c:	ba 95       	dec	r27
    463e:	c9 f7       	brne	.-14     	; 0x4632 <__fixunssfsi+0x12>
    4640:	12 c0       	rjmp	.+36     	; 0x4666 <__fixunssfsi+0x46>
    4642:	b1 30       	cpi	r27, 0x01	; 1
    4644:	81 f0       	breq	.+32     	; 0x4666 <__fixunssfsi+0x46>
    4646:	c3 d0       	rcall	.+390    	; 0x47ce <__fp_zero>
    4648:	b1 e0       	ldi	r27, 0x01	; 1
    464a:	08 95       	ret
    464c:	c0 c0       	rjmp	.+384    	; 0x47ce <__fp_zero>
    464e:	67 2f       	mov	r22, r23
    4650:	78 2f       	mov	r23, r24
    4652:	88 27       	eor	r24, r24
    4654:	b8 5f       	subi	r27, 0xF8	; 248
    4656:	39 f0       	breq	.+14     	; 0x4666 <__fixunssfsi+0x46>
    4658:	b9 3f       	cpi	r27, 0xF9	; 249
    465a:	cc f3       	brlt	.-14     	; 0x464e <__fixunssfsi+0x2e>
    465c:	86 95       	lsr	r24
    465e:	77 95       	ror	r23
    4660:	67 95       	ror	r22
    4662:	b3 95       	inc	r27
    4664:	d9 f7       	brne	.-10     	; 0x465c <__fixunssfsi+0x3c>
    4666:	3e f4       	brtc	.+14     	; 0x4676 <__fixunssfsi+0x56>
    4668:	90 95       	com	r25
    466a:	80 95       	com	r24
    466c:	70 95       	com	r23
    466e:	61 95       	neg	r22
    4670:	7f 4f       	sbci	r23, 0xFF	; 255
    4672:	8f 4f       	sbci	r24, 0xFF	; 255
    4674:	9f 4f       	sbci	r25, 0xFF	; 255
    4676:	08 95       	ret

00004678 <__floatunsisf>:
    4678:	e8 94       	clt
    467a:	09 c0       	rjmp	.+18     	; 0x468e <__floatsisf+0x12>

0000467c <__floatsisf>:
    467c:	97 fb       	bst	r25, 7
    467e:	3e f4       	brtc	.+14     	; 0x468e <__floatsisf+0x12>
    4680:	90 95       	com	r25
    4682:	80 95       	com	r24
    4684:	70 95       	com	r23
    4686:	61 95       	neg	r22
    4688:	7f 4f       	sbci	r23, 0xFF	; 255
    468a:	8f 4f       	sbci	r24, 0xFF	; 255
    468c:	9f 4f       	sbci	r25, 0xFF	; 255
    468e:	99 23       	and	r25, r25
    4690:	a9 f0       	breq	.+42     	; 0x46bc <__floatsisf+0x40>
    4692:	f9 2f       	mov	r31, r25
    4694:	96 e9       	ldi	r25, 0x96	; 150
    4696:	bb 27       	eor	r27, r27
    4698:	93 95       	inc	r25
    469a:	f6 95       	lsr	r31
    469c:	87 95       	ror	r24
    469e:	77 95       	ror	r23
    46a0:	67 95       	ror	r22
    46a2:	b7 95       	ror	r27
    46a4:	f1 11       	cpse	r31, r1
    46a6:	f8 cf       	rjmp	.-16     	; 0x4698 <__floatsisf+0x1c>
    46a8:	fa f4       	brpl	.+62     	; 0x46e8 <__floatsisf+0x6c>
    46aa:	bb 0f       	add	r27, r27
    46ac:	11 f4       	brne	.+4      	; 0x46b2 <__floatsisf+0x36>
    46ae:	60 ff       	sbrs	r22, 0
    46b0:	1b c0       	rjmp	.+54     	; 0x46e8 <__floatsisf+0x6c>
    46b2:	6f 5f       	subi	r22, 0xFF	; 255
    46b4:	7f 4f       	sbci	r23, 0xFF	; 255
    46b6:	8f 4f       	sbci	r24, 0xFF	; 255
    46b8:	9f 4f       	sbci	r25, 0xFF	; 255
    46ba:	16 c0       	rjmp	.+44     	; 0x46e8 <__floatsisf+0x6c>
    46bc:	88 23       	and	r24, r24
    46be:	11 f0       	breq	.+4      	; 0x46c4 <__floatsisf+0x48>
    46c0:	96 e9       	ldi	r25, 0x96	; 150
    46c2:	11 c0       	rjmp	.+34     	; 0x46e6 <__floatsisf+0x6a>
    46c4:	77 23       	and	r23, r23
    46c6:	21 f0       	breq	.+8      	; 0x46d0 <__floatsisf+0x54>
    46c8:	9e e8       	ldi	r25, 0x8E	; 142
    46ca:	87 2f       	mov	r24, r23
    46cc:	76 2f       	mov	r23, r22
    46ce:	05 c0       	rjmp	.+10     	; 0x46da <__floatsisf+0x5e>
    46d0:	66 23       	and	r22, r22
    46d2:	71 f0       	breq	.+28     	; 0x46f0 <__floatsisf+0x74>
    46d4:	96 e8       	ldi	r25, 0x86	; 134
    46d6:	86 2f       	mov	r24, r22
    46d8:	70 e0       	ldi	r23, 0x00	; 0
    46da:	60 e0       	ldi	r22, 0x00	; 0
    46dc:	2a f0       	brmi	.+10     	; 0x46e8 <__floatsisf+0x6c>
    46de:	9a 95       	dec	r25
    46e0:	66 0f       	add	r22, r22
    46e2:	77 1f       	adc	r23, r23
    46e4:	88 1f       	adc	r24, r24
    46e6:	da f7       	brpl	.-10     	; 0x46de <__floatsisf+0x62>
    46e8:	88 0f       	add	r24, r24
    46ea:	96 95       	lsr	r25
    46ec:	87 95       	ror	r24
    46ee:	97 f9       	bld	r25, 7
    46f0:	08 95       	ret

000046f2 <__fp_cmp>:
    46f2:	99 0f       	add	r25, r25
    46f4:	00 08       	sbc	r0, r0
    46f6:	55 0f       	add	r21, r21
    46f8:	aa 0b       	sbc	r26, r26
    46fa:	e0 e8       	ldi	r30, 0x80	; 128
    46fc:	fe ef       	ldi	r31, 0xFE	; 254
    46fe:	16 16       	cp	r1, r22
    4700:	17 06       	cpc	r1, r23
    4702:	e8 07       	cpc	r30, r24
    4704:	f9 07       	cpc	r31, r25
    4706:	c0 f0       	brcs	.+48     	; 0x4738 <__fp_cmp+0x46>
    4708:	12 16       	cp	r1, r18
    470a:	13 06       	cpc	r1, r19
    470c:	e4 07       	cpc	r30, r20
    470e:	f5 07       	cpc	r31, r21
    4710:	98 f0       	brcs	.+38     	; 0x4738 <__fp_cmp+0x46>
    4712:	62 1b       	sub	r22, r18
    4714:	73 0b       	sbc	r23, r19
    4716:	84 0b       	sbc	r24, r20
    4718:	95 0b       	sbc	r25, r21
    471a:	39 f4       	brne	.+14     	; 0x472a <__fp_cmp+0x38>
    471c:	0a 26       	eor	r0, r26
    471e:	61 f0       	breq	.+24     	; 0x4738 <__fp_cmp+0x46>
    4720:	23 2b       	or	r18, r19
    4722:	24 2b       	or	r18, r20
    4724:	25 2b       	or	r18, r21
    4726:	21 f4       	brne	.+8      	; 0x4730 <__fp_cmp+0x3e>
    4728:	08 95       	ret
    472a:	0a 26       	eor	r0, r26
    472c:	09 f4       	brne	.+2      	; 0x4730 <__fp_cmp+0x3e>
    472e:	a1 40       	sbci	r26, 0x01	; 1
    4730:	a6 95       	lsr	r26
    4732:	8f ef       	ldi	r24, 0xFF	; 255
    4734:	81 1d       	adc	r24, r1
    4736:	81 1d       	adc	r24, r1
    4738:	08 95       	ret

0000473a <__fp_inf>:
    473a:	97 f9       	bld	r25, 7
    473c:	9f 67       	ori	r25, 0x7F	; 127
    473e:	80 e8       	ldi	r24, 0x80	; 128
    4740:	70 e0       	ldi	r23, 0x00	; 0
    4742:	60 e0       	ldi	r22, 0x00	; 0
    4744:	08 95       	ret

00004746 <__fp_nan>:
    4746:	9f ef       	ldi	r25, 0xFF	; 255
    4748:	80 ec       	ldi	r24, 0xC0	; 192
    474a:	08 95       	ret

0000474c <__fp_pscA>:
    474c:	00 24       	eor	r0, r0
    474e:	0a 94       	dec	r0
    4750:	16 16       	cp	r1, r22
    4752:	17 06       	cpc	r1, r23
    4754:	18 06       	cpc	r1, r24
    4756:	09 06       	cpc	r0, r25
    4758:	08 95       	ret

0000475a <__fp_pscB>:
    475a:	00 24       	eor	r0, r0
    475c:	0a 94       	dec	r0
    475e:	12 16       	cp	r1, r18
    4760:	13 06       	cpc	r1, r19
    4762:	14 06       	cpc	r1, r20
    4764:	05 06       	cpc	r0, r21
    4766:	08 95       	ret

00004768 <__fp_round>:
    4768:	09 2e       	mov	r0, r25
    476a:	03 94       	inc	r0
    476c:	00 0c       	add	r0, r0
    476e:	11 f4       	brne	.+4      	; 0x4774 <__fp_round+0xc>
    4770:	88 23       	and	r24, r24
    4772:	52 f0       	brmi	.+20     	; 0x4788 <__fp_round+0x20>
    4774:	bb 0f       	add	r27, r27
    4776:	40 f4       	brcc	.+16     	; 0x4788 <__fp_round+0x20>
    4778:	bf 2b       	or	r27, r31
    477a:	11 f4       	brne	.+4      	; 0x4780 <__fp_round+0x18>
    477c:	60 ff       	sbrs	r22, 0
    477e:	04 c0       	rjmp	.+8      	; 0x4788 <__fp_round+0x20>
    4780:	6f 5f       	subi	r22, 0xFF	; 255
    4782:	7f 4f       	sbci	r23, 0xFF	; 255
    4784:	8f 4f       	sbci	r24, 0xFF	; 255
    4786:	9f 4f       	sbci	r25, 0xFF	; 255
    4788:	08 95       	ret

0000478a <__fp_split3>:
    478a:	57 fd       	sbrc	r21, 7
    478c:	90 58       	subi	r25, 0x80	; 128
    478e:	44 0f       	add	r20, r20
    4790:	55 1f       	adc	r21, r21
    4792:	59 f0       	breq	.+22     	; 0x47aa <__fp_splitA+0x10>
    4794:	5f 3f       	cpi	r21, 0xFF	; 255
    4796:	71 f0       	breq	.+28     	; 0x47b4 <__fp_splitA+0x1a>
    4798:	47 95       	ror	r20

0000479a <__fp_splitA>:
    479a:	88 0f       	add	r24, r24
    479c:	97 fb       	bst	r25, 7
    479e:	99 1f       	adc	r25, r25
    47a0:	61 f0       	breq	.+24     	; 0x47ba <__fp_splitA+0x20>
    47a2:	9f 3f       	cpi	r25, 0xFF	; 255
    47a4:	79 f0       	breq	.+30     	; 0x47c4 <__fp_splitA+0x2a>
    47a6:	87 95       	ror	r24
    47a8:	08 95       	ret
    47aa:	12 16       	cp	r1, r18
    47ac:	13 06       	cpc	r1, r19
    47ae:	14 06       	cpc	r1, r20
    47b0:	55 1f       	adc	r21, r21
    47b2:	f2 cf       	rjmp	.-28     	; 0x4798 <__fp_split3+0xe>
    47b4:	46 95       	lsr	r20
    47b6:	f1 df       	rcall	.-30     	; 0x479a <__fp_splitA>
    47b8:	08 c0       	rjmp	.+16     	; 0x47ca <__fp_splitA+0x30>
    47ba:	16 16       	cp	r1, r22
    47bc:	17 06       	cpc	r1, r23
    47be:	18 06       	cpc	r1, r24
    47c0:	99 1f       	adc	r25, r25
    47c2:	f1 cf       	rjmp	.-30     	; 0x47a6 <__fp_splitA+0xc>
    47c4:	86 95       	lsr	r24
    47c6:	71 05       	cpc	r23, r1
    47c8:	61 05       	cpc	r22, r1
    47ca:	08 94       	sec
    47cc:	08 95       	ret

000047ce <__fp_zero>:
    47ce:	e8 94       	clt

000047d0 <__fp_szero>:
    47d0:	bb 27       	eor	r27, r27
    47d2:	66 27       	eor	r22, r22
    47d4:	77 27       	eor	r23, r23
    47d6:	cb 01       	movw	r24, r22
    47d8:	97 f9       	bld	r25, 7
    47da:	08 95       	ret

000047dc <__mulsf3>:
    47dc:	0b d0       	rcall	.+22     	; 0x47f4 <__mulsf3x>
    47de:	c4 cf       	rjmp	.-120    	; 0x4768 <__fp_round>
    47e0:	b5 df       	rcall	.-150    	; 0x474c <__fp_pscA>
    47e2:	28 f0       	brcs	.+10     	; 0x47ee <__mulsf3+0x12>
    47e4:	ba df       	rcall	.-140    	; 0x475a <__fp_pscB>
    47e6:	18 f0       	brcs	.+6      	; 0x47ee <__mulsf3+0x12>
    47e8:	95 23       	and	r25, r21
    47ea:	09 f0       	breq	.+2      	; 0x47ee <__mulsf3+0x12>
    47ec:	a6 cf       	rjmp	.-180    	; 0x473a <__fp_inf>
    47ee:	ab cf       	rjmp	.-170    	; 0x4746 <__fp_nan>
    47f0:	11 24       	eor	r1, r1
    47f2:	ee cf       	rjmp	.-36     	; 0x47d0 <__fp_szero>

000047f4 <__mulsf3x>:
    47f4:	ca df       	rcall	.-108    	; 0x478a <__fp_split3>
    47f6:	a0 f3       	brcs	.-24     	; 0x47e0 <__mulsf3+0x4>

000047f8 <__mulsf3_pse>:
    47f8:	95 9f       	mul	r25, r21
    47fa:	d1 f3       	breq	.-12     	; 0x47f0 <__mulsf3+0x14>
    47fc:	95 0f       	add	r25, r21
    47fe:	50 e0       	ldi	r21, 0x00	; 0
    4800:	55 1f       	adc	r21, r21
    4802:	62 9f       	mul	r22, r18
    4804:	f0 01       	movw	r30, r0
    4806:	72 9f       	mul	r23, r18
    4808:	bb 27       	eor	r27, r27
    480a:	f0 0d       	add	r31, r0
    480c:	b1 1d       	adc	r27, r1
    480e:	63 9f       	mul	r22, r19
    4810:	aa 27       	eor	r26, r26
    4812:	f0 0d       	add	r31, r0
    4814:	b1 1d       	adc	r27, r1
    4816:	aa 1f       	adc	r26, r26
    4818:	64 9f       	mul	r22, r20
    481a:	66 27       	eor	r22, r22
    481c:	b0 0d       	add	r27, r0
    481e:	a1 1d       	adc	r26, r1
    4820:	66 1f       	adc	r22, r22
    4822:	82 9f       	mul	r24, r18
    4824:	22 27       	eor	r18, r18
    4826:	b0 0d       	add	r27, r0
    4828:	a1 1d       	adc	r26, r1
    482a:	62 1f       	adc	r22, r18
    482c:	73 9f       	mul	r23, r19
    482e:	b0 0d       	add	r27, r0
    4830:	a1 1d       	adc	r26, r1
    4832:	62 1f       	adc	r22, r18
    4834:	83 9f       	mul	r24, r19
    4836:	a0 0d       	add	r26, r0
    4838:	61 1d       	adc	r22, r1
    483a:	22 1f       	adc	r18, r18
    483c:	74 9f       	mul	r23, r20
    483e:	33 27       	eor	r19, r19
    4840:	a0 0d       	add	r26, r0
    4842:	61 1d       	adc	r22, r1
    4844:	23 1f       	adc	r18, r19
    4846:	84 9f       	mul	r24, r20
    4848:	60 0d       	add	r22, r0
    484a:	21 1d       	adc	r18, r1
    484c:	82 2f       	mov	r24, r18
    484e:	76 2f       	mov	r23, r22
    4850:	6a 2f       	mov	r22, r26
    4852:	11 24       	eor	r1, r1
    4854:	9f 57       	subi	r25, 0x7F	; 127
    4856:	50 40       	sbci	r21, 0x00	; 0
    4858:	8a f0       	brmi	.+34     	; 0x487c <__mulsf3_pse+0x84>
    485a:	e1 f0       	breq	.+56     	; 0x4894 <__mulsf3_pse+0x9c>
    485c:	88 23       	and	r24, r24
    485e:	4a f0       	brmi	.+18     	; 0x4872 <__mulsf3_pse+0x7a>
    4860:	ee 0f       	add	r30, r30
    4862:	ff 1f       	adc	r31, r31
    4864:	bb 1f       	adc	r27, r27
    4866:	66 1f       	adc	r22, r22
    4868:	77 1f       	adc	r23, r23
    486a:	88 1f       	adc	r24, r24
    486c:	91 50       	subi	r25, 0x01	; 1
    486e:	50 40       	sbci	r21, 0x00	; 0
    4870:	a9 f7       	brne	.-22     	; 0x485c <__mulsf3_pse+0x64>
    4872:	9e 3f       	cpi	r25, 0xFE	; 254
    4874:	51 05       	cpc	r21, r1
    4876:	70 f0       	brcs	.+28     	; 0x4894 <__mulsf3_pse+0x9c>
    4878:	60 cf       	rjmp	.-320    	; 0x473a <__fp_inf>
    487a:	aa cf       	rjmp	.-172    	; 0x47d0 <__fp_szero>
    487c:	5f 3f       	cpi	r21, 0xFF	; 255
    487e:	ec f3       	brlt	.-6      	; 0x487a <__mulsf3_pse+0x82>
    4880:	98 3e       	cpi	r25, 0xE8	; 232
    4882:	dc f3       	brlt	.-10     	; 0x487a <__mulsf3_pse+0x82>
    4884:	86 95       	lsr	r24
    4886:	77 95       	ror	r23
    4888:	67 95       	ror	r22
    488a:	b7 95       	ror	r27
    488c:	f7 95       	ror	r31
    488e:	e7 95       	ror	r30
    4890:	9f 5f       	subi	r25, 0xFF	; 255
    4892:	c1 f7       	brne	.-16     	; 0x4884 <__mulsf3_pse+0x8c>
    4894:	fe 2b       	or	r31, r30
    4896:	88 0f       	add	r24, r24
    4898:	91 1d       	adc	r25, r1
    489a:	96 95       	lsr	r25
    489c:	87 95       	ror	r24
    489e:	97 f9       	bld	r25, 7
    48a0:	08 95       	ret

000048a2 <__unordsf2>:
    48a2:	27 df       	rcall	.-434    	; 0x46f2 <__fp_cmp>
    48a4:	88 0b       	sbc	r24, r24
    48a6:	99 0b       	sbc	r25, r25
    48a8:	08 95       	ret

000048aa <__cxa_pure_virtual>:
extern "C" void __cxa_deleted_virtual(void) __attribute__ ((__noreturn__));

void __cxa_pure_virtual(void) {
  // We might want to write some diagnostics to uart in this case
  //std::terminate();
  abort();
    48aa:	0e 94 31 30 	call	0x6062	; 0x6062 <abort>

000048ae <_ZN14HardwareSerial9availableEv>:
  // clear any received data
  _rx_buffer_head = _rx_buffer_tail;
}

int HardwareSerial::available(void)
{
    48ae:	fc 01       	movw	r30, r24
  return ((unsigned int)(SERIAL_RX_BUFFER_SIZE + _rx_buffer_head - _rx_buffer_tail)) % SERIAL_RX_BUFFER_SIZE;
    48b0:	91 8d       	ldd	r25, Z+25	; 0x19
    48b2:	22 8d       	ldd	r18, Z+26	; 0x1a
    48b4:	89 2f       	mov	r24, r25
    48b6:	90 e0       	ldi	r25, 0x00	; 0
    48b8:	80 5c       	subi	r24, 0xC0	; 192
    48ba:	9f 4f       	sbci	r25, 0xFF	; 255
    48bc:	82 1b       	sub	r24, r18
    48be:	91 09       	sbc	r25, r1
}
    48c0:	8f 73       	andi	r24, 0x3F	; 63
    48c2:	99 27       	eor	r25, r25
    48c4:	08 95       	ret

000048c6 <_ZN14HardwareSerial4peekEv>:

int HardwareSerial::peek(void)
{
    48c6:	fc 01       	movw	r30, r24
  if (_rx_buffer_head == _rx_buffer_tail) {
    48c8:	91 8d       	ldd	r25, Z+25	; 0x19
    48ca:	82 8d       	ldd	r24, Z+26	; 0x1a
    48cc:	98 17       	cp	r25, r24
    48ce:	31 f0       	breq	.+12     	; 0x48dc <_ZN14HardwareSerial4peekEv+0x16>
    return -1;
  } else {
    return _rx_buffer[_rx_buffer_tail];
    48d0:	82 8d       	ldd	r24, Z+26	; 0x1a
    48d2:	e8 0f       	add	r30, r24
    48d4:	f1 1d       	adc	r31, r1
    48d6:	85 8d       	ldd	r24, Z+29	; 0x1d
    48d8:	90 e0       	ldi	r25, 0x00	; 0
    48da:	08 95       	ret
}

int HardwareSerial::peek(void)
{
  if (_rx_buffer_head == _rx_buffer_tail) {
    return -1;
    48dc:	8f ef       	ldi	r24, 0xFF	; 255
    48de:	9f ef       	ldi	r25, 0xFF	; 255
  } else {
    return _rx_buffer[_rx_buffer_tail];
  }
}
    48e0:	08 95       	ret

000048e2 <_ZN14HardwareSerial4readEv>:

int HardwareSerial::read(void)
{
    48e2:	fc 01       	movw	r30, r24
  // if the head isn't ahead of the tail, we don't have any characters
  if (_rx_buffer_head == _rx_buffer_tail) {
    48e4:	91 8d       	ldd	r25, Z+25	; 0x19
    48e6:	82 8d       	ldd	r24, Z+26	; 0x1a
    48e8:	98 17       	cp	r25, r24
    48ea:	61 f0       	breq	.+24     	; 0x4904 <_ZN14HardwareSerial4readEv+0x22>
    return -1;
  } else {
    unsigned char c = _rx_buffer[_rx_buffer_tail];
    48ec:	82 8d       	ldd	r24, Z+26	; 0x1a
    48ee:	df 01       	movw	r26, r30
    48f0:	a8 0f       	add	r26, r24
    48f2:	b1 1d       	adc	r27, r1
    48f4:	5d 96       	adiw	r26, 0x1d	; 29
    48f6:	8c 91       	ld	r24, X
    _rx_buffer_tail = (rx_buffer_index_t)(_rx_buffer_tail + 1) % SERIAL_RX_BUFFER_SIZE;
    48f8:	92 8d       	ldd	r25, Z+26	; 0x1a
    48fa:	9f 5f       	subi	r25, 0xFF	; 255
    48fc:	9f 73       	andi	r25, 0x3F	; 63
    48fe:	92 8f       	std	Z+26, r25	; 0x1a
    return c;
    4900:	90 e0       	ldi	r25, 0x00	; 0
    4902:	08 95       	ret

int HardwareSerial::read(void)
{
  // if the head isn't ahead of the tail, we don't have any characters
  if (_rx_buffer_head == _rx_buffer_tail) {
    return -1;
    4904:	8f ef       	ldi	r24, 0xFF	; 255
    4906:	9f ef       	ldi	r25, 0xFF	; 255
  } else {
    unsigned char c = _rx_buffer[_rx_buffer_tail];
    _rx_buffer_tail = (rx_buffer_index_t)(_rx_buffer_tail + 1) % SERIAL_RX_BUFFER_SIZE;
    return c;
  }
}
    4908:	08 95       	ret

0000490a <_Z14serialEventRunv>:
#endif

void serialEventRun(void)
{
#if defined(HAVE_HWSERIAL0)
  if (Serial0_available && serialEvent && Serial0_available()) serialEvent();
    490a:	84 ed       	ldi	r24, 0xD4	; 212
    490c:	95 e2       	ldi	r25, 0x25	; 37
    490e:	89 2b       	or	r24, r25
    4910:	41 f0       	breq	.+16     	; 0x4922 <_Z14serialEventRunv+0x18>
    4912:	80 e0       	ldi	r24, 0x00	; 0
    4914:	90 e0       	ldi	r25, 0x00	; 0
    4916:	89 2b       	or	r24, r25
    4918:	21 f0       	breq	.+8      	; 0x4922 <_Z14serialEventRunv+0x18>
    491a:	46 d1       	rcall	.+652    	; 0x4ba8 <_Z17Serial0_availablev>
    491c:	81 11       	cpse	r24, r1
    491e:	0c 94 00 00 	jmp	0	; 0x0 <__vectors>
    4922:	08 95       	ret

00004924 <_ZN14HardwareSerial17_tx_udr_empty_irqEv>:
}

// Actual interrupt handlers //////////////////////////////////////////////////////////////

void HardwareSerial::_tx_udr_empty_irq(void)
{
    4924:	fc 01       	movw	r30, r24
  // If interrupts are enabled, there must be more data in the output
  // buffer. Send the next byte
  unsigned char c = _tx_buffer[_tx_buffer_tail];
    4926:	84 8d       	ldd	r24, Z+28	; 0x1c
    4928:	df 01       	movw	r26, r30
    492a:	a8 0f       	add	r26, r24
    492c:	b1 1d       	adc	r27, r1
    492e:	a3 5a       	subi	r26, 0xA3	; 163
    4930:	bf 4f       	sbci	r27, 0xFF	; 255
    4932:	2c 91       	ld	r18, X
  _tx_buffer_tail = (_tx_buffer_tail + 1) % SERIAL_TX_BUFFER_SIZE;
    4934:	84 8d       	ldd	r24, Z+28	; 0x1c
    4936:	90 e0       	ldi	r25, 0x00	; 0
    4938:	01 96       	adiw	r24, 0x01	; 1
    493a:	8f 73       	andi	r24, 0x3F	; 63
    493c:	99 27       	eor	r25, r25
    493e:	84 8f       	std	Z+28, r24	; 0x1c

  *_udr = c;
    4940:	a6 89       	ldd	r26, Z+22	; 0x16
    4942:	b7 89       	ldd	r27, Z+23	; 0x17
    4944:	2c 93       	st	X, r18

  // clear the TXC bit -- "can be cleared by writing a one to its bit
  // location". This makes sure flush() won't return until the bytes
  // actually got written
  sbi(*_ucsra, TXC0);
    4946:	a0 89       	ldd	r26, Z+16	; 0x10
    4948:	b1 89       	ldd	r27, Z+17	; 0x11
    494a:	8c 91       	ld	r24, X
    494c:	80 64       	ori	r24, 0x40	; 64
    494e:	8c 93       	st	X, r24

  if (_tx_buffer_head == _tx_buffer_tail) {
    4950:	93 8d       	ldd	r25, Z+27	; 0x1b
    4952:	84 8d       	ldd	r24, Z+28	; 0x1c
    4954:	98 13       	cpse	r25, r24
    4956:	06 c0       	rjmp	.+12     	; 0x4964 <_ZN14HardwareSerial17_tx_udr_empty_irqEv+0x40>
    // Buffer empty, so disable interrupts
    cbi(*_ucsrb, UDRIE0);
    4958:	02 88       	ldd	r0, Z+18	; 0x12
    495a:	f3 89       	ldd	r31, Z+19	; 0x13
    495c:	e0 2d       	mov	r30, r0
    495e:	80 81       	ld	r24, Z
    4960:	8f 7d       	andi	r24, 0xDF	; 223
    4962:	80 83       	st	Z, r24
    4964:	08 95       	ret

00004966 <_ZN14HardwareSerial5flushEv>:
  if (head >= tail) return SERIAL_TX_BUFFER_SIZE - 1 - head + tail;
  return tail - head - 1;
}

void HardwareSerial::flush()
{
    4966:	cf 93       	push	r28
    4968:	df 93       	push	r29
    496a:	ec 01       	movw	r28, r24
  // If we have never written a byte, no need to flush. This special
  // case is needed since there is no way to force the TXC (transmit
  // complete) bit to 1 during initialization
  if (!_written)
    496c:	88 8d       	ldd	r24, Y+24	; 0x18
    496e:	88 23       	and	r24, r24
    4970:	c1 f0       	breq	.+48     	; 0x49a2 <_ZN14HardwareSerial5flushEv+0x3c>
    return;

  while (bit_is_set(*_ucsrb, UDRIE0) || bit_is_clear(*_ucsra, TXC0)) {
    4972:	ea 89       	ldd	r30, Y+18	; 0x12
    4974:	fb 89       	ldd	r31, Y+19	; 0x13
    4976:	80 81       	ld	r24, Z
    4978:	85 fd       	sbrc	r24, 5
    497a:	05 c0       	rjmp	.+10     	; 0x4986 <_ZN14HardwareSerial5flushEv+0x20>
    497c:	a8 89       	ldd	r26, Y+16	; 0x10
    497e:	b9 89       	ldd	r27, Y+17	; 0x11
    4980:	8c 91       	ld	r24, X
    4982:	86 fd       	sbrc	r24, 6
    4984:	0e c0       	rjmp	.+28     	; 0x49a2 <_ZN14HardwareSerial5flushEv+0x3c>
    if (bit_is_clear(SREG, SREG_I) && bit_is_set(*_ucsrb, UDRIE0))
    4986:	0f b6       	in	r0, 0x3f	; 63
    4988:	07 fc       	sbrc	r0, 7
    498a:	f5 cf       	rjmp	.-22     	; 0x4976 <_ZN14HardwareSerial5flushEv+0x10>
    498c:	80 81       	ld	r24, Z
    498e:	85 ff       	sbrs	r24, 5
    4990:	f2 cf       	rjmp	.-28     	; 0x4976 <_ZN14HardwareSerial5flushEv+0x10>
	// Interrupts are globally disabled, but the DR empty
	// interrupt should be enabled, so poll the DR empty flag to
	// prevent deadlock
	if (bit_is_set(*_ucsra, UDRE0))
    4992:	a8 89       	ldd	r26, Y+16	; 0x10
    4994:	b9 89       	ldd	r27, Y+17	; 0x11
    4996:	8c 91       	ld	r24, X
    4998:	85 ff       	sbrs	r24, 5
    499a:	ed cf       	rjmp	.-38     	; 0x4976 <_ZN14HardwareSerial5flushEv+0x10>
	  _tx_udr_empty_irq();
    499c:	ce 01       	movw	r24, r28
    499e:	c2 df       	rcall	.-124    	; 0x4924 <_ZN14HardwareSerial17_tx_udr_empty_irqEv>
    49a0:	e8 cf       	rjmp	.-48     	; 0x4972 <_ZN14HardwareSerial5flushEv+0xc>
  }
  // If we get here, nothing is queued anymore (DRIE is disabled) and
  // the hardware finished tranmission (TXC is set).
}
    49a2:	df 91       	pop	r29
    49a4:	cf 91       	pop	r28
    49a6:	08 95       	ret

000049a8 <_ZN14HardwareSerial5writeEh>:

size_t HardwareSerial::write(uint8_t c)
{
    49a8:	ef 92       	push	r14
    49aa:	ff 92       	push	r15
    49ac:	0f 93       	push	r16
    49ae:	1f 93       	push	r17
    49b0:	cf 93       	push	r28
    49b2:	df 93       	push	r29
    49b4:	ec 01       	movw	r28, r24
  _written = true;
    49b6:	81 e0       	ldi	r24, 0x01	; 1
    49b8:	88 8f       	std	Y+24, r24	; 0x18
  // If the buffer and the data register is empty, just write the byte
  // to the data register and be done. This shortcut helps
  // significantly improve the effective datarate at high (>
  // 500kbit/s) bitrates, where interrupt overhead becomes a slowdown.
  if (_tx_buffer_head == _tx_buffer_tail && bit_is_set(*_ucsra, UDRE0)) {
    49ba:	9b 8d       	ldd	r25, Y+27	; 0x1b
    49bc:	8c 8d       	ldd	r24, Y+28	; 0x1c
    49be:	98 13       	cpse	r25, r24
    49c0:	05 c0       	rjmp	.+10     	; 0x49cc <_ZN14HardwareSerial5writeEh+0x24>
    49c2:	e8 89       	ldd	r30, Y+16	; 0x10
    49c4:	f9 89       	ldd	r31, Y+17	; 0x11
    49c6:	80 81       	ld	r24, Z
    49c8:	85 fd       	sbrc	r24, 5
    49ca:	23 c0       	rjmp	.+70     	; 0x4a12 <_ZN14HardwareSerial5writeEh+0x6a>
    49cc:	f6 2e       	mov	r15, r22
    *_udr = c;
    sbi(*_ucsra, TXC0);
    return 1;
  }
  tx_buffer_index_t i = (_tx_buffer_head + 1) % SERIAL_TX_BUFFER_SIZE;
    49ce:	0b 8d       	ldd	r16, Y+27	; 0x1b
    49d0:	10 e0       	ldi	r17, 0x00	; 0
    49d2:	0f 5f       	subi	r16, 0xFF	; 255
    49d4:	1f 4f       	sbci	r17, 0xFF	; 255
    49d6:	0f 73       	andi	r16, 0x3F	; 63
    49d8:	11 27       	eor	r17, r17
    49da:	e0 2e       	mov	r14, r16
	
  // If the output buffer is full, there's nothing for it other than to 
  // wait for the interrupt handler to empty it a bit
  while (i == _tx_buffer_tail) {
    49dc:	8c 8d       	ldd	r24, Y+28	; 0x1c
    49de:	e8 12       	cpse	r14, r24
    49e0:	0b c0       	rjmp	.+22     	; 0x49f8 <_ZN14HardwareSerial5writeEh+0x50>
    if (bit_is_clear(SREG, SREG_I)) {
    49e2:	0f b6       	in	r0, 0x3f	; 63
    49e4:	07 fc       	sbrc	r0, 7
    49e6:	fa cf       	rjmp	.-12     	; 0x49dc <_ZN14HardwareSerial5writeEh+0x34>
      // Interrupts are disabled, so we'll have to poll the data
      // register empty flag ourselves. If it is set, pretend an
      // interrupt has happened and call the handler to free up
      // space for us.
      if(bit_is_set(*_ucsra, UDRE0))
    49e8:	e8 89       	ldd	r30, Y+16	; 0x10
    49ea:	f9 89       	ldd	r31, Y+17	; 0x11
    49ec:	80 81       	ld	r24, Z
    49ee:	85 ff       	sbrs	r24, 5
    49f0:	f5 cf       	rjmp	.-22     	; 0x49dc <_ZN14HardwareSerial5writeEh+0x34>
	_tx_udr_empty_irq();
    49f2:	ce 01       	movw	r24, r28
    49f4:	97 df       	rcall	.-210    	; 0x4924 <_ZN14HardwareSerial17_tx_udr_empty_irqEv>
    49f6:	f2 cf       	rjmp	.-28     	; 0x49dc <_ZN14HardwareSerial5writeEh+0x34>
    } else {
      // nop, the interrupt handler will free up space for us
    }
  }

  _tx_buffer[_tx_buffer_head] = c;
    49f8:	8b 8d       	ldd	r24, Y+27	; 0x1b
    49fa:	fe 01       	movw	r30, r28
    49fc:	e8 0f       	add	r30, r24
    49fe:	f1 1d       	adc	r31, r1
    4a00:	e3 5a       	subi	r30, 0xA3	; 163
    4a02:	ff 4f       	sbci	r31, 0xFF	; 255
    4a04:	f0 82       	st	Z, r15
  _tx_buffer_head = i;
    4a06:	0b 8f       	std	Y+27, r16	; 0x1b
	
  sbi(*_ucsrb, UDRIE0);
    4a08:	ea 89       	ldd	r30, Y+18	; 0x12
    4a0a:	fb 89       	ldd	r31, Y+19	; 0x13
    4a0c:	80 81       	ld	r24, Z
    4a0e:	80 62       	ori	r24, 0x20	; 32
    4a10:	07 c0       	rjmp	.+14     	; 0x4a20 <_ZN14HardwareSerial5writeEh+0x78>
  // If the buffer and the data register is empty, just write the byte
  // to the data register and be done. This shortcut helps
  // significantly improve the effective datarate at high (>
  // 500kbit/s) bitrates, where interrupt overhead becomes a slowdown.
  if (_tx_buffer_head == _tx_buffer_tail && bit_is_set(*_ucsra, UDRE0)) {
    *_udr = c;
    4a12:	ee 89       	ldd	r30, Y+22	; 0x16
    4a14:	ff 89       	ldd	r31, Y+23	; 0x17
    4a16:	60 83       	st	Z, r22
    sbi(*_ucsra, TXC0);
    4a18:	e8 89       	ldd	r30, Y+16	; 0x10
    4a1a:	f9 89       	ldd	r31, Y+17	; 0x11
    4a1c:	80 81       	ld	r24, Z
    4a1e:	80 64       	ori	r24, 0x40	; 64
    4a20:	80 83       	st	Z, r24
  _tx_buffer_head = i;
	
  sbi(*_ucsrb, UDRIE0);
  
  return 1;
}
    4a22:	81 e0       	ldi	r24, 0x01	; 1
    4a24:	90 e0       	ldi	r25, 0x00	; 0
    4a26:	df 91       	pop	r29
    4a28:	cf 91       	pop	r28
    4a2a:	1f 91       	pop	r17
    4a2c:	0f 91       	pop	r16
    4a2e:	ff 90       	pop	r15
    4a30:	ef 90       	pop	r14
    4a32:	08 95       	ret

00004a34 <_ZN14HardwareSerial5beginEmh>:
}

// Public Methods //////////////////////////////////////////////////////////////

void HardwareSerial::begin(unsigned long baud, byte config)
{
    4a34:	cf 92       	push	r12
    4a36:	df 92       	push	r13
    4a38:	ef 92       	push	r14
    4a3a:	ff 92       	push	r15
    4a3c:	1f 93       	push	r17
    4a3e:	cf 93       	push	r28
    4a40:	df 93       	push	r29
    4a42:	ec 01       	movw	r28, r24
    4a44:	6a 01       	movw	r12, r20
    4a46:	7b 01       	movw	r14, r22
    4a48:	12 2f       	mov	r17, r18
  // Try u2x mode first
  uint16_t baud_setting = (F_CPU / 4 / baud - 1) / 2;
  *_ucsra = 1 << U2X0;
    4a4a:	e8 89       	ldd	r30, Y+16	; 0x10
    4a4c:	f9 89       	ldd	r31, Y+17	; 0x11
    4a4e:	82 e0       	ldi	r24, 0x02	; 2
    4a50:	80 83       	st	Z, r24
  // hardcoded exception for 57600 for compatibility with the bootloader
  // shipped with the Duemilanove and previous boards and the firmware
  // on the 8U2 on the Uno and Mega 2560. Also, The baud_setting cannot
  // be > 4095, so switch back to non-u2x mode if the baud rate is too
  // low.
  if (((F_CPU == 16000000UL) && (baud == 57600)) || (baud_setting >4095))
    4a52:	41 15       	cp	r20, r1
    4a54:	51 4e       	sbci	r21, 0xE1	; 225
    4a56:	61 05       	cpc	r22, r1
    4a58:	71 05       	cpc	r23, r1
    4a5a:	a9 f0       	breq	.+42     	; 0x4a86 <_ZN14HardwareSerial5beginEmh+0x52>
// Public Methods //////////////////////////////////////////////////////////////

void HardwareSerial::begin(unsigned long baud, byte config)
{
  // Try u2x mode first
  uint16_t baud_setting = (F_CPU / 4 / baud - 1) / 2;
    4a5c:	60 e0       	ldi	r22, 0x00	; 0
    4a5e:	79 e0       	ldi	r23, 0x09	; 9
    4a60:	8d e3       	ldi	r24, 0x3D	; 61
    4a62:	90 e0       	ldi	r25, 0x00	; 0
    4a64:	a7 01       	movw	r20, r14
    4a66:	96 01       	movw	r18, r12
    4a68:	03 d7       	rcall	.+3590   	; 0x5870 <__udivmodsi4>
    4a6a:	da 01       	movw	r26, r20
    4a6c:	c9 01       	movw	r24, r18
    4a6e:	01 97       	sbiw	r24, 0x01	; 1
    4a70:	a1 09       	sbc	r26, r1
    4a72:	b1 09       	sbc	r27, r1
    4a74:	b6 95       	lsr	r27
    4a76:	a7 95       	ror	r26
    4a78:	97 95       	ror	r25
    4a7a:	87 95       	ror	r24
    4a7c:	ac 01       	movw	r20, r24
  // hardcoded exception for 57600 for compatibility with the bootloader
  // shipped with the Duemilanove and previous boards and the firmware
  // on the 8U2 on the Uno and Mega 2560. Also, The baud_setting cannot
  // be > 4095, so switch back to non-u2x mode if the baud rate is too
  // low.
  if (((F_CPU == 16000000UL) && (baud == 57600)) || (baud_setting >4095))
    4a7e:	41 15       	cp	r20, r1
    4a80:	80 e1       	ldi	r24, 0x10	; 16
    4a82:	58 07       	cpc	r21, r24
    4a84:	a0 f0       	brcs	.+40     	; 0x4aae <_ZN14HardwareSerial5beginEmh+0x7a>
  {
    *_ucsra = 0;
    4a86:	e8 89       	ldd	r30, Y+16	; 0x10
    4a88:	f9 89       	ldd	r31, Y+17	; 0x11
    4a8a:	10 82       	st	Z, r1
    baud_setting = (F_CPU / 8 / baud - 1) / 2;
    4a8c:	60 e8       	ldi	r22, 0x80	; 128
    4a8e:	74 e8       	ldi	r23, 0x84	; 132
    4a90:	8e e1       	ldi	r24, 0x1E	; 30
    4a92:	90 e0       	ldi	r25, 0x00	; 0
    4a94:	a7 01       	movw	r20, r14
    4a96:	96 01       	movw	r18, r12
    4a98:	eb d6       	rcall	.+3542   	; 0x5870 <__udivmodsi4>
    4a9a:	ba 01       	movw	r22, r20
    4a9c:	a9 01       	movw	r20, r18
    4a9e:	41 50       	subi	r20, 0x01	; 1
    4aa0:	51 09       	sbc	r21, r1
    4aa2:	61 09       	sbc	r22, r1
    4aa4:	71 09       	sbc	r23, r1
    4aa6:	76 95       	lsr	r23
    4aa8:	67 95       	ror	r22
    4aaa:	57 95       	ror	r21
    4aac:	47 95       	ror	r20
  }

  // assign the baud_setting, a.k.a. ubrr (USART Baud Rate Register)
  *_ubrrh = baud_setting >> 8;
    4aae:	ec 85       	ldd	r30, Y+12	; 0x0c
    4ab0:	fd 85       	ldd	r31, Y+13	; 0x0d
    4ab2:	50 83       	st	Z, r21
  *_ubrrl = baud_setting;
    4ab4:	ee 85       	ldd	r30, Y+14	; 0x0e
    4ab6:	ff 85       	ldd	r31, Y+15	; 0x0f
    4ab8:	40 83       	st	Z, r20

  _written = false;
    4aba:	18 8e       	std	Y+24, r1	; 0x18

  //set the data bits, parity, and stop bits
#if defined(__AVR_ATmega8__)
  config |= 0x80; // select UCSRC register (shared with UBRRH)
#endif
  *_ucsrc = config;
    4abc:	ec 89       	ldd	r30, Y+20	; 0x14
    4abe:	fd 89       	ldd	r31, Y+21	; 0x15
    4ac0:	10 83       	st	Z, r17
  
  sbi(*_ucsrb, RXEN0);
    4ac2:	ea 89       	ldd	r30, Y+18	; 0x12
    4ac4:	fb 89       	ldd	r31, Y+19	; 0x13
    4ac6:	80 81       	ld	r24, Z
    4ac8:	80 61       	ori	r24, 0x10	; 16
    4aca:	80 83       	st	Z, r24
  sbi(*_ucsrb, TXEN0);
    4acc:	ea 89       	ldd	r30, Y+18	; 0x12
    4ace:	fb 89       	ldd	r31, Y+19	; 0x13
    4ad0:	80 81       	ld	r24, Z
    4ad2:	88 60       	ori	r24, 0x08	; 8
    4ad4:	80 83       	st	Z, r24
  sbi(*_ucsrb, RXCIE0);
    4ad6:	ea 89       	ldd	r30, Y+18	; 0x12
    4ad8:	fb 89       	ldd	r31, Y+19	; 0x13
    4ada:	80 81       	ld	r24, Z
    4adc:	80 68       	ori	r24, 0x80	; 128
    4ade:	80 83       	st	Z, r24
  cbi(*_ucsrb, UDRIE0);
    4ae0:	ea 89       	ldd	r30, Y+18	; 0x12
    4ae2:	fb 89       	ldd	r31, Y+19	; 0x13
    4ae4:	80 81       	ld	r24, Z
    4ae6:	8f 7d       	andi	r24, 0xDF	; 223
    4ae8:	80 83       	st	Z, r24
}
    4aea:	df 91       	pop	r29
    4aec:	cf 91       	pop	r28
    4aee:	1f 91       	pop	r17
    4af0:	ff 90       	pop	r15
    4af2:	ef 90       	pop	r14
    4af4:	df 90       	pop	r13
    4af6:	cf 90       	pop	r12
    4af8:	08 95       	ret

00004afa <__vector_18>:
#elif defined(USART_RXC_vect)
  ISR(USART_RXC_vect) // ATmega8
#else
  #error "Don't know what the Data Received vector is called for Serial"
#endif
  {
    4afa:	1f 92       	push	r1
    4afc:	0f 92       	push	r0
    4afe:	0f b6       	in	r0, 0x3f	; 63
    4b00:	0f 92       	push	r0
    4b02:	11 24       	eor	r1, r1
    4b04:	2f 93       	push	r18
    4b06:	8f 93       	push	r24
    4b08:	9f 93       	push	r25
    4b0a:	ef 93       	push	r30
    4b0c:	ff 93       	push	r31

// Actual interrupt handlers //////////////////////////////////////////////////////////////

void HardwareSerial::_rx_complete_irq(void)
{
  if (bit_is_clear(*_ucsra, UPE0)) {
    4b0e:	e0 91 25 05 	lds	r30, 0x0525	; 0x800525 <Serial+0x10>
    4b12:	f0 91 26 05 	lds	r31, 0x0526	; 0x800526 <Serial+0x11>
    4b16:	80 81       	ld	r24, Z
    4b18:	e0 91 2b 05 	lds	r30, 0x052B	; 0x80052b <Serial+0x16>
    4b1c:	f0 91 2c 05 	lds	r31, 0x052C	; 0x80052c <Serial+0x17>
    4b20:	82 fd       	sbrc	r24, 2
    4b22:	12 c0       	rjmp	.+36     	; 0x4b48 <__vector_18+0x4e>
    // No Parity error, read byte and store it in the buffer if there is
    // room
    unsigned char c = *_udr;
    4b24:	90 81       	ld	r25, Z
    rx_buffer_index_t i = (unsigned int)(_rx_buffer_head + 1) % SERIAL_RX_BUFFER_SIZE;
    4b26:	80 91 2e 05 	lds	r24, 0x052E	; 0x80052e <Serial+0x19>
    4b2a:	8f 5f       	subi	r24, 0xFF	; 255
    4b2c:	8f 73       	andi	r24, 0x3F	; 63

    // if we should be storing the received character into the location
    // just before the tail (meaning that the head would advance to the
    // current location of the tail), we're about to overflow the buffer
    // and so we don't write the character or advance the head.
    if (i != _rx_buffer_tail) {
    4b2e:	20 91 2f 05 	lds	r18, 0x052F	; 0x80052f <Serial+0x1a>
    4b32:	82 17       	cp	r24, r18
    4b34:	51 f0       	breq	.+20     	; 0x4b4a <__vector_18+0x50>
      _rx_buffer[_rx_buffer_head] = c;
    4b36:	e0 91 2e 05 	lds	r30, 0x052E	; 0x80052e <Serial+0x19>
    4b3a:	f0 e0       	ldi	r31, 0x00	; 0
    4b3c:	eb 5e       	subi	r30, 0xEB	; 235
    4b3e:	fa 4f       	sbci	r31, 0xFA	; 250
    4b40:	95 8f       	std	Z+29, r25	; 0x1d
      _rx_buffer_head = i;
    4b42:	80 93 2e 05 	sts	0x052E, r24	; 0x80052e <Serial+0x19>
    4b46:	01 c0       	rjmp	.+2      	; 0x4b4a <__vector_18+0x50>
    }
  } else {
    // Parity error, read byte but discard it
    *_udr;
    4b48:	80 81       	ld	r24, Z
    Serial._rx_complete_irq();
  }
    4b4a:	ff 91       	pop	r31
    4b4c:	ef 91       	pop	r30
    4b4e:	9f 91       	pop	r25
    4b50:	8f 91       	pop	r24
    4b52:	2f 91       	pop	r18
    4b54:	0f 90       	pop	r0
    4b56:	0f be       	out	0x3f, r0	; 63
    4b58:	0f 90       	pop	r0
    4b5a:	1f 90       	pop	r1
    4b5c:	18 95       	reti

00004b5e <__vector_19>:
#elif defined(USART_UDRE_vect)
ISR(USART_UDRE_vect)
#else
  #error "Don't know what the Data Register Empty vector is called for Serial"
#endif
{
    4b5e:	1f 92       	push	r1
    4b60:	0f 92       	push	r0
    4b62:	0f b6       	in	r0, 0x3f	; 63
    4b64:	0f 92       	push	r0
    4b66:	11 24       	eor	r1, r1
    4b68:	2f 93       	push	r18
    4b6a:	3f 93       	push	r19
    4b6c:	4f 93       	push	r20
    4b6e:	5f 93       	push	r21
    4b70:	6f 93       	push	r22
    4b72:	7f 93       	push	r23
    4b74:	8f 93       	push	r24
    4b76:	9f 93       	push	r25
    4b78:	af 93       	push	r26
    4b7a:	bf 93       	push	r27
    4b7c:	ef 93       	push	r30
    4b7e:	ff 93       	push	r31
  Serial._tx_udr_empty_irq();
    4b80:	85 e1       	ldi	r24, 0x15	; 21
    4b82:	95 e0       	ldi	r25, 0x05	; 5
    4b84:	cf de       	rcall	.-610    	; 0x4924 <_ZN14HardwareSerial17_tx_udr_empty_irqEv>
}
    4b86:	ff 91       	pop	r31
    4b88:	ef 91       	pop	r30
    4b8a:	bf 91       	pop	r27
    4b8c:	af 91       	pop	r26
    4b8e:	9f 91       	pop	r25
    4b90:	8f 91       	pop	r24
    4b92:	7f 91       	pop	r23
    4b94:	6f 91       	pop	r22
    4b96:	5f 91       	pop	r21
    4b98:	4f 91       	pop	r20
    4b9a:	3f 91       	pop	r19
    4b9c:	2f 91       	pop	r18
    4b9e:	0f 90       	pop	r0
    4ba0:	0f be       	out	0x3f, r0	; 63
    4ba2:	0f 90       	pop	r0
    4ba4:	1f 90       	pop	r1
    4ba6:	18 95       	reti

00004ba8 <_Z17Serial0_availablev>:
#endif

// Function that can be weakly referenced by serialEventRun to prevent
// pulling in this file if it's not otherwise used.
bool Serial0_available() {
  return Serial.available();
    4ba8:	85 e1       	ldi	r24, 0x15	; 21
    4baa:	95 e0       	ldi	r25, 0x05	; 5
    4bac:	80 de       	rcall	.-768    	; 0x48ae <_ZN14HardwareSerial9availableEv>
    4bae:	21 e0       	ldi	r18, 0x01	; 1
    4bb0:	89 2b       	or	r24, r25
    4bb2:	09 f4       	brne	.+2      	; 0x4bb6 <_Z17Serial0_availablev+0xe>
    4bb4:	20 e0       	ldi	r18, 0x00	; 0
}
    4bb6:	82 2f       	mov	r24, r18
    4bb8:	08 95       	ret

00004bba <_GLOBAL__sub_I___vector_18>:
    size_t printNumber(unsigned long, uint8_t);
    size_t printFloat(double, uint8_t);
  protected:
    void setWriteError(int err = 1) { write_error = err; }
  public:
    Print() : write_error(0) {}
    4bba:	e5 e1       	ldi	r30, 0x15	; 21
    4bbc:	f5 e0       	ldi	r31, 0x05	; 5
    4bbe:	13 82       	std	Z+3, r1	; 0x03
    4bc0:	12 82       	std	Z+2, r1	; 0x02
    virtual int available() = 0;
    virtual int read() = 0;
    virtual int peek() = 0;
    virtual void flush() = 0;

    Stream() {_timeout=1000;}
    4bc2:	88 ee       	ldi	r24, 0xE8	; 232
    4bc4:	93 e0       	ldi	r25, 0x03	; 3
    4bc6:	a0 e0       	ldi	r26, 0x00	; 0
    4bc8:	b0 e0       	ldi	r27, 0x00	; 0
    4bca:	84 83       	std	Z+4, r24	; 0x04
    4bcc:	95 83       	std	Z+5, r25	; 0x05
    4bce:	a6 83       	std	Z+6, r26	; 0x06
    4bd0:	b7 83       	std	Z+7, r27	; 0x07
  volatile uint8_t *ucsrc, volatile uint8_t *udr) :
    _ubrrh(ubrrh), _ubrrl(ubrrl),
    _ucsra(ucsra), _ucsrb(ucsrb), _ucsrc(ucsrc),
    _udr(udr),
    _rx_buffer_head(0), _rx_buffer_tail(0),
    _tx_buffer_head(0), _tx_buffer_tail(0)
    4bd2:	83 eb       	ldi	r24, 0xB3	; 179
    4bd4:	91 e0       	ldi	r25, 0x01	; 1
    4bd6:	91 83       	std	Z+1, r25	; 0x01
    4bd8:	80 83       	st	Z, r24
    4bda:	85 ec       	ldi	r24, 0xC5	; 197
    4bdc:	90 e0       	ldi	r25, 0x00	; 0
    4bde:	95 87       	std	Z+13, r25	; 0x0d
    4be0:	84 87       	std	Z+12, r24	; 0x0c
    4be2:	84 ec       	ldi	r24, 0xC4	; 196
    4be4:	90 e0       	ldi	r25, 0x00	; 0
    4be6:	97 87       	std	Z+15, r25	; 0x0f
    4be8:	86 87       	std	Z+14, r24	; 0x0e
    4bea:	80 ec       	ldi	r24, 0xC0	; 192
    4bec:	90 e0       	ldi	r25, 0x00	; 0
    4bee:	91 8b       	std	Z+17, r25	; 0x11
    4bf0:	80 8b       	std	Z+16, r24	; 0x10
    4bf2:	81 ec       	ldi	r24, 0xC1	; 193
    4bf4:	90 e0       	ldi	r25, 0x00	; 0
    4bf6:	93 8b       	std	Z+19, r25	; 0x13
    4bf8:	82 8b       	std	Z+18, r24	; 0x12
    4bfa:	82 ec       	ldi	r24, 0xC2	; 194
    4bfc:	90 e0       	ldi	r25, 0x00	; 0
    4bfe:	95 8b       	std	Z+21, r25	; 0x15
    4c00:	84 8b       	std	Z+20, r24	; 0x14
    4c02:	86 ec       	ldi	r24, 0xC6	; 198
    4c04:	90 e0       	ldi	r25, 0x00	; 0
    4c06:	97 8b       	std	Z+23, r25	; 0x17
    4c08:	86 8b       	std	Z+22, r24	; 0x16
    4c0a:	11 8e       	std	Z+25, r1	; 0x19
    4c0c:	12 8e       	std	Z+26, r1	; 0x1a
    4c0e:	13 8e       	std	Z+27, r1	; 0x1b
    4c10:	14 8e       	std	Z+28, r1	; 0x1c
    4c12:	08 95       	ret

00004c14 <initVariant>:
// May be redefined by variant files.
void initVariant() __attribute__((weak));
void initVariant() { }

void setupUSB() __attribute__((weak));
void setupUSB() { }
    4c14:	08 95       	ret

00004c16 <main>:

int main(void)
{
	init();
    4c16:	33 d2       	rcall	.+1126   	; 0x507e <init>

	initVariant();
    4c18:	fd df       	rcall	.-6      	; 0x4c14 <initVariant>

#if defined(USBCON)
	USBDevice.attach();
#endif
	
	setup();
    4c1a:	1e db       	rcall	.-2500   	; 0x4258 <setup>
    
	for (;;) {
		loop();
		if (serialEventRun) serialEventRun();
    4c1c:	c5 e8       	ldi	r28, 0x85	; 133
    4c1e:	d4 e2       	ldi	r29, 0x24	; 36
#endif
	
	setup();
    
	for (;;) {
		loop();
    4c20:	5b db       	rcall	.-2378   	; 0x42d8 <loop>
		if (serialEventRun) serialEventRun();
    4c22:	20 97       	sbiw	r28, 0x00	; 0
    4c24:	e9 f3       	breq	.-6      	; 0x4c20 <main+0xa>
    4c26:	71 de       	rcall	.-798    	; 0x490a <_Z14serialEventRunv>
    4c28:	fb cf       	rjmp	.-10     	; 0x4c20 <main+0xa>

00004c2a <_ZN5Print5writeEPKhj>:
  return write(c);
}

size_t Print::print(unsigned char b, int base)
{
  return print((unsigned long) b, base);
    4c2a:	cf 92       	push	r12
    4c2c:	df 92       	push	r13
    4c2e:	ef 92       	push	r14
    4c30:	ff 92       	push	r15
    4c32:	0f 93       	push	r16
    4c34:	1f 93       	push	r17
    4c36:	cf 93       	push	r28
    4c38:	df 93       	push	r29
    4c3a:	6c 01       	movw	r12, r24
    4c3c:	7a 01       	movw	r14, r20
    4c3e:	8b 01       	movw	r16, r22
    4c40:	c0 e0       	ldi	r28, 0x00	; 0
    4c42:	d0 e0       	ldi	r29, 0x00	; 0
    4c44:	ce 15       	cp	r28, r14
    4c46:	df 05       	cpc	r29, r15
    4c48:	89 f0       	breq	.+34     	; 0x4c6c <_ZN5Print5writeEPKhj+0x42>
    4c4a:	d8 01       	movw	r26, r16
    4c4c:	6d 91       	ld	r22, X+
    4c4e:	8d 01       	movw	r16, r26
    4c50:	d6 01       	movw	r26, r12
    4c52:	ed 91       	ld	r30, X+
    4c54:	fc 91       	ld	r31, X
    4c56:	01 90       	ld	r0, Z+
    4c58:	f0 81       	ld	r31, Z
    4c5a:	e0 2d       	mov	r30, r0
    4c5c:	c6 01       	movw	r24, r12
    4c5e:	09 95       	icall
    4c60:	89 2b       	or	r24, r25
    4c62:	11 f4       	brne	.+4      	; 0x4c68 <_ZN5Print5writeEPKhj+0x3e>
    4c64:	7e 01       	movw	r14, r28
    4c66:	02 c0       	rjmp	.+4      	; 0x4c6c <_ZN5Print5writeEPKhj+0x42>
    4c68:	21 96       	adiw	r28, 0x01	; 1
    4c6a:	ec cf       	rjmp	.-40     	; 0x4c44 <_ZN5Print5writeEPKhj+0x1a>
    4c6c:	c7 01       	movw	r24, r14
    4c6e:	df 91       	pop	r29
    4c70:	cf 91       	pop	r28
    4c72:	1f 91       	pop	r17
    4c74:	0f 91       	pop	r16
    4c76:	ff 90       	pop	r15
    4c78:	ef 90       	pop	r14
    4c7a:	df 90       	pop	r13
    4c7c:	cf 90       	pop	r12
    4c7e:	08 95       	ret

00004c80 <_ZN5Print5writeEPKc>:
    4c80:	61 15       	cp	r22, r1
    4c82:	71 05       	cpc	r23, r1
    4c84:	79 f0       	breq	.+30     	; 0x4ca4 <_ZN5Print5writeEPKc+0x24>
    4c86:	fb 01       	movw	r30, r22
    4c88:	01 90       	ld	r0, Z+
    4c8a:	00 20       	and	r0, r0
    4c8c:	e9 f7       	brne	.-6      	; 0x4c88 <_ZN5Print5writeEPKc+0x8>
    4c8e:	31 97       	sbiw	r30, 0x01	; 1
    4c90:	af 01       	movw	r20, r30
    4c92:	46 1b       	sub	r20, r22
    4c94:	57 0b       	sbc	r21, r23
    4c96:	dc 01       	movw	r26, r24
    4c98:	ed 91       	ld	r30, X+
    4c9a:	fc 91       	ld	r31, X
    4c9c:	02 80       	ldd	r0, Z+2	; 0x02
    4c9e:	f3 81       	ldd	r31, Z+3	; 0x03
    4ca0:	e0 2d       	mov	r30, r0
    4ca2:	09 94       	ijmp
    4ca4:	80 e0       	ldi	r24, 0x00	; 0
    4ca6:	90 e0       	ldi	r25, 0x00	; 0
    4ca8:	08 95       	ret

00004caa <_ZN5Print5printEPK19__FlashStringHelper>:
    4caa:	ef 92       	push	r14
    4cac:	ff 92       	push	r15
    4cae:	0f 93       	push	r16
    4cb0:	1f 93       	push	r17
    4cb2:	cf 93       	push	r28
    4cb4:	df 93       	push	r29
    4cb6:	8c 01       	movw	r16, r24
    4cb8:	7b 01       	movw	r14, r22
    4cba:	c0 e0       	ldi	r28, 0x00	; 0
    4cbc:	d0 e0       	ldi	r29, 0x00	; 0
    4cbe:	f7 01       	movw	r30, r14
    4cc0:	ec 0f       	add	r30, r28
    4cc2:	fd 1f       	adc	r31, r29
    4cc4:	64 91       	lpm	r22, Z
    4cc6:	66 23       	and	r22, r22
    4cc8:	61 f0       	breq	.+24     	; 0x4ce2 <_ZN5Print5printEPK19__FlashStringHelper+0x38>
    4cca:	d8 01       	movw	r26, r16
    4ccc:	ed 91       	ld	r30, X+
    4cce:	fc 91       	ld	r31, X
    4cd0:	01 90       	ld	r0, Z+
    4cd2:	f0 81       	ld	r31, Z
    4cd4:	e0 2d       	mov	r30, r0
    4cd6:	c8 01       	movw	r24, r16
    4cd8:	09 95       	icall
    4cda:	89 2b       	or	r24, r25
    4cdc:	11 f0       	breq	.+4      	; 0x4ce2 <_ZN5Print5printEPK19__FlashStringHelper+0x38>
    4cde:	21 96       	adiw	r28, 0x01	; 1
    4ce0:	ee cf       	rjmp	.-36     	; 0x4cbe <_ZN5Print5printEPK19__FlashStringHelper+0x14>
    4ce2:	ce 01       	movw	r24, r28
    4ce4:	df 91       	pop	r29
    4ce6:	cf 91       	pop	r28
    4ce8:	1f 91       	pop	r17
    4cea:	0f 91       	pop	r16
    4cec:	ff 90       	pop	r15
    4cee:	ef 90       	pop	r14
    4cf0:	08 95       	ret

00004cf2 <_ZN5Print5printERK6String>:
    4cf2:	dc 01       	movw	r26, r24
    4cf4:	ed 91       	ld	r30, X+
    4cf6:	fc 91       	ld	r31, X
    4cf8:	db 01       	movw	r26, r22
    4cfa:	14 96       	adiw	r26, 0x04	; 4
    4cfc:	4d 91       	ld	r20, X+
    4cfe:	5c 91       	ld	r21, X
    4d00:	15 97       	sbiw	r26, 0x05	; 5
    4d02:	6d 91       	ld	r22, X+
    4d04:	7c 91       	ld	r23, X
    4d06:	02 80       	ldd	r0, Z+2	; 0x02
    4d08:	f3 81       	ldd	r31, Z+3	; 0x03
    4d0a:	e0 2d       	mov	r30, r0
    4d0c:	09 94       	ijmp

00004d0e <_ZN5Print5printEc>:
    4d0e:	dc 01       	movw	r26, r24
    4d10:	ed 91       	ld	r30, X+
    4d12:	fc 91       	ld	r31, X
    4d14:	01 90       	ld	r0, Z+
    4d16:	f0 81       	ld	r31, Z
    4d18:	e0 2d       	mov	r30, r0
    4d1a:	09 94       	ijmp

00004d1c <_ZN5Print7printlnEv>:
    4d1c:	6f eb       	ldi	r22, 0xBF	; 191
    4d1e:	71 e0       	ldi	r23, 0x01	; 1
    4d20:	af cf       	rjmp	.-162    	; 0x4c80 <_ZN5Print5writeEPKc>

00004d22 <_ZN5Print7printlnEPK19__FlashStringHelper>:
    4d22:	0f 93       	push	r16
    4d24:	1f 93       	push	r17
    4d26:	cf 93       	push	r28
    4d28:	df 93       	push	r29
    4d2a:	ec 01       	movw	r28, r24
    4d2c:	be df       	rcall	.-132    	; 0x4caa <_ZN5Print5printEPK19__FlashStringHelper>
    4d2e:	8c 01       	movw	r16, r24
    4d30:	ce 01       	movw	r24, r28
    4d32:	f4 df       	rcall	.-24     	; 0x4d1c <_ZN5Print7printlnEv>
    4d34:	80 0f       	add	r24, r16
    4d36:	91 1f       	adc	r25, r17
    4d38:	df 91       	pop	r29
    4d3a:	cf 91       	pop	r28
    4d3c:	1f 91       	pop	r17
    4d3e:	0f 91       	pop	r16
    4d40:	08 95       	ret

00004d42 <_ZN5Print7printlnERK6String>:
    4d42:	0f 93       	push	r16
    4d44:	1f 93       	push	r17
    4d46:	cf 93       	push	r28
    4d48:	df 93       	push	r29
    4d4a:	ec 01       	movw	r28, r24
    4d4c:	d2 df       	rcall	.-92     	; 0x4cf2 <_ZN5Print5printERK6String>
    4d4e:	8c 01       	movw	r16, r24
    4d50:	ce 01       	movw	r24, r28
    4d52:	e4 df       	rcall	.-56     	; 0x4d1c <_ZN5Print7printlnEv>
    4d54:	80 0f       	add	r24, r16
    4d56:	91 1f       	adc	r25, r17
    4d58:	df 91       	pop	r29
    4d5a:	cf 91       	pop	r28
    4d5c:	1f 91       	pop	r17
    4d5e:	0f 91       	pop	r16
    4d60:	08 95       	ret

00004d62 <_ZN5Print11printNumberEmh>:
    4d62:	8f 92       	push	r8
    4d64:	9f 92       	push	r9
    4d66:	af 92       	push	r10
    4d68:	bf 92       	push	r11
    4d6a:	cf 92       	push	r12
    4d6c:	df 92       	push	r13
    4d6e:	ef 92       	push	r14
    4d70:	ff 92       	push	r15
    4d72:	0f 93       	push	r16
    4d74:	1f 93       	push	r17
    4d76:	cf 93       	push	r28
    4d78:	df 93       	push	r29
    4d7a:	cd b7       	in	r28, 0x3d	; 61
    4d7c:	de b7       	in	r29, 0x3e	; 62
    4d7e:	a1 97       	sbiw	r28, 0x21	; 33
    4d80:	0f b6       	in	r0, 0x3f	; 63
    4d82:	f8 94       	cli
    4d84:	de bf       	out	0x3e, r29	; 62
    4d86:	0f be       	out	0x3f, r0	; 63
    4d88:	cd bf       	out	0x3d, r28	; 61
    4d8a:	7c 01       	movw	r14, r24
    4d8c:	d4 2e       	mov	r13, r20
    4d8e:	c5 2e       	mov	r12, r21
    4d90:	db 01       	movw	r26, r22
    4d92:	19 a2       	std	Y+33, r1	; 0x21
    4d94:	22 30       	cpi	r18, 0x02	; 2
    4d96:	08 f4       	brcc	.+2      	; 0x4d9a <_ZN5Print11printNumberEmh+0x38>
    4d98:	2a e0       	ldi	r18, 0x0A	; 10
    4d9a:	8e 01       	movw	r16, r28
    4d9c:	0f 5d       	subi	r16, 0xDF	; 223
    4d9e:	1f 4f       	sbci	r17, 0xFF	; 255
    4da0:	82 2e       	mov	r8, r18
    4da2:	91 2c       	mov	r9, r1
    4da4:	a1 2c       	mov	r10, r1
    4da6:	b1 2c       	mov	r11, r1
    4da8:	6d 2d       	mov	r22, r13
    4daa:	7c 2d       	mov	r23, r12
    4dac:	cd 01       	movw	r24, r26
    4dae:	a5 01       	movw	r20, r10
    4db0:	94 01       	movw	r18, r8
    4db2:	5e d5       	rcall	.+2748   	; 0x5870 <__udivmodsi4>
    4db4:	d2 2e       	mov	r13, r18
    4db6:	c3 2e       	mov	r12, r19
    4db8:	da 01       	movw	r26, r20
    4dba:	01 50       	subi	r16, 0x01	; 1
    4dbc:	11 09       	sbc	r17, r1
    4dbe:	6a 30       	cpi	r22, 0x0A	; 10
    4dc0:	71 05       	cpc	r23, r1
    4dc2:	81 05       	cpc	r24, r1
    4dc4:	91 05       	cpc	r25, r1
    4dc6:	10 f4       	brcc	.+4      	; 0x4dcc <_ZN5Print11printNumberEmh+0x6a>
    4dc8:	60 5d       	subi	r22, 0xD0	; 208
    4dca:	01 c0       	rjmp	.+2      	; 0x4dce <_ZN5Print11printNumberEmh+0x6c>
    4dcc:	69 5c       	subi	r22, 0xC9	; 201
    4dce:	f8 01       	movw	r30, r16
    4dd0:	60 83       	st	Z, r22
    4dd2:	23 2b       	or	r18, r19
    4dd4:	24 2b       	or	r18, r20
    4dd6:	25 2b       	or	r18, r21
    4dd8:	39 f7       	brne	.-50     	; 0x4da8 <_ZN5Print11printNumberEmh+0x46>
    4dda:	b8 01       	movw	r22, r16
    4ddc:	c7 01       	movw	r24, r14
    4dde:	50 df       	rcall	.-352    	; 0x4c80 <_ZN5Print5writeEPKc>
    4de0:	a1 96       	adiw	r28, 0x21	; 33
    4de2:	0f b6       	in	r0, 0x3f	; 63
    4de4:	f8 94       	cli
    4de6:	de bf       	out	0x3e, r29	; 62
    4de8:	0f be       	out	0x3f, r0	; 63
    4dea:	cd bf       	out	0x3d, r28	; 61
    4dec:	df 91       	pop	r29
    4dee:	cf 91       	pop	r28
    4df0:	1f 91       	pop	r17
    4df2:	0f 91       	pop	r16
    4df4:	ff 90       	pop	r15
    4df6:	ef 90       	pop	r14
    4df8:	df 90       	pop	r13
    4dfa:	cf 90       	pop	r12
    4dfc:	bf 90       	pop	r11
    4dfe:	af 90       	pop	r10
    4e00:	9f 90       	pop	r9
    4e02:	8f 90       	pop	r8
    4e04:	08 95       	ret

00004e06 <_ZN5Print5printEli>:
    4e06:	cf 92       	push	r12
    4e08:	df 92       	push	r13
    4e0a:	ef 92       	push	r14
    4e0c:	ff 92       	push	r15
    4e0e:	0f 93       	push	r16
    4e10:	1f 93       	push	r17
    4e12:	cf 93       	push	r28
    4e14:	df 93       	push	r29
    4e16:	ec 01       	movw	r28, r24
    4e18:	6a 01       	movw	r12, r20
    4e1a:	7b 01       	movw	r14, r22
    4e1c:	21 15       	cp	r18, r1
    4e1e:	31 05       	cpc	r19, r1
    4e20:	79 f4       	brne	.+30     	; 0x4e40 <_ZN5Print5printEli+0x3a>
    4e22:	e8 81       	ld	r30, Y
    4e24:	f9 81       	ldd	r31, Y+1	; 0x01
    4e26:	01 90       	ld	r0, Z+
    4e28:	f0 81       	ld	r31, Z
    4e2a:	e0 2d       	mov	r30, r0
    4e2c:	64 2f       	mov	r22, r20
    4e2e:	df 91       	pop	r29
    4e30:	cf 91       	pop	r28
    4e32:	1f 91       	pop	r17
    4e34:	0f 91       	pop	r16
    4e36:	ff 90       	pop	r15
    4e38:	ef 90       	pop	r14
    4e3a:	df 90       	pop	r13
    4e3c:	cf 90       	pop	r12
    4e3e:	09 94       	ijmp
    4e40:	2a 30       	cpi	r18, 0x0A	; 10
    4e42:	31 05       	cpc	r19, r1
    4e44:	d9 f4       	brne	.+54     	; 0x4e7c <_ZN5Print5printEli+0x76>
    4e46:	77 ff       	sbrs	r23, 7
    4e48:	18 c0       	rjmp	.+48     	; 0x4e7a <_ZN5Print5printEli+0x74>
    4e4a:	6d e2       	ldi	r22, 0x2D	; 45
    4e4c:	60 df       	rcall	.-320    	; 0x4d0e <_ZN5Print5printEc>
    4e4e:	8c 01       	movw	r16, r24
    4e50:	44 27       	eor	r20, r20
    4e52:	55 27       	eor	r21, r21
    4e54:	ba 01       	movw	r22, r20
    4e56:	4c 19       	sub	r20, r12
    4e58:	5d 09       	sbc	r21, r13
    4e5a:	6e 09       	sbc	r22, r14
    4e5c:	7f 09       	sbc	r23, r15
    4e5e:	2a e0       	ldi	r18, 0x0A	; 10
    4e60:	ce 01       	movw	r24, r28
    4e62:	7f df       	rcall	.-258    	; 0x4d62 <_ZN5Print11printNumberEmh>
    4e64:	80 0f       	add	r24, r16
    4e66:	91 1f       	adc	r25, r17
    4e68:	df 91       	pop	r29
    4e6a:	cf 91       	pop	r28
    4e6c:	1f 91       	pop	r17
    4e6e:	0f 91       	pop	r16
    4e70:	ff 90       	pop	r15
    4e72:	ef 90       	pop	r14
    4e74:	df 90       	pop	r13
    4e76:	cf 90       	pop	r12
    4e78:	08 95       	ret
    4e7a:	2a e0       	ldi	r18, 0x0A	; 10
    4e7c:	b7 01       	movw	r22, r14
    4e7e:	a6 01       	movw	r20, r12
    4e80:	ce 01       	movw	r24, r28
    4e82:	df 91       	pop	r29
    4e84:	cf 91       	pop	r28
    4e86:	1f 91       	pop	r17
    4e88:	0f 91       	pop	r16
    4e8a:	ff 90       	pop	r15
    4e8c:	ef 90       	pop	r14
    4e8e:	df 90       	pop	r13
    4e90:	cf 90       	pop	r12
    4e92:	67 cf       	rjmp	.-306    	; 0x4d62 <_ZN5Print11printNumberEmh>

00004e94 <_ZN5Print7printlnEii>:
    4e94:	0f 93       	push	r16
    4e96:	1f 93       	push	r17
    4e98:	cf 93       	push	r28
    4e9a:	df 93       	push	r29
    4e9c:	ec 01       	movw	r28, r24
    4e9e:	9a 01       	movw	r18, r20
    4ea0:	ab 01       	movw	r20, r22
    4ea2:	77 0f       	add	r23, r23
    4ea4:	66 0b       	sbc	r22, r22
    4ea6:	77 0b       	sbc	r23, r23
    4ea8:	ae df       	rcall	.-164    	; 0x4e06 <_ZN5Print5printEli>
    4eaa:	8c 01       	movw	r16, r24
    4eac:	ce 01       	movw	r24, r28
    4eae:	36 df       	rcall	.-404    	; 0x4d1c <_ZN5Print7printlnEv>
    4eb0:	80 0f       	add	r24, r16
    4eb2:	91 1f       	adc	r25, r17
    4eb4:	df 91       	pop	r29
    4eb6:	cf 91       	pop	r28
    4eb8:	1f 91       	pop	r17
    4eba:	0f 91       	pop	r16
    4ebc:	08 95       	ret

00004ebe <_ZN5Print5printEmi>:
    4ebe:	21 15       	cp	r18, r1
    4ec0:	31 05       	cpc	r19, r1
    4ec2:	41 f4       	brne	.+16     	; 0x4ed4 <_ZN5Print5printEmi+0x16>
    4ec4:	dc 01       	movw	r26, r24
    4ec6:	ed 91       	ld	r30, X+
    4ec8:	fc 91       	ld	r31, X
    4eca:	01 90       	ld	r0, Z+
    4ecc:	f0 81       	ld	r31, Z
    4ece:	e0 2d       	mov	r30, r0
    4ed0:	64 2f       	mov	r22, r20
    4ed2:	09 94       	ijmp
    4ed4:	46 cf       	rjmp	.-372    	; 0x4d62 <_ZN5Print11printNumberEmh>

00004ed6 <_ZN5Print7printlnEhi>:
  n += println();
  return n;
}

size_t Print::println(unsigned char b, int base)
{
    4ed6:	0f 93       	push	r16
    4ed8:	1f 93       	push	r17
    4eda:	cf 93       	push	r28
    4edc:	df 93       	push	r29
    4ede:	ec 01       	movw	r28, r24
    4ee0:	9a 01       	movw	r18, r20
  return write(c);
}

size_t Print::print(unsigned char b, int base)
{
  return print((unsigned long) b, base);
    4ee2:	46 2f       	mov	r20, r22
    4ee4:	50 e0       	ldi	r21, 0x00	; 0
    4ee6:	60 e0       	ldi	r22, 0x00	; 0
    4ee8:	70 e0       	ldi	r23, 0x00	; 0
    4eea:	e9 df       	rcall	.-46     	; 0x4ebe <_ZN5Print5printEmi>
    4eec:	8c 01       	movw	r16, r24
}

size_t Print::println(unsigned char b, int base)
{
  size_t n = print(b, base);
  n += println();
    4eee:	ce 01       	movw	r24, r28
    4ef0:	15 df       	rcall	.-470    	; 0x4d1c <_ZN5Print7printlnEv>
  return n;
}
    4ef2:	80 0f       	add	r24, r16
    4ef4:	91 1f       	adc	r25, r17
    4ef6:	df 91       	pop	r29
    4ef8:	cf 91       	pop	r28
    4efa:	1f 91       	pop	r17
    4efc:	0f 91       	pop	r16
    4efe:	08 95       	ret

00004f00 <__vector_16>:
#if defined(__AVR_ATtiny24__) || defined(__AVR_ATtiny44__) || defined(__AVR_ATtiny84__)
ISR(TIM0_OVF_vect)
#else
ISR(TIMER0_OVF_vect)
#endif
{
    4f00:	1f 92       	push	r1
    4f02:	0f 92       	push	r0
    4f04:	0f b6       	in	r0, 0x3f	; 63
    4f06:	0f 92       	push	r0
    4f08:	11 24       	eor	r1, r1
    4f0a:	2f 93       	push	r18
    4f0c:	3f 93       	push	r19
    4f0e:	8f 93       	push	r24
    4f10:	9f 93       	push	r25
    4f12:	af 93       	push	r26
    4f14:	bf 93       	push	r27
	// copy these to local variables so they can be stored in registers
	// (volatile variables must be read from memory on every access)
	unsigned long m = timer0_millis;
    4f16:	80 91 b3 05 	lds	r24, 0x05B3	; 0x8005b3 <timer0_millis>
    4f1a:	90 91 b4 05 	lds	r25, 0x05B4	; 0x8005b4 <timer0_millis+0x1>
    4f1e:	a0 91 b5 05 	lds	r26, 0x05B5	; 0x8005b5 <timer0_millis+0x2>
    4f22:	b0 91 b6 05 	lds	r27, 0x05B6	; 0x8005b6 <timer0_millis+0x3>
	unsigned char f = timer0_fract;
    4f26:	30 91 b2 05 	lds	r19, 0x05B2	; 0x8005b2 <timer0_fract>

	m += MILLIS_INC;
	f += FRACT_INC;
    4f2a:	23 e0       	ldi	r18, 0x03	; 3
    4f2c:	23 0f       	add	r18, r19
	if (f >= FRACT_MAX) {
    4f2e:	2d 37       	cpi	r18, 0x7D	; 125
    4f30:	20 f4       	brcc	.+8      	; 0x4f3a <__vector_16+0x3a>
	// copy these to local variables so they can be stored in registers
	// (volatile variables must be read from memory on every access)
	unsigned long m = timer0_millis;
	unsigned char f = timer0_fract;

	m += MILLIS_INC;
    4f32:	01 96       	adiw	r24, 0x01	; 1
    4f34:	a1 1d       	adc	r26, r1
    4f36:	b1 1d       	adc	r27, r1
    4f38:	05 c0       	rjmp	.+10     	; 0x4f44 <__vector_16+0x44>
	f += FRACT_INC;
	if (f >= FRACT_MAX) {
		f -= FRACT_MAX;
    4f3a:	26 e8       	ldi	r18, 0x86	; 134
    4f3c:	23 0f       	add	r18, r19
		m += 1;
    4f3e:	02 96       	adiw	r24, 0x02	; 2
    4f40:	a1 1d       	adc	r26, r1
    4f42:	b1 1d       	adc	r27, r1
	}

	timer0_fract = f;
    4f44:	20 93 b2 05 	sts	0x05B2, r18	; 0x8005b2 <timer0_fract>
	timer0_millis = m;
    4f48:	80 93 b3 05 	sts	0x05B3, r24	; 0x8005b3 <timer0_millis>
    4f4c:	90 93 b4 05 	sts	0x05B4, r25	; 0x8005b4 <timer0_millis+0x1>
    4f50:	a0 93 b5 05 	sts	0x05B5, r26	; 0x8005b5 <timer0_millis+0x2>
    4f54:	b0 93 b6 05 	sts	0x05B6, r27	; 0x8005b6 <timer0_millis+0x3>
	timer0_overflow_count++;
    4f58:	80 91 b7 05 	lds	r24, 0x05B7	; 0x8005b7 <timer0_overflow_count>
    4f5c:	90 91 b8 05 	lds	r25, 0x05B8	; 0x8005b8 <timer0_overflow_count+0x1>
    4f60:	a0 91 b9 05 	lds	r26, 0x05B9	; 0x8005b9 <timer0_overflow_count+0x2>
    4f64:	b0 91 ba 05 	lds	r27, 0x05BA	; 0x8005ba <timer0_overflow_count+0x3>
    4f68:	01 96       	adiw	r24, 0x01	; 1
    4f6a:	a1 1d       	adc	r26, r1
    4f6c:	b1 1d       	adc	r27, r1
    4f6e:	80 93 b7 05 	sts	0x05B7, r24	; 0x8005b7 <timer0_overflow_count>
    4f72:	90 93 b8 05 	sts	0x05B8, r25	; 0x8005b8 <timer0_overflow_count+0x1>
    4f76:	a0 93 b9 05 	sts	0x05B9, r26	; 0x8005b9 <timer0_overflow_count+0x2>
    4f7a:	b0 93 ba 05 	sts	0x05BA, r27	; 0x8005ba <timer0_overflow_count+0x3>
}
    4f7e:	bf 91       	pop	r27
    4f80:	af 91       	pop	r26
    4f82:	9f 91       	pop	r25
    4f84:	8f 91       	pop	r24
    4f86:	3f 91       	pop	r19
    4f88:	2f 91       	pop	r18
    4f8a:	0f 90       	pop	r0
    4f8c:	0f be       	out	0x3f, r0	; 63
    4f8e:	0f 90       	pop	r0
    4f90:	1f 90       	pop	r1
    4f92:	18 95       	reti

00004f94 <millis>:

unsigned long millis()
{
	unsigned long m;
	uint8_t oldSREG = SREG;
    4f94:	2f b7       	in	r18, 0x3f	; 63

	// disable interrupts while we read timer0_millis or we might get an
	// inconsistent value (e.g. in the middle of a write to timer0_millis)
	cli();
    4f96:	f8 94       	cli
	m = timer0_millis;
    4f98:	60 91 b3 05 	lds	r22, 0x05B3	; 0x8005b3 <timer0_millis>
    4f9c:	70 91 b4 05 	lds	r23, 0x05B4	; 0x8005b4 <timer0_millis+0x1>
    4fa0:	80 91 b5 05 	lds	r24, 0x05B5	; 0x8005b5 <timer0_millis+0x2>
    4fa4:	90 91 b6 05 	lds	r25, 0x05B6	; 0x8005b6 <timer0_millis+0x3>
	SREG = oldSREG;
    4fa8:	2f bf       	out	0x3f, r18	; 63

	return m;
}
    4faa:	08 95       	ret

00004fac <micros>:

unsigned long micros() {
	unsigned long m;
	uint8_t oldSREG = SREG, t;
    4fac:	3f b7       	in	r19, 0x3f	; 63
	
	cli();
    4fae:	f8 94       	cli
	m = timer0_overflow_count;
    4fb0:	80 91 b7 05 	lds	r24, 0x05B7	; 0x8005b7 <timer0_overflow_count>
    4fb4:	90 91 b8 05 	lds	r25, 0x05B8	; 0x8005b8 <timer0_overflow_count+0x1>
    4fb8:	a0 91 b9 05 	lds	r26, 0x05B9	; 0x8005b9 <timer0_overflow_count+0x2>
    4fbc:	b0 91 ba 05 	lds	r27, 0x05BA	; 0x8005ba <timer0_overflow_count+0x3>
#if defined(TCNT0)
	t = TCNT0;
    4fc0:	26 b5       	in	r18, 0x26	; 38
#else
	#error TIMER 0 not defined
#endif

#ifdef TIFR0
	if ((TIFR0 & _BV(TOV0)) && (t < 255))
    4fc2:	a8 9b       	sbis	0x15, 0	; 21
    4fc4:	05 c0       	rjmp	.+10     	; 0x4fd0 <micros+0x24>
    4fc6:	2f 3f       	cpi	r18, 0xFF	; 255
    4fc8:	19 f0       	breq	.+6      	; 0x4fd0 <micros+0x24>
		m++;
    4fca:	01 96       	adiw	r24, 0x01	; 1
    4fcc:	a1 1d       	adc	r26, r1
    4fce:	b1 1d       	adc	r27, r1
#else
	if ((TIFR & _BV(TOV0)) && (t < 255))
		m++;
#endif

	SREG = oldSREG;
    4fd0:	3f bf       	out	0x3f, r19	; 63
	
	return ((m << 8) + t) * (64 / clockCyclesPerMicrosecond());
    4fd2:	ba 2f       	mov	r27, r26
    4fd4:	a9 2f       	mov	r26, r25
    4fd6:	98 2f       	mov	r25, r24
    4fd8:	88 27       	eor	r24, r24
    4fda:	82 0f       	add	r24, r18
    4fdc:	91 1d       	adc	r25, r1
    4fde:	a1 1d       	adc	r26, r1
    4fe0:	b1 1d       	adc	r27, r1
    4fe2:	bc 01       	movw	r22, r24
    4fe4:	cd 01       	movw	r24, r26
    4fe6:	42 e0       	ldi	r20, 0x02	; 2
    4fe8:	66 0f       	add	r22, r22
    4fea:	77 1f       	adc	r23, r23
    4fec:	88 1f       	adc	r24, r24
    4fee:	99 1f       	adc	r25, r25
    4ff0:	4a 95       	dec	r20
    4ff2:	d1 f7       	brne	.-12     	; 0x4fe8 <micros+0x3c>
}
    4ff4:	08 95       	ret

00004ff6 <delay>:

void delay(unsigned long ms)
{
    4ff6:	8f 92       	push	r8
    4ff8:	9f 92       	push	r9
    4ffa:	af 92       	push	r10
    4ffc:	bf 92       	push	r11
    4ffe:	cf 92       	push	r12
    5000:	df 92       	push	r13
    5002:	ef 92       	push	r14
    5004:	ff 92       	push	r15
    5006:	6b 01       	movw	r12, r22
    5008:	7c 01       	movw	r14, r24
	uint32_t start = micros();
    500a:	d0 df       	rcall	.-96     	; 0x4fac <micros>
    500c:	4b 01       	movw	r8, r22
    500e:	5c 01       	movw	r10, r24

	while (ms > 0) {
    5010:	c1 14       	cp	r12, r1
    5012:	d1 04       	cpc	r13, r1
    5014:	e1 04       	cpc	r14, r1
    5016:	f1 04       	cpc	r15, r1
    5018:	f1 f0       	breq	.+60     	; 0x5056 <delay+0x60>
		yield();
    501a:	29 d4       	rcall	.+2130   	; 0x586e <yield>
		while ( ms > 0 && (micros() - start) >= 1000) {
    501c:	c7 df       	rcall	.-114    	; 0x4fac <micros>
    501e:	dc 01       	movw	r26, r24
    5020:	cb 01       	movw	r24, r22
    5022:	88 19       	sub	r24, r8
    5024:	99 09       	sbc	r25, r9
    5026:	aa 09       	sbc	r26, r10
    5028:	bb 09       	sbc	r27, r11
    502a:	88 3e       	cpi	r24, 0xE8	; 232
    502c:	93 40       	sbci	r25, 0x03	; 3
    502e:	a1 05       	cpc	r26, r1
    5030:	b1 05       	cpc	r27, r1
    5032:	70 f3       	brcs	.-36     	; 0x5010 <delay+0x1a>
			ms--;
    5034:	21 e0       	ldi	r18, 0x01	; 1
    5036:	c2 1a       	sub	r12, r18
    5038:	d1 08       	sbc	r13, r1
    503a:	e1 08       	sbc	r14, r1
    503c:	f1 08       	sbc	r15, r1
			start += 1000;
    503e:	88 ee       	ldi	r24, 0xE8	; 232
    5040:	88 0e       	add	r8, r24
    5042:	83 e0       	ldi	r24, 0x03	; 3
    5044:	98 1e       	adc	r9, r24
    5046:	a1 1c       	adc	r10, r1
    5048:	b1 1c       	adc	r11, r1
{
	uint32_t start = micros();

	while (ms > 0) {
		yield();
		while ( ms > 0 && (micros() - start) >= 1000) {
    504a:	c1 14       	cp	r12, r1
    504c:	d1 04       	cpc	r13, r1
    504e:	e1 04       	cpc	r14, r1
    5050:	f1 04       	cpc	r15, r1
    5052:	21 f7       	brne	.-56     	; 0x501c <delay+0x26>
    5054:	dd cf       	rjmp	.-70     	; 0x5010 <delay+0x1a>
			ms--;
			start += 1000;
		}
	}
}
    5056:	ff 90       	pop	r15
    5058:	ef 90       	pop	r14
    505a:	df 90       	pop	r13
    505c:	cf 90       	pop	r12
    505e:	bf 90       	pop	r11
    5060:	af 90       	pop	r10
    5062:	9f 90       	pop	r9
    5064:	8f 90       	pop	r8
    5066:	08 95       	ret

00005068 <delayMicroseconds>:
#elif F_CPU >= 16000000L
	// for the 16 MHz clock on most Arduino boards

	// for a one-microsecond delay, simply return.  the overhead
	// of the function call takes 14 (16) cycles, which is 1us
	if (us <= 1) return; //  = 3 cycles, (4 when true)
    5068:	82 30       	cpi	r24, 0x02	; 2
    506a:	91 05       	cpc	r25, r1
    506c:	38 f0       	brcs	.+14     	; 0x507c <delayMicroseconds+0x14>

	// the following loop takes 1/4 of a microsecond (4 cycles)
	// per iteration, so execute it four times for each microsecond of
	// delay requested.
	us <<= 2; // x4 us, = 4 cycles
    506e:	88 0f       	add	r24, r24
    5070:	99 1f       	adc	r25, r25
    5072:	88 0f       	add	r24, r24
    5074:	99 1f       	adc	r25, r25

	// account for the time taken in the preceeding commands.
	// we just burned 19 (21) cycles above, remove 5, (5*4=20)
	// us is at least 8 so we can substract 5
	us -= 5; // = 2 cycles,
    5076:	05 97       	sbiw	r24, 0x05	; 5
	

#endif

	// busy wait
	__asm__ __volatile__ (
    5078:	01 97       	sbiw	r24, 0x01	; 1
    507a:	f1 f7       	brne	.-4      	; 0x5078 <delayMicroseconds+0x10>
    507c:	08 95       	ret

0000507e <init>:

void init()
{
	// this needs to be called before setup() or some functions won't
	// work there
	sei();
    507e:	78 94       	sei
	
	// on the ATmega168, timer 0 is also used for fast hardware pwm
	// (using phase-correct PWM would mean that timer 0 overflowed half as often
	// resulting in different millis() behavior on the ATmega8 and ATmega168)
#if defined(TCCR0A) && defined(WGM01)
	sbi(TCCR0A, WGM01);
    5080:	84 b5       	in	r24, 0x24	; 36
    5082:	82 60       	ori	r24, 0x02	; 2
    5084:	84 bd       	out	0x24, r24	; 36
	sbi(TCCR0A, WGM00);
    5086:	84 b5       	in	r24, 0x24	; 36
    5088:	81 60       	ori	r24, 0x01	; 1
    508a:	84 bd       	out	0x24, r24	; 36
	// this combination is for the standard atmega8
	sbi(TCCR0, CS01);
	sbi(TCCR0, CS00);
#elif defined(TCCR0B) && defined(CS01) && defined(CS00)
	// this combination is for the standard 168/328/1280/2560
	sbi(TCCR0B, CS01);
    508c:	85 b5       	in	r24, 0x25	; 37
    508e:	82 60       	ori	r24, 0x02	; 2
    5090:	85 bd       	out	0x25, r24	; 37
	sbi(TCCR0B, CS00);
    5092:	85 b5       	in	r24, 0x25	; 37
    5094:	81 60       	ori	r24, 0x01	; 1
    5096:	85 bd       	out	0x25, r24	; 37

	// enable timer 0 overflow interrupt
#if defined(TIMSK) && defined(TOIE0)
	sbi(TIMSK, TOIE0);
#elif defined(TIMSK0) && defined(TOIE0)
	sbi(TIMSK0, TOIE0);
    5098:	ee e6       	ldi	r30, 0x6E	; 110
    509a:	f0 e0       	ldi	r31, 0x00	; 0
    509c:	80 81       	ld	r24, Z
    509e:	81 60       	ori	r24, 0x01	; 1
    50a0:	80 83       	st	Z, r24
	// this is better for motors as it ensures an even waveform
	// note, however, that fast pwm mode can achieve a frequency of up
	// 8 MHz (with a 16 MHz clock) at 50% duty cycle

#if defined(TCCR1B) && defined(CS11) && defined(CS10)
	TCCR1B = 0;
    50a2:	e1 e8       	ldi	r30, 0x81	; 129
    50a4:	f0 e0       	ldi	r31, 0x00	; 0
    50a6:	10 82       	st	Z, r1

	// set timer 1 prescale factor to 64
	sbi(TCCR1B, CS11);
    50a8:	80 81       	ld	r24, Z
    50aa:	82 60       	ori	r24, 0x02	; 2
    50ac:	80 83       	st	Z, r24
#if F_CPU >= 8000000L
	sbi(TCCR1B, CS10);
    50ae:	80 81       	ld	r24, Z
    50b0:	81 60       	ori	r24, 0x01	; 1
    50b2:	80 83       	st	Z, r24
	sbi(TCCR1, CS10);
#endif
#endif
	// put timer 1 in 8-bit phase correct pwm mode
#if defined(TCCR1A) && defined(WGM10)
	sbi(TCCR1A, WGM10);
    50b4:	e0 e8       	ldi	r30, 0x80	; 128
    50b6:	f0 e0       	ldi	r31, 0x00	; 0
    50b8:	80 81       	ld	r24, Z
    50ba:	81 60       	ori	r24, 0x01	; 1
    50bc:	80 83       	st	Z, r24

	// set timer 2 prescale factor to 64
#if defined(TCCR2) && defined(CS22)
	sbi(TCCR2, CS22);
#elif defined(TCCR2B) && defined(CS22)
	sbi(TCCR2B, CS22);
    50be:	e1 eb       	ldi	r30, 0xB1	; 177
    50c0:	f0 e0       	ldi	r31, 0x00	; 0
    50c2:	80 81       	ld	r24, Z
    50c4:	84 60       	ori	r24, 0x04	; 4
    50c6:	80 83       	st	Z, r24

	// configure timer 2 for phase correct pwm (8-bit)
#if defined(TCCR2) && defined(WGM20)
	sbi(TCCR2, WGM20);
#elif defined(TCCR2A) && defined(WGM20)
	sbi(TCCR2A, WGM20);
    50c8:	e0 eb       	ldi	r30, 0xB0	; 176
    50ca:	f0 e0       	ldi	r31, 0x00	; 0
    50cc:	80 81       	ld	r24, Z
    50ce:	81 60       	ori	r24, 0x01	; 1
    50d0:	80 83       	st	Z, r24
#endif

#if defined(ADCSRA)
	// set a2d prescaler so we are inside the desired 50-200 KHz range.
	#if F_CPU >= 16000000 // 16 MHz / 128 = 125 KHz
		sbi(ADCSRA, ADPS2);
    50d2:	ea e7       	ldi	r30, 0x7A	; 122
    50d4:	f0 e0       	ldi	r31, 0x00	; 0
    50d6:	80 81       	ld	r24, Z
    50d8:	84 60       	ori	r24, 0x04	; 4
    50da:	80 83       	st	Z, r24
		sbi(ADCSRA, ADPS1);
    50dc:	80 81       	ld	r24, Z
    50de:	82 60       	ori	r24, 0x02	; 2
    50e0:	80 83       	st	Z, r24
		sbi(ADCSRA, ADPS0);
    50e2:	80 81       	ld	r24, Z
    50e4:	81 60       	ori	r24, 0x01	; 1
    50e6:	80 83       	st	Z, r24
		cbi(ADCSRA, ADPS2);
		cbi(ADCSRA, ADPS1);
		sbi(ADCSRA, ADPS0);
	#endif
	// enable a2d conversions
	sbi(ADCSRA, ADEN);
    50e8:	80 81       	ld	r24, Z
    50ea:	80 68       	ori	r24, 0x80	; 128
    50ec:	80 83       	st	Z, r24
	// here so they can be used as normal digital i/o; they will be
	// reconnected in Serial.begin()
#if defined(UCSRB)
	UCSRB = 0;
#elif defined(UCSR0B)
	UCSR0B = 0;
    50ee:	10 92 c1 00 	sts	0x00C1, r1	; 0x8000c1 <__TEXT_REGION_LENGTH__+0x7e00c1>
    50f2:	08 95       	ret

000050f4 <analogRead>:
#elif defined(__AVR_ATmega32U4__)
	if (pin >= 18) pin -= 18; // allow for channel or pin numbers
#elif defined(__AVR_ATmega1284__) || defined(__AVR_ATmega1284P__) || defined(__AVR_ATmega644__) || defined(__AVR_ATmega644A__) || defined(__AVR_ATmega644P__) || defined(__AVR_ATmega644PA__)
	if (pin >= 24) pin -= 24; // allow for channel or pin numbers
#else
	if (pin >= 14) pin -= 14; // allow for channel or pin numbers
    50f4:	8e 30       	cpi	r24, 0x0E	; 14
    50f6:	08 f0       	brcs	.+2      	; 0x50fa <analogRead+0x6>
    50f8:	8e 50       	subi	r24, 0x0E	; 14
  
	// set the analog reference (high two bits of ADMUX) and select the
	// channel (low 4 bits).  this also sets ADLAR (left-adjust result)
	// to 0 (the default).
#if defined(ADMUX)
	ADMUX = (analog_reference << 6) | (pin & 0x07);
    50fa:	87 70       	andi	r24, 0x07	; 7
    50fc:	20 91 14 01 	lds	r18, 0x0114	; 0x800114 <analog_reference>
    5100:	90 e4       	ldi	r25, 0x40	; 64
    5102:	29 9f       	mul	r18, r25
    5104:	90 01       	movw	r18, r0
    5106:	11 24       	eor	r1, r1
    5108:	82 2b       	or	r24, r18
    510a:	80 93 7c 00 	sts	0x007C, r24	; 0x80007c <__TEXT_REGION_LENGTH__+0x7e007c>
	// without a delay, we seem to read from the wrong channel
	//delay(1);

#if defined(ADCSRA) && defined(ADCL)
	// start the conversion
	sbi(ADCSRA, ADSC);
    510e:	80 91 7a 00 	lds	r24, 0x007A	; 0x80007a <__TEXT_REGION_LENGTH__+0x7e007a>
    5112:	80 64       	ori	r24, 0x40	; 64
    5114:	80 93 7a 00 	sts	0x007A, r24	; 0x80007a <__TEXT_REGION_LENGTH__+0x7e007a>

	// ADSC is cleared when the conversion finishes
	while (bit_is_set(ADCSRA, ADSC));
    5118:	80 91 7a 00 	lds	r24, 0x007A	; 0x80007a <__TEXT_REGION_LENGTH__+0x7e007a>
    511c:	86 fd       	sbrc	r24, 6
    511e:	fc cf       	rjmp	.-8      	; 0x5118 <analogRead+0x24>

	// we have to read ADCL first; doing so locks both ADCL
	// and ADCH until ADCH is read.  reading ADCL second would
	// cause the results of each conversion to be discarded,
	// as ADCL and ADCH would be locked when it completed.
	low  = ADCL;
    5120:	80 91 78 00 	lds	r24, 0x0078	; 0x800078 <__TEXT_REGION_LENGTH__+0x7e0078>
	high = ADCH;
    5124:	20 91 79 00 	lds	r18, 0x0079	; 0x800079 <__TEXT_REGION_LENGTH__+0x7e0079>
	low  = 0;
	high = 0;
#endif

	// combine the two bytes
	return (high << 8) | low;
    5128:	90 e0       	ldi	r25, 0x00	; 0
}
    512a:	92 2b       	or	r25, r18
    512c:	08 95       	ret

0000512e <turnOffPWM>:
//
//static inline void turnOffPWM(uint8_t timer) __attribute__ ((always_inline));
//static inline void turnOffPWM(uint8_t timer)
static void turnOffPWM(uint8_t timer)
{
	switch (timer)
    512e:	83 30       	cpi	r24, 0x03	; 3
    5130:	81 f0       	breq	.+32     	; 0x5152 <turnOffPWM+0x24>
    5132:	28 f4       	brcc	.+10     	; 0x513e <turnOffPWM+0x10>
    5134:	81 30       	cpi	r24, 0x01	; 1
    5136:	99 f0       	breq	.+38     	; 0x515e <turnOffPWM+0x30>
    5138:	82 30       	cpi	r24, 0x02	; 2
    513a:	a1 f0       	breq	.+40     	; 0x5164 <turnOffPWM+0x36>
    513c:	08 95       	ret
    513e:	87 30       	cpi	r24, 0x07	; 7
    5140:	a9 f0       	breq	.+42     	; 0x516c <turnOffPWM+0x3e>
    5142:	88 30       	cpi	r24, 0x08	; 8
    5144:	b9 f0       	breq	.+46     	; 0x5174 <turnOffPWM+0x46>
    5146:	84 30       	cpi	r24, 0x04	; 4
    5148:	d1 f4       	brne	.+52     	; 0x517e <turnOffPWM+0x50>
	{
		#if defined(TCCR1A) && defined(COM1A1)
		case TIMER1A:   cbi(TCCR1A, COM1A1);    break;
		#endif
		#if defined(TCCR1A) && defined(COM1B1)
		case TIMER1B:   cbi(TCCR1A, COM1B1);    break;
    514a:	80 91 80 00 	lds	r24, 0x0080	; 0x800080 <__TEXT_REGION_LENGTH__+0x7e0080>
    514e:	8f 7d       	andi	r24, 0xDF	; 223
    5150:	03 c0       	rjmp	.+6      	; 0x5158 <turnOffPWM+0x2a>
static void turnOffPWM(uint8_t timer)
{
	switch (timer)
	{
		#if defined(TCCR1A) && defined(COM1A1)
		case TIMER1A:   cbi(TCCR1A, COM1A1);    break;
    5152:	80 91 80 00 	lds	r24, 0x0080	; 0x800080 <__TEXT_REGION_LENGTH__+0x7e0080>
    5156:	8f 77       	andi	r24, 0x7F	; 127
		#endif
		#if defined(TCCR1A) && defined(COM1B1)
		case TIMER1B:   cbi(TCCR1A, COM1B1);    break;
    5158:	80 93 80 00 	sts	0x0080, r24	; 0x800080 <__TEXT_REGION_LENGTH__+0x7e0080>
    515c:	08 95       	ret
		#if defined(TCCR2) && defined(COM21)
		case  TIMER2:   cbi(TCCR2, COM21);      break;
		#endif
		
		#if defined(TCCR0A) && defined(COM0A1)
		case  TIMER0A:  cbi(TCCR0A, COM0A1);    break;
    515e:	84 b5       	in	r24, 0x24	; 36
    5160:	8f 77       	andi	r24, 0x7F	; 127
    5162:	02 c0       	rjmp	.+4      	; 0x5168 <turnOffPWM+0x3a>
		#endif
		
		#if defined(TCCR0A) && defined(COM0B1)
		case  TIMER0B:  cbi(TCCR0A, COM0B1);    break;
    5164:	84 b5       	in	r24, 0x24	; 36
    5166:	8f 7d       	andi	r24, 0xDF	; 223
    5168:	84 bd       	out	0x24, r24	; 36
    516a:	08 95       	ret
		#endif
		#if defined(TCCR2A) && defined(COM2A1)
		case  TIMER2A:  cbi(TCCR2A, COM2A1);    break;
    516c:	80 91 b0 00 	lds	r24, 0x00B0	; 0x8000b0 <__TEXT_REGION_LENGTH__+0x7e00b0>
    5170:	8f 77       	andi	r24, 0x7F	; 127
    5172:	03 c0       	rjmp	.+6      	; 0x517a <turnOffPWM+0x4c>
		#endif
		#if defined(TCCR2A) && defined(COM2B1)
		case  TIMER2B:  cbi(TCCR2A, COM2B1);    break;
    5174:	80 91 b0 00 	lds	r24, 0x00B0	; 0x8000b0 <__TEXT_REGION_LENGTH__+0x7e00b0>
    5178:	8f 7d       	andi	r24, 0xDF	; 223
    517a:	80 93 b0 00 	sts	0x00B0, r24	; 0x8000b0 <__TEXT_REGION_LENGTH__+0x7e00b0>
    517e:	08 95       	ret

00005180 <pinMode>:
#define ARDUINO_MAIN
#include "wiring_private.h"
#include "pins_arduino.h"

void pinMode(uint8_t pin, uint8_t mode)
{
    5180:	cf 93       	push	r28
    5182:	df 93       	push	r29
	uint8_t bit = digitalPinToBitMask(pin);
    5184:	90 e0       	ldi	r25, 0x00	; 0
    5186:	fc 01       	movw	r30, r24
    5188:	e3 59       	subi	r30, 0x93	; 147
    518a:	fb 4f       	sbci	r31, 0xFB	; 251
    518c:	24 91       	lpm	r18, Z
	uint8_t port = digitalPinToPort(pin);
    518e:	fc 01       	movw	r30, r24
    5190:	ef 57       	subi	r30, 0x7F	; 127
    5192:	fb 4f       	sbci	r31, 0xFB	; 251
    5194:	84 91       	lpm	r24, Z
	volatile uint8_t *reg, *out;

	if (port == NOT_A_PIN) return;
    5196:	88 23       	and	r24, r24
    5198:	61 f1       	breq	.+88     	; 0x51f2 <pinMode+0x72>

	// JWS: can I let the optimizer do this?
	reg = portModeRegister(port);
    519a:	90 e0       	ldi	r25, 0x00	; 0
    519c:	88 0f       	add	r24, r24
    519e:	99 1f       	adc	r25, r25
    51a0:	fc 01       	movw	r30, r24
    51a2:	e7 55       	subi	r30, 0x57	; 87
    51a4:	fb 4f       	sbci	r31, 0xFB	; 251
    51a6:	c5 91       	lpm	r28, Z+
    51a8:	d4 91       	lpm	r29, Z
	out = portOutputRegister(port);
    51aa:	fc 01       	movw	r30, r24
    51ac:	e1 56       	subi	r30, 0x61	; 97
    51ae:	fb 4f       	sbci	r31, 0xFB	; 251
    51b0:	a5 91       	lpm	r26, Z+
    51b2:	b4 91       	lpm	r27, Z

	if (mode == INPUT) { 
    51b4:	61 11       	cpse	r22, r1
    51b6:	09 c0       	rjmp	.+18     	; 0x51ca <pinMode+0x4a>
		uint8_t oldSREG = SREG;
    51b8:	9f b7       	in	r25, 0x3f	; 63
                cli();
    51ba:	f8 94       	cli
		*reg &= ~bit;
    51bc:	88 81       	ld	r24, Y
    51be:	20 95       	com	r18
    51c0:	82 23       	and	r24, r18
    51c2:	88 83       	st	Y, r24
		*out &= ~bit;
    51c4:	ec 91       	ld	r30, X
    51c6:	2e 23       	and	r18, r30
    51c8:	0b c0       	rjmp	.+22     	; 0x51e0 <pinMode+0x60>
		SREG = oldSREG;
	} else if (mode == INPUT_PULLUP) {
    51ca:	62 30       	cpi	r22, 0x02	; 2
    51cc:	61 f4       	brne	.+24     	; 0x51e6 <pinMode+0x66>
		uint8_t oldSREG = SREG;
    51ce:	9f b7       	in	r25, 0x3f	; 63
                cli();
    51d0:	f8 94       	cli
		*reg &= ~bit;
    51d2:	38 81       	ld	r19, Y
    51d4:	82 2f       	mov	r24, r18
    51d6:	80 95       	com	r24
    51d8:	83 23       	and	r24, r19
    51da:	88 83       	st	Y, r24
		*out |= bit;
    51dc:	ec 91       	ld	r30, X
    51de:	2e 2b       	or	r18, r30
    51e0:	2c 93       	st	X, r18
		SREG = oldSREG;
    51e2:	9f bf       	out	0x3f, r25	; 63
    51e4:	06 c0       	rjmp	.+12     	; 0x51f2 <pinMode+0x72>
	} else {
		uint8_t oldSREG = SREG;
    51e6:	8f b7       	in	r24, 0x3f	; 63
                cli();
    51e8:	f8 94       	cli
		*reg |= bit;
    51ea:	e8 81       	ld	r30, Y
    51ec:	2e 2b       	or	r18, r30
    51ee:	28 83       	st	Y, r18
		SREG = oldSREG;
    51f0:	8f bf       	out	0x3f, r24	; 63
	}
}
    51f2:	df 91       	pop	r29
    51f4:	cf 91       	pop	r28
    51f6:	08 95       	ret

000051f8 <digitalWrite>:
		#endif
	}
}

void digitalWrite(uint8_t pin, uint8_t val)
{
    51f8:	1f 93       	push	r17
    51fa:	cf 93       	push	r28
    51fc:	df 93       	push	r29
	uint8_t timer = digitalPinToTimer(pin);
    51fe:	28 2f       	mov	r18, r24
    5200:	30 e0       	ldi	r19, 0x00	; 0
    5202:	f9 01       	movw	r30, r18
    5204:	e7 5a       	subi	r30, 0xA7	; 167
    5206:	fb 4f       	sbci	r31, 0xFB	; 251
    5208:	84 91       	lpm	r24, Z
	uint8_t bit = digitalPinToBitMask(pin);
    520a:	f9 01       	movw	r30, r18
    520c:	e3 59       	subi	r30, 0x93	; 147
    520e:	fb 4f       	sbci	r31, 0xFB	; 251
    5210:	d4 91       	lpm	r29, Z
	uint8_t port = digitalPinToPort(pin);
    5212:	f9 01       	movw	r30, r18
    5214:	ef 57       	subi	r30, 0x7F	; 127
    5216:	fb 4f       	sbci	r31, 0xFB	; 251
    5218:	c4 91       	lpm	r28, Z
	volatile uint8_t *out;

	if (port == NOT_A_PIN) return;
    521a:	cc 23       	and	r28, r28
    521c:	c1 f0       	breq	.+48     	; 0x524e <digitalWrite+0x56>
    521e:	16 2f       	mov	r17, r22

	// If the pin that support PWM output, we need to turn it off
	// before doing a digital write.
	if (timer != NOT_ON_TIMER) turnOffPWM(timer);
    5220:	81 11       	cpse	r24, r1
    5222:	85 df       	rcall	.-246    	; 0x512e <turnOffPWM>

	out = portOutputRegister(port);
    5224:	ec 2f       	mov	r30, r28
    5226:	f0 e0       	ldi	r31, 0x00	; 0
    5228:	ee 0f       	add	r30, r30
    522a:	ff 1f       	adc	r31, r31
    522c:	e1 56       	subi	r30, 0x61	; 97
    522e:	fb 4f       	sbci	r31, 0xFB	; 251
    5230:	a5 91       	lpm	r26, Z+
    5232:	b4 91       	lpm	r27, Z

	uint8_t oldSREG = SREG;
    5234:	8f b7       	in	r24, 0x3f	; 63
	cli();
    5236:	f8 94       	cli

	if (val == LOW) {
    5238:	11 11       	cpse	r17, r1
    523a:	05 c0       	rjmp	.+10     	; 0x5246 <digitalWrite+0x4e>
		*out &= ~bit;
    523c:	9c 91       	ld	r25, X
    523e:	ed 2f       	mov	r30, r29
    5240:	e0 95       	com	r30
    5242:	e9 23       	and	r30, r25
    5244:	02 c0       	rjmp	.+4      	; 0x524a <digitalWrite+0x52>
	} else {
		*out |= bit;
    5246:	ec 91       	ld	r30, X
    5248:	ed 2b       	or	r30, r29
    524a:	ec 93       	st	X, r30
	}

	SREG = oldSREG;
    524c:	8f bf       	out	0x3f, r24	; 63
}
    524e:	df 91       	pop	r29
    5250:	cf 91       	pop	r28
    5252:	1f 91       	pop	r17
    5254:	08 95       	ret

00005256 <digitalRead>:

int digitalRead(uint8_t pin)
{
    5256:	cf 93       	push	r28
    5258:	df 93       	push	r29
	uint8_t timer = digitalPinToTimer(pin);
    525a:	28 2f       	mov	r18, r24
    525c:	30 e0       	ldi	r19, 0x00	; 0
    525e:	f9 01       	movw	r30, r18
    5260:	e7 5a       	subi	r30, 0xA7	; 167
    5262:	fb 4f       	sbci	r31, 0xFB	; 251
    5264:	84 91       	lpm	r24, Z
	uint8_t bit = digitalPinToBitMask(pin);
    5266:	f9 01       	movw	r30, r18
    5268:	e3 59       	subi	r30, 0x93	; 147
    526a:	fb 4f       	sbci	r31, 0xFB	; 251
    526c:	d4 91       	lpm	r29, Z
	uint8_t port = digitalPinToPort(pin);
    526e:	f9 01       	movw	r30, r18
    5270:	ef 57       	subi	r30, 0x7F	; 127
    5272:	fb 4f       	sbci	r31, 0xFB	; 251
    5274:	c4 91       	lpm	r28, Z

	if (port == NOT_A_PIN) return LOW;
    5276:	cc 23       	and	r28, r28
    5278:	89 f0       	breq	.+34     	; 0x529c <digitalRead+0x46>

	// If the pin that support PWM output, we need to turn it off
	// before getting a digital reading.
	if (timer != NOT_ON_TIMER) turnOffPWM(timer);
    527a:	81 11       	cpse	r24, r1
    527c:	58 df       	rcall	.-336    	; 0x512e <turnOffPWM>

	if (*portInputRegister(port) & bit) return HIGH;
    527e:	ec 2f       	mov	r30, r28
    5280:	f0 e0       	ldi	r31, 0x00	; 0
    5282:	ee 0f       	add	r30, r30
    5284:	ff 1f       	adc	r31, r31
    5286:	eb 56       	subi	r30, 0x6B	; 107
    5288:	fb 4f       	sbci	r31, 0xFB	; 251
    528a:	a5 91       	lpm	r26, Z+
    528c:	b4 91       	lpm	r27, Z
    528e:	ec 91       	ld	r30, X
    5290:	ed 23       	and	r30, r29
    5292:	81 e0       	ldi	r24, 0x01	; 1
    5294:	90 e0       	ldi	r25, 0x00	; 0
    5296:	21 f4       	brne	.+8      	; 0x52a0 <digitalRead+0x4a>
    5298:	80 e0       	ldi	r24, 0x00	; 0
    529a:	02 c0       	rjmp	.+4      	; 0x52a0 <digitalRead+0x4a>
{
	uint8_t timer = digitalPinToTimer(pin);
	uint8_t bit = digitalPinToBitMask(pin);
	uint8_t port = digitalPinToPort(pin);

	if (port == NOT_A_PIN) return LOW;
    529c:	80 e0       	ldi	r24, 0x00	; 0
    529e:	90 e0       	ldi	r25, 0x00	; 0
	// before getting a digital reading.
	if (timer != NOT_ON_TIMER) turnOffPWM(timer);

	if (*portInputRegister(port) & bit) return HIGH;
	return LOW;
}
    52a0:	df 91       	pop	r29
    52a2:	cf 91       	pop	r28
    52a4:	08 95       	ret

000052a6 <_ZN6StringD1Ev>:
{
	if (!buffer) return;
	for (char *p = buffer; *p; p++) {
		*p = toupper(*p);
	}
}
    52a6:	fc 01       	movw	r30, r24
    52a8:	80 81       	ld	r24, Z
    52aa:	91 81       	ldd	r25, Z+1	; 0x01
    52ac:	29 c4       	rjmp	.+2130   	; 0x5b00 <free>

000052ae <_ZN6String10invalidateEv>:
    52ae:	cf 93       	push	r28
    52b0:	df 93       	push	r29
    52b2:	ec 01       	movw	r28, r24
    52b4:	88 81       	ld	r24, Y
    52b6:	99 81       	ldd	r25, Y+1	; 0x01
    52b8:	00 97       	sbiw	r24, 0x00	; 0
    52ba:	09 f0       	breq	.+2      	; 0x52be <_ZN6String10invalidateEv+0x10>
    52bc:	21 d4       	rcall	.+2114   	; 0x5b00 <free>
    52be:	19 82       	std	Y+1, r1	; 0x01
    52c0:	18 82       	st	Y, r1
    52c2:	1d 82       	std	Y+5, r1	; 0x05
    52c4:	1c 82       	std	Y+4, r1	; 0x04
    52c6:	1b 82       	std	Y+3, r1	; 0x03
    52c8:	1a 82       	std	Y+2, r1	; 0x02
    52ca:	df 91       	pop	r29
    52cc:	cf 91       	pop	r28
    52ce:	08 95       	ret

000052d0 <_ZN6String12changeBufferEj>:
    52d0:	0f 93       	push	r16
    52d2:	1f 93       	push	r17
    52d4:	cf 93       	push	r28
    52d6:	df 93       	push	r29
    52d8:	ec 01       	movw	r28, r24
    52da:	8b 01       	movw	r16, r22
    52dc:	6f 5f       	subi	r22, 0xFF	; 255
    52de:	7f 4f       	sbci	r23, 0xFF	; 255
    52e0:	88 81       	ld	r24, Y
    52e2:	99 81       	ldd	r25, Y+1	; 0x01
    52e4:	a5 d4       	rcall	.+2378   	; 0x5c30 <realloc>
    52e6:	00 97       	sbiw	r24, 0x00	; 0
    52e8:	31 f0       	breq	.+12     	; 0x52f6 <_ZN6String12changeBufferEj+0x26>
    52ea:	99 83       	std	Y+1, r25	; 0x01
    52ec:	88 83       	st	Y, r24
    52ee:	1b 83       	std	Y+3, r17	; 0x03
    52f0:	0a 83       	std	Y+2, r16	; 0x02
    52f2:	81 e0       	ldi	r24, 0x01	; 1
    52f4:	01 c0       	rjmp	.+2      	; 0x52f8 <_ZN6String12changeBufferEj+0x28>
    52f6:	80 e0       	ldi	r24, 0x00	; 0
    52f8:	df 91       	pop	r29
    52fa:	cf 91       	pop	r28
    52fc:	1f 91       	pop	r17
    52fe:	0f 91       	pop	r16
    5300:	08 95       	ret

00005302 <_ZN6String7reserveEj>:
    5302:	cf 93       	push	r28
    5304:	df 93       	push	r29
    5306:	ec 01       	movw	r28, r24
    5308:	88 81       	ld	r24, Y
    530a:	99 81       	ldd	r25, Y+1	; 0x01
    530c:	89 2b       	or	r24, r25
    530e:	29 f0       	breq	.+10     	; 0x531a <_ZN6String7reserveEj+0x18>
    5310:	8a 81       	ldd	r24, Y+2	; 0x02
    5312:	9b 81       	ldd	r25, Y+3	; 0x03
    5314:	86 17       	cp	r24, r22
    5316:	97 07       	cpc	r25, r23
    5318:	58 f4       	brcc	.+22     	; 0x5330 <_ZN6String7reserveEj+0x2e>
    531a:	ce 01       	movw	r24, r28
    531c:	d9 df       	rcall	.-78     	; 0x52d0 <_ZN6String12changeBufferEj>
    531e:	88 23       	and	r24, r24
    5320:	41 f0       	breq	.+16     	; 0x5332 <_ZN6String7reserveEj+0x30>
    5322:	8c 81       	ldd	r24, Y+4	; 0x04
    5324:	9d 81       	ldd	r25, Y+5	; 0x05
    5326:	89 2b       	or	r24, r25
    5328:	19 f4       	brne	.+6      	; 0x5330 <_ZN6String7reserveEj+0x2e>
    532a:	e8 81       	ld	r30, Y
    532c:	f9 81       	ldd	r31, Y+1	; 0x01
    532e:	10 82       	st	Z, r1
    5330:	81 e0       	ldi	r24, 0x01	; 1
    5332:	df 91       	pop	r29
    5334:	cf 91       	pop	r28
    5336:	08 95       	ret

00005338 <_ZN6String4copyEPKcj>:
    5338:	ef 92       	push	r14
    533a:	ff 92       	push	r15
    533c:	0f 93       	push	r16
    533e:	1f 93       	push	r17
    5340:	cf 93       	push	r28
    5342:	df 93       	push	r29
    5344:	ec 01       	movw	r28, r24
    5346:	7b 01       	movw	r14, r22
    5348:	8a 01       	movw	r16, r20
    534a:	ba 01       	movw	r22, r20
    534c:	da df       	rcall	.-76     	; 0x5302 <_ZN6String7reserveEj>
    534e:	81 11       	cpse	r24, r1
    5350:	03 c0       	rjmp	.+6      	; 0x5358 <_ZN6String4copyEPKcj+0x20>
    5352:	ce 01       	movw	r24, r28
    5354:	ac df       	rcall	.-168    	; 0x52ae <_ZN6String10invalidateEv>
    5356:	06 c0       	rjmp	.+12     	; 0x5364 <_ZN6String4copyEPKcj+0x2c>
    5358:	1d 83       	std	Y+5, r17	; 0x05
    535a:	0c 83       	std	Y+4, r16	; 0x04
    535c:	b7 01       	movw	r22, r14
    535e:	88 81       	ld	r24, Y
    5360:	99 81       	ldd	r25, Y+1	; 0x01
    5362:	de d6       	rcall	.+3516   	; 0x6120 <strcpy>
    5364:	ce 01       	movw	r24, r28
    5366:	df 91       	pop	r29
    5368:	cf 91       	pop	r28
    536a:	1f 91       	pop	r17
    536c:	0f 91       	pop	r16
    536e:	ff 90       	pop	r15
    5370:	ef 90       	pop	r14
    5372:	08 95       	ret

00005374 <_ZN6StringC1EPKc>:
    5374:	fc 01       	movw	r30, r24
    5376:	11 82       	std	Z+1, r1	; 0x01
    5378:	10 82       	st	Z, r1
    537a:	13 82       	std	Z+3, r1	; 0x03
    537c:	12 82       	std	Z+2, r1	; 0x02
    537e:	15 82       	std	Z+5, r1	; 0x05
    5380:	14 82       	std	Z+4, r1	; 0x04
    5382:	61 15       	cp	r22, r1
    5384:	71 05       	cpc	r23, r1
    5386:	49 f0       	breq	.+18     	; 0x539a <_ZN6StringC1EPKc+0x26>
    5388:	fb 01       	movw	r30, r22
    538a:	01 90       	ld	r0, Z+
    538c:	00 20       	and	r0, r0
    538e:	e9 f7       	brne	.-6      	; 0x538a <_ZN6StringC1EPKc+0x16>
    5390:	31 97       	sbiw	r30, 0x01	; 1
    5392:	af 01       	movw	r20, r30
    5394:	46 1b       	sub	r20, r22
    5396:	57 0b       	sbc	r21, r23
    5398:	cf cf       	rjmp	.-98     	; 0x5338 <_ZN6String4copyEPKcj>
    539a:	08 95       	ret

0000539c <_ZN6StringaSERKS_>:
    539c:	cf 93       	push	r28
    539e:	df 93       	push	r29
    53a0:	ec 01       	movw	r28, r24
    53a2:	fb 01       	movw	r30, r22
    53a4:	86 17       	cp	r24, r22
    53a6:	97 07       	cpc	r25, r23
    53a8:	51 f0       	breq	.+20     	; 0x53be <_ZN6StringaSERKS_+0x22>
    53aa:	60 81       	ld	r22, Z
    53ac:	71 81       	ldd	r23, Z+1	; 0x01
    53ae:	61 15       	cp	r22, r1
    53b0:	71 05       	cpc	r23, r1
    53b2:	21 f0       	breq	.+8      	; 0x53bc <_ZN6StringaSERKS_+0x20>
    53b4:	44 81       	ldd	r20, Z+4	; 0x04
    53b6:	55 81       	ldd	r21, Z+5	; 0x05
    53b8:	bf df       	rcall	.-130    	; 0x5338 <_ZN6String4copyEPKcj>
    53ba:	01 c0       	rjmp	.+2      	; 0x53be <_ZN6StringaSERKS_+0x22>
    53bc:	78 df       	rcall	.-272    	; 0x52ae <_ZN6String10invalidateEv>
    53be:	ce 01       	movw	r24, r28
    53c0:	df 91       	pop	r29
    53c2:	cf 91       	pop	r28
    53c4:	08 95       	ret

000053c6 <_ZN6StringC1ERKS_>:
    53c6:	fc 01       	movw	r30, r24
    53c8:	11 82       	std	Z+1, r1	; 0x01
    53ca:	10 82       	st	Z, r1
    53cc:	13 82       	std	Z+3, r1	; 0x03
    53ce:	12 82       	std	Z+2, r1	; 0x02
    53d0:	15 82       	std	Z+5, r1	; 0x05
    53d2:	14 82       	std	Z+4, r1	; 0x04
    53d4:	e3 cf       	rjmp	.-58     	; 0x539c <_ZN6StringaSERKS_>

000053d6 <_ZN6StringaSEPKc>:
    53d6:	cf 93       	push	r28
    53d8:	df 93       	push	r29
    53da:	ec 01       	movw	r28, r24
    53dc:	61 15       	cp	r22, r1
    53de:	71 05       	cpc	r23, r1
    53e0:	51 f0       	breq	.+20     	; 0x53f6 <_ZN6StringaSEPKc+0x20>
    53e2:	fb 01       	movw	r30, r22
    53e4:	01 90       	ld	r0, Z+
    53e6:	00 20       	and	r0, r0
    53e8:	e9 f7       	brne	.-6      	; 0x53e4 <_ZN6StringaSEPKc+0xe>
    53ea:	31 97       	sbiw	r30, 0x01	; 1
    53ec:	af 01       	movw	r20, r30
    53ee:	46 1b       	sub	r20, r22
    53f0:	57 0b       	sbc	r21, r23
    53f2:	a2 df       	rcall	.-188    	; 0x5338 <_ZN6String4copyEPKcj>
    53f4:	01 c0       	rjmp	.+2      	; 0x53f8 <_ZN6StringaSEPKc+0x22>
    53f6:	5b df       	rcall	.-330    	; 0x52ae <_ZN6String10invalidateEv>
    53f8:	ce 01       	movw	r24, r28
    53fa:	df 91       	pop	r29
    53fc:	cf 91       	pop	r28
    53fe:	08 95       	ret

00005400 <_ZN6StringC1Eih>:
    5400:	0f 93       	push	r16
    5402:	1f 93       	push	r17
    5404:	cf 93       	push	r28
    5406:	df 93       	push	r29
    5408:	cd b7       	in	r28, 0x3d	; 61
    540a:	de b7       	in	r29, 0x3e	; 62
    540c:	62 97       	sbiw	r28, 0x12	; 18
    540e:	0f b6       	in	r0, 0x3f	; 63
    5410:	f8 94       	cli
    5412:	de bf       	out	0x3e, r29	; 62
    5414:	0f be       	out	0x3f, r0	; 63
    5416:	cd bf       	out	0x3d, r28	; 61
    5418:	8c 01       	movw	r16, r24
    541a:	cb 01       	movw	r24, r22
    541c:	f8 01       	movw	r30, r16
    541e:	11 82       	std	Z+1, r1	; 0x01
    5420:	10 82       	st	Z, r1
    5422:	13 82       	std	Z+3, r1	; 0x03
    5424:	12 82       	std	Z+2, r1	; 0x02
    5426:	15 82       	std	Z+5, r1	; 0x05
    5428:	14 82       	std	Z+4, r1	; 0x04
    542a:	50 e0       	ldi	r21, 0x00	; 0
    542c:	be 01       	movw	r22, r28
    542e:	6f 5f       	subi	r22, 0xFF	; 255
    5430:	7f 4f       	sbci	r23, 0xFF	; 255
    5432:	8b d6       	rcall	.+3350   	; 0x614a <itoa>
    5434:	be 01       	movw	r22, r28
    5436:	6f 5f       	subi	r22, 0xFF	; 255
    5438:	7f 4f       	sbci	r23, 0xFF	; 255
    543a:	c8 01       	movw	r24, r16
    543c:	cc df       	rcall	.-104    	; 0x53d6 <_ZN6StringaSEPKc>
    543e:	62 96       	adiw	r28, 0x12	; 18
    5440:	0f b6       	in	r0, 0x3f	; 63
    5442:	f8 94       	cli
    5444:	de bf       	out	0x3e, r29	; 62
    5446:	0f be       	out	0x3f, r0	; 63
    5448:	cd bf       	out	0x3d, r28	; 61
    544a:	df 91       	pop	r29
    544c:	cf 91       	pop	r28
    544e:	1f 91       	pop	r17
    5450:	0f 91       	pop	r16
    5452:	08 95       	ret

00005454 <_ZN6StringC1Elh>:
    5454:	0f 93       	push	r16
    5456:	1f 93       	push	r17
    5458:	cf 93       	push	r28
    545a:	df 93       	push	r29
    545c:	cd b7       	in	r28, 0x3d	; 61
    545e:	de b7       	in	r29, 0x3e	; 62
    5460:	a2 97       	sbiw	r28, 0x22	; 34
    5462:	0f b6       	in	r0, 0x3f	; 63
    5464:	f8 94       	cli
    5466:	de bf       	out	0x3e, r29	; 62
    5468:	0f be       	out	0x3f, r0	; 63
    546a:	cd bf       	out	0x3d, r28	; 61
    546c:	8c 01       	movw	r16, r24
    546e:	cb 01       	movw	r24, r22
    5470:	ba 01       	movw	r22, r20
    5472:	f8 01       	movw	r30, r16
    5474:	11 82       	std	Z+1, r1	; 0x01
    5476:	10 82       	st	Z, r1
    5478:	13 82       	std	Z+3, r1	; 0x03
    547a:	12 82       	std	Z+2, r1	; 0x02
    547c:	15 82       	std	Z+5, r1	; 0x05
    547e:	14 82       	std	Z+4, r1	; 0x04
    5480:	30 e0       	ldi	r19, 0x00	; 0
    5482:	ae 01       	movw	r20, r28
    5484:	4f 5f       	subi	r20, 0xFF	; 255
    5486:	5f 4f       	sbci	r21, 0xFF	; 255
    5488:	74 d6       	rcall	.+3304   	; 0x6172 <ltoa>
    548a:	be 01       	movw	r22, r28
    548c:	6f 5f       	subi	r22, 0xFF	; 255
    548e:	7f 4f       	sbci	r23, 0xFF	; 255
    5490:	c8 01       	movw	r24, r16
    5492:	a1 df       	rcall	.-190    	; 0x53d6 <_ZN6StringaSEPKc>
    5494:	a2 96       	adiw	r28, 0x22	; 34
    5496:	0f b6       	in	r0, 0x3f	; 63
    5498:	f8 94       	cli
    549a:	de bf       	out	0x3e, r29	; 62
    549c:	0f be       	out	0x3f, r0	; 63
    549e:	cd bf       	out	0x3d, r28	; 61
    54a0:	df 91       	pop	r29
    54a2:	cf 91       	pop	r28
    54a4:	1f 91       	pop	r17
    54a6:	0f 91       	pop	r16
    54a8:	08 95       	ret

000054aa <_ZN6StringC1Efh>:
    54aa:	ef 92       	push	r14
    54ac:	ff 92       	push	r15
    54ae:	0f 93       	push	r16
    54b0:	1f 93       	push	r17
    54b2:	cf 93       	push	r28
    54b4:	df 93       	push	r29
    54b6:	cd b7       	in	r28, 0x3d	; 61
    54b8:	de b7       	in	r29, 0x3e	; 62
    54ba:	a1 97       	sbiw	r28, 0x21	; 33
    54bc:	0f b6       	in	r0, 0x3f	; 63
    54be:	f8 94       	cli
    54c0:	de bf       	out	0x3e, r29	; 62
    54c2:	0f be       	out	0x3f, r0	; 63
    54c4:	cd bf       	out	0x3d, r28	; 61
    54c6:	7c 01       	movw	r14, r24
    54c8:	cb 01       	movw	r24, r22
    54ca:	ba 01       	movw	r22, r20
    54cc:	f7 01       	movw	r30, r14
    54ce:	11 82       	std	Z+1, r1	; 0x01
    54d0:	10 82       	st	Z, r1
    54d2:	13 82       	std	Z+3, r1	; 0x03
    54d4:	12 82       	std	Z+2, r1	; 0x02
    54d6:	15 82       	std	Z+5, r1	; 0x05
    54d8:	14 82       	std	Z+4, r1	; 0x04
    54da:	42 e0       	ldi	r20, 0x02	; 2
    54dc:	42 0f       	add	r20, r18
    54de:	8e 01       	movw	r16, r28
    54e0:	0f 5f       	subi	r16, 0xFF	; 255
    54e2:	1f 4f       	sbci	r17, 0xFF	; 255
    54e4:	59 d2       	rcall	.+1202   	; 0x5998 <dtostrf>
    54e6:	bc 01       	movw	r22, r24
    54e8:	c7 01       	movw	r24, r14
    54ea:	75 df       	rcall	.-278    	; 0x53d6 <_ZN6StringaSEPKc>
    54ec:	a1 96       	adiw	r28, 0x21	; 33
    54ee:	0f b6       	in	r0, 0x3f	; 63
    54f0:	f8 94       	cli
    54f2:	de bf       	out	0x3e, r29	; 62
    54f4:	0f be       	out	0x3f, r0	; 63
    54f6:	cd bf       	out	0x3d, r28	; 61
    54f8:	df 91       	pop	r29
    54fa:	cf 91       	pop	r28
    54fc:	1f 91       	pop	r17
    54fe:	0f 91       	pop	r16
    5500:	ff 90       	pop	r15
    5502:	ef 90       	pop	r14
    5504:	08 95       	ret

00005506 <_ZN6StringC1Edh>:
    5506:	ef 92       	push	r14
    5508:	ff 92       	push	r15
    550a:	0f 93       	push	r16
    550c:	1f 93       	push	r17
    550e:	cf 93       	push	r28
    5510:	df 93       	push	r29
    5512:	cd b7       	in	r28, 0x3d	; 61
    5514:	de b7       	in	r29, 0x3e	; 62
    5516:	a1 97       	sbiw	r28, 0x21	; 33
    5518:	0f b6       	in	r0, 0x3f	; 63
    551a:	f8 94       	cli
    551c:	de bf       	out	0x3e, r29	; 62
    551e:	0f be       	out	0x3f, r0	; 63
    5520:	cd bf       	out	0x3d, r28	; 61
    5522:	7c 01       	movw	r14, r24
    5524:	cb 01       	movw	r24, r22
    5526:	ba 01       	movw	r22, r20
    5528:	f7 01       	movw	r30, r14
    552a:	11 82       	std	Z+1, r1	; 0x01
    552c:	10 82       	st	Z, r1
    552e:	13 82       	std	Z+3, r1	; 0x03
    5530:	12 82       	std	Z+2, r1	; 0x02
    5532:	15 82       	std	Z+5, r1	; 0x05
    5534:	14 82       	std	Z+4, r1	; 0x04
    5536:	42 e0       	ldi	r20, 0x02	; 2
    5538:	42 0f       	add	r20, r18
    553a:	8e 01       	movw	r16, r28
    553c:	0f 5f       	subi	r16, 0xFF	; 255
    553e:	1f 4f       	sbci	r17, 0xFF	; 255
    5540:	2b d2       	rcall	.+1110   	; 0x5998 <dtostrf>
    5542:	bc 01       	movw	r22, r24
    5544:	c7 01       	movw	r24, r14
    5546:	47 df       	rcall	.-370    	; 0x53d6 <_ZN6StringaSEPKc>
    5548:	a1 96       	adiw	r28, 0x21	; 33
    554a:	0f b6       	in	r0, 0x3f	; 63
    554c:	f8 94       	cli
    554e:	de bf       	out	0x3e, r29	; 62
    5550:	0f be       	out	0x3f, r0	; 63
    5552:	cd bf       	out	0x3d, r28	; 61
    5554:	df 91       	pop	r29
    5556:	cf 91       	pop	r28
    5558:	1f 91       	pop	r17
    555a:	0f 91       	pop	r16
    555c:	ff 90       	pop	r15
    555e:	ef 90       	pop	r14
    5560:	08 95       	ret

00005562 <_ZN6String6concatEPKcj>:
    5562:	ef 92       	push	r14
    5564:	ff 92       	push	r15
    5566:	0f 93       	push	r16
    5568:	1f 93       	push	r17
    556a:	cf 93       	push	r28
    556c:	df 93       	push	r29
    556e:	fc 01       	movw	r30, r24
    5570:	24 81       	ldd	r18, Z+4	; 0x04
    5572:	35 81       	ldd	r19, Z+5	; 0x05
    5574:	61 15       	cp	r22, r1
    5576:	71 05       	cpc	r23, r1
    5578:	11 f4       	brne	.+4      	; 0x557e <_ZN6String6concatEPKcj+0x1c>
    557a:	80 e0       	ldi	r24, 0x00	; 0
    557c:	17 c0       	rjmp	.+46     	; 0x55ac <_ZN6String6concatEPKcj+0x4a>
    557e:	41 15       	cp	r20, r1
    5580:	51 05       	cpc	r21, r1
    5582:	99 f0       	breq	.+38     	; 0x55aa <_ZN6String6concatEPKcj+0x48>
    5584:	7b 01       	movw	r14, r22
    5586:	ec 01       	movw	r28, r24
    5588:	8a 01       	movw	r16, r20
    558a:	02 0f       	add	r16, r18
    558c:	13 1f       	adc	r17, r19
    558e:	b8 01       	movw	r22, r16
    5590:	b8 de       	rcall	.-656    	; 0x5302 <_ZN6String7reserveEj>
    5592:	88 23       	and	r24, r24
    5594:	91 f3       	breq	.-28     	; 0x557a <_ZN6String6concatEPKcj+0x18>
    5596:	28 81       	ld	r18, Y
    5598:	39 81       	ldd	r19, Y+1	; 0x01
    559a:	8c 81       	ldd	r24, Y+4	; 0x04
    559c:	9d 81       	ldd	r25, Y+5	; 0x05
    559e:	b7 01       	movw	r22, r14
    55a0:	82 0f       	add	r24, r18
    55a2:	93 1f       	adc	r25, r19
    55a4:	bd d5       	rcall	.+2938   	; 0x6120 <strcpy>
    55a6:	1d 83       	std	Y+5, r17	; 0x05
    55a8:	0c 83       	std	Y+4, r16	; 0x04
    55aa:	81 e0       	ldi	r24, 0x01	; 1
    55ac:	df 91       	pop	r29
    55ae:	cf 91       	pop	r28
    55b0:	1f 91       	pop	r17
    55b2:	0f 91       	pop	r16
    55b4:	ff 90       	pop	r15
    55b6:	ef 90       	pop	r14
    55b8:	08 95       	ret

000055ba <_ZN6String6concatEPKc>:
    55ba:	61 15       	cp	r22, r1
    55bc:	71 05       	cpc	r23, r1
    55be:	49 f0       	breq	.+18     	; 0x55d2 <_ZN6String6concatEPKc+0x18>
    55c0:	fb 01       	movw	r30, r22
    55c2:	01 90       	ld	r0, Z+
    55c4:	00 20       	and	r0, r0
    55c6:	e9 f7       	brne	.-6      	; 0x55c2 <_ZN6String6concatEPKc+0x8>
    55c8:	31 97       	sbiw	r30, 0x01	; 1
    55ca:	af 01       	movw	r20, r30
    55cc:	46 1b       	sub	r20, r22
    55ce:	57 0b       	sbc	r21, r23
    55d0:	c8 cf       	rjmp	.-112    	; 0x5562 <_ZN6String6concatEPKcj>
    55d2:	80 e0       	ldi	r24, 0x00	; 0
    55d4:	08 95       	ret

000055d6 <_ZN6String6concatEc>:
    55d6:	cf 93       	push	r28
    55d8:	df 93       	push	r29
    55da:	00 d0       	rcall	.+0      	; 0x55dc <_ZN6String6concatEc+0x6>
    55dc:	cd b7       	in	r28, 0x3d	; 61
    55de:	de b7       	in	r29, 0x3e	; 62
    55e0:	69 83       	std	Y+1, r22	; 0x01
    55e2:	1a 82       	std	Y+2, r1	; 0x02
    55e4:	41 e0       	ldi	r20, 0x01	; 1
    55e6:	50 e0       	ldi	r21, 0x00	; 0
    55e8:	be 01       	movw	r22, r28
    55ea:	6f 5f       	subi	r22, 0xFF	; 255
    55ec:	7f 4f       	sbci	r23, 0xFF	; 255
    55ee:	b9 df       	rcall	.-142    	; 0x5562 <_ZN6String6concatEPKcj>
    55f0:	0f 90       	pop	r0
    55f2:	0f 90       	pop	r0
    55f4:	df 91       	pop	r29
    55f6:	cf 91       	pop	r28
    55f8:	08 95       	ret

000055fa <_ZplRK15StringSumHelperRK6String>:
    55fa:	cf 93       	push	r28
    55fc:	df 93       	push	r29
    55fe:	ec 01       	movw	r28, r24
    5600:	fb 01       	movw	r30, r22
    5602:	44 81       	ldd	r20, Z+4	; 0x04
    5604:	55 81       	ldd	r21, Z+5	; 0x05
    5606:	60 81       	ld	r22, Z
    5608:	71 81       	ldd	r23, Z+1	; 0x01
    560a:	ab df       	rcall	.-170    	; 0x5562 <_ZN6String6concatEPKcj>
    560c:	81 11       	cpse	r24, r1
    560e:	02 c0       	rjmp	.+4      	; 0x5614 <_ZplRK15StringSumHelperRK6String+0x1a>
    5610:	ce 01       	movw	r24, r28
    5612:	4d de       	rcall	.-870    	; 0x52ae <_ZN6String10invalidateEv>
    5614:	ce 01       	movw	r24, r28
    5616:	df 91       	pop	r29
    5618:	cf 91       	pop	r28
    561a:	08 95       	ret

0000561c <_ZplRK15StringSumHelperPKc>:
    561c:	cf 93       	push	r28
    561e:	df 93       	push	r29
    5620:	ec 01       	movw	r28, r24
    5622:	61 15       	cp	r22, r1
    5624:	71 05       	cpc	r23, r1
    5626:	59 f0       	breq	.+22     	; 0x563e <_ZplRK15StringSumHelperPKc+0x22>
    5628:	fb 01       	movw	r30, r22
    562a:	01 90       	ld	r0, Z+
    562c:	00 20       	and	r0, r0
    562e:	e9 f7       	brne	.-6      	; 0x562a <_ZplRK15StringSumHelperPKc+0xe>
    5630:	31 97       	sbiw	r30, 0x01	; 1
    5632:	af 01       	movw	r20, r30
    5634:	46 1b       	sub	r20, r22
    5636:	57 0b       	sbc	r21, r23
    5638:	94 df       	rcall	.-216    	; 0x5562 <_ZN6String6concatEPKcj>
    563a:	81 11       	cpse	r24, r1
    563c:	02 c0       	rjmp	.+4      	; 0x5642 <_ZplRK15StringSumHelperPKc+0x26>
    563e:	ce 01       	movw	r24, r28
    5640:	36 de       	rcall	.-916    	; 0x52ae <_ZN6String10invalidateEv>
    5642:	ce 01       	movw	r24, r28
    5644:	df 91       	pop	r29
    5646:	cf 91       	pop	r28
    5648:	08 95       	ret

0000564a <_ZNK6String6equalsEPKc>:
    564a:	fc 01       	movw	r30, r24
    564c:	24 81       	ldd	r18, Z+4	; 0x04
    564e:	35 81       	ldd	r19, Z+5	; 0x05
    5650:	23 2b       	or	r18, r19
    5652:	31 f4       	brne	.+12     	; 0x5660 <_ZNK6String6equalsEPKc+0x16>
    5654:	21 e0       	ldi	r18, 0x01	; 1
    5656:	61 15       	cp	r22, r1
    5658:	71 05       	cpc	r23, r1
    565a:	99 f0       	breq	.+38     	; 0x5682 <_ZNK6String6equalsEPKc+0x38>
    565c:	fb 01       	movw	r30, r22
    565e:	08 c0       	rjmp	.+16     	; 0x5670 <_ZNK6String6equalsEPKc+0x26>
    5660:	fc 01       	movw	r30, r24
    5662:	80 81       	ld	r24, Z
    5664:	91 81       	ldd	r25, Z+1	; 0x01
    5666:	61 15       	cp	r22, r1
    5668:	71 05       	cpc	r23, r1
    566a:	31 f4       	brne	.+12     	; 0x5678 <_ZNK6String6equalsEPKc+0x2e>
    566c:	21 e0       	ldi	r18, 0x01	; 1
    566e:	fc 01       	movw	r30, r24
    5670:	80 81       	ld	r24, Z
    5672:	88 23       	and	r24, r24
    5674:	31 f0       	breq	.+12     	; 0x5682 <_ZNK6String6equalsEPKc+0x38>
    5676:	04 c0       	rjmp	.+8      	; 0x5680 <_ZNK6String6equalsEPKc+0x36>
    5678:	4a d5       	rcall	.+2708   	; 0x610e <strcmp>
    567a:	21 e0       	ldi	r18, 0x01	; 1
    567c:	89 2b       	or	r24, r25
    567e:	09 f0       	breq	.+2      	; 0x5682 <_ZNK6String6equalsEPKc+0x38>
    5680:	20 e0       	ldi	r18, 0x00	; 0
    5682:	82 2f       	mov	r24, r18
    5684:	08 95       	ret

00005686 <_ZNK6String10startsWithERKS_j>:
    5686:	db 01       	movw	r26, r22
    5688:	14 96       	adiw	r26, 0x04	; 4
    568a:	ed 91       	ld	r30, X+
    568c:	fc 91       	ld	r31, X
    568e:	15 97       	sbiw	r26, 0x05	; 5
    5690:	dc 01       	movw	r26, r24
    5692:	14 96       	adiw	r26, 0x04	; 4
    5694:	2d 91       	ld	r18, X+
    5696:	3c 91       	ld	r19, X
    5698:	15 97       	sbiw	r26, 0x05	; 5
    569a:	2e 1b       	sub	r18, r30
    569c:	3f 0b       	sbc	r19, r31
    569e:	24 17       	cp	r18, r20
    56a0:	35 07       	cpc	r19, r21
    56a2:	98 f0       	brcs	.+38     	; 0x56ca <_ZNK6String10startsWithERKS_j+0x44>
    56a4:	2d 91       	ld	r18, X+
    56a6:	3c 91       	ld	r19, X
    56a8:	21 15       	cp	r18, r1
    56aa:	31 05       	cpc	r19, r1
    56ac:	71 f0       	breq	.+28     	; 0x56ca <_ZNK6String10startsWithERKS_j+0x44>
    56ae:	db 01       	movw	r26, r22
    56b0:	6d 91       	ld	r22, X+
    56b2:	7c 91       	ld	r23, X
    56b4:	61 15       	cp	r22, r1
    56b6:	71 05       	cpc	r23, r1
    56b8:	41 f0       	breq	.+16     	; 0x56ca <_ZNK6String10startsWithERKS_j+0x44>
    56ba:	ca 01       	movw	r24, r20
    56bc:	af 01       	movw	r20, r30
    56be:	82 0f       	add	r24, r18
    56c0:	93 1f       	adc	r25, r19
    56c2:	35 d5       	rcall	.+2666   	; 0x612e <strncmp>
    56c4:	21 e0       	ldi	r18, 0x01	; 1
    56c6:	89 2b       	or	r24, r25
    56c8:	09 f0       	breq	.+2      	; 0x56cc <_ZNK6String10startsWithERKS_j+0x46>
    56ca:	20 e0       	ldi	r18, 0x00	; 0
    56cc:	82 2f       	mov	r24, r18
    56ce:	08 95       	ret

000056d0 <_ZNK6String10startsWithERKS_>:
    56d0:	fc 01       	movw	r30, r24
    56d2:	44 81       	ldd	r20, Z+4	; 0x04
    56d4:	55 81       	ldd	r21, Z+5	; 0x05
    56d6:	fb 01       	movw	r30, r22
    56d8:	24 81       	ldd	r18, Z+4	; 0x04
    56da:	35 81       	ldd	r19, Z+5	; 0x05
    56dc:	42 17       	cp	r20, r18
    56de:	53 07       	cpc	r21, r19
    56e0:	18 f0       	brcs	.+6      	; 0x56e8 <_ZNK6String10startsWithERKS_+0x18>
    56e2:	40 e0       	ldi	r20, 0x00	; 0
    56e4:	50 e0       	ldi	r21, 0x00	; 0
    56e6:	cf cf       	rjmp	.-98     	; 0x5686 <_ZNK6String10startsWithERKS_j>
    56e8:	80 e0       	ldi	r24, 0x00	; 0
    56ea:	08 95       	ret

000056ec <_ZNK6StringixEj>:
    56ec:	fc 01       	movw	r30, r24
    56ee:	24 81       	ldd	r18, Z+4	; 0x04
    56f0:	35 81       	ldd	r19, Z+5	; 0x05
    56f2:	62 17       	cp	r22, r18
    56f4:	73 07       	cpc	r23, r19
    56f6:	48 f4       	brcc	.+18     	; 0x570a <_ZNK6StringixEj+0x1e>
    56f8:	80 81       	ld	r24, Z
    56fa:	91 81       	ldd	r25, Z+1	; 0x01
    56fc:	00 97       	sbiw	r24, 0x00	; 0
    56fe:	29 f0       	breq	.+10     	; 0x570a <_ZNK6StringixEj+0x1e>
    5700:	fc 01       	movw	r30, r24
    5702:	e6 0f       	add	r30, r22
    5704:	f7 1f       	adc	r31, r23
    5706:	80 81       	ld	r24, Z
    5708:	08 95       	ret
    570a:	80 e0       	ldi	r24, 0x00	; 0
    570c:	08 95       	ret

0000570e <_ZNK6String6charAtEj>:
    570e:	ee cf       	rjmp	.-36     	; 0x56ec <_ZNK6StringixEj>

00005710 <_ZNK6String9substringEjj>:
    5710:	bf 92       	push	r11
    5712:	cf 92       	push	r12
    5714:	df 92       	push	r13
    5716:	ef 92       	push	r14
    5718:	ff 92       	push	r15
    571a:	0f 93       	push	r16
    571c:	1f 93       	push	r17
    571e:	cf 93       	push	r28
    5720:	df 93       	push	r29
    5722:	7c 01       	movw	r14, r24
    5724:	6b 01       	movw	r12, r22
    5726:	8a 01       	movw	r16, r20
    5728:	e9 01       	movw	r28, r18
    572a:	24 17       	cp	r18, r20
    572c:	35 07       	cpc	r19, r21
    572e:	20 f4       	brcc	.+8      	; 0x5738 <_ZNK6String9substringEjj+0x28>
    5730:	81 2f       	mov	r24, r17
    5732:	89 01       	movw	r16, r18
    5734:	c4 2f       	mov	r28, r20
    5736:	d8 2f       	mov	r29, r24
    5738:	61 ec       	ldi	r22, 0xC1	; 193
    573a:	71 e0       	ldi	r23, 0x01	; 1
    573c:	c7 01       	movw	r24, r14
    573e:	1a de       	rcall	.-972    	; 0x5374 <_ZN6StringC1EPKc>
    5740:	d6 01       	movw	r26, r12
    5742:	14 96       	adiw	r26, 0x04	; 4
    5744:	8d 91       	ld	r24, X+
    5746:	9c 91       	ld	r25, X
    5748:	15 97       	sbiw	r26, 0x05	; 5
    574a:	08 17       	cp	r16, r24
    574c:	19 07       	cpc	r17, r25
    574e:	c8 f4       	brcc	.+50     	; 0x5782 <_ZNK6String9substringEjj+0x72>
    5750:	8c 17       	cp	r24, r28
    5752:	9d 07       	cpc	r25, r29
    5754:	08 f4       	brcc	.+2      	; 0x5758 <_ZNK6String9substringEjj+0x48>
    5756:	ec 01       	movw	r28, r24
    5758:	d6 01       	movw	r26, r12
    575a:	ed 91       	ld	r30, X+
    575c:	fc 91       	ld	r31, X
    575e:	11 97       	sbiw	r26, 0x01	; 1
    5760:	ec 0f       	add	r30, r28
    5762:	fd 1f       	adc	r31, r29
    5764:	b0 80       	ld	r11, Z
    5766:	10 82       	st	Z, r1
    5768:	4d 91       	ld	r20, X+
    576a:	5c 91       	ld	r21, X
    576c:	ba 01       	movw	r22, r20
    576e:	60 0f       	add	r22, r16
    5770:	71 1f       	adc	r23, r17
    5772:	c7 01       	movw	r24, r14
    5774:	30 de       	rcall	.-928    	; 0x53d6 <_ZN6StringaSEPKc>
    5776:	d6 01       	movw	r26, r12
    5778:	ed 91       	ld	r30, X+
    577a:	fc 91       	ld	r31, X
    577c:	ec 0f       	add	r30, r28
    577e:	fd 1f       	adc	r31, r29
    5780:	b0 82       	st	Z, r11
    5782:	c7 01       	movw	r24, r14
    5784:	df 91       	pop	r29
    5786:	cf 91       	pop	r28
    5788:	1f 91       	pop	r17
    578a:	0f 91       	pop	r16
    578c:	ff 90       	pop	r15
    578e:	ef 90       	pop	r14
    5790:	df 90       	pop	r13
    5792:	cf 90       	pop	r12
    5794:	bf 90       	pop	r11
    5796:	08 95       	ret

00005798 <_ZN6String4trimEv>:

void String::trim(void)
{
    5798:	af 92       	push	r10
    579a:	bf 92       	push	r11
    579c:	cf 92       	push	r12
    579e:	df 92       	push	r13
    57a0:	ef 92       	push	r14
    57a2:	ff 92       	push	r15
    57a4:	0f 93       	push	r16
    57a6:	1f 93       	push	r17
    57a8:	cf 93       	push	r28
    57aa:	df 93       	push	r29
	if (!buffer || len == 0) return;
    57ac:	dc 01       	movw	r26, r24
    57ae:	cd 90       	ld	r12, X+
    57b0:	dc 90       	ld	r13, X
    57b2:	11 97       	sbiw	r26, 0x01	; 1
    57b4:	c1 14       	cp	r12, r1
    57b6:	d1 04       	cpc	r13, r1
    57b8:	d9 f1       	breq	.+118    	; 0x5830 <_ZN6String4trimEv+0x98>
    57ba:	14 96       	adiw	r26, 0x04	; 4
    57bc:	cd 91       	ld	r28, X+
    57be:	dc 91       	ld	r29, X
    57c0:	15 97       	sbiw	r26, 0x05	; 5
    57c2:	20 97       	sbiw	r28, 0x00	; 0
    57c4:	a9 f1       	breq	.+106    	; 0x5830 <_ZN6String4trimEv+0x98>
    57c6:	8c 01       	movw	r16, r24
    57c8:	56 01       	movw	r10, r12
    57ca:	75 01       	movw	r14, r10
    57cc:	bf ef       	ldi	r27, 0xFF	; 255
    57ce:	ab 1a       	sub	r10, r27
    57d0:	bb 0a       	sbc	r11, r27
	char *begin = buffer;
	while (isspace(*begin)) begin++;
    57d2:	f7 01       	movw	r30, r14
    57d4:	80 81       	ld	r24, Z
    57d6:	90 e0       	ldi	r25, 0x00	; 0
    57d8:	71 d4       	rcall	.+2274   	; 0x60bc <isspace>
    57da:	89 2b       	or	r24, r25
    57dc:	b1 f7       	brne	.-20     	; 0x57ca <_ZN6String4trimEv+0x32>
	char *end = buffer + len - 1;
    57de:	21 97       	sbiw	r28, 0x01	; 1
    57e0:	cc 0d       	add	r28, r12
    57e2:	dd 1d       	adc	r29, r13
	while (isspace(*end) && end >= begin) end--;
    57e4:	88 81       	ld	r24, Y
    57e6:	90 e0       	ldi	r25, 0x00	; 0
    57e8:	69 d4       	rcall	.+2258   	; 0x60bc <isspace>
    57ea:	89 2b       	or	r24, r25
    57ec:	89 f4       	brne	.+34     	; 0x5810 <_ZN6String4trimEv+0x78>
	len = end + 1 - begin;
    57ee:	ae 01       	movw	r20, r28
    57f0:	4f 5f       	subi	r20, 0xFF	; 255
    57f2:	5f 4f       	sbci	r21, 0xFF	; 255
    57f4:	4e 19       	sub	r20, r14
    57f6:	5f 09       	sbc	r21, r15
    57f8:	d8 01       	movw	r26, r16
    57fa:	15 96       	adiw	r26, 0x05	; 5
    57fc:	5c 93       	st	X, r21
    57fe:	4e 93       	st	-X, r20
    5800:	14 97       	sbiw	r26, 0x04	; 4
	if (begin > buffer) memcpy(buffer, begin, len);
    5802:	ce 14       	cp	r12, r14
    5804:	df 04       	cpc	r13, r15
    5806:	48 f4       	brcc	.+18     	; 0x581a <_ZN6String4trimEv+0x82>
    5808:	b7 01       	movw	r22, r14
    580a:	c6 01       	movw	r24, r12
    580c:	77 d4       	rcall	.+2286   	; 0x60fc <memcpy>
    580e:	05 c0       	rjmp	.+10     	; 0x581a <_ZN6String4trimEv+0x82>
{
	if (!buffer || len == 0) return;
	char *begin = buffer;
	while (isspace(*begin)) begin++;
	char *end = buffer + len - 1;
	while (isspace(*end) && end >= begin) end--;
    5810:	ce 15       	cp	r28, r14
    5812:	df 05       	cpc	r29, r15
    5814:	60 f3       	brcs	.-40     	; 0x57ee <_ZN6String4trimEv+0x56>
    5816:	21 97       	sbiw	r28, 0x01	; 1
    5818:	e5 cf       	rjmp	.-54     	; 0x57e4 <_ZN6String4trimEv+0x4c>
	len = end + 1 - begin;
	if (begin > buffer) memcpy(buffer, begin, len);
	buffer[len] = 0;
    581a:	d8 01       	movw	r26, r16
    581c:	ed 91       	ld	r30, X+
    581e:	fc 91       	ld	r31, X
    5820:	11 97       	sbiw	r26, 0x01	; 1
    5822:	14 96       	adiw	r26, 0x04	; 4
    5824:	8d 91       	ld	r24, X+
    5826:	9c 91       	ld	r25, X
    5828:	15 97       	sbiw	r26, 0x05	; 5
    582a:	e8 0f       	add	r30, r24
    582c:	f9 1f       	adc	r31, r25
    582e:	10 82       	st	Z, r1
}
    5830:	df 91       	pop	r29
    5832:	cf 91       	pop	r28
    5834:	1f 91       	pop	r17
    5836:	0f 91       	pop	r16
    5838:	ff 90       	pop	r15
    583a:	ef 90       	pop	r14
    583c:	df 90       	pop	r13
    583e:	cf 90       	pop	r12
    5840:	bf 90       	pop	r11
    5842:	af 90       	pop	r10
    5844:	08 95       	ret

00005846 <_ZNK6String5toIntEv>:
/*  Parsing / Conversion                     */
/*********************************************/

long String::toInt(void) const
{
	if (buffer) return atol(buffer);
    5846:	fc 01       	movw	r30, r24
    5848:	80 81       	ld	r24, Z
    584a:	91 81       	ldd	r25, Z+1	; 0x01
    584c:	00 97       	sbiw	r24, 0x00	; 0
    584e:	09 f0       	breq	.+2      	; 0x5852 <_ZNK6String5toIntEv+0xc>
    5850:	0f c4       	rjmp	.+2078   	; 0x6070 <atol>
	return 0;
}
    5852:	60 e0       	ldi	r22, 0x00	; 0
    5854:	70 e0       	ldi	r23, 0x00	; 0
    5856:	cb 01       	movw	r24, r22
    5858:	08 95       	ret

0000585a <_ZNK6String7toFloatEv>:

float String::toFloat(void) const
{
	if (buffer) return float(atof(buffer));
    585a:	fc 01       	movw	r30, r24
    585c:	80 81       	ld	r24, Z
    585e:	91 81       	ldd	r25, Z+1	; 0x01
    5860:	00 97       	sbiw	r24, 0x00	; 0
    5862:	09 f0       	breq	.+2      	; 0x5866 <_ZNK6String7toFloatEv+0xc>
    5864:	02 c4       	rjmp	.+2052   	; 0x606a <atof>
	return 0;
}
    5866:	60 e0       	ldi	r22, 0x00	; 0
    5868:	70 e0       	ldi	r23, 0x00	; 0
    586a:	cb 01       	movw	r24, r22
    586c:	08 95       	ret

0000586e <yield>:
 * libraries or sketches that supports cooperative threads.
 *
 * Its defined as a weak symbol and it can be redefined to implement a
 * real cooperative scheduler.
 */
static void __empty() {
    586e:	08 95       	ret

00005870 <__udivmodsi4>:
    5870:	a1 e2       	ldi	r26, 0x21	; 33
    5872:	1a 2e       	mov	r1, r26
    5874:	aa 1b       	sub	r26, r26
    5876:	bb 1b       	sub	r27, r27
    5878:	fd 01       	movw	r30, r26
    587a:	0d c0       	rjmp	.+26     	; 0x5896 <__udivmodsi4_ep>

0000587c <__udivmodsi4_loop>:
    587c:	aa 1f       	adc	r26, r26
    587e:	bb 1f       	adc	r27, r27
    5880:	ee 1f       	adc	r30, r30
    5882:	ff 1f       	adc	r31, r31
    5884:	a2 17       	cp	r26, r18
    5886:	b3 07       	cpc	r27, r19
    5888:	e4 07       	cpc	r30, r20
    588a:	f5 07       	cpc	r31, r21
    588c:	20 f0       	brcs	.+8      	; 0x5896 <__udivmodsi4_ep>
    588e:	a2 1b       	sub	r26, r18
    5890:	b3 0b       	sbc	r27, r19
    5892:	e4 0b       	sbc	r30, r20
    5894:	f5 0b       	sbc	r31, r21

00005896 <__udivmodsi4_ep>:
    5896:	66 1f       	adc	r22, r22
    5898:	77 1f       	adc	r23, r23
    589a:	88 1f       	adc	r24, r24
    589c:	99 1f       	adc	r25, r25
    589e:	1a 94       	dec	r1
    58a0:	69 f7       	brne	.-38     	; 0x587c <__udivmodsi4_loop>
    58a2:	60 95       	com	r22
    58a4:	70 95       	com	r23
    58a6:	80 95       	com	r24
    58a8:	90 95       	com	r25
    58aa:	9b 01       	movw	r18, r22
    58ac:	ac 01       	movw	r20, r24
    58ae:	bd 01       	movw	r22, r26
    58b0:	cf 01       	movw	r24, r30
    58b2:	08 95       	ret

000058b4 <__divmodsi4>:
    58b4:	05 2e       	mov	r0, r21
    58b6:	97 fb       	bst	r25, 7
    58b8:	16 f4       	brtc	.+4      	; 0x58be <__divmodsi4+0xa>
    58ba:	00 94       	com	r0
    58bc:	0f d0       	rcall	.+30     	; 0x58dc <__negsi2>
    58be:	57 fd       	sbrc	r21, 7
    58c0:	05 d0       	rcall	.+10     	; 0x58cc <__divmodsi4_neg2>
    58c2:	d6 df       	rcall	.-84     	; 0x5870 <__udivmodsi4>
    58c4:	07 fc       	sbrc	r0, 7
    58c6:	02 d0       	rcall	.+4      	; 0x58cc <__divmodsi4_neg2>
    58c8:	46 f4       	brtc	.+16     	; 0x58da <__divmodsi4_exit>
    58ca:	08 c0       	rjmp	.+16     	; 0x58dc <__negsi2>

000058cc <__divmodsi4_neg2>:
    58cc:	50 95       	com	r21
    58ce:	40 95       	com	r20
    58d0:	30 95       	com	r19
    58d2:	21 95       	neg	r18
    58d4:	3f 4f       	sbci	r19, 0xFF	; 255
    58d6:	4f 4f       	sbci	r20, 0xFF	; 255
    58d8:	5f 4f       	sbci	r21, 0xFF	; 255

000058da <__divmodsi4_exit>:
    58da:	08 95       	ret

000058dc <__negsi2>:
    58dc:	90 95       	com	r25
    58de:	80 95       	com	r24
    58e0:	70 95       	com	r23
    58e2:	61 95       	neg	r22
    58e4:	7f 4f       	sbci	r23, 0xFF	; 255
    58e6:	8f 4f       	sbci	r24, 0xFF	; 255
    58e8:	9f 4f       	sbci	r25, 0xFF	; 255
    58ea:	08 95       	ret

000058ec <__tablejump2__>:
    58ec:	ee 0f       	add	r30, r30
    58ee:	ff 1f       	adc	r31, r31
    58f0:	05 90       	lpm	r0, Z+
    58f2:	f4 91       	lpm	r31, Z
    58f4:	e0 2d       	mov	r30, r0
    58f6:	09 94       	ijmp

000058f8 <__muluhisi3>:
    58f8:	40 d0       	rcall	.+128    	; 0x597a <__umulhisi3>
    58fa:	a5 9f       	mul	r26, r21
    58fc:	90 0d       	add	r25, r0
    58fe:	b4 9f       	mul	r27, r20
    5900:	90 0d       	add	r25, r0
    5902:	a4 9f       	mul	r26, r20
    5904:	80 0d       	add	r24, r0
    5906:	91 1d       	adc	r25, r1
    5908:	11 24       	eor	r1, r1
    590a:	08 95       	ret

0000590c <__prologue_saves__>:
    590c:	2f 92       	push	r2
    590e:	3f 92       	push	r3
    5910:	4f 92       	push	r4
    5912:	5f 92       	push	r5
    5914:	6f 92       	push	r6
    5916:	7f 92       	push	r7
    5918:	8f 92       	push	r8
    591a:	9f 92       	push	r9
    591c:	af 92       	push	r10
    591e:	bf 92       	push	r11
    5920:	cf 92       	push	r12
    5922:	df 92       	push	r13
    5924:	ef 92       	push	r14
    5926:	ff 92       	push	r15
    5928:	0f 93       	push	r16
    592a:	1f 93       	push	r17
    592c:	cf 93       	push	r28
    592e:	df 93       	push	r29
    5930:	cd b7       	in	r28, 0x3d	; 61
    5932:	de b7       	in	r29, 0x3e	; 62
    5934:	ca 1b       	sub	r28, r26
    5936:	db 0b       	sbc	r29, r27
    5938:	0f b6       	in	r0, 0x3f	; 63
    593a:	f8 94       	cli
    593c:	de bf       	out	0x3e, r29	; 62
    593e:	0f be       	out	0x3f, r0	; 63
    5940:	cd bf       	out	0x3d, r28	; 61
    5942:	09 94       	ijmp

00005944 <__epilogue_restores__>:
    5944:	2a 88       	ldd	r2, Y+18	; 0x12
    5946:	39 88       	ldd	r3, Y+17	; 0x11
    5948:	48 88       	ldd	r4, Y+16	; 0x10
    594a:	5f 84       	ldd	r5, Y+15	; 0x0f
    594c:	6e 84       	ldd	r6, Y+14	; 0x0e
    594e:	7d 84       	ldd	r7, Y+13	; 0x0d
    5950:	8c 84       	ldd	r8, Y+12	; 0x0c
    5952:	9b 84       	ldd	r9, Y+11	; 0x0b
    5954:	aa 84       	ldd	r10, Y+10	; 0x0a
    5956:	b9 84       	ldd	r11, Y+9	; 0x09
    5958:	c8 84       	ldd	r12, Y+8	; 0x08
    595a:	df 80       	ldd	r13, Y+7	; 0x07
    595c:	ee 80       	ldd	r14, Y+6	; 0x06
    595e:	fd 80       	ldd	r15, Y+5	; 0x05
    5960:	0c 81       	ldd	r16, Y+4	; 0x04
    5962:	1b 81       	ldd	r17, Y+3	; 0x03
    5964:	aa 81       	ldd	r26, Y+2	; 0x02
    5966:	b9 81       	ldd	r27, Y+1	; 0x01
    5968:	ce 0f       	add	r28, r30
    596a:	d1 1d       	adc	r29, r1
    596c:	0f b6       	in	r0, 0x3f	; 63
    596e:	f8 94       	cli
    5970:	de bf       	out	0x3e, r29	; 62
    5972:	0f be       	out	0x3f, r0	; 63
    5974:	cd bf       	out	0x3d, r28	; 61
    5976:	ed 01       	movw	r28, r26
    5978:	08 95       	ret

0000597a <__umulhisi3>:
    597a:	a2 9f       	mul	r26, r18
    597c:	b0 01       	movw	r22, r0
    597e:	b3 9f       	mul	r27, r19
    5980:	c0 01       	movw	r24, r0
    5982:	a3 9f       	mul	r26, r19
    5984:	70 0d       	add	r23, r0
    5986:	81 1d       	adc	r24, r1
    5988:	11 24       	eor	r1, r1
    598a:	91 1d       	adc	r25, r1
    598c:	b2 9f       	mul	r27, r18
    598e:	70 0d       	add	r23, r0
    5990:	81 1d       	adc	r24, r1
    5992:	11 24       	eor	r1, r1
    5994:	91 1d       	adc	r25, r1
    5996:	08 95       	ret

00005998 <dtostrf>:
    5998:	ef 92       	push	r14
    599a:	0f 93       	push	r16
    599c:	1f 93       	push	r17
    599e:	cf 93       	push	r28
    59a0:	df 93       	push	r29
    59a2:	e8 01       	movw	r28, r16
    59a4:	47 fd       	sbrc	r20, 7
    59a6:	02 c0       	rjmp	.+4      	; 0x59ac <dtostrf+0x14>
    59a8:	34 e0       	ldi	r19, 0x04	; 4
    59aa:	01 c0       	rjmp	.+2      	; 0x59ae <dtostrf+0x16>
    59ac:	34 e1       	ldi	r19, 0x14	; 20
    59ae:	e4 2f       	mov	r30, r20
    59b0:	44 0f       	add	r20, r20
    59b2:	ff 0b       	sbc	r31, r31
    59b4:	f7 ff       	sbrs	r31, 7
    59b6:	03 c0       	rjmp	.+6      	; 0x59be <dtostrf+0x26>
    59b8:	f1 95       	neg	r31
    59ba:	e1 95       	neg	r30
    59bc:	f1 09       	sbc	r31, r1
    59be:	e3 2e       	mov	r14, r19
    59c0:	02 2f       	mov	r16, r18
    59c2:	2e 2f       	mov	r18, r30
    59c4:	ae 01       	movw	r20, r28
    59c6:	3c d4       	rcall	.+2168   	; 0x6240 <dtoa_prf>
    59c8:	ce 01       	movw	r24, r28
    59ca:	df 91       	pop	r29
    59cc:	cf 91       	pop	r28
    59ce:	1f 91       	pop	r17
    59d0:	0f 91       	pop	r16
    59d2:	ef 90       	pop	r14
    59d4:	08 95       	ret

000059d6 <malloc>:
    59d6:	cf 93       	push	r28
    59d8:	df 93       	push	r29
    59da:	82 30       	cpi	r24, 0x02	; 2
    59dc:	91 05       	cpc	r25, r1
    59de:	10 f4       	brcc	.+4      	; 0x59e4 <malloc+0xe>
    59e0:	82 e0       	ldi	r24, 0x02	; 2
    59e2:	90 e0       	ldi	r25, 0x00	; 0
    59e4:	e0 91 bd 05 	lds	r30, 0x05BD	; 0x8005bd <__flp>
    59e8:	f0 91 be 05 	lds	r31, 0x05BE	; 0x8005be <__flp+0x1>
    59ec:	20 e0       	ldi	r18, 0x00	; 0
    59ee:	30 e0       	ldi	r19, 0x00	; 0
    59f0:	c0 e0       	ldi	r28, 0x00	; 0
    59f2:	d0 e0       	ldi	r29, 0x00	; 0
    59f4:	30 97       	sbiw	r30, 0x00	; 0
    59f6:	11 f1       	breq	.+68     	; 0x5a3c <malloc+0x66>
    59f8:	40 81       	ld	r20, Z
    59fa:	51 81       	ldd	r21, Z+1	; 0x01
    59fc:	48 17       	cp	r20, r24
    59fe:	59 07       	cpc	r21, r25
    5a00:	c0 f0       	brcs	.+48     	; 0x5a32 <malloc+0x5c>
    5a02:	48 17       	cp	r20, r24
    5a04:	59 07       	cpc	r21, r25
    5a06:	61 f4       	brne	.+24     	; 0x5a20 <malloc+0x4a>
    5a08:	82 81       	ldd	r24, Z+2	; 0x02
    5a0a:	93 81       	ldd	r25, Z+3	; 0x03
    5a0c:	20 97       	sbiw	r28, 0x00	; 0
    5a0e:	19 f0       	breq	.+6      	; 0x5a16 <malloc+0x40>
    5a10:	9b 83       	std	Y+3, r25	; 0x03
    5a12:	8a 83       	std	Y+2, r24	; 0x02
    5a14:	2b c0       	rjmp	.+86     	; 0x5a6c <malloc+0x96>
    5a16:	90 93 be 05 	sts	0x05BE, r25	; 0x8005be <__flp+0x1>
    5a1a:	80 93 bd 05 	sts	0x05BD, r24	; 0x8005bd <__flp>
    5a1e:	26 c0       	rjmp	.+76     	; 0x5a6c <malloc+0x96>
    5a20:	21 15       	cp	r18, r1
    5a22:	31 05       	cpc	r19, r1
    5a24:	19 f0       	breq	.+6      	; 0x5a2c <malloc+0x56>
    5a26:	42 17       	cp	r20, r18
    5a28:	53 07       	cpc	r21, r19
    5a2a:	18 f4       	brcc	.+6      	; 0x5a32 <malloc+0x5c>
    5a2c:	9a 01       	movw	r18, r20
    5a2e:	be 01       	movw	r22, r28
    5a30:	df 01       	movw	r26, r30
    5a32:	ef 01       	movw	r28, r30
    5a34:	02 80       	ldd	r0, Z+2	; 0x02
    5a36:	f3 81       	ldd	r31, Z+3	; 0x03
    5a38:	e0 2d       	mov	r30, r0
    5a3a:	dc cf       	rjmp	.-72     	; 0x59f4 <malloc+0x1e>
    5a3c:	21 15       	cp	r18, r1
    5a3e:	31 05       	cpc	r19, r1
    5a40:	09 f1       	breq	.+66     	; 0x5a84 <malloc+0xae>
    5a42:	28 1b       	sub	r18, r24
    5a44:	39 0b       	sbc	r19, r25
    5a46:	24 30       	cpi	r18, 0x04	; 4
    5a48:	31 05       	cpc	r19, r1
    5a4a:	90 f4       	brcc	.+36     	; 0x5a70 <malloc+0x9a>
    5a4c:	12 96       	adiw	r26, 0x02	; 2
    5a4e:	8d 91       	ld	r24, X+
    5a50:	9c 91       	ld	r25, X
    5a52:	13 97       	sbiw	r26, 0x03	; 3
    5a54:	61 15       	cp	r22, r1
    5a56:	71 05       	cpc	r23, r1
    5a58:	21 f0       	breq	.+8      	; 0x5a62 <malloc+0x8c>
    5a5a:	fb 01       	movw	r30, r22
    5a5c:	93 83       	std	Z+3, r25	; 0x03
    5a5e:	82 83       	std	Z+2, r24	; 0x02
    5a60:	04 c0       	rjmp	.+8      	; 0x5a6a <malloc+0x94>
    5a62:	90 93 be 05 	sts	0x05BE, r25	; 0x8005be <__flp+0x1>
    5a66:	80 93 bd 05 	sts	0x05BD, r24	; 0x8005bd <__flp>
    5a6a:	fd 01       	movw	r30, r26
    5a6c:	32 96       	adiw	r30, 0x02	; 2
    5a6e:	44 c0       	rjmp	.+136    	; 0x5af8 <malloc+0x122>
    5a70:	fd 01       	movw	r30, r26
    5a72:	e2 0f       	add	r30, r18
    5a74:	f3 1f       	adc	r31, r19
    5a76:	81 93       	st	Z+, r24
    5a78:	91 93       	st	Z+, r25
    5a7a:	22 50       	subi	r18, 0x02	; 2
    5a7c:	31 09       	sbc	r19, r1
    5a7e:	2d 93       	st	X+, r18
    5a80:	3c 93       	st	X, r19
    5a82:	3a c0       	rjmp	.+116    	; 0x5af8 <malloc+0x122>
    5a84:	20 91 bb 05 	lds	r18, 0x05BB	; 0x8005bb <__brkval>
    5a88:	30 91 bc 05 	lds	r19, 0x05BC	; 0x8005bc <__brkval+0x1>
    5a8c:	23 2b       	or	r18, r19
    5a8e:	41 f4       	brne	.+16     	; 0x5aa0 <malloc+0xca>
    5a90:	20 91 02 01 	lds	r18, 0x0102	; 0x800102 <__malloc_heap_start>
    5a94:	30 91 03 01 	lds	r19, 0x0103	; 0x800103 <__malloc_heap_start+0x1>
    5a98:	30 93 bc 05 	sts	0x05BC, r19	; 0x8005bc <__brkval+0x1>
    5a9c:	20 93 bb 05 	sts	0x05BB, r18	; 0x8005bb <__brkval>
    5aa0:	20 91 00 01 	lds	r18, 0x0100	; 0x800100 <__data_start>
    5aa4:	30 91 01 01 	lds	r19, 0x0101	; 0x800101 <__data_start+0x1>
    5aa8:	21 15       	cp	r18, r1
    5aaa:	31 05       	cpc	r19, r1
    5aac:	41 f4       	brne	.+16     	; 0x5abe <malloc+0xe8>
    5aae:	2d b7       	in	r18, 0x3d	; 61
    5ab0:	3e b7       	in	r19, 0x3e	; 62
    5ab2:	40 91 04 01 	lds	r20, 0x0104	; 0x800104 <__malloc_margin>
    5ab6:	50 91 05 01 	lds	r21, 0x0105	; 0x800105 <__malloc_margin+0x1>
    5aba:	24 1b       	sub	r18, r20
    5abc:	35 0b       	sbc	r19, r21
    5abe:	e0 91 bb 05 	lds	r30, 0x05BB	; 0x8005bb <__brkval>
    5ac2:	f0 91 bc 05 	lds	r31, 0x05BC	; 0x8005bc <__brkval+0x1>
    5ac6:	e2 17       	cp	r30, r18
    5ac8:	f3 07       	cpc	r31, r19
    5aca:	a0 f4       	brcc	.+40     	; 0x5af4 <malloc+0x11e>
    5acc:	2e 1b       	sub	r18, r30
    5ace:	3f 0b       	sbc	r19, r31
    5ad0:	28 17       	cp	r18, r24
    5ad2:	39 07       	cpc	r19, r25
    5ad4:	78 f0       	brcs	.+30     	; 0x5af4 <malloc+0x11e>
    5ad6:	ac 01       	movw	r20, r24
    5ad8:	4e 5f       	subi	r20, 0xFE	; 254
    5ada:	5f 4f       	sbci	r21, 0xFF	; 255
    5adc:	24 17       	cp	r18, r20
    5ade:	35 07       	cpc	r19, r21
    5ae0:	48 f0       	brcs	.+18     	; 0x5af4 <malloc+0x11e>
    5ae2:	4e 0f       	add	r20, r30
    5ae4:	5f 1f       	adc	r21, r31
    5ae6:	50 93 bc 05 	sts	0x05BC, r21	; 0x8005bc <__brkval+0x1>
    5aea:	40 93 bb 05 	sts	0x05BB, r20	; 0x8005bb <__brkval>
    5aee:	81 93       	st	Z+, r24
    5af0:	91 93       	st	Z+, r25
    5af2:	02 c0       	rjmp	.+4      	; 0x5af8 <malloc+0x122>
    5af4:	e0 e0       	ldi	r30, 0x00	; 0
    5af6:	f0 e0       	ldi	r31, 0x00	; 0
    5af8:	cf 01       	movw	r24, r30
    5afa:	df 91       	pop	r29
    5afc:	cf 91       	pop	r28
    5afe:	08 95       	ret

00005b00 <free>:
    5b00:	0f 93       	push	r16
    5b02:	1f 93       	push	r17
    5b04:	cf 93       	push	r28
    5b06:	df 93       	push	r29
    5b08:	00 97       	sbiw	r24, 0x00	; 0
    5b0a:	09 f4       	brne	.+2      	; 0x5b0e <free+0xe>
    5b0c:	8c c0       	rjmp	.+280    	; 0x5c26 <free+0x126>
    5b0e:	fc 01       	movw	r30, r24
    5b10:	32 97       	sbiw	r30, 0x02	; 2
    5b12:	13 82       	std	Z+3, r1	; 0x03
    5b14:	12 82       	std	Z+2, r1	; 0x02
    5b16:	00 91 bd 05 	lds	r16, 0x05BD	; 0x8005bd <__flp>
    5b1a:	10 91 be 05 	lds	r17, 0x05BE	; 0x8005be <__flp+0x1>
    5b1e:	01 15       	cp	r16, r1
    5b20:	11 05       	cpc	r17, r1
    5b22:	81 f4       	brne	.+32     	; 0x5b44 <free+0x44>
    5b24:	20 81       	ld	r18, Z
    5b26:	31 81       	ldd	r19, Z+1	; 0x01
    5b28:	82 0f       	add	r24, r18
    5b2a:	93 1f       	adc	r25, r19
    5b2c:	20 91 bb 05 	lds	r18, 0x05BB	; 0x8005bb <__brkval>
    5b30:	30 91 bc 05 	lds	r19, 0x05BC	; 0x8005bc <__brkval+0x1>
    5b34:	28 17       	cp	r18, r24
    5b36:	39 07       	cpc	r19, r25
    5b38:	79 f5       	brne	.+94     	; 0x5b98 <free+0x98>
    5b3a:	f0 93 bc 05 	sts	0x05BC, r31	; 0x8005bc <__brkval+0x1>
    5b3e:	e0 93 bb 05 	sts	0x05BB, r30	; 0x8005bb <__brkval>
    5b42:	71 c0       	rjmp	.+226    	; 0x5c26 <free+0x126>
    5b44:	d8 01       	movw	r26, r16
    5b46:	40 e0       	ldi	r20, 0x00	; 0
    5b48:	50 e0       	ldi	r21, 0x00	; 0
    5b4a:	ae 17       	cp	r26, r30
    5b4c:	bf 07       	cpc	r27, r31
    5b4e:	50 f4       	brcc	.+20     	; 0x5b64 <free+0x64>
    5b50:	12 96       	adiw	r26, 0x02	; 2
    5b52:	2d 91       	ld	r18, X+
    5b54:	3c 91       	ld	r19, X
    5b56:	13 97       	sbiw	r26, 0x03	; 3
    5b58:	ad 01       	movw	r20, r26
    5b5a:	21 15       	cp	r18, r1
    5b5c:	31 05       	cpc	r19, r1
    5b5e:	09 f1       	breq	.+66     	; 0x5ba2 <free+0xa2>
    5b60:	d9 01       	movw	r26, r18
    5b62:	f3 cf       	rjmp	.-26     	; 0x5b4a <free+0x4a>
    5b64:	9d 01       	movw	r18, r26
    5b66:	da 01       	movw	r26, r20
    5b68:	33 83       	std	Z+3, r19	; 0x03
    5b6a:	22 83       	std	Z+2, r18	; 0x02
    5b6c:	60 81       	ld	r22, Z
    5b6e:	71 81       	ldd	r23, Z+1	; 0x01
    5b70:	86 0f       	add	r24, r22
    5b72:	97 1f       	adc	r25, r23
    5b74:	82 17       	cp	r24, r18
    5b76:	93 07       	cpc	r25, r19
    5b78:	69 f4       	brne	.+26     	; 0x5b94 <free+0x94>
    5b7a:	ec 01       	movw	r28, r24
    5b7c:	28 81       	ld	r18, Y
    5b7e:	39 81       	ldd	r19, Y+1	; 0x01
    5b80:	26 0f       	add	r18, r22
    5b82:	37 1f       	adc	r19, r23
    5b84:	2e 5f       	subi	r18, 0xFE	; 254
    5b86:	3f 4f       	sbci	r19, 0xFF	; 255
    5b88:	31 83       	std	Z+1, r19	; 0x01
    5b8a:	20 83       	st	Z, r18
    5b8c:	8a 81       	ldd	r24, Y+2	; 0x02
    5b8e:	9b 81       	ldd	r25, Y+3	; 0x03
    5b90:	93 83       	std	Z+3, r25	; 0x03
    5b92:	82 83       	std	Z+2, r24	; 0x02
    5b94:	45 2b       	or	r20, r21
    5b96:	29 f4       	brne	.+10     	; 0x5ba2 <free+0xa2>
    5b98:	f0 93 be 05 	sts	0x05BE, r31	; 0x8005be <__flp+0x1>
    5b9c:	e0 93 bd 05 	sts	0x05BD, r30	; 0x8005bd <__flp>
    5ba0:	42 c0       	rjmp	.+132    	; 0x5c26 <free+0x126>
    5ba2:	13 96       	adiw	r26, 0x03	; 3
    5ba4:	fc 93       	st	X, r31
    5ba6:	ee 93       	st	-X, r30
    5ba8:	12 97       	sbiw	r26, 0x02	; 2
    5baa:	ed 01       	movw	r28, r26
    5bac:	49 91       	ld	r20, Y+
    5bae:	59 91       	ld	r21, Y+
    5bb0:	9e 01       	movw	r18, r28
    5bb2:	24 0f       	add	r18, r20
    5bb4:	35 1f       	adc	r19, r21
    5bb6:	e2 17       	cp	r30, r18
    5bb8:	f3 07       	cpc	r31, r19
    5bba:	71 f4       	brne	.+28     	; 0x5bd8 <free+0xd8>
    5bbc:	80 81       	ld	r24, Z
    5bbe:	91 81       	ldd	r25, Z+1	; 0x01
    5bc0:	84 0f       	add	r24, r20
    5bc2:	95 1f       	adc	r25, r21
    5bc4:	02 96       	adiw	r24, 0x02	; 2
    5bc6:	11 96       	adiw	r26, 0x01	; 1
    5bc8:	9c 93       	st	X, r25
    5bca:	8e 93       	st	-X, r24
    5bcc:	82 81       	ldd	r24, Z+2	; 0x02
    5bce:	93 81       	ldd	r25, Z+3	; 0x03
    5bd0:	13 96       	adiw	r26, 0x03	; 3
    5bd2:	9c 93       	st	X, r25
    5bd4:	8e 93       	st	-X, r24
    5bd6:	12 97       	sbiw	r26, 0x02	; 2
    5bd8:	e0 e0       	ldi	r30, 0x00	; 0
    5bda:	f0 e0       	ldi	r31, 0x00	; 0
    5bdc:	d8 01       	movw	r26, r16
    5bde:	12 96       	adiw	r26, 0x02	; 2
    5be0:	8d 91       	ld	r24, X+
    5be2:	9c 91       	ld	r25, X
    5be4:	13 97       	sbiw	r26, 0x03	; 3
    5be6:	00 97       	sbiw	r24, 0x00	; 0
    5be8:	19 f0       	breq	.+6      	; 0x5bf0 <free+0xf0>
    5bea:	f8 01       	movw	r30, r16
    5bec:	8c 01       	movw	r16, r24
    5bee:	f6 cf       	rjmp	.-20     	; 0x5bdc <free+0xdc>
    5bf0:	8d 91       	ld	r24, X+
    5bf2:	9c 91       	ld	r25, X
    5bf4:	98 01       	movw	r18, r16
    5bf6:	2e 5f       	subi	r18, 0xFE	; 254
    5bf8:	3f 4f       	sbci	r19, 0xFF	; 255
    5bfa:	82 0f       	add	r24, r18
    5bfc:	93 1f       	adc	r25, r19
    5bfe:	20 91 bb 05 	lds	r18, 0x05BB	; 0x8005bb <__brkval>
    5c02:	30 91 bc 05 	lds	r19, 0x05BC	; 0x8005bc <__brkval+0x1>
    5c06:	28 17       	cp	r18, r24
    5c08:	39 07       	cpc	r19, r25
    5c0a:	69 f4       	brne	.+26     	; 0x5c26 <free+0x126>
    5c0c:	30 97       	sbiw	r30, 0x00	; 0
    5c0e:	29 f4       	brne	.+10     	; 0x5c1a <free+0x11a>
    5c10:	10 92 be 05 	sts	0x05BE, r1	; 0x8005be <__flp+0x1>
    5c14:	10 92 bd 05 	sts	0x05BD, r1	; 0x8005bd <__flp>
    5c18:	02 c0       	rjmp	.+4      	; 0x5c1e <free+0x11e>
    5c1a:	13 82       	std	Z+3, r1	; 0x03
    5c1c:	12 82       	std	Z+2, r1	; 0x02
    5c1e:	10 93 bc 05 	sts	0x05BC, r17	; 0x8005bc <__brkval+0x1>
    5c22:	00 93 bb 05 	sts	0x05BB, r16	; 0x8005bb <__brkval>
    5c26:	df 91       	pop	r29
    5c28:	cf 91       	pop	r28
    5c2a:	1f 91       	pop	r17
    5c2c:	0f 91       	pop	r16
    5c2e:	08 95       	ret

00005c30 <realloc>:
    5c30:	a0 e0       	ldi	r26, 0x00	; 0
    5c32:	b0 e0       	ldi	r27, 0x00	; 0
    5c34:	ed e1       	ldi	r30, 0x1D	; 29
    5c36:	fe e2       	ldi	r31, 0x2E	; 46
    5c38:	6d ce       	rjmp	.-806    	; 0x5914 <__prologue_saves__+0x8>
    5c3a:	ec 01       	movw	r28, r24
    5c3c:	00 97       	sbiw	r24, 0x00	; 0
    5c3e:	19 f4       	brne	.+6      	; 0x5c46 <realloc+0x16>
    5c40:	cb 01       	movw	r24, r22
    5c42:	c9 de       	rcall	.-622    	; 0x59d6 <malloc>
    5c44:	b4 c0       	rjmp	.+360    	; 0x5dae <realloc+0x17e>
    5c46:	fc 01       	movw	r30, r24
    5c48:	e6 0f       	add	r30, r22
    5c4a:	f7 1f       	adc	r31, r23
    5c4c:	9c 01       	movw	r18, r24
    5c4e:	22 50       	subi	r18, 0x02	; 2
    5c50:	31 09       	sbc	r19, r1
    5c52:	e2 17       	cp	r30, r18
    5c54:	f3 07       	cpc	r31, r19
    5c56:	08 f4       	brcc	.+2      	; 0x5c5a <realloc+0x2a>
    5c58:	a8 c0       	rjmp	.+336    	; 0x5daa <realloc+0x17a>
    5c5a:	d9 01       	movw	r26, r18
    5c5c:	0d 91       	ld	r16, X+
    5c5e:	1c 91       	ld	r17, X
    5c60:	11 97       	sbiw	r26, 0x01	; 1
    5c62:	06 17       	cp	r16, r22
    5c64:	17 07       	cpc	r17, r23
    5c66:	a8 f0       	brcs	.+42     	; 0x5c92 <realloc+0x62>
    5c68:	05 30       	cpi	r16, 0x05	; 5
    5c6a:	11 05       	cpc	r17, r1
    5c6c:	08 f4       	brcc	.+2      	; 0x5c70 <realloc+0x40>
    5c6e:	9b c0       	rjmp	.+310    	; 0x5da6 <realloc+0x176>
    5c70:	c8 01       	movw	r24, r16
    5c72:	04 97       	sbiw	r24, 0x04	; 4
    5c74:	86 17       	cp	r24, r22
    5c76:	97 07       	cpc	r25, r23
    5c78:	08 f4       	brcc	.+2      	; 0x5c7c <realloc+0x4c>
    5c7a:	95 c0       	rjmp	.+298    	; 0x5da6 <realloc+0x176>
    5c7c:	02 50       	subi	r16, 0x02	; 2
    5c7e:	11 09       	sbc	r17, r1
    5c80:	06 1b       	sub	r16, r22
    5c82:	17 0b       	sbc	r17, r23
    5c84:	01 93       	st	Z+, r16
    5c86:	11 93       	st	Z+, r17
    5c88:	6d 93       	st	X+, r22
    5c8a:	7c 93       	st	X, r23
    5c8c:	cf 01       	movw	r24, r30
    5c8e:	38 df       	rcall	.-400    	; 0x5b00 <free>
    5c90:	8a c0       	rjmp	.+276    	; 0x5da6 <realloc+0x176>
    5c92:	5b 01       	movw	r10, r22
    5c94:	a0 1a       	sub	r10, r16
    5c96:	b1 0a       	sbc	r11, r17
    5c98:	4c 01       	movw	r8, r24
    5c9a:	80 0e       	add	r8, r16
    5c9c:	91 1e       	adc	r9, r17
    5c9e:	a0 91 bd 05 	lds	r26, 0x05BD	; 0x8005bd <__flp>
    5ca2:	b0 91 be 05 	lds	r27, 0x05BE	; 0x8005be <__flp+0x1>
    5ca6:	40 e0       	ldi	r20, 0x00	; 0
    5ca8:	50 e0       	ldi	r21, 0x00	; 0
    5caa:	e1 2c       	mov	r14, r1
    5cac:	f1 2c       	mov	r15, r1
    5cae:	10 97       	sbiw	r26, 0x00	; 0
    5cb0:	09 f4       	brne	.+2      	; 0x5cb4 <realloc+0x84>
    5cb2:	4a c0       	rjmp	.+148    	; 0x5d48 <realloc+0x118>
    5cb4:	a8 15       	cp	r26, r8
    5cb6:	b9 05       	cpc	r27, r9
    5cb8:	d1 f5       	brne	.+116    	; 0x5d2e <realloc+0xfe>
    5cba:	6d 90       	ld	r6, X+
    5cbc:	7c 90       	ld	r7, X
    5cbe:	11 97       	sbiw	r26, 0x01	; 1
    5cc0:	63 01       	movw	r12, r6
    5cc2:	82 e0       	ldi	r24, 0x02	; 2
    5cc4:	c8 0e       	add	r12, r24
    5cc6:	d1 1c       	adc	r13, r1
    5cc8:	ca 14       	cp	r12, r10
    5cca:	db 04       	cpc	r13, r11
    5ccc:	80 f1       	brcs	.+96     	; 0x5d2e <realloc+0xfe>
    5cce:	a3 01       	movw	r20, r6
    5cd0:	4a 19       	sub	r20, r10
    5cd2:	5b 09       	sbc	r21, r11
    5cd4:	6a 01       	movw	r12, r20
    5cd6:	82 e0       	ldi	r24, 0x02	; 2
    5cd8:	c8 0e       	add	r12, r24
    5cda:	d1 1c       	adc	r13, r1
    5cdc:	12 96       	adiw	r26, 0x02	; 2
    5cde:	bc 90       	ld	r11, X
    5ce0:	12 97       	sbiw	r26, 0x02	; 2
    5ce2:	13 96       	adiw	r26, 0x03	; 3
    5ce4:	ac 91       	ld	r26, X
    5ce6:	b5 e0       	ldi	r27, 0x05	; 5
    5ce8:	cb 16       	cp	r12, r27
    5cea:	d1 04       	cpc	r13, r1
    5cec:	40 f0       	brcs	.+16     	; 0x5cfe <realloc+0xce>
    5cee:	b2 82       	std	Z+2, r11	; 0x02
    5cf0:	a3 83       	std	Z+3, r26	; 0x03
    5cf2:	51 83       	std	Z+1, r21	; 0x01
    5cf4:	40 83       	st	Z, r20
    5cf6:	d9 01       	movw	r26, r18
    5cf8:	6d 93       	st	X+, r22
    5cfa:	7c 93       	st	X, r23
    5cfc:	0a c0       	rjmp	.+20     	; 0x5d12 <realloc+0xe2>
    5cfe:	0e 5f       	subi	r16, 0xFE	; 254
    5d00:	1f 4f       	sbci	r17, 0xFF	; 255
    5d02:	c3 01       	movw	r24, r6
    5d04:	80 0f       	add	r24, r16
    5d06:	91 1f       	adc	r25, r17
    5d08:	f9 01       	movw	r30, r18
    5d0a:	91 83       	std	Z+1, r25	; 0x01
    5d0c:	80 83       	st	Z, r24
    5d0e:	eb 2d       	mov	r30, r11
    5d10:	fa 2f       	mov	r31, r26
    5d12:	e1 14       	cp	r14, r1
    5d14:	f1 04       	cpc	r15, r1
    5d16:	31 f0       	breq	.+12     	; 0x5d24 <realloc+0xf4>
    5d18:	d7 01       	movw	r26, r14
    5d1a:	13 96       	adiw	r26, 0x03	; 3
    5d1c:	fc 93       	st	X, r31
    5d1e:	ee 93       	st	-X, r30
    5d20:	12 97       	sbiw	r26, 0x02	; 2
    5d22:	41 c0       	rjmp	.+130    	; 0x5da6 <realloc+0x176>
    5d24:	f0 93 be 05 	sts	0x05BE, r31	; 0x8005be <__flp+0x1>
    5d28:	e0 93 bd 05 	sts	0x05BD, r30	; 0x8005bd <__flp>
    5d2c:	3c c0       	rjmp	.+120    	; 0x5da6 <realloc+0x176>
    5d2e:	8d 91       	ld	r24, X+
    5d30:	9c 91       	ld	r25, X
    5d32:	11 97       	sbiw	r26, 0x01	; 1
    5d34:	48 17       	cp	r20, r24
    5d36:	59 07       	cpc	r21, r25
    5d38:	08 f4       	brcc	.+2      	; 0x5d3c <realloc+0x10c>
    5d3a:	ac 01       	movw	r20, r24
    5d3c:	7d 01       	movw	r14, r26
    5d3e:	12 96       	adiw	r26, 0x02	; 2
    5d40:	0d 90       	ld	r0, X+
    5d42:	bc 91       	ld	r27, X
    5d44:	a0 2d       	mov	r26, r0
    5d46:	b3 cf       	rjmp	.-154    	; 0x5cae <realloc+0x7e>
    5d48:	80 91 bb 05 	lds	r24, 0x05BB	; 0x8005bb <__brkval>
    5d4c:	90 91 bc 05 	lds	r25, 0x05BC	; 0x8005bc <__brkval+0x1>
    5d50:	88 15       	cp	r24, r8
    5d52:	99 05       	cpc	r25, r9
    5d54:	e1 f4       	brne	.+56     	; 0x5d8e <realloc+0x15e>
    5d56:	46 17       	cp	r20, r22
    5d58:	57 07       	cpc	r21, r23
    5d5a:	c8 f4       	brcc	.+50     	; 0x5d8e <realloc+0x15e>
    5d5c:	80 91 00 01 	lds	r24, 0x0100	; 0x800100 <__data_start>
    5d60:	90 91 01 01 	lds	r25, 0x0101	; 0x800101 <__data_start+0x1>
    5d64:	00 97       	sbiw	r24, 0x00	; 0
    5d66:	41 f4       	brne	.+16     	; 0x5d78 <realloc+0x148>
    5d68:	8d b7       	in	r24, 0x3d	; 61
    5d6a:	9e b7       	in	r25, 0x3e	; 62
    5d6c:	40 91 04 01 	lds	r20, 0x0104	; 0x800104 <__malloc_margin>
    5d70:	50 91 05 01 	lds	r21, 0x0105	; 0x800105 <__malloc_margin+0x1>
    5d74:	84 1b       	sub	r24, r20
    5d76:	95 0b       	sbc	r25, r21
    5d78:	e8 17       	cp	r30, r24
    5d7a:	f9 07       	cpc	r31, r25
    5d7c:	b0 f4       	brcc	.+44     	; 0x5daa <realloc+0x17a>
    5d7e:	f0 93 bc 05 	sts	0x05BC, r31	; 0x8005bc <__brkval+0x1>
    5d82:	e0 93 bb 05 	sts	0x05BB, r30	; 0x8005bb <__brkval>
    5d86:	f9 01       	movw	r30, r18
    5d88:	71 83       	std	Z+1, r23	; 0x01
    5d8a:	60 83       	st	Z, r22
    5d8c:	0c c0       	rjmp	.+24     	; 0x5da6 <realloc+0x176>
    5d8e:	cb 01       	movw	r24, r22
    5d90:	22 de       	rcall	.-956    	; 0x59d6 <malloc>
    5d92:	7c 01       	movw	r14, r24
    5d94:	00 97       	sbiw	r24, 0x00	; 0
    5d96:	49 f0       	breq	.+18     	; 0x5daa <realloc+0x17a>
    5d98:	a8 01       	movw	r20, r16
    5d9a:	be 01       	movw	r22, r28
    5d9c:	af d1       	rcall	.+862    	; 0x60fc <memcpy>
    5d9e:	ce 01       	movw	r24, r28
    5da0:	af de       	rcall	.-674    	; 0x5b00 <free>
    5da2:	c7 01       	movw	r24, r14
    5da4:	04 c0       	rjmp	.+8      	; 0x5dae <realloc+0x17e>
    5da6:	ce 01       	movw	r24, r28
    5da8:	02 c0       	rjmp	.+4      	; 0x5dae <realloc+0x17e>
    5daa:	80 e0       	ldi	r24, 0x00	; 0
    5dac:	90 e0       	ldi	r25, 0x00	; 0
    5dae:	cd b7       	in	r28, 0x3d	; 61
    5db0:	de b7       	in	r29, 0x3e	; 62
    5db2:	ee e0       	ldi	r30, 0x0E	; 14
    5db4:	cb cd       	rjmp	.-1130   	; 0x594c <__epilogue_restores__+0x8>

00005db6 <strtod>:
    5db6:	a0 e0       	ldi	r26, 0x00	; 0
    5db8:	b0 e0       	ldi	r27, 0x00	; 0
    5dba:	e0 ee       	ldi	r30, 0xE0	; 224
    5dbc:	fe e2       	ldi	r31, 0x2E	; 46
    5dbe:	aa cd       	rjmp	.-1196   	; 0x5914 <__prologue_saves__+0x8>
    5dc0:	ec 01       	movw	r28, r24
    5dc2:	7b 01       	movw	r14, r22
    5dc4:	61 15       	cp	r22, r1
    5dc6:	71 05       	cpc	r23, r1
    5dc8:	19 f0       	breq	.+6      	; 0x5dd0 <strtod+0x1a>
    5dca:	db 01       	movw	r26, r22
    5dcc:	8d 93       	st	X+, r24
    5dce:	9c 93       	st	X, r25
    5dd0:	8e 01       	movw	r16, r28
    5dd2:	0f 5f       	subi	r16, 0xFF	; 255
    5dd4:	1f 4f       	sbci	r17, 0xFF	; 255
    5dd6:	78 80       	ld	r7, Y
    5dd8:	87 2d       	mov	r24, r7
    5dda:	90 e0       	ldi	r25, 0x00	; 0
    5ddc:	6f d1       	rcall	.+734    	; 0x60bc <isspace>
    5dde:	89 2b       	or	r24, r25
    5de0:	11 f0       	breq	.+4      	; 0x5de6 <strtod+0x30>
    5de2:	e8 01       	movw	r28, r16
    5de4:	f5 cf       	rjmp	.-22     	; 0x5dd0 <strtod+0x1a>
    5de6:	bd e2       	ldi	r27, 0x2D	; 45
    5de8:	7b 12       	cpse	r7, r27
    5dea:	05 c0       	rjmp	.+10     	; 0x5df6 <strtod+0x40>
    5dec:	0f 5f       	subi	r16, 0xFF	; 255
    5dee:	1f 4f       	sbci	r17, 0xFF	; 255
    5df0:	79 80       	ldd	r7, Y+1	; 0x01
    5df2:	c1 e0       	ldi	r28, 0x01	; 1
    5df4:	08 c0       	rjmp	.+16     	; 0x5e06 <strtod+0x50>
    5df6:	eb e2       	ldi	r30, 0x2B	; 43
    5df8:	7e 12       	cpse	r7, r30
    5dfa:	04 c0       	rjmp	.+8      	; 0x5e04 <strtod+0x4e>
    5dfc:	8e 01       	movw	r16, r28
    5dfe:	0e 5f       	subi	r16, 0xFE	; 254
    5e00:	1f 4f       	sbci	r17, 0xFF	; 255
    5e02:	79 80       	ldd	r7, Y+1	; 0x01
    5e04:	c0 e0       	ldi	r28, 0x00	; 0
    5e06:	68 01       	movw	r12, r16
    5e08:	f1 e0       	ldi	r31, 0x01	; 1
    5e0a:	cf 1a       	sub	r12, r31
    5e0c:	d1 08       	sbc	r13, r1
    5e0e:	43 e0       	ldi	r20, 0x03	; 3
    5e10:	50 e0       	ldi	r21, 0x00	; 0
    5e12:	62 e6       	ldi	r22, 0x62	; 98
    5e14:	72 e0       	ldi	r23, 0x02	; 2
    5e16:	c6 01       	movw	r24, r12
    5e18:	59 d1       	rcall	.+690    	; 0x60cc <strncasecmp_P>
    5e1a:	89 2b       	or	r24, r25
    5e1c:	e9 f4       	brne	.+58     	; 0x5e58 <strtod+0xa2>
    5e1e:	68 01       	movw	r12, r16
    5e20:	22 e0       	ldi	r18, 0x02	; 2
    5e22:	c2 0e       	add	r12, r18
    5e24:	d1 1c       	adc	r13, r1
    5e26:	45 e0       	ldi	r20, 0x05	; 5
    5e28:	50 e0       	ldi	r21, 0x00	; 0
    5e2a:	6d e5       	ldi	r22, 0x5D	; 93
    5e2c:	72 e0       	ldi	r23, 0x02	; 2
    5e2e:	c6 01       	movw	r24, r12
    5e30:	4d d1       	rcall	.+666    	; 0x60cc <strncasecmp_P>
    5e32:	89 2b       	or	r24, r25
    5e34:	21 f4       	brne	.+8      	; 0x5e3e <strtod+0x88>
    5e36:	68 01       	movw	r12, r16
    5e38:	87 e0       	ldi	r24, 0x07	; 7
    5e3a:	c8 0e       	add	r12, r24
    5e3c:	d1 1c       	adc	r13, r1
    5e3e:	e1 14       	cp	r14, r1
    5e40:	f1 04       	cpc	r15, r1
    5e42:	19 f0       	breq	.+6      	; 0x5e4a <strtod+0x94>
    5e44:	d7 01       	movw	r26, r14
    5e46:	cd 92       	st	X+, r12
    5e48:	dc 92       	st	X, r13
    5e4a:	c1 11       	cpse	r28, r1
    5e4c:	fd c0       	rjmp	.+506    	; 0x6048 <strtod+0x292>
    5e4e:	60 e0       	ldi	r22, 0x00	; 0
    5e50:	70 e0       	ldi	r23, 0x00	; 0
    5e52:	80 e8       	ldi	r24, 0x80	; 128
    5e54:	9f e7       	ldi	r25, 0x7F	; 127
    5e56:	01 c1       	rjmp	.+514    	; 0x605a <strtod+0x2a4>
    5e58:	43 e0       	ldi	r20, 0x03	; 3
    5e5a:	50 e0       	ldi	r21, 0x00	; 0
    5e5c:	6a e5       	ldi	r22, 0x5A	; 90
    5e5e:	72 e0       	ldi	r23, 0x02	; 2
    5e60:	c6 01       	movw	r24, r12
    5e62:	34 d1       	rcall	.+616    	; 0x60cc <strncasecmp_P>
    5e64:	89 2b       	or	r24, r25
    5e66:	51 f4       	brne	.+20     	; 0x5e7c <strtod+0xc6>
    5e68:	e1 14       	cp	r14, r1
    5e6a:	f1 04       	cpc	r15, r1
    5e6c:	09 f4       	brne	.+2      	; 0x5e70 <strtod+0xba>
    5e6e:	f1 c0       	rjmp	.+482    	; 0x6052 <strtod+0x29c>
    5e70:	0e 5f       	subi	r16, 0xFE	; 254
    5e72:	1f 4f       	sbci	r17, 0xFF	; 255
    5e74:	f7 01       	movw	r30, r14
    5e76:	11 83       	std	Z+1, r17	; 0x01
    5e78:	00 83       	st	Z, r16
    5e7a:	eb c0       	rjmp	.+470    	; 0x6052 <strtod+0x29c>
    5e7c:	68 01       	movw	r12, r16
    5e7e:	60 e0       	ldi	r22, 0x00	; 0
    5e80:	70 e0       	ldi	r23, 0x00	; 0
    5e82:	cb 01       	movw	r24, r22
    5e84:	00 e0       	ldi	r16, 0x00	; 0
    5e86:	10 e0       	ldi	r17, 0x00	; 0
    5e88:	f6 01       	movw	r30, r12
    5e8a:	d0 ed       	ldi	r29, 0xD0	; 208
    5e8c:	d7 0d       	add	r29, r7
    5e8e:	da 30       	cpi	r29, 0x0A	; 10
    5e90:	50 f5       	brcc	.+84     	; 0x5ee6 <strtod+0x130>
    5e92:	2c 2f       	mov	r18, r28
    5e94:	22 60       	ori	r18, 0x02	; 2
    5e96:	62 2e       	mov	r6, r18
    5e98:	2c 2f       	mov	r18, r28
    5e9a:	28 70       	andi	r18, 0x08	; 8
    5e9c:	c2 ff       	sbrs	r28, 2
    5e9e:	05 c0       	rjmp	.+10     	; 0x5eaa <strtod+0xf4>
    5ea0:	21 11       	cpse	r18, r1
    5ea2:	27 c0       	rjmp	.+78     	; 0x5ef2 <strtod+0x13c>
    5ea4:	0f 5f       	subi	r16, 0xFF	; 255
    5ea6:	1f 4f       	sbci	r17, 0xFF	; 255
    5ea8:	24 c0       	rjmp	.+72     	; 0x5ef2 <strtod+0x13c>
    5eaa:	22 23       	and	r18, r18
    5eac:	11 f0       	breq	.+4      	; 0x5eb2 <strtod+0xfc>
    5eae:	01 50       	subi	r16, 0x01	; 1
    5eb0:	11 09       	sbc	r17, r1
    5eb2:	a5 e0       	ldi	r26, 0x05	; 5
    5eb4:	b0 e0       	ldi	r27, 0x00	; 0
    5eb6:	9b 01       	movw	r18, r22
    5eb8:	ac 01       	movw	r20, r24
    5eba:	1e dd       	rcall	.-1476   	; 0x58f8 <__muluhisi3>
    5ebc:	4b 01       	movw	r8, r22
    5ebe:	5c 01       	movw	r10, r24
    5ec0:	88 0c       	add	r8, r8
    5ec2:	99 1c       	adc	r9, r9
    5ec4:	aa 1c       	adc	r10, r10
    5ec6:	bb 1c       	adc	r11, r11
    5ec8:	c5 01       	movw	r24, r10
    5eca:	b4 01       	movw	r22, r8
    5ecc:	6d 0f       	add	r22, r29
    5ece:	71 1d       	adc	r23, r1
    5ed0:	81 1d       	adc	r24, r1
    5ed2:	91 1d       	adc	r25, r1
    5ed4:	68 39       	cpi	r22, 0x98	; 152
    5ed6:	a9 e9       	ldi	r26, 0x99	; 153
    5ed8:	7a 07       	cpc	r23, r26
    5eda:	8a 07       	cpc	r24, r26
    5edc:	a9 e1       	ldi	r26, 0x19	; 25
    5ede:	9a 07       	cpc	r25, r26
    5ee0:	40 f0       	brcs	.+16     	; 0x5ef2 <strtod+0x13c>
    5ee2:	c6 60       	ori	r28, 0x06	; 6
    5ee4:	05 c0       	rjmp	.+10     	; 0x5ef0 <strtod+0x13a>
    5ee6:	de 3f       	cpi	r29, 0xFE	; 254
    5ee8:	51 f4       	brne	.+20     	; 0x5efe <strtod+0x148>
    5eea:	c3 fd       	sbrc	r28, 3
    5eec:	44 c0       	rjmp	.+136    	; 0x5f76 <strtod+0x1c0>
    5eee:	c8 60       	ori	r28, 0x08	; 8
    5ef0:	6c 2e       	mov	r6, r28
    5ef2:	bf ef       	ldi	r27, 0xFF	; 255
    5ef4:	cb 1a       	sub	r12, r27
    5ef6:	db 0a       	sbc	r13, r27
    5ef8:	70 80       	ld	r7, Z
    5efa:	c6 2d       	mov	r28, r6
    5efc:	c5 cf       	rjmp	.-118    	; 0x5e88 <strtod+0xd2>
    5efe:	2d 2f       	mov	r18, r29
    5f00:	2f 7d       	andi	r18, 0xDF	; 223
    5f02:	25 31       	cpi	r18, 0x15	; 21
    5f04:	c1 f5       	brne	.+112    	; 0x5f76 <strtod+0x1c0>
    5f06:	40 81       	ld	r20, Z
    5f08:	4d 32       	cpi	r20, 0x2D	; 45
    5f0a:	11 f4       	brne	.+4      	; 0x5f10 <strtod+0x15a>
    5f0c:	c0 61       	ori	r28, 0x10	; 16
    5f0e:	06 c0       	rjmp	.+12     	; 0x5f1c <strtod+0x166>
    5f10:	4b 32       	cpi	r20, 0x2B	; 43
    5f12:	21 f0       	breq	.+8      	; 0x5f1c <strtod+0x166>
    5f14:	31 96       	adiw	r30, 0x01	; 1
    5f16:	21 e0       	ldi	r18, 0x01	; 1
    5f18:	30 e0       	ldi	r19, 0x00	; 0
    5f1a:	06 c0       	rjmp	.+12     	; 0x5f28 <strtod+0x172>
    5f1c:	32 96       	adiw	r30, 0x02	; 2
    5f1e:	d6 01       	movw	r26, r12
    5f20:	11 96       	adiw	r26, 0x01	; 1
    5f22:	4c 91       	ld	r20, X
    5f24:	22 e0       	ldi	r18, 0x02	; 2
    5f26:	30 e0       	ldi	r19, 0x00	; 0
    5f28:	a0 ed       	ldi	r26, 0xD0	; 208
    5f2a:	a4 0f       	add	r26, r20
    5f2c:	aa 30       	cpi	r26, 0x0A	; 10
    5f2e:	18 f0       	brcs	.+6      	; 0x5f36 <strtod+0x180>
    5f30:	e2 1b       	sub	r30, r18
    5f32:	f3 0b       	sbc	r31, r19
    5f34:	20 c0       	rjmp	.+64     	; 0x5f76 <strtod+0x1c0>
    5f36:	40 e0       	ldi	r20, 0x00	; 0
    5f38:	50 e0       	ldi	r21, 0x00	; 0
    5f3a:	40 38       	cpi	r20, 0x80	; 128
    5f3c:	bc e0       	ldi	r27, 0x0C	; 12
    5f3e:	5b 07       	cpc	r21, r27
    5f40:	5c f4       	brge	.+22     	; 0x5f58 <strtod+0x1a2>
    5f42:	9a 01       	movw	r18, r20
    5f44:	22 0f       	add	r18, r18
    5f46:	33 1f       	adc	r19, r19
    5f48:	22 0f       	add	r18, r18
    5f4a:	33 1f       	adc	r19, r19
    5f4c:	42 0f       	add	r20, r18
    5f4e:	53 1f       	adc	r21, r19
    5f50:	44 0f       	add	r20, r20
    5f52:	55 1f       	adc	r21, r21
    5f54:	4a 0f       	add	r20, r26
    5f56:	51 1d       	adc	r21, r1
    5f58:	31 96       	adiw	r30, 0x01	; 1
    5f5a:	df 01       	movw	r26, r30
    5f5c:	11 97       	sbiw	r26, 0x01	; 1
    5f5e:	2c 91       	ld	r18, X
    5f60:	a0 ed       	ldi	r26, 0xD0	; 208
    5f62:	a2 0f       	add	r26, r18
    5f64:	aa 30       	cpi	r26, 0x0A	; 10
    5f66:	48 f3       	brcs	.-46     	; 0x5f3a <strtod+0x184>
    5f68:	c4 ff       	sbrs	r28, 4
    5f6a:	03 c0       	rjmp	.+6      	; 0x5f72 <strtod+0x1bc>
    5f6c:	51 95       	neg	r21
    5f6e:	41 95       	neg	r20
    5f70:	51 09       	sbc	r21, r1
    5f72:	04 0f       	add	r16, r20
    5f74:	15 1f       	adc	r17, r21
    5f76:	c1 ff       	sbrs	r28, 1
    5f78:	07 c0       	rjmp	.+14     	; 0x5f88 <strtod+0x1d2>
    5f7a:	e1 14       	cp	r14, r1
    5f7c:	f1 04       	cpc	r15, r1
    5f7e:	21 f0       	breq	.+8      	; 0x5f88 <strtod+0x1d2>
    5f80:	31 97       	sbiw	r30, 0x01	; 1
    5f82:	d7 01       	movw	r26, r14
    5f84:	ed 93       	st	X+, r30
    5f86:	fc 93       	st	X, r31
    5f88:	0e 94 3c 23 	call	0x4678	; 0x4678 <__floatunsisf>
    5f8c:	c3 70       	andi	r28, 0x03	; 3
    5f8e:	c3 30       	cpi	r28, 0x03	; 3
    5f90:	19 f0       	breq	.+6      	; 0x5f98 <strtod+0x1e2>
    5f92:	6b 01       	movw	r12, r22
    5f94:	7c 01       	movw	r14, r24
    5f96:	06 c0       	rjmp	.+12     	; 0x5fa4 <strtod+0x1ee>
    5f98:	6b 01       	movw	r12, r22
    5f9a:	7c 01       	movw	r14, r24
    5f9c:	f7 fa       	bst	r15, 7
    5f9e:	f0 94       	com	r15
    5fa0:	f7 f8       	bld	r15, 7
    5fa2:	f0 94       	com	r15
    5fa4:	20 e0       	ldi	r18, 0x00	; 0
    5fa6:	30 e0       	ldi	r19, 0x00	; 0
    5fa8:	a9 01       	movw	r20, r18
    5faa:	c7 01       	movw	r24, r14
    5fac:	b6 01       	movw	r22, r12
    5fae:	0e 94 9f 22 	call	0x453e	; 0x453e <__cmpsf2>
    5fb2:	88 23       	and	r24, r24
    5fb4:	09 f4       	brne	.+2      	; 0x5fb8 <strtod+0x202>
    5fb6:	45 c0       	rjmp	.+138    	; 0x6042 <strtod+0x28c>
    5fb8:	17 ff       	sbrs	r17, 7
    5fba:	06 c0       	rjmp	.+12     	; 0x5fc8 <strtod+0x212>
    5fbc:	11 95       	neg	r17
    5fbe:	01 95       	neg	r16
    5fc0:	11 09       	sbc	r17, r1
    5fc2:	c9 e7       	ldi	r28, 0x79	; 121
    5fc4:	d2 e0       	ldi	r29, 0x02	; 2
    5fc6:	02 c0       	rjmp	.+4      	; 0x5fcc <strtod+0x216>
    5fc8:	c1 e9       	ldi	r28, 0x91	; 145
    5fca:	d2 e0       	ldi	r29, 0x02	; 2
    5fcc:	5e 01       	movw	r10, r28
    5fce:	b8 e1       	ldi	r27, 0x18	; 24
    5fd0:	ab 1a       	sub	r10, r27
    5fd2:	b1 08       	sbc	r11, r1
    5fd4:	46 01       	movw	r8, r12
    5fd6:	be 2d       	mov	r27, r14
    5fd8:	af 2d       	mov	r26, r15
    5fda:	90 e2       	ldi	r25, 0x20	; 32
    5fdc:	e9 2e       	mov	r14, r25
    5fde:	f1 2c       	mov	r15, r1
    5fe0:	0e 15       	cp	r16, r14
    5fe2:	1f 05       	cpc	r17, r15
    5fe4:	84 f0       	brlt	.+32     	; 0x6006 <strtod+0x250>
    5fe6:	fe 01       	movw	r30, r28
    5fe8:	25 91       	lpm	r18, Z+
    5fea:	35 91       	lpm	r19, Z+
    5fec:	45 91       	lpm	r20, Z+
    5fee:	54 91       	lpm	r21, Z
    5ff0:	b4 01       	movw	r22, r8
    5ff2:	8b 2f       	mov	r24, r27
    5ff4:	9a 2f       	mov	r25, r26
    5ff6:	0e 94 ee 23 	call	0x47dc	; 0x47dc <__mulsf3>
    5ffa:	4b 01       	movw	r8, r22
    5ffc:	b8 2f       	mov	r27, r24
    5ffe:	a9 2f       	mov	r26, r25
    6000:	0e 19       	sub	r16, r14
    6002:	1f 09       	sbc	r17, r15
    6004:	ed cf       	rjmp	.-38     	; 0x5fe0 <strtod+0x22a>
    6006:	24 97       	sbiw	r28, 0x04	; 4
    6008:	f5 94       	asr	r15
    600a:	e7 94       	ror	r14
    600c:	ca 15       	cp	r28, r10
    600e:	db 05       	cpc	r29, r11
    6010:	39 f7       	brne	.-50     	; 0x5fe0 <strtod+0x22a>
    6012:	64 01       	movw	r12, r8
    6014:	eb 2e       	mov	r14, r27
    6016:	fa 2e       	mov	r15, r26
    6018:	8e 2d       	mov	r24, r14
    601a:	88 0f       	add	r24, r24
    601c:	8f 2d       	mov	r24, r15
    601e:	88 1f       	adc	r24, r24
    6020:	8f 3f       	cpi	r24, 0xFF	; 255
    6022:	49 f0       	breq	.+18     	; 0x6036 <strtod+0x280>
    6024:	20 e0       	ldi	r18, 0x00	; 0
    6026:	30 e0       	ldi	r19, 0x00	; 0
    6028:	a9 01       	movw	r20, r18
    602a:	c7 01       	movw	r24, r14
    602c:	b6 01       	movw	r22, r12
    602e:	0e 94 9f 22 	call	0x453e	; 0x453e <__cmpsf2>
    6032:	81 11       	cpse	r24, r1
    6034:	06 c0       	rjmp	.+12     	; 0x6042 <strtod+0x28c>
    6036:	82 e2       	ldi	r24, 0x22	; 34
    6038:	90 e0       	ldi	r25, 0x00	; 0
    603a:	90 93 c0 05 	sts	0x05C0, r25	; 0x8005c0 <errno+0x1>
    603e:	80 93 bf 05 	sts	0x05BF, r24	; 0x8005bf <errno>
    6042:	c7 01       	movw	r24, r14
    6044:	b6 01       	movw	r22, r12
    6046:	09 c0       	rjmp	.+18     	; 0x605a <strtod+0x2a4>
    6048:	60 e0       	ldi	r22, 0x00	; 0
    604a:	70 e0       	ldi	r23, 0x00	; 0
    604c:	80 e8       	ldi	r24, 0x80	; 128
    604e:	9f ef       	ldi	r25, 0xFF	; 255
    6050:	04 c0       	rjmp	.+8      	; 0x605a <strtod+0x2a4>
    6052:	60 e0       	ldi	r22, 0x00	; 0
    6054:	70 e0       	ldi	r23, 0x00	; 0
    6056:	80 ec       	ldi	r24, 0xC0	; 192
    6058:	9f e7       	ldi	r25, 0x7F	; 127
    605a:	cd b7       	in	r28, 0x3d	; 61
    605c:	de b7       	in	r29, 0x3e	; 62
    605e:	ee e0       	ldi	r30, 0x0E	; 14
    6060:	75 cc       	rjmp	.-1814   	; 0x594c <__epilogue_restores__+0x8>

00006062 <abort>:
    6062:	81 e0       	ldi	r24, 0x01	; 1
    6064:	90 e0       	ldi	r25, 0x00	; 0
    6066:	f8 94       	cli
    6068:	79 c3       	rjmp	.+1778   	; 0x675c <__do_global_dtors>

0000606a <atof>:
    606a:	66 27       	eor	r22, r22
    606c:	77 27       	eor	r23, r23
    606e:	a3 ce       	rjmp	.-698    	; 0x5db6 <strtod>

00006070 <atol>:
    6070:	1f 93       	push	r17
    6072:	fc 01       	movw	r30, r24
    6074:	99 27       	eor	r25, r25
    6076:	88 27       	eor	r24, r24
    6078:	bc 01       	movw	r22, r24
    607a:	e8 94       	clt
    607c:	11 91       	ld	r17, Z+
    607e:	10 32       	cpi	r17, 0x20	; 32
    6080:	e9 f3       	breq	.-6      	; 0x607c <atol+0xc>
    6082:	19 30       	cpi	r17, 0x09	; 9
    6084:	10 f0       	brcs	.+4      	; 0x608a <atol+0x1a>
    6086:	1e 30       	cpi	r17, 0x0E	; 14
    6088:	c8 f3       	brcs	.-14     	; 0x607c <atol+0xc>
    608a:	1b 32       	cpi	r17, 0x2B	; 43
    608c:	49 f0       	breq	.+18     	; 0x60a0 <atol+0x30>
    608e:	1d 32       	cpi	r17, 0x2D	; 45
    6090:	41 f4       	brne	.+16     	; 0x60a2 <atol+0x32>
    6092:	68 94       	set
    6094:	05 c0       	rjmp	.+10     	; 0x60a0 <atol+0x30>
    6096:	85 d0       	rcall	.+266    	; 0x61a2 <__mulsi_const_10>
    6098:	61 0f       	add	r22, r17
    609a:	71 1d       	adc	r23, r1
    609c:	81 1d       	adc	r24, r1
    609e:	91 1d       	adc	r25, r1
    60a0:	11 91       	ld	r17, Z+
    60a2:	10 53       	subi	r17, 0x30	; 48
    60a4:	1a 30       	cpi	r17, 0x0A	; 10
    60a6:	b8 f3       	brcs	.-18     	; 0x6096 <atol+0x26>
    60a8:	3e f4       	brtc	.+14     	; 0x60b8 <atol+0x48>
    60aa:	90 95       	com	r25
    60ac:	80 95       	com	r24
    60ae:	70 95       	com	r23
    60b0:	61 95       	neg	r22
    60b2:	7f 4f       	sbci	r23, 0xFF	; 255
    60b4:	8f 4f       	sbci	r24, 0xFF	; 255
    60b6:	9f 4f       	sbci	r25, 0xFF	; 255
    60b8:	1f 91       	pop	r17
    60ba:	08 95       	ret

000060bc <isspace>:
    60bc:	91 11       	cpse	r25, r1
    60be:	25 c3       	rjmp	.+1610   	; 0x670a <__ctype_isfalse>
    60c0:	80 32       	cpi	r24, 0x20	; 32
    60c2:	19 f0       	breq	.+6      	; 0x60ca <isspace+0xe>
    60c4:	89 50       	subi	r24, 0x09	; 9
    60c6:	85 50       	subi	r24, 0x05	; 5
    60c8:	d0 f7       	brcc	.-12     	; 0x60be <isspace+0x2>
    60ca:	08 95       	ret

000060cc <strncasecmp_P>:
    60cc:	fb 01       	movw	r30, r22
    60ce:	dc 01       	movw	r26, r24
    60d0:	41 50       	subi	r20, 0x01	; 1
    60d2:	50 40       	sbci	r21, 0x00	; 0
    60d4:	88 f0       	brcs	.+34     	; 0x60f8 <strncasecmp_P+0x2c>
    60d6:	8d 91       	ld	r24, X+
    60d8:	81 34       	cpi	r24, 0x41	; 65
    60da:	1c f0       	brlt	.+6      	; 0x60e2 <strncasecmp_P+0x16>
    60dc:	8b 35       	cpi	r24, 0x5B	; 91
    60de:	0c f4       	brge	.+2      	; 0x60e2 <strncasecmp_P+0x16>
    60e0:	80 5e       	subi	r24, 0xE0	; 224
    60e2:	65 91       	lpm	r22, Z+
    60e4:	61 34       	cpi	r22, 0x41	; 65
    60e6:	1c f0       	brlt	.+6      	; 0x60ee <strncasecmp_P+0x22>
    60e8:	6b 35       	cpi	r22, 0x5B	; 91
    60ea:	0c f4       	brge	.+2      	; 0x60ee <strncasecmp_P+0x22>
    60ec:	60 5e       	subi	r22, 0xE0	; 224
    60ee:	86 1b       	sub	r24, r22
    60f0:	61 11       	cpse	r22, r1
    60f2:	71 f3       	breq	.-36     	; 0x60d0 <strncasecmp_P+0x4>
    60f4:	99 0b       	sbc	r25, r25
    60f6:	08 95       	ret
    60f8:	88 1b       	sub	r24, r24
    60fa:	fc cf       	rjmp	.-8      	; 0x60f4 <strncasecmp_P+0x28>

000060fc <memcpy>:
    60fc:	fb 01       	movw	r30, r22
    60fe:	dc 01       	movw	r26, r24
    6100:	02 c0       	rjmp	.+4      	; 0x6106 <memcpy+0xa>
    6102:	01 90       	ld	r0, Z+
    6104:	0d 92       	st	X+, r0
    6106:	41 50       	subi	r20, 0x01	; 1
    6108:	50 40       	sbci	r21, 0x00	; 0
    610a:	d8 f7       	brcc	.-10     	; 0x6102 <memcpy+0x6>
    610c:	08 95       	ret

0000610e <strcmp>:
    610e:	fb 01       	movw	r30, r22
    6110:	dc 01       	movw	r26, r24
    6112:	8d 91       	ld	r24, X+
    6114:	01 90       	ld	r0, Z+
    6116:	80 19       	sub	r24, r0
    6118:	01 10       	cpse	r0, r1
    611a:	d9 f3       	breq	.-10     	; 0x6112 <strcmp+0x4>
    611c:	99 0b       	sbc	r25, r25
    611e:	08 95       	ret

00006120 <strcpy>:
    6120:	fb 01       	movw	r30, r22
    6122:	dc 01       	movw	r26, r24
    6124:	01 90       	ld	r0, Z+
    6126:	0d 92       	st	X+, r0
    6128:	00 20       	and	r0, r0
    612a:	e1 f7       	brne	.-8      	; 0x6124 <strcpy+0x4>
    612c:	08 95       	ret

0000612e <strncmp>:
    612e:	fb 01       	movw	r30, r22
    6130:	dc 01       	movw	r26, r24
    6132:	41 50       	subi	r20, 0x01	; 1
    6134:	50 40       	sbci	r21, 0x00	; 0
    6136:	30 f0       	brcs	.+12     	; 0x6144 <strncmp+0x16>
    6138:	8d 91       	ld	r24, X+
    613a:	01 90       	ld	r0, Z+
    613c:	80 19       	sub	r24, r0
    613e:	19 f4       	brne	.+6      	; 0x6146 <strncmp+0x18>
    6140:	00 20       	and	r0, r0
    6142:	b9 f7       	brne	.-18     	; 0x6132 <strncmp+0x4>
    6144:	88 1b       	sub	r24, r24
    6146:	99 0b       	sbc	r25, r25
    6148:	08 95       	ret

0000614a <itoa>:
    614a:	45 32       	cpi	r20, 0x25	; 37
    614c:	51 05       	cpc	r21, r1
    614e:	18 f4       	brcc	.+6      	; 0x6156 <itoa+0xc>
    6150:	42 30       	cpi	r20, 0x02	; 2
    6152:	08 f0       	brcs	.+2      	; 0x6156 <itoa+0xc>
    6154:	04 c0       	rjmp	.+8      	; 0x615e <__itoa_ncheck>
    6156:	fb 01       	movw	r30, r22
    6158:	10 82       	st	Z, r1
    615a:	cb 01       	movw	r24, r22
    615c:	08 95       	ret

0000615e <__itoa_ncheck>:
    615e:	bb 27       	eor	r27, r27
    6160:	4a 30       	cpi	r20, 0x0A	; 10
    6162:	31 f4       	brne	.+12     	; 0x6170 <__itoa_ncheck+0x12>
    6164:	99 23       	and	r25, r25
    6166:	22 f4       	brpl	.+8      	; 0x6170 <__itoa_ncheck+0x12>
    6168:	bd e2       	ldi	r27, 0x2D	; 45
    616a:	90 95       	com	r25
    616c:	81 95       	neg	r24
    616e:	9f 4f       	sbci	r25, 0xFF	; 255
    6170:	4f c0       	rjmp	.+158    	; 0x6210 <__utoa_common>

00006172 <ltoa>:
    6172:	25 32       	cpi	r18, 0x25	; 37
    6174:	31 05       	cpc	r19, r1
    6176:	18 f4       	brcc	.+6      	; 0x617e <ltoa+0xc>
    6178:	22 30       	cpi	r18, 0x02	; 2
    617a:	08 f0       	brcs	.+2      	; 0x617e <ltoa+0xc>
    617c:	04 c0       	rjmp	.+8      	; 0x6186 <__ltoa_ncheck>
    617e:	fa 01       	movw	r30, r20
    6180:	10 82       	st	Z, r1
    6182:	ca 01       	movw	r24, r20
    6184:	08 95       	ret

00006186 <__ltoa_ncheck>:
    6186:	bb 27       	eor	r27, r27
    6188:	2a 30       	cpi	r18, 0x0A	; 10
    618a:	51 f4       	brne	.+20     	; 0x61a0 <__ltoa_ncheck+0x1a>
    618c:	99 23       	and	r25, r25
    618e:	42 f4       	brpl	.+16     	; 0x61a0 <__ltoa_ncheck+0x1a>
    6190:	bd e2       	ldi	r27, 0x2D	; 45
    6192:	90 95       	com	r25
    6194:	80 95       	com	r24
    6196:	70 95       	com	r23
    6198:	61 95       	neg	r22
    619a:	7f 4f       	sbci	r23, 0xFF	; 255
    619c:	8f 4f       	sbci	r24, 0xFF	; 255
    619e:	9f 4f       	sbci	r25, 0xFF	; 255
    61a0:	16 c0       	rjmp	.+44     	; 0x61ce <__ultoa_common>

000061a2 <__mulsi_const_10>:
    61a2:	59 2f       	mov	r21, r25
    61a4:	48 2f       	mov	r20, r24
    61a6:	37 2f       	mov	r19, r23
    61a8:	26 2f       	mov	r18, r22
    61aa:	66 0f       	add	r22, r22
    61ac:	77 1f       	adc	r23, r23
    61ae:	88 1f       	adc	r24, r24
    61b0:	99 1f       	adc	r25, r25
    61b2:	66 0f       	add	r22, r22
    61b4:	77 1f       	adc	r23, r23
    61b6:	88 1f       	adc	r24, r24
    61b8:	99 1f       	adc	r25, r25
    61ba:	62 0f       	add	r22, r18
    61bc:	73 1f       	adc	r23, r19
    61be:	84 1f       	adc	r24, r20
    61c0:	95 1f       	adc	r25, r21
    61c2:	66 0f       	add	r22, r22
    61c4:	77 1f       	adc	r23, r23
    61c6:	88 1f       	adc	r24, r24
    61c8:	99 1f       	adc	r25, r25
    61ca:	08 95       	ret

000061cc <__ultoa_ncheck>:
    61cc:	bb 27       	eor	r27, r27

000061ce <__ultoa_common>:
    61ce:	fa 01       	movw	r30, r20
    61d0:	a6 2f       	mov	r26, r22
    61d2:	62 17       	cp	r22, r18
    61d4:	71 05       	cpc	r23, r1
    61d6:	81 05       	cpc	r24, r1
    61d8:	91 05       	cpc	r25, r1
    61da:	33 0b       	sbc	r19, r19
    61dc:	30 fb       	bst	r19, 0
    61de:	66 f0       	brts	.+24     	; 0x61f8 <__ultoa_common+0x2a>
    61e0:	aa 27       	eor	r26, r26
    61e2:	66 0f       	add	r22, r22
    61e4:	77 1f       	adc	r23, r23
    61e6:	88 1f       	adc	r24, r24
    61e8:	99 1f       	adc	r25, r25
    61ea:	aa 1f       	adc	r26, r26
    61ec:	a2 17       	cp	r26, r18
    61ee:	10 f0       	brcs	.+4      	; 0x61f4 <__ultoa_common+0x26>
    61f0:	a2 1b       	sub	r26, r18
    61f2:	63 95       	inc	r22
    61f4:	38 50       	subi	r19, 0x08	; 8
    61f6:	a9 f7       	brne	.-22     	; 0x61e2 <__ultoa_common+0x14>
    61f8:	a0 5d       	subi	r26, 0xD0	; 208
    61fa:	aa 33       	cpi	r26, 0x3A	; 58
    61fc:	08 f0       	brcs	.+2      	; 0x6200 <__ultoa_common+0x32>
    61fe:	a9 5d       	subi	r26, 0xD9	; 217
    6200:	a1 93       	st	Z+, r26
    6202:	36 f7       	brtc	.-52     	; 0x61d0 <__ultoa_common+0x2>
    6204:	b1 11       	cpse	r27, r1
    6206:	b1 93       	st	Z+, r27
    6208:	10 82       	st	Z, r1
    620a:	ca 01       	movw	r24, r20
    620c:	81 c2       	rjmp	.+1282   	; 0x6710 <strrev>

0000620e <__utoa_ncheck>:
    620e:	bb 27       	eor	r27, r27

00006210 <__utoa_common>:
    6210:	fb 01       	movw	r30, r22
    6212:	55 27       	eor	r21, r21
    6214:	aa 27       	eor	r26, r26
    6216:	88 0f       	add	r24, r24
    6218:	99 1f       	adc	r25, r25
    621a:	aa 1f       	adc	r26, r26
    621c:	a4 17       	cp	r26, r20
    621e:	10 f0       	brcs	.+4      	; 0x6224 <__utoa_common+0x14>
    6220:	a4 1b       	sub	r26, r20
    6222:	83 95       	inc	r24
    6224:	50 51       	subi	r21, 0x10	; 16
    6226:	b9 f7       	brne	.-18     	; 0x6216 <__utoa_common+0x6>
    6228:	a0 5d       	subi	r26, 0xD0	; 208
    622a:	aa 33       	cpi	r26, 0x3A	; 58
    622c:	08 f0       	brcs	.+2      	; 0x6230 <__utoa_common+0x20>
    622e:	a9 5d       	subi	r26, 0xD9	; 217
    6230:	a1 93       	st	Z+, r26
    6232:	00 97       	sbiw	r24, 0x00	; 0
    6234:	79 f7       	brne	.-34     	; 0x6214 <__utoa_common+0x4>
    6236:	b1 11       	cpse	r27, r1
    6238:	b1 93       	st	Z+, r27
    623a:	11 92       	st	Z+, r1
    623c:	cb 01       	movw	r24, r22
    623e:	68 c2       	rjmp	.+1232   	; 0x6710 <strrev>

00006240 <dtoa_prf>:
    6240:	4f 92       	push	r4
    6242:	5f 92       	push	r5
    6244:	6f 92       	push	r6
    6246:	7f 92       	push	r7
    6248:	9f 92       	push	r9
    624a:	af 92       	push	r10
    624c:	bf 92       	push	r11
    624e:	cf 92       	push	r12
    6250:	df 92       	push	r13
    6252:	ef 92       	push	r14
    6254:	ff 92       	push	r15
    6256:	0f 93       	push	r16
    6258:	1f 93       	push	r17
    625a:	cf 93       	push	r28
    625c:	df 93       	push	r29
    625e:	cd b7       	in	r28, 0x3d	; 61
    6260:	de b7       	in	r29, 0x3e	; 62
    6262:	29 97       	sbiw	r28, 0x09	; 9
    6264:	0f b6       	in	r0, 0x3f	; 63
    6266:	f8 94       	cli
    6268:	de bf       	out	0x3e, r29	; 62
    626a:	0f be       	out	0x3f, r0	; 63
    626c:	cd bf       	out	0x3d, r28	; 61
    626e:	6a 01       	movw	r12, r20
    6270:	12 2f       	mov	r17, r18
    6272:	b0 2e       	mov	r11, r16
    6274:	2b e3       	ldi	r18, 0x3B	; 59
    6276:	20 17       	cp	r18, r16
    6278:	20 f0       	brcs	.+8      	; 0x6282 <dtoa_prf+0x42>
    627a:	ff 24       	eor	r15, r15
    627c:	f3 94       	inc	r15
    627e:	f0 0e       	add	r15, r16
    6280:	02 c0       	rjmp	.+4      	; 0x6286 <dtoa_prf+0x46>
    6282:	bc e3       	ldi	r27, 0x3C	; 60
    6284:	fb 2e       	mov	r15, r27
    6286:	0f 2d       	mov	r16, r15
    6288:	27 e0       	ldi	r18, 0x07	; 7
    628a:	ae 01       	movw	r20, r28
    628c:	4f 5f       	subi	r20, 0xFF	; 255
    628e:	5f 4f       	sbci	r21, 0xFF	; 255
    6290:	64 d1       	rcall	.+712    	; 0x655a <__ftoa_engine>
    6292:	ac 01       	movw	r20, r24
    6294:	89 81       	ldd	r24, Y+1	; 0x01
    6296:	98 2f       	mov	r25, r24
    6298:	99 70       	andi	r25, 0x09	; 9
    629a:	91 30       	cpi	r25, 0x01	; 1
    629c:	31 f0       	breq	.+12     	; 0x62aa <dtoa_prf+0x6a>
    629e:	e1 fc       	sbrc	r14, 1
    62a0:	06 c0       	rjmp	.+12     	; 0x62ae <dtoa_prf+0x6e>
    62a2:	e0 fe       	sbrs	r14, 0
    62a4:	06 c0       	rjmp	.+12     	; 0x62b2 <dtoa_prf+0x72>
    62a6:	90 e2       	ldi	r25, 0x20	; 32
    62a8:	05 c0       	rjmp	.+10     	; 0x62b4 <dtoa_prf+0x74>
    62aa:	9d e2       	ldi	r25, 0x2D	; 45
    62ac:	03 c0       	rjmp	.+6      	; 0x62b4 <dtoa_prf+0x74>
    62ae:	9b e2       	ldi	r25, 0x2B	; 43
    62b0:	01 c0       	rjmp	.+2      	; 0x62b4 <dtoa_prf+0x74>
    62b2:	90 e0       	ldi	r25, 0x00	; 0
    62b4:	ee 2d       	mov	r30, r14
    62b6:	e0 71       	andi	r30, 0x10	; 16
    62b8:	83 ff       	sbrs	r24, 3
    62ba:	3c c0       	rjmp	.+120    	; 0x6334 <dtoa_prf+0xf4>
    62bc:	91 11       	cpse	r25, r1
    62be:	02 c0       	rjmp	.+4      	; 0x62c4 <dtoa_prf+0x84>
    62c0:	83 e0       	ldi	r24, 0x03	; 3
    62c2:	01 c0       	rjmp	.+2      	; 0x62c6 <dtoa_prf+0x86>
    62c4:	84 e0       	ldi	r24, 0x04	; 4
    62c6:	81 17       	cp	r24, r17
    62c8:	18 f4       	brcc	.+6      	; 0x62d0 <dtoa_prf+0x90>
    62ca:	21 2f       	mov	r18, r17
    62cc:	28 1b       	sub	r18, r24
    62ce:	01 c0       	rjmp	.+2      	; 0x62d2 <dtoa_prf+0x92>
    62d0:	20 e0       	ldi	r18, 0x00	; 0
    62d2:	e1 11       	cpse	r30, r1
    62d4:	0b c0       	rjmp	.+22     	; 0x62ec <dtoa_prf+0xac>
    62d6:	f6 01       	movw	r30, r12
    62d8:	82 2f       	mov	r24, r18
    62da:	30 e2       	ldi	r19, 0x20	; 32
    62dc:	88 23       	and	r24, r24
    62de:	19 f0       	breq	.+6      	; 0x62e6 <dtoa_prf+0xa6>
    62e0:	31 93       	st	Z+, r19
    62e2:	81 50       	subi	r24, 0x01	; 1
    62e4:	fb cf       	rjmp	.-10     	; 0x62dc <dtoa_prf+0x9c>
    62e6:	c2 0e       	add	r12, r18
    62e8:	d1 1c       	adc	r13, r1
    62ea:	20 e0       	ldi	r18, 0x00	; 0
    62ec:	99 23       	and	r25, r25
    62ee:	29 f0       	breq	.+10     	; 0x62fa <dtoa_prf+0xba>
    62f0:	d6 01       	movw	r26, r12
    62f2:	9c 93       	st	X, r25
    62f4:	f6 01       	movw	r30, r12
    62f6:	31 96       	adiw	r30, 0x01	; 1
    62f8:	6f 01       	movw	r12, r30
    62fa:	c6 01       	movw	r24, r12
    62fc:	03 96       	adiw	r24, 0x03	; 3
    62fe:	e2 fe       	sbrs	r14, 2
    6300:	0a c0       	rjmp	.+20     	; 0x6316 <dtoa_prf+0xd6>
    6302:	3e e4       	ldi	r19, 0x4E	; 78
    6304:	d6 01       	movw	r26, r12
    6306:	3c 93       	st	X, r19
    6308:	41 e4       	ldi	r20, 0x41	; 65
    630a:	11 96       	adiw	r26, 0x01	; 1
    630c:	4c 93       	st	X, r20
    630e:	11 97       	sbiw	r26, 0x01	; 1
    6310:	12 96       	adiw	r26, 0x02	; 2
    6312:	3c 93       	st	X, r19
    6314:	06 c0       	rjmp	.+12     	; 0x6322 <dtoa_prf+0xe2>
    6316:	3e e6       	ldi	r19, 0x6E	; 110
    6318:	f6 01       	movw	r30, r12
    631a:	30 83       	st	Z, r19
    631c:	41 e6       	ldi	r20, 0x61	; 97
    631e:	41 83       	std	Z+1, r20	; 0x01
    6320:	32 83       	std	Z+2, r19	; 0x02
    6322:	fc 01       	movw	r30, r24
    6324:	32 2f       	mov	r19, r18
    6326:	40 e2       	ldi	r20, 0x20	; 32
    6328:	33 23       	and	r19, r19
    632a:	09 f4       	brne	.+2      	; 0x632e <dtoa_prf+0xee>
    632c:	42 c0       	rjmp	.+132    	; 0x63b2 <dtoa_prf+0x172>
    632e:	41 93       	st	Z+, r20
    6330:	31 50       	subi	r19, 0x01	; 1
    6332:	fa cf       	rjmp	.-12     	; 0x6328 <dtoa_prf+0xe8>
    6334:	82 ff       	sbrs	r24, 2
    6336:	44 c0       	rjmp	.+136    	; 0x63c0 <dtoa_prf+0x180>
    6338:	91 11       	cpse	r25, r1
    633a:	02 c0       	rjmp	.+4      	; 0x6340 <dtoa_prf+0x100>
    633c:	83 e0       	ldi	r24, 0x03	; 3
    633e:	01 c0       	rjmp	.+2      	; 0x6342 <dtoa_prf+0x102>
    6340:	84 e0       	ldi	r24, 0x04	; 4
    6342:	81 17       	cp	r24, r17
    6344:	18 f4       	brcc	.+6      	; 0x634c <dtoa_prf+0x10c>
    6346:	21 2f       	mov	r18, r17
    6348:	28 1b       	sub	r18, r24
    634a:	01 c0       	rjmp	.+2      	; 0x634e <dtoa_prf+0x10e>
    634c:	20 e0       	ldi	r18, 0x00	; 0
    634e:	e1 11       	cpse	r30, r1
    6350:	0b c0       	rjmp	.+22     	; 0x6368 <dtoa_prf+0x128>
    6352:	f6 01       	movw	r30, r12
    6354:	82 2f       	mov	r24, r18
    6356:	30 e2       	ldi	r19, 0x20	; 32
    6358:	88 23       	and	r24, r24
    635a:	19 f0       	breq	.+6      	; 0x6362 <dtoa_prf+0x122>
    635c:	31 93       	st	Z+, r19
    635e:	81 50       	subi	r24, 0x01	; 1
    6360:	fb cf       	rjmp	.-10     	; 0x6358 <dtoa_prf+0x118>
    6362:	c2 0e       	add	r12, r18
    6364:	d1 1c       	adc	r13, r1
    6366:	20 e0       	ldi	r18, 0x00	; 0
    6368:	99 23       	and	r25, r25
    636a:	29 f0       	breq	.+10     	; 0x6376 <dtoa_prf+0x136>
    636c:	d6 01       	movw	r26, r12
    636e:	9c 93       	st	X, r25
    6370:	f6 01       	movw	r30, r12
    6372:	31 96       	adiw	r30, 0x01	; 1
    6374:	6f 01       	movw	r12, r30
    6376:	c6 01       	movw	r24, r12
    6378:	03 96       	adiw	r24, 0x03	; 3
    637a:	e2 fe       	sbrs	r14, 2
    637c:	0b c0       	rjmp	.+22     	; 0x6394 <dtoa_prf+0x154>
    637e:	39 e4       	ldi	r19, 0x49	; 73
    6380:	d6 01       	movw	r26, r12
    6382:	3c 93       	st	X, r19
    6384:	3e e4       	ldi	r19, 0x4E	; 78
    6386:	11 96       	adiw	r26, 0x01	; 1
    6388:	3c 93       	st	X, r19
    638a:	11 97       	sbiw	r26, 0x01	; 1
    638c:	36 e4       	ldi	r19, 0x46	; 70
    638e:	12 96       	adiw	r26, 0x02	; 2
    6390:	3c 93       	st	X, r19
    6392:	07 c0       	rjmp	.+14     	; 0x63a2 <dtoa_prf+0x162>
    6394:	39 e6       	ldi	r19, 0x69	; 105
    6396:	f6 01       	movw	r30, r12
    6398:	30 83       	st	Z, r19
    639a:	3e e6       	ldi	r19, 0x6E	; 110
    639c:	31 83       	std	Z+1, r19	; 0x01
    639e:	36 e6       	ldi	r19, 0x66	; 102
    63a0:	32 83       	std	Z+2, r19	; 0x02
    63a2:	fc 01       	movw	r30, r24
    63a4:	32 2f       	mov	r19, r18
    63a6:	40 e2       	ldi	r20, 0x20	; 32
    63a8:	33 23       	and	r19, r19
    63aa:	19 f0       	breq	.+6      	; 0x63b2 <dtoa_prf+0x172>
    63ac:	41 93       	st	Z+, r20
    63ae:	31 50       	subi	r19, 0x01	; 1
    63b0:	fb cf       	rjmp	.-10     	; 0x63a8 <dtoa_prf+0x168>
    63b2:	fc 01       	movw	r30, r24
    63b4:	e2 0f       	add	r30, r18
    63b6:	f1 1d       	adc	r31, r1
    63b8:	10 82       	st	Z, r1
    63ba:	8e ef       	ldi	r24, 0xFE	; 254
    63bc:	9f ef       	ldi	r25, 0xFF	; 255
    63be:	b7 c0       	rjmp	.+366    	; 0x652e <dtoa_prf+0x2ee>
    63c0:	f1 e0       	ldi	r31, 0x01	; 1
    63c2:	91 11       	cpse	r25, r1
    63c4:	01 c0       	rjmp	.+2      	; 0x63c8 <dtoa_prf+0x188>
    63c6:	f0 e0       	ldi	r31, 0x00	; 0
    63c8:	6f 2f       	mov	r22, r31
    63ca:	70 e0       	ldi	r23, 0x00	; 0
    63cc:	14 16       	cp	r1, r20
    63ce:	15 06       	cpc	r1, r21
    63d0:	24 f4       	brge	.+8      	; 0x63da <dtoa_prf+0x19a>
    63d2:	9a 01       	movw	r18, r20
    63d4:	2f 5f       	subi	r18, 0xFF	; 255
    63d6:	3f 4f       	sbci	r19, 0xFF	; 255
    63d8:	02 c0       	rjmp	.+4      	; 0x63de <dtoa_prf+0x19e>
    63da:	21 e0       	ldi	r18, 0x01	; 1
    63dc:	30 e0       	ldi	r19, 0x00	; 0
    63de:	26 0f       	add	r18, r22
    63e0:	37 1f       	adc	r19, r23
    63e2:	bb 20       	and	r11, r11
    63e4:	29 f0       	breq	.+10     	; 0x63f0 <dtoa_prf+0x1b0>
    63e6:	6b 2d       	mov	r22, r11
    63e8:	70 e0       	ldi	r23, 0x00	; 0
    63ea:	6f 5f       	subi	r22, 0xFF	; 255
    63ec:	7f 4f       	sbci	r23, 0xFF	; 255
    63ee:	02 c0       	rjmp	.+4      	; 0x63f4 <dtoa_prf+0x1b4>
    63f0:	60 e0       	ldi	r22, 0x00	; 0
    63f2:	70 e0       	ldi	r23, 0x00	; 0
    63f4:	26 0f       	add	r18, r22
    63f6:	37 1f       	adc	r19, r23
    63f8:	61 2f       	mov	r22, r17
    63fa:	70 e0       	ldi	r23, 0x00	; 0
    63fc:	26 17       	cp	r18, r22
    63fe:	37 07       	cpc	r19, r23
    6400:	1c f4       	brge	.+6      	; 0x6408 <dtoa_prf+0x1c8>
    6402:	12 1b       	sub	r17, r18
    6404:	21 2f       	mov	r18, r17
    6406:	01 c0       	rjmp	.+2      	; 0x640a <dtoa_prf+0x1ca>
    6408:	20 e0       	ldi	r18, 0x00	; 0
    640a:	3e 2d       	mov	r19, r14
    640c:	38 71       	andi	r19, 0x18	; 24
    640e:	59 f4       	brne	.+22     	; 0x6426 <dtoa_prf+0x1e6>
    6410:	d6 01       	movw	r26, r12
    6412:	32 2f       	mov	r19, r18
    6414:	60 e2       	ldi	r22, 0x20	; 32
    6416:	33 23       	and	r19, r19
    6418:	19 f0       	breq	.+6      	; 0x6420 <dtoa_prf+0x1e0>
    641a:	6d 93       	st	X+, r22
    641c:	31 50       	subi	r19, 0x01	; 1
    641e:	fb cf       	rjmp	.-10     	; 0x6416 <dtoa_prf+0x1d6>
    6420:	c2 0e       	add	r12, r18
    6422:	d1 1c       	adc	r13, r1
    6424:	20 e0       	ldi	r18, 0x00	; 0
    6426:	ff 23       	and	r31, r31
    6428:	31 f0       	breq	.+12     	; 0x6436 <dtoa_prf+0x1f6>
    642a:	d6 01       	movw	r26, r12
    642c:	9c 93       	st	X, r25
    642e:	b6 01       	movw	r22, r12
    6430:	6f 5f       	subi	r22, 0xFF	; 255
    6432:	7f 4f       	sbci	r23, 0xFF	; 255
    6434:	6b 01       	movw	r12, r22
    6436:	e1 11       	cpse	r30, r1
    6438:	0b c0       	rjmp	.+22     	; 0x6450 <dtoa_prf+0x210>
    643a:	f6 01       	movw	r30, r12
    643c:	92 2f       	mov	r25, r18
    643e:	30 e3       	ldi	r19, 0x30	; 48
    6440:	99 23       	and	r25, r25
    6442:	19 f0       	breq	.+6      	; 0x644a <dtoa_prf+0x20a>
    6444:	31 93       	st	Z+, r19
    6446:	91 50       	subi	r25, 0x01	; 1
    6448:	fb cf       	rjmp	.-10     	; 0x6440 <dtoa_prf+0x200>
    644a:	c2 0e       	add	r12, r18
    644c:	d1 1c       	adc	r13, r1
    644e:	20 e0       	ldi	r18, 0x00	; 0
    6450:	9f 2d       	mov	r25, r15
    6452:	94 0f       	add	r25, r20
    6454:	3a 81       	ldd	r19, Y+2	; 0x02
    6456:	78 2f       	mov	r23, r24
    6458:	70 71       	andi	r23, 0x10	; 16
    645a:	a7 2e       	mov	r10, r23
    645c:	84 ff       	sbrs	r24, 4
    645e:	03 c0       	rjmp	.+6      	; 0x6466 <dtoa_prf+0x226>
    6460:	31 33       	cpi	r19, 0x31	; 49
    6462:	09 f4       	brne	.+2      	; 0x6466 <dtoa_prf+0x226>
    6464:	91 50       	subi	r25, 0x01	; 1
    6466:	19 16       	cp	r1, r25
    6468:	24 f4       	brge	.+8      	; 0x6472 <dtoa_prf+0x232>
    646a:	99 30       	cpi	r25, 0x09	; 9
    646c:	18 f0       	brcs	.+6      	; 0x6474 <dtoa_prf+0x234>
    646e:	98 e0       	ldi	r25, 0x08	; 8
    6470:	01 c0       	rjmp	.+2      	; 0x6474 <dtoa_prf+0x234>
    6472:	91 e0       	ldi	r25, 0x01	; 1
    6474:	e4 2f       	mov	r30, r20
    6476:	85 2f       	mov	r24, r21
    6478:	57 ff       	sbrs	r21, 7
    647a:	02 c0       	rjmp	.+4      	; 0x6480 <dtoa_prf+0x240>
    647c:	e0 e0       	ldi	r30, 0x00	; 0
    647e:	80 e0       	ldi	r24, 0x00	; 0
    6480:	6e 2f       	mov	r22, r30
    6482:	78 2f       	mov	r23, r24
    6484:	e0 e0       	ldi	r30, 0x00	; 0
    6486:	f0 e0       	ldi	r31, 0x00	; 0
    6488:	ae e2       	ldi	r26, 0x2E	; 46
    648a:	9a 2e       	mov	r9, r26
    648c:	3a 01       	movw	r6, r20
    648e:	69 1a       	sub	r6, r25
    6490:	71 08       	sbc	r7, r1
    6492:	2a 01       	movw	r4, r20
    6494:	46 1a       	sub	r4, r22
    6496:	57 0a       	sbc	r5, r23
    6498:	0b 2d       	mov	r16, r11
    649a:	10 e0       	ldi	r17, 0x00	; 0
    649c:	11 95       	neg	r17
    649e:	01 95       	neg	r16
    64a0:	11 09       	sbc	r17, r1
    64a2:	6f 3f       	cpi	r22, 0xFF	; 255
    64a4:	8f ef       	ldi	r24, 0xFF	; 255
    64a6:	78 07       	cpc	r23, r24
    64a8:	29 f4       	brne	.+10     	; 0x64b4 <dtoa_prf+0x274>
    64aa:	d6 01       	movw	r26, r12
    64ac:	9c 92       	st	X, r9
    64ae:	c6 01       	movw	r24, r12
    64b0:	01 96       	adiw	r24, 0x01	; 1
    64b2:	6c 01       	movw	r12, r24
    64b4:	46 17       	cp	r20, r22
    64b6:	57 07       	cpc	r21, r23
    64b8:	84 f0       	brlt	.+32     	; 0x64da <dtoa_prf+0x29a>
    64ba:	66 16       	cp	r6, r22
    64bc:	77 06       	cpc	r7, r23
    64be:	6c f4       	brge	.+26     	; 0x64da <dtoa_prf+0x29a>
    64c0:	7f 01       	movw	r14, r30
    64c2:	e4 0c       	add	r14, r4
    64c4:	f5 1c       	adc	r15, r5
    64c6:	a1 e0       	ldi	r26, 0x01	; 1
    64c8:	b0 e0       	ldi	r27, 0x00	; 0
    64ca:	ac 0f       	add	r26, r28
    64cc:	bd 1f       	adc	r27, r29
    64ce:	ea 0e       	add	r14, r26
    64d0:	fb 1e       	adc	r15, r27
    64d2:	d7 01       	movw	r26, r14
    64d4:	11 96       	adiw	r26, 0x01	; 1
    64d6:	bc 90       	ld	r11, X
    64d8:	02 c0       	rjmp	.+4      	; 0x64de <dtoa_prf+0x29e>
    64da:	90 e3       	ldi	r25, 0x30	; 48
    64dc:	b9 2e       	mov	r11, r25
    64de:	61 50       	subi	r22, 0x01	; 1
    64e0:	71 09       	sbc	r23, r1
    64e2:	31 96       	adiw	r30, 0x01	; 1
    64e4:	c6 01       	movw	r24, r12
    64e6:	01 96       	adiw	r24, 0x01	; 1
    64e8:	7c 01       	movw	r14, r24
    64ea:	60 17       	cp	r22, r16
    64ec:	71 07       	cpc	r23, r17
    64ee:	24 f0       	brlt	.+8      	; 0x64f8 <dtoa_prf+0x2b8>
    64f0:	d6 01       	movw	r26, r12
    64f2:	bc 92       	st	X, r11
    64f4:	6c 01       	movw	r12, r24
    64f6:	d5 cf       	rjmp	.-86     	; 0x64a2 <dtoa_prf+0x262>
    64f8:	64 17       	cp	r22, r20
    64fa:	75 07       	cpc	r23, r21
    64fc:	41 f4       	brne	.+16     	; 0x650e <dtoa_prf+0x2ce>
    64fe:	36 33       	cpi	r19, 0x36	; 54
    6500:	20 f4       	brcc	.+8      	; 0x650a <dtoa_prf+0x2ca>
    6502:	35 33       	cpi	r19, 0x35	; 53
    6504:	21 f4       	brne	.+8      	; 0x650e <dtoa_prf+0x2ce>
    6506:	a1 10       	cpse	r10, r1
    6508:	02 c0       	rjmp	.+4      	; 0x650e <dtoa_prf+0x2ce>
    650a:	81 e3       	ldi	r24, 0x31	; 49
    650c:	b8 2e       	mov	r11, r24
    650e:	f6 01       	movw	r30, r12
    6510:	b0 82       	st	Z, r11
    6512:	f7 01       	movw	r30, r14
    6514:	82 2f       	mov	r24, r18
    6516:	90 e2       	ldi	r25, 0x20	; 32
    6518:	88 23       	and	r24, r24
    651a:	19 f0       	breq	.+6      	; 0x6522 <dtoa_prf+0x2e2>
    651c:	91 93       	st	Z+, r25
    651e:	81 50       	subi	r24, 0x01	; 1
    6520:	fb cf       	rjmp	.-10     	; 0x6518 <dtoa_prf+0x2d8>
    6522:	f7 01       	movw	r30, r14
    6524:	e2 0f       	add	r30, r18
    6526:	f1 1d       	adc	r31, r1
    6528:	10 82       	st	Z, r1
    652a:	80 e0       	ldi	r24, 0x00	; 0
    652c:	90 e0       	ldi	r25, 0x00	; 0
    652e:	29 96       	adiw	r28, 0x09	; 9
    6530:	0f b6       	in	r0, 0x3f	; 63
    6532:	f8 94       	cli
    6534:	de bf       	out	0x3e, r29	; 62
    6536:	0f be       	out	0x3f, r0	; 63
    6538:	cd bf       	out	0x3d, r28	; 61
    653a:	df 91       	pop	r29
    653c:	cf 91       	pop	r28
    653e:	1f 91       	pop	r17
    6540:	0f 91       	pop	r16
    6542:	ff 90       	pop	r15
    6544:	ef 90       	pop	r14
    6546:	df 90       	pop	r13
    6548:	cf 90       	pop	r12
    654a:	bf 90       	pop	r11
    654c:	af 90       	pop	r10
    654e:	9f 90       	pop	r9
    6550:	7f 90       	pop	r7
    6552:	6f 90       	pop	r6
    6554:	5f 90       	pop	r5
    6556:	4f 90       	pop	r4
    6558:	08 95       	ret

0000655a <__ftoa_engine>:
    655a:	28 30       	cpi	r18, 0x08	; 8
    655c:	08 f0       	brcs	.+2      	; 0x6560 <__ftoa_engine+0x6>
    655e:	27 e0       	ldi	r18, 0x07	; 7
    6560:	33 27       	eor	r19, r19
    6562:	da 01       	movw	r26, r20
    6564:	99 0f       	add	r25, r25
    6566:	31 1d       	adc	r19, r1
    6568:	87 fd       	sbrc	r24, 7
    656a:	91 60       	ori	r25, 0x01	; 1
    656c:	00 96       	adiw	r24, 0x00	; 0
    656e:	61 05       	cpc	r22, r1
    6570:	71 05       	cpc	r23, r1
    6572:	39 f4       	brne	.+14     	; 0x6582 <__ftoa_engine+0x28>
    6574:	32 60       	ori	r19, 0x02	; 2
    6576:	2e 5f       	subi	r18, 0xFE	; 254
    6578:	3d 93       	st	X+, r19
    657a:	30 e3       	ldi	r19, 0x30	; 48
    657c:	2a 95       	dec	r18
    657e:	e1 f7       	brne	.-8      	; 0x6578 <__ftoa_engine+0x1e>
    6580:	08 95       	ret
    6582:	9f 3f       	cpi	r25, 0xFF	; 255
    6584:	30 f0       	brcs	.+12     	; 0x6592 <__ftoa_engine+0x38>
    6586:	80 38       	cpi	r24, 0x80	; 128
    6588:	71 05       	cpc	r23, r1
    658a:	61 05       	cpc	r22, r1
    658c:	09 f0       	breq	.+2      	; 0x6590 <__ftoa_engine+0x36>
    658e:	3c 5f       	subi	r19, 0xFC	; 252
    6590:	3c 5f       	subi	r19, 0xFC	; 252
    6592:	3d 93       	st	X+, r19
    6594:	91 30       	cpi	r25, 0x01	; 1
    6596:	08 f0       	brcs	.+2      	; 0x659a <__ftoa_engine+0x40>
    6598:	80 68       	ori	r24, 0x80	; 128
    659a:	91 1d       	adc	r25, r1
    659c:	df 93       	push	r29
    659e:	cf 93       	push	r28
    65a0:	1f 93       	push	r17
    65a2:	0f 93       	push	r16
    65a4:	ff 92       	push	r15
    65a6:	ef 92       	push	r14
    65a8:	19 2f       	mov	r17, r25
    65aa:	98 7f       	andi	r25, 0xF8	; 248
    65ac:	96 95       	lsr	r25
    65ae:	e9 2f       	mov	r30, r25
    65b0:	96 95       	lsr	r25
    65b2:	96 95       	lsr	r25
    65b4:	e9 0f       	add	r30, r25
    65b6:	ff 27       	eor	r31, r31
    65b8:	e1 51       	subi	r30, 0x11	; 17
    65ba:	fd 4f       	sbci	r31, 0xFD	; 253
    65bc:	99 27       	eor	r25, r25
    65be:	33 27       	eor	r19, r19
    65c0:	ee 24       	eor	r14, r14
    65c2:	ff 24       	eor	r15, r15
    65c4:	a7 01       	movw	r20, r14
    65c6:	e7 01       	movw	r28, r14
    65c8:	05 90       	lpm	r0, Z+
    65ca:	08 94       	sec
    65cc:	07 94       	ror	r0
    65ce:	28 f4       	brcc	.+10     	; 0x65da <__ftoa_engine+0x80>
    65d0:	36 0f       	add	r19, r22
    65d2:	e7 1e       	adc	r14, r23
    65d4:	f8 1e       	adc	r15, r24
    65d6:	49 1f       	adc	r20, r25
    65d8:	51 1d       	adc	r21, r1
    65da:	66 0f       	add	r22, r22
    65dc:	77 1f       	adc	r23, r23
    65de:	88 1f       	adc	r24, r24
    65e0:	99 1f       	adc	r25, r25
    65e2:	06 94       	lsr	r0
    65e4:	a1 f7       	brne	.-24     	; 0x65ce <__ftoa_engine+0x74>
    65e6:	05 90       	lpm	r0, Z+
    65e8:	07 94       	ror	r0
    65ea:	28 f4       	brcc	.+10     	; 0x65f6 <__ftoa_engine+0x9c>
    65ec:	e7 0e       	add	r14, r23
    65ee:	f8 1e       	adc	r15, r24
    65f0:	49 1f       	adc	r20, r25
    65f2:	56 1f       	adc	r21, r22
    65f4:	c1 1d       	adc	r28, r1
    65f6:	77 0f       	add	r23, r23
    65f8:	88 1f       	adc	r24, r24
    65fa:	99 1f       	adc	r25, r25
    65fc:	66 1f       	adc	r22, r22
    65fe:	06 94       	lsr	r0
    6600:	a1 f7       	brne	.-24     	; 0x65ea <__ftoa_engine+0x90>
    6602:	05 90       	lpm	r0, Z+
    6604:	07 94       	ror	r0
    6606:	28 f4       	brcc	.+10     	; 0x6612 <__ftoa_engine+0xb8>
    6608:	f8 0e       	add	r15, r24
    660a:	49 1f       	adc	r20, r25
    660c:	56 1f       	adc	r21, r22
    660e:	c7 1f       	adc	r28, r23
    6610:	d1 1d       	adc	r29, r1
    6612:	88 0f       	add	r24, r24
    6614:	99 1f       	adc	r25, r25
    6616:	66 1f       	adc	r22, r22
    6618:	77 1f       	adc	r23, r23
    661a:	06 94       	lsr	r0
    661c:	a1 f7       	brne	.-24     	; 0x6606 <__ftoa_engine+0xac>
    661e:	05 90       	lpm	r0, Z+
    6620:	07 94       	ror	r0
    6622:	20 f4       	brcc	.+8      	; 0x662c <__ftoa_engine+0xd2>
    6624:	49 0f       	add	r20, r25
    6626:	56 1f       	adc	r21, r22
    6628:	c7 1f       	adc	r28, r23
    662a:	d8 1f       	adc	r29, r24
    662c:	99 0f       	add	r25, r25
    662e:	66 1f       	adc	r22, r22
    6630:	77 1f       	adc	r23, r23
    6632:	88 1f       	adc	r24, r24
    6634:	06 94       	lsr	r0
    6636:	a9 f7       	brne	.-22     	; 0x6622 <__ftoa_engine+0xc8>
    6638:	84 91       	lpm	r24, Z
    663a:	10 95       	com	r17
    663c:	17 70       	andi	r17, 0x07	; 7
    663e:	41 f0       	breq	.+16     	; 0x6650 <__ftoa_engine+0xf6>
    6640:	d6 95       	lsr	r29
    6642:	c7 95       	ror	r28
    6644:	57 95       	ror	r21
    6646:	47 95       	ror	r20
    6648:	f7 94       	ror	r15
    664a:	e7 94       	ror	r14
    664c:	1a 95       	dec	r17
    664e:	c1 f7       	brne	.-16     	; 0x6640 <__ftoa_engine+0xe6>
    6650:	e5 e9       	ldi	r30, 0x95	; 149
    6652:	f2 e0       	ldi	r31, 0x02	; 2
    6654:	68 94       	set
    6656:	15 90       	lpm	r1, Z+
    6658:	15 91       	lpm	r17, Z+
    665a:	35 91       	lpm	r19, Z+
    665c:	65 91       	lpm	r22, Z+
    665e:	95 91       	lpm	r25, Z+
    6660:	05 90       	lpm	r0, Z+
    6662:	7f e2       	ldi	r23, 0x2F	; 47
    6664:	73 95       	inc	r23
    6666:	e1 18       	sub	r14, r1
    6668:	f1 0a       	sbc	r15, r17
    666a:	43 0b       	sbc	r20, r19
    666c:	56 0b       	sbc	r21, r22
    666e:	c9 0b       	sbc	r28, r25
    6670:	d0 09       	sbc	r29, r0
    6672:	c0 f7       	brcc	.-16     	; 0x6664 <__ftoa_engine+0x10a>
    6674:	e1 0c       	add	r14, r1
    6676:	f1 1e       	adc	r15, r17
    6678:	43 1f       	adc	r20, r19
    667a:	56 1f       	adc	r21, r22
    667c:	c9 1f       	adc	r28, r25
    667e:	d0 1d       	adc	r29, r0
    6680:	7e f4       	brtc	.+30     	; 0x66a0 <__ftoa_engine+0x146>
    6682:	70 33       	cpi	r23, 0x30	; 48
    6684:	11 f4       	brne	.+4      	; 0x668a <__ftoa_engine+0x130>
    6686:	8a 95       	dec	r24
    6688:	e6 cf       	rjmp	.-52     	; 0x6656 <__ftoa_engine+0xfc>
    668a:	e8 94       	clt
    668c:	01 50       	subi	r16, 0x01	; 1
    668e:	30 f0       	brcs	.+12     	; 0x669c <__ftoa_engine+0x142>
    6690:	08 0f       	add	r16, r24
    6692:	0a f4       	brpl	.+2      	; 0x6696 <__ftoa_engine+0x13c>
    6694:	00 27       	eor	r16, r16
    6696:	02 17       	cp	r16, r18
    6698:	08 f4       	brcc	.+2      	; 0x669c <__ftoa_engine+0x142>
    669a:	20 2f       	mov	r18, r16
    669c:	23 95       	inc	r18
    669e:	02 2f       	mov	r16, r18
    66a0:	7a 33       	cpi	r23, 0x3A	; 58
    66a2:	28 f0       	brcs	.+10     	; 0x66ae <__ftoa_engine+0x154>
    66a4:	79 e3       	ldi	r23, 0x39	; 57
    66a6:	7d 93       	st	X+, r23
    66a8:	2a 95       	dec	r18
    66aa:	e9 f7       	brne	.-6      	; 0x66a6 <__ftoa_engine+0x14c>
    66ac:	10 c0       	rjmp	.+32     	; 0x66ce <__ftoa_engine+0x174>
    66ae:	7d 93       	st	X+, r23
    66b0:	2a 95       	dec	r18
    66b2:	89 f6       	brne	.-94     	; 0x6656 <__ftoa_engine+0xfc>
    66b4:	06 94       	lsr	r0
    66b6:	97 95       	ror	r25
    66b8:	67 95       	ror	r22
    66ba:	37 95       	ror	r19
    66bc:	17 95       	ror	r17
    66be:	17 94       	ror	r1
    66c0:	e1 18       	sub	r14, r1
    66c2:	f1 0a       	sbc	r15, r17
    66c4:	43 0b       	sbc	r20, r19
    66c6:	56 0b       	sbc	r21, r22
    66c8:	c9 0b       	sbc	r28, r25
    66ca:	d0 09       	sbc	r29, r0
    66cc:	98 f0       	brcs	.+38     	; 0x66f4 <__ftoa_engine+0x19a>
    66ce:	23 95       	inc	r18
    66d0:	7e 91       	ld	r23, -X
    66d2:	73 95       	inc	r23
    66d4:	7a 33       	cpi	r23, 0x3A	; 58
    66d6:	08 f0       	brcs	.+2      	; 0x66da <__ftoa_engine+0x180>
    66d8:	70 e3       	ldi	r23, 0x30	; 48
    66da:	7c 93       	st	X, r23
    66dc:	20 13       	cpse	r18, r16
    66de:	b8 f7       	brcc	.-18     	; 0x66ce <__ftoa_engine+0x174>
    66e0:	7e 91       	ld	r23, -X
    66e2:	70 61       	ori	r23, 0x10	; 16
    66e4:	7d 93       	st	X+, r23
    66e6:	30 f0       	brcs	.+12     	; 0x66f4 <__ftoa_engine+0x19a>
    66e8:	83 95       	inc	r24
    66ea:	71 e3       	ldi	r23, 0x31	; 49
    66ec:	7d 93       	st	X+, r23
    66ee:	70 e3       	ldi	r23, 0x30	; 48
    66f0:	2a 95       	dec	r18
    66f2:	e1 f7       	brne	.-8      	; 0x66ec <__ftoa_engine+0x192>
    66f4:	11 24       	eor	r1, r1
    66f6:	ef 90       	pop	r14
    66f8:	ff 90       	pop	r15
    66fa:	0f 91       	pop	r16
    66fc:	1f 91       	pop	r17
    66fe:	cf 91       	pop	r28
    6700:	df 91       	pop	r29
    6702:	99 27       	eor	r25, r25
    6704:	87 fd       	sbrc	r24, 7
    6706:	90 95       	com	r25
    6708:	08 95       	ret

0000670a <__ctype_isfalse>:
    670a:	99 27       	eor	r25, r25
    670c:	88 27       	eor	r24, r24

0000670e <__ctype_istrue>:
    670e:	08 95       	ret

00006710 <strrev>:
    6710:	dc 01       	movw	r26, r24
    6712:	fc 01       	movw	r30, r24
    6714:	67 2f       	mov	r22, r23
    6716:	71 91       	ld	r23, Z+
    6718:	77 23       	and	r23, r23
    671a:	e1 f7       	brne	.-8      	; 0x6714 <strrev+0x4>
    671c:	32 97       	sbiw	r30, 0x02	; 2
    671e:	04 c0       	rjmp	.+8      	; 0x6728 <strrev+0x18>
    6720:	7c 91       	ld	r23, X
    6722:	6d 93       	st	X+, r22
    6724:	70 83       	st	Z, r23
    6726:	62 91       	ld	r22, -Z
    6728:	ae 17       	cp	r26, r30
    672a:	bf 07       	cpc	r27, r31
    672c:	c8 f3       	brcs	.-14     	; 0x6720 <strrev+0x10>
    672e:	08 95       	ret

00006730 <eeprom_read_byte>:
    6730:	f9 99       	sbic	0x1f, 1	; 31
    6732:	fe cf       	rjmp	.-4      	; 0x6730 <eeprom_read_byte>
    6734:	92 bd       	out	0x22, r25	; 34
    6736:	81 bd       	out	0x21, r24	; 33
    6738:	f8 9a       	sbi	0x1f, 0	; 31
    673a:	99 27       	eor	r25, r25
    673c:	80 b5       	in	r24, 0x20	; 32
    673e:	08 95       	ret

00006740 <eeprom_write_byte>:
    6740:	26 2f       	mov	r18, r22

00006742 <eeprom_write_r18>:
    6742:	f9 99       	sbic	0x1f, 1	; 31
    6744:	fe cf       	rjmp	.-4      	; 0x6742 <eeprom_write_r18>
    6746:	1f ba       	out	0x1f, r1	; 31
    6748:	92 bd       	out	0x22, r25	; 34
    674a:	81 bd       	out	0x21, r24	; 33
    674c:	20 bd       	out	0x20, r18	; 32
    674e:	0f b6       	in	r0, 0x3f	; 63
    6750:	f8 94       	cli
    6752:	fa 9a       	sbi	0x1f, 2	; 31
    6754:	f9 9a       	sbi	0x1f, 1	; 31
    6756:	0f be       	out	0x3f, r0	; 63
    6758:	01 96       	adiw	r24, 0x01	; 1
    675a:	08 95       	ret

0000675c <__do_global_dtors>:
    675c:	12 e0       	ldi	r17, 0x02	; 2
    675e:	c0 e6       	ldi	r28, 0x60	; 96
    6760:	d2 e0       	ldi	r29, 0x02	; 2
    6762:	03 c0       	rjmp	.+6      	; 0x676a <__do_global_dtors+0xe>
    6764:	fe 01       	movw	r30, r28
    6766:	c2 d8       	rcall	.-3708   	; 0x58ec <__tablejump2__>
    6768:	21 96       	adiw	r28, 0x01	; 1
    676a:	c2 36       	cpi	r28, 0x62	; 98
    676c:	d1 07       	cpc	r29, r17
    676e:	d1 f7       	brne	.-12     	; 0x6764 <__do_global_dtors+0x8>
    6770:	f8 94       	cli

00006772 <__stop_program>:
    6772:	ff cf       	rjmp	.-2      	; 0x6772 <__stop_program>
